(lp0
(i__main__
Movie
p1
(dp2
S'errors'
p3
NsS'movie_name'
p4
S'MysteryOfTheWaxMuseum'
p5
sS'folder_path'
p6
S'//130.60.131.134/studi/Filme/frueher_Film/1018_Mystery_Of_The_Wax_Museum_1933/'
p7
sS'segmentation_path'
p8
(lp9
sS'filemaker_ID'
p10
(lp11
I1018
aI1
aI1
asS'relative_path'
p12
S'frueher_Film/1018_Mystery_Of_The_Wax_Museum_1933/'
p13
sS'has_sub_segmentation'
p14
I00
sS'shots'
p15
NsS'elan_path'
p16
S'//130.60.131.134/studi/Filme/frueher_Film/1018_Mystery_Of_The_Wax_Museum_1933\\1018_1_1_MysteryOfTheWaxMuseum_1933_DVD_Elan.eaf'
p17
sS'needs_segmentation'
p18
I00
sba(i__main__
Movie
p19
(dp20
g3
Nsg4
S'HellsAngels'
p21
sg6
S'//130.60.131.134/studi/Filme/frueher_Film/1062_Hells_Angels_1930/'
p22
sg8
(lp23
sg10
(lp24
I1062
aI1
aI3
asg12
S'frueher_Film/1062_Hells_Angels_1930/'
p25
sg14
I00
sg15
Nsg16
S'//130.60.131.134/studi/Filme/frueher_Film/1062_Hells_Angels_1930\\1062_1_3_HellsAngels_1930_DVD_ELAN.eaf'
p26
sg18
I00
sba(i__main__
Movie
p27
(dp28
g3
Nsg4
S'K\xf6rkarlen'
p29
sg6
S'//130.60.131.134/studi/Filme/frueher_Film/1081_K\xf6rkarlen_1921/'
p30
sg8
(lp31
sg10
(lp32
I1081
aI1
aI1
asg12
S'frueher_Film/1081_K\xf6rkarlen_1921/'
p33
sg14
I00
sg15
Nsg16
S'//130.60.131.134/studi/Filme/frueher_Film/1081_K\xf6rkarlen_1921\\1081_1_1_K\xf6rkarlen_1921_DVD_ELAN.eaf'
p34
sg18
I00
sba(i__main__
Movie
p35
(dp36
g3
Nsg4
S'GoldDiggersOfBroadway'
p37
sg6
S'//130.60.131.134/studi/Filme/frueher_Film/142_Gold_Diggers_of_Broadway_1929/'
p38
sg8
(lp39
sg10
(lp40
I142
aI1
aI1
asg12
S'frueher_Film/142_Gold_Diggers_of_Broadway_1929/'
p41
sg14
I00
sg15
Nsg16
S'//130.60.131.134/studi/Filme/frueher_Film/142_Gold_Diggers_of_Broadway_1929\\142_1_1_GoldDiggersOfBroadway_1929_DVD_ELAN.eaf'
p42
sg18
I00
sba(i__main__
Movie
p43
(dp44
g3
Nsg4
S'CosmopolitanLondon'
p45
sg6
S'//130.60.131.134/studi/Filme/frueher_Film/158_Cosmopolitan_London_1924/'
p46
sg8
(lp47
sg10
(lp48
I158
aI1
aI1
asg12
S'frueher_Film/158_Cosmopolitan_London_1924/'
p49
sg14
I00
sg15
Nsg16
S'//130.60.131.134/studi/Filme/frueher_Film/158_Cosmopolitan_London_1924\\CosmopolitanLondon.eaf'
p50
sg18
I00
sba(i__main__
Movie
p51
(dp52
g3
Nsg4
S'Gribiche'
p53
sg6
S'//130.60.131.134/studi/Filme/frueher_Film/161_Gribiche_1926/'
p54
sg8
(lp55
S'//130.60.131.134/studi/Filme/frueher_Film/161_Gribiche_1926\\161_1_1_Gribiche_1926_DVD_ELAN.txt'
p56
asg10
(lp57
I161
aI1
aI1
asg12
S'frueher_Film/161_Gribiche_1926/'
p58
sg14
I00
sg15
Nsg16
S'//130.60.131.134/studi/Filme/frueher_Film/161_Gribiche_1926\\161_1_1_Gribiche_1926_DVD_ELAN.eaf'
p59
sg18
I00
sba(i__main__
Movie
p60
(dp61
g3
Nsg4
S'BrasierArdent'
p62
sg6
S'//130.60.131.134/studi/Filme/frueher_Film/163_Brasier_Ardent_1923/'
p63
sg8
(lp64
sg10
(lp65
I163
aI1
aI1
asg12
S'frueher_Film/163_Brasier_Ardent_1923/'
p66
sg14
I00
sg15
Nsg16
S'//130.60.131.134/studi/Filme/frueher_Film/163_Brasier_Ardent_1923\\163_1_1_BrasierArdent_1923_DVD_ELAN.eaf'
p67
sg18
I00
sba(i__main__
Movie
p68
(dp69
g3
Nsg4
S'Mauprat'
p70
sg6
S'//130.60.131.134/studi/Filme/frueher_Film/164_Mauprat_1926/'
p71
sg8
(lp72
sg10
(lp73
I164
aI1
aI1
asg12
S'frueher_Film/164_Mauprat_1926/'
p74
sg14
I00
sg15
Nsg16
S'//130.60.131.134/studi/Filme/frueher_Film/164_Mauprat_1926\\164_1_1_Mauprat_1926_DVD_Elan.eaf'
p75
sg18
I00
sba(i__main__
Movie
p76
(dp77
g3
Nsg4
S'LeVoyageDansLaLune'
p78
sg6
S'//130.60.131.134/studi/Filme/frueher_Film/166_Le_Voyage_Dans_La_Lune_1902/'
p79
sg8
(lp80
sg10
(lp81
I166
aI1
aI1
asg12
S'frueher_Film/166_Le_Voyage_Dans_La_Lune_1902/'
p82
sg14
I00
sg15
Nsg16
S'//130.60.131.134/studi/Filme/frueher_Film/166_Le_Voyage_Dans_La_Lune_1902\\166_1_1_LeVoyageDansLaLune_1902_DVD_ELAN_UF.eaf'
p83
sg18
I00
sba(i__main__
Movie
p84
(dp85
g3
Nsg4
S'LaRoue'
p86
sg6
S'//130.60.131.134/studi/Filme/frueher_Film/167_La_Roue_1923/167_1_1_LaRoue_1923_DVD/'
p87
sg8
(lp88
sg10
(lp89
I167
aI1
aI1
asg12
S'frueher_Film/167_La_Roue_1923/167_1_1_LaRoue_1923_DVD/'
p90
sg14
I00
sg15
Nsg16
S'//130.60.131.134/studi/Filme/frueher_Film/167_La_Roue_1923/167_1_1_LaRoue_1923_DVD\\167_1_1_LaRoue_1923_DVD_ELAN.eaf'
p91
sg18
I00
sba(i__main__
Movie
p92
(dp93
g3
Nsg4
S'LaRoue'
p94
sg6
S'//130.60.131.134/studi/Filme/frueher_Film/167_La_Roue_1923/167_1_2_LaRoue_1923_DVD/'
p95
sg8
(lp96
sg10
(lp97
I167
aI1
aI2
asg12
S'frueher_Film/167_La_Roue_1923/167_1_2_LaRoue_1923_DVD/'
p98
sg14
I00
sg15
Nsg16
S'//130.60.131.134/studi/Filme/frueher_Film/167_La_Roue_1923/167_1_2_LaRoue_1923_DVD\\167_1_2_LaRoue_1923_DVD_ELAN.eaf'
p99
sg18
I00
sba(i__main__
Movie
p100
(dp101
g3
Nsg4
S'DieFinanzenDesGrossherzogs'
p102
sg6
S'//130.60.131.134/studi/Filme/frueher_Film/169_Die_Finanzen_des_Grossherzogs_1924/'
p103
sg8
(lp104
sg10
(lp105
I169
aI1
aI1
asg12
S'frueher_Film/169_Die_Finanzen_des_Grossherzogs_1924/'
p106
sg14
I00
sg15
Nsg16
S'//130.60.131.134/studi/Filme/frueher_Film/169_Die_Finanzen_des_Grossherzogs_1924\\169_1_1_DieFinanzenDesGrossherzogs_1924_DVD_ELAN.eaf'
p107
sg18
I00
sba(i__main__
Movie
p108
(dp109
g3
Nsg4
S'FlowersofLondon'
p110
sg6
S'//130.60.131.134/studi/Filme/frueher_Film/171_Flowers_of_London_1924/'
p111
sg8
(lp112
sg10
(lp113
I171
aI1
aI1
asg12
S'frueher_Film/171_Flowers_of_London_1924/'
p114
sg14
I00
sg15
Nsg16
S'//130.60.131.134/studi/Filme/frueher_Film/171_Flowers_of_London_1924\\171_1_1_FlowersofLondon_1924_DVD_Elan.eaf'
p115
sg18
I00
sba(i__main__
Movie
p116
(dp117
g3
Nsg4
S'LondonsFreeShows'
p118
sg6
S'//130.60.131.134/studi/Filme/frueher_Film/172_Londons_Free_Shows_1924/'
p119
sg8
(lp120
sg10
(lp121
I172
aI1
aI1
asg12
S'frueher_Film/172_Londons_Free_Shows_1924/'
p122
sg14
I00
sg15
Nsg16
S'//130.60.131.134/studi/Filme/frueher_Film/172_Londons_Free_Shows_1924\\172_1_1_LondonsFreeShows_1924_DVD_Elan.eaf'
p123
sg18
I00
sba(i__main__
Movie
p124
(dp125
g3
Nsg4
S'BargingThroughLondon'
p126
sg6
S'//130.60.131.134/studi/Filme/frueher_Film/173_Barging_Through_London_1924/'
p127
sg8
(lp128
sg10
(lp129
I173
aI1
aI1
asg12
S'frueher_Film/173_Barging_Through_London_1924/'
p130
sg14
I00
sg15
Nsg16
S'//130.60.131.134/studi/Filme/frueher_Film/173_Barging_Through_London_1924\\173_1_1_BargingThroughLondon_1924_DVD_ELAN.eaf'
p131
sg18
I00
sba(i__main__
Movie
p132
(dp133
g3
Nsg4
S'LondonsFreeShows'
p134
sg6
S'//130.60.131.134/studi/Filme/frueher_Film/174_Londons_Sunday_1924/'
p135
sg8
(lp136
sg10
(lp137
I172
aI1
aI1
asg12
S'frueher_Film/174_Londons_Sunday_1924/'
p138
sg14
I00
sg15
Nsg16
S'//130.60.131.134/studi/Filme/frueher_Film/174_Londons_Sunday_1924\\172_1_1_LondonsFreeShows_1924_DVD_Elan.eaf'
p139
sg18
I00
sba(i__main__
Movie
p140
(dp141
g3
Nsg4
S'LondonoftheTrack'
p142
sg6
S'//130.60.131.134/studi/Filme/frueher_Film/175_London_Off_the_Track_1924/'
p143
sg8
(lp144
sg10
(lp145
I175
aI1
aI1
asg12
S'frueher_Film/175_London_Off_the_Track_1924/'
p146
sg14
I00
sg15
Nsg16
S'//130.60.131.134/studi/Filme/frueher_Film/175_London_Off_the_Track_1924\\175_1_1_LondonoftheTrack_1924_DVD_Elan.eaf'
p147
sg18
I00
sba(i__main__
Movie
p148
(dp149
g3
Nsg4
S'Phantom'
p150
sg6
S'//130.60.131.134/studi/Filme/frueher_Film/176_Phantom_1922/'
p151
sg8
(lp152
sg10
(lp153
I176
aI1
aI1
asg12
S'frueher_Film/176_Phantom_1922/'
p154
sg14
I00
sg15
Nsg16
S'//130.60.131.134/studi/Filme/frueher_Film/176_Phantom_1922\\176_1_1_Phantom_1922_DVD_ELAN.eaf'
p155
sg18
I00
sba(i__main__
Movie
p156
(dp157
g3
Nsg4
S'Der'
p158
sg6
S'//130.60.131.134/studi/Filme/frueher_Film/188_Der_m\xfcde_Tod_1921/'
p159
sg8
(lp160
sg10
(lp161
I188
aI1
aI1
asg12
S'frueher_Film/188_Der_m\xfcde_Tod_1921/'
p162
sg14
I00
sg15
Nsg16
S'//130.60.131.134/studi/Filme/frueher_Film/188_Der_m\xfcde_Tod_1921\\188_1_1_Der_Muede_Tod_1921_ELAN.eaf'
p163
sg18
I00
sba(i__main__
Movie
p164
(dp165
g3
Nsg4
S'VoyageSurJupiter'
p166
sg6
S'//130.60.131.134/studi/Filme/frueher_Film/189_Voyage_sur_Jupiter_1909/'
p167
sg8
(lp168
sg10
(lp169
I189
aI1
aI1
asg12
S'frueher_Film/189_Voyage_sur_Jupiter_1909/'
p170
sg14
I00
sg15
Nsg16
S'//130.60.131.134/studi/Filme/frueher_Film/189_Voyage_sur_Jupiter_1909\\189_1_1_VoyageSurJupiter_1909_DVD_ELAN.eaf'
p171
sg18
I00
sba(i__main__
Movie
p172
(dp173
g3
Nsg4
S'ModeDeParis'
p174
sg6
S'//130.60.131.134/studi/Filme/frueher_Film/190_Mode_de_Paris_1926/'
p175
sg8
(lp176
sg10
(lp177
I190
aI1
aI1
asg12
S'frueher_Film/190_Mode_de_Paris_1926/'
p178
sg14
I00
sg15
Nsg16
S'//130.60.131.134/studi/Filme/frueher_Film/190_Mode_de_Paris_1926\\190_1_1_ModeDeParis_1926_DVD_ELAN.eaf'
p179
sg18
I00
sba(i__main__
Movie
p180
(dp181
g3
Nsg4
S'LesRosesMagiques'
p182
sg6
S'//130.60.131.134/studi/Filme/frueher_Film/191_Les_Roses_Magiques_1906/'
p183
sg8
(lp184
sg10
(lp185
I191
aI1
aI1
asg12
S'frueher_Film/191_Les_Roses_Magiques_1906/'
p186
sg14
I00
sg15
Nsg16
S'//130.60.131.134/studi/Filme/frueher_Film/191_Les_Roses_Magiques_1906\\191_1_1_LesRosesMagiques_DVD_ELAN.eaf'
p187
sg18
I00
sba(i__main__
Movie
p188
(dp189
g3
Nsg4
S'SchattenEineNaechtlicheHalluzination'
p190
sg6
S'//130.60.131.134/studi/Filme/frueher_Film/192_Schatten_Eine_naechtliche_Halluzination_1923/'
p191
sg8
(lp192
sg10
(lp193
I192
aI1
aI1
asg12
S'frueher_Film/192_Schatten_Eine_naechtliche_Halluzination_1923/'
p194
sg14
I00
sg15
Nsg16
S'//130.60.131.134/studi/Filme/frueher_Film/192_Schatten_Eine_naechtliche_Halluzination_1923\\192_1_1_SchattenEineNaechtlicheHalluzination_1923_ELAN.eaf'
p195
sg18
I00
sba(i__main__
Movie
p196
(dp197
g3
Nsg4
S'LaVieEtLaPassionDeJesusChrist'
p198
sg6
S'//130.60.131.134/studi/Filme/frueher_Film/194_La_Vie_et_la_Passion_de_Jesus_Christ_1903/'
p199
sg8
(lp200
sg10
(lp201
I194
aI1
aI1
asg12
S'frueher_Film/194_La_Vie_et_la_Passion_de_Jesus_Christ_1903/'
p202
sg14
I00
sg15
Nsg16
S'//130.60.131.134/studi/Filme/frueher_Film/194_La_Vie_et_la_Passion_de_Jesus_Christ_1903\\194_1_1_LaVieEtLaPassionDeJesusChrist_1903_DVD_Elan.eaf'
p203
sg18
I00
sba(i__main__
Movie
p204
(dp205
g3
Nsg4
S'Linhumaine'
p206
sg6
S'//130.60.131.134/studi/Filme/frueher_Film/197_Linhumaine_1923/'
p207
sg8
(lp208
sg10
(lp209
I197
aI1
aI1
asg12
S'frueher_Film/197_Linhumaine_1923/'
p210
sg14
I00
sg15
Nsg16
S'//130.60.131.134/studi/Filme/frueher_Film/197_Linhumaine_1923\\197_1_1_Linhumaine_1923_DVD_Elan.eaf'
p211
sg18
I00
sba(i__main__
Movie
p212
(dp213
g3
Nsg4
S'MortDeMarat'
p214
sg6
S'//130.60.131.134/studi/Filme/frueher_Film/198_Mort_de_Marat_1897/'
p215
sg8
(lp216
sg10
(lp217
I198
aI1
aI1
asg12
S'frueher_Film/198_Mort_de_Marat_1897/'
p218
sg14
I00
sg15
Nsg16
S'//130.60.131.134/studi/Filme/frueher_Film/198_Mort_de_Marat_1897\\198_1_1_MortDeMarat_DVD_ELAN.eaf'
p219
sg18
I00
sba(i__main__
Movie
p220
(dp221
g3
Nsg4
S'RapsodiaSatanica'
p222
sg6
S'//130.60.131.134/studi/Filme/frueher_Film/199_Rapsodia_Satanica_1917/'
p223
sg8
(lp224
sg10
(lp225
I199
aI1
aI1
asg12
S'frueher_Film/199_Rapsodia_Satanica_1917/'
p226
sg14
I00
sg15
Nsg16
S'//130.60.131.134/studi/Filme/frueher_Film/199_Rapsodia_Satanica_1917\\199_1_1_RapsodiaSatanica_1917_ELAN.eaf'
p227
sg18
I00
sba(i__main__
Movie
p228
(dp229
g3
Nsg4
S'Nosferatu'
p230
sg6
S'//130.60.131.134/studi/Filme/frueher_Film/200_Nosferatu_Eine_Symphonie_des_Grauens_1922/'
p231
sg8
(lp232
S'//130.60.131.134/studi/Filme/frueher_Film/200_Nosferatu_Eine_Symphonie_des_Grauens_1922\\200_1_1_Nosferatu_1922_DVD_ELAN_txt.txt'
p233
asg10
(lp234
I200
aI1
aI1
asg12
S'frueher_Film/200_Nosferatu_Eine_Symphonie_des_Grauens_1922/'
p235
sg14
I00
sg15
Nsg16
S'//130.60.131.134/studi/Filme/frueher_Film/200_Nosferatu_Eine_Symphonie_des_Grauens_1922\\200_1_1_Nosferatu_1922_DVD_ELAN.eaf'
p236
sg18
I00
sba(i__main__
Movie
p237
(dp238
g3
Nsg4
S'BenHurATaleOfChrist'
p239
sg6
S'//130.60.131.134/studi/Filme/frueher_Film/201_Ben_Hur_A_Tale_of_Christ_1925/'
p240
sg8
(lp241
sg10
(lp242
I201
aI1
aI1
asg12
S'frueher_Film/201_Ben_Hur_A_Tale_of_Christ_1925/'
p243
sg14
I00
sg15
Nsg16
S'//130.60.131.134/studi/Filme/frueher_Film/201_Ben_Hur_A_Tale_of_Christ_1925\\201_1_1_BenHurATaleOfChrist_1925_DVD_ELAN_UF.eaf'
p244
sg18
I00
sba(i__main__
Movie
p245
(dp246
g3
Nsg4
S'ImBad'
p247
sg6
S'//130.60.131.134/studi/Filme/frueher_Film/2020_Im_Bad_1917/'
p248
sg8
(lp249
S'//130.60.131.134/studi/Filme/frueher_Film/2020_Im_Bad_1917\\2020_1_3_ImBad_1917_ELAN.txt'
p250
asg10
(lp251
I2020
aI1
aI3
asg12
S'frueher_Film/2020_Im_Bad_1917/'
p252
sg14
I00
sg15
Nsg16
S'//130.60.131.134/studi/Filme/frueher_Film/2020_Im_Bad_1917\\2020_1_3_ImBad_1917_ELAN.eaf'
p253
sg18
I00
sba(i__main__
Movie
p254
(dp255
g3
Nsg4
S'LesPapillonsJaponais'
p256
sg6
S'//130.60.131.134/studi/Filme/frueher_Film/202_Les_papillons_japonais_1908/'
p257
sg8
(lp258
sg10
(lp259
I202
aI1
aI1
asg12
S'frueher_Film/202_Les_papillons_japonais_1908/'
p260
sg14
I00
sg15
Nsg16
S'//130.60.131.134/studi/Filme/frueher_Film/202_Les_papillons_japonais_1908\\202_1_1_LesPapillonsJaponais_1908_ELAN.eaf'
p261
sg18
I00
sba(i__main__
Movie
p262
(dp263
g3
Nsg4
S'DieAbenteuerDesPrinzenAchmed'
p264
sg6
S'//130.60.131.134/studi/Filme/frueher_Film/204_Die_Abenteuer_des_Prinzen_Achmed_1925/'
p265
sg8
(lp266
sg10
(lp267
I204
aI1
aI1
asg12
S'frueher_Film/204_Die_Abenteuer_des_Prinzen_Achmed_1925/'
p268
sg14
I00
sg15
Nsg16
S'//130.60.131.134/studi/Filme/frueher_Film/204_Die_Abenteuer_des_Prinzen_Achmed_1925\\204_1_1_DieAbenteuerDesPrinzenAchmed_1925_DVD_ELAN_UF.eaf'
p269
sg18
I00
sba(i__main__
Movie
p270
(dp271
g3
Nsg4
S'AladinOuLLampeMerveilleuse'
p272
sg6
S'//130.60.131.134/studi/Filme/frueher_Film/206_Aladin_Ou_La_Lampe_Merveilleuse_1906/'
p273
sg8
(lp274
sg10
(lp275
I206
aI1
aI1
asg12
S'frueher_Film/206_Aladin_Ou_La_Lampe_Merveilleuse_1906/'
p276
sg14
I00
sg15
Nsg16
S'//130.60.131.134/studi/Filme/frueher_Film/206_Aladin_Ou_La_Lampe_Merveilleuse_1906\\206_1_1_AladinOuLLampeMerveilleuse_1906_DVD_ELAN.eaf'
p277
sg18
I00
sba(i__main__
Movie
p278
(dp279
g3
Nsg4
S'DasCabinetDesDrCaligari'
p280
sg6
S'//130.60.131.134/studi/Filme/frueher_Film/208_Das_Cabinet_des_Dr_Caligari_1919/'
p281
sg8
(lp282
sg10
(lp283
I208
aI1
aI1
asg12
S'frueher_Film/208_Das_Cabinet_des_Dr_Caligari_1919/'
p284
sg14
I00
sg15
Nsg16
S'//130.60.131.134/studi/Filme/frueher_Film/208_Das_Cabinet_des_Dr_Caligari_1919\\208_1_1_DasCabinetDesDrCaligari_1919_DVD_ELAN.eaf'
p285
sg18
I00
sba(i__main__
Movie
p286
(dp287
g3
Nsg4
S'DerStudentvonPrag'
p288
sg6
S'//130.60.131.134/studi/Filme/frueher_Film/211_Der_Student_von_Prag_1913/'
p289
sg8
(lp290
sg10
(lp291
I211
aI1
aI1
asg12
S'frueher_Film/211_Der_Student_von_Prag_1913/'
p292
sg14
I00
sg15
Nsg16
S'//130.60.131.134/studi/Filme/frueher_Film/211_Der_Student_von_Prag_1913\\211_1_1_DerStudentvonPrag_1913_DVD_Elan.eaf'
p293
sg18
I00
sba(i__main__
Movie
p294
(dp295
g3
Nsg4
S'H\xe4xan'
p296
sg6
S'//130.60.131.134/studi/Filme/frueher_Film/217_Haxan_1922/'
p297
sg8
(lp298
sg10
(lp299
I217
aI1
aI1
asg12
S'frueher_Film/217_Haxan_1922/'
p300
sg14
I00
sg15
Nsg16
S'//130.60.131.134/studi/Filme/frueher_Film/217_Haxan_1922\\217_H\xe4xan_1922_DVD_ELAN.eaf'
p301
sg18
I00
sba(i__main__
Movie
p302
(dp303
g3
Nsg4
S'LaRevueDesRevues'
p304
sg6
S'//130.60.131.134/studi/Filme/frueher_Film/219_La_revue_des_revues_1927/'
p305
sg8
(lp306
sg10
(lp307
I219
aI1
aI1
asg12
S'frueher_Film/219_La_revue_des_revues_1927/'
p308
sg14
I00
sg15
Nsg16
S'//130.60.131.134/studi/Filme/frueher_Film/219_La_revue_des_revues_1927\\219_1_1_LaRevueDesRevues_1927_DVD_ELAN.eaf'
p309
sg18
I00
sba(i__main__
Movie
p310
(dp311
g3
Nsg4
S'TheLodger'
p312
sg6
S'//130.60.131.134/studi/Filme/frueher_Film/222_The_Lodger_1926/'
p313
sg8
(lp314
sg10
(lp315
I222
aI1
aI1
asg12
S'frueher_Film/222_The_Lodger_1926/'
p316
sg14
I00
sg15
Nsg16
S'//130.60.131.134/studi/Filme/frueher_Film/222_The_Lodger_1926\\222_1_1_TheLodger_1926_DVD_Elan.eaf'
p317
sg18
I00
sba(i__main__
Movie
p318
(dp319
g3
Nsg4
S'TheFluteOfKrishna'
p320
sg6
S'//130.60.131.134/studi/Filme/frueher_Film/269_The_Flute_Of_Krishna_1926/'
p321
sg8
(lp322
sg10
(lp323
I269
aI1
aI2
asg12
S'frueher_Film/269_The_Flute_Of_Krishna_1926/'
p324
sg14
I00
sg15
Nsg16
S'//130.60.131.134/studi/Filme/frueher_Film/269_The_Flute_Of_Krishna_1926\\269_1_2_TheFluteOfKrishna_1926_DVD_Elan.eaf'
p325
sg18
I00
sba(i__main__
Movie
p326
(dp327
g3
Nsg4
S'JoanTheWoman'
p328
sg6
S'//130.60.131.134/studi/Filme/frueher_Film/26_Joan_the_Woman_1916/'
p329
sg8
(lp330
sg10
(lp331
I26
aI1
aI1
asg12
S'frueher_Film/26_Joan_the_Woman_1916/'
p332
sg14
I00
sg15
Nsg16
S'//130.60.131.134/studi/Filme/frueher_Film/26_Joan_the_Woman_1916\\26_1_1_JoanTheWoman_1916_DVD_ELAN.eaf'
p333
sg18
I00
sba(i__main__
Movie
p334
(dp335
g3
Nsg4
S'Doctor'
p336
sg6
S'//130.60.131.134/studi/Filme/frueher_Film/306_Doctor_X_1932/'
p337
sg8
(lp338
sg10
(lp339
I306
aI1
aI2
asg12
S'frueher_Film/306_Doctor_X_1932/'
p340
sg14
I00
sg15
Nsg16
S'//130.60.131.134/studi/Filme/frueher_Film/306_Doctor_X_1932\\306_1_2_Doctor_X_1932_DVD_ELAN.eaf'
p341
sg18
I00
sba(i__main__
Movie
p342
(dp343
g3
Nsg4
S'Wagon'
p344
sg6
S'//130.60.131.134/studi/Filme/frueher_Film/3076_Wagon_Tracks_1919/'
p345
sg8
(lp346
sg10
(lp347
I3076
aI1
aI1
asg12
S'frueher_Film/3076_Wagon_Tracks_1919/'
p348
sg14
I00
sg15
Nsg16
S'//130.60.131.134/studi/Filme/frueher_Film/3076_Wagon_Tracks_1919\\3076_1_1_Wagon_Tracks_1919_DVD_ELAN.eaf'
p349
sg18
I00
sba(i__main__
Movie
p350
(dp351
g3
Nsg4
S'LaPeineDuTalion'
p352
sg6
S'//130.60.131.134/studi/Filme/frueher_Film/3099_La_Peine_Du_Talion_1906/'
p353
sg8
(lp354
sg10
(lp355
I3099
aI1
aI1
asg12
S'frueher_Film/3099_La_Peine_Du_Talion_1906/'
p356
sg14
I00
sg15
Nsg16
S'//130.60.131.134/studi/Filme/frueher_Film/3099_La_Peine_Du_Talion_1906\\3099_1_1_LaPeineDuTalion_1906_DVD_Elan.eaf'
p357
sg18
I00
sba(i__main__
Movie
p358
(dp359
g3
Nsg4
S'MadameDubarry'
p360
sg6
S'//130.60.131.134/studi/Filme/frueher_Film/3103_Madame_Dubarry_1919/'
p361
sg8
(lp362
sg10
(lp363
I3101
aI1
aI1
asg12
S'frueher_Film/3103_Madame_Dubarry_1919/'
p364
sg14
I00
sg15
Nsg16
S'//130.60.131.134/studi/Filme/frueher_Film/3103_Madame_Dubarry_1919\\3101_1_1_MadameDubarry_1919_DVD_Elan.eaf'
p365
sg18
I00
sba(i__main__
Movie
p366
(dp367
g3
Nsg4
S'DasWachsfigurenkabinett'
p368
sg6
S'//130.60.131.134/studi/Filme/frueher_Film/3104_Das_Wachsfigurenkabinett_1923/'
p369
sg8
(lp370
sg10
(lp371
I3104
aI1
aI1
asg12
S'frueher_Film/3104_Das_Wachsfigurenkabinett_1923/'
p372
sg14
I00
sg15
Nsg16
S'//130.60.131.134/studi/Filme/frueher_Film/3104_Das_Wachsfigurenkabinett_1923\\3104_1_1_DasWachsfigurenkabinett_1923_DVD_Elan.eaf'
p373
sg18
I00
sba(i__main__
Movie
p374
(dp375
g3
Nsg4
S'PosleSmerti'
p376
sg6
S'//130.60.131.134/studi/Filme/frueher_Film/3109_Posle_Smerti_1915/'
p377
sg8
(lp378
sg10
(lp379
I3109
aI1
aI1
asg12
S'frueher_Film/3109_Posle_Smerti_1915/'
p380
sg14
I00
sg15
Nsg16
S'//130.60.131.134/studi/Filme/frueher_Film/3109_Posle_Smerti_1915\\3109_1_1_PosleSmerti_1915_DVD_ELAN.eaf'
p381
sg18
I00
sba(i__main__
Movie
p382
(dp383
g3
Nsg4
S'AliBabaEtLesQuaranteVoleurs'
p384
sg6
S'//130.60.131.134/studi/Filme/frueher_Film/3112_Ali_Baba_et_les_Quarante_Voleurs_1902/'
p385
sg8
(lp386
sg10
(lp387
I3112
aI1
aI1
asg12
S'frueher_Film/3112_Ali_Baba_et_les_Quarante_Voleurs_1902/'
p388
sg14
I00
sg15
Nsg16
S'//130.60.131.134/studi/Filme/frueher_Film/3112_Ali_Baba_et_les_Quarante_Voleurs_1902\\3112_1_1_AliBabaEtLesQuaranteVoleurs_1902_DVD_ELAN.eaf'
p389
sg18
I00
sba(i__main__
Movie
p390
(dp391
g3
Nsg4
S'Salome'
p392
sg6
S'//130.60.131.134/studi/Filme/frueher_Film/3118_Salome_1922/'
p393
sg8
(lp394
sg10
(lp395
I3118
aI1
aI1
asg12
S'frueher_Film/3118_Salome_1922/'
p396
sg14
I00
sg15
Nsg16
S'//130.60.131.134/studi/Filme/frueher_Film/3118_Salome_1922\\3118_1_1_Salome_1922_DVD_ELAN.eaf'
p397
sg18
I00
sba(i__main__
Movie
p398
(dp399
g3
Nsg4
S'SuperstitionAndalouse'
p400
sg6
S'//130.60.131.134/studi/Filme/frueher_Film/3146_Superstition_Andalouse_1912/'
p401
sg8
(lp402
sg10
(lp403
I3146
aI1
aI1
asg12
S'frueher_Film/3146_Superstition_Andalouse_1912/'
p404
sg14
I00
sg15
Nsg16
S'//130.60.131.134/studi/Filme/frueher_Film/3146_Superstition_Andalouse_1912\\3146_1_1_SuperstitionAndalouse_1912_DVD_ELAN.eaf'
p405
sg18
I00
sba(i__main__
Movie
p406
(dp407
g3
Nsg4
S'LesOeufsDePaques'
p408
sg6
S'//130.60.131.134/studi/Filme/frueher_Film/3156_Les_Oeufs_De_Paques_1907/'
p409
sg8
(lp410
sg10
(lp411
I3156
aI1
aI1
asg12
S'frueher_Film/3156_Les_Oeufs_De_Paques_1907/'
p412
sg14
I00
sg15
Nsg16
S'//130.60.131.134/studi/Filme/frueher_Film/3156_Les_Oeufs_De_Paques_1907\\3156_1_1_LesOeufsDePaques_1907_DVD_ELAN.eaf'
p413
sg18
I00
sba(i__main__
Movie
p414
(dp415
g3
Nsg4
S'LoieFuller'
p416
sg6
S'//130.60.131.134/studi/Filme/frueher_Film/3157_Loie_Fuller_1905/'
p417
sg8
(lp418
sg10
(lp419
I3157
aI1
aI1
asg12
S'frueher_Film/3157_Loie_Fuller_1905/'
p420
sg14
I00
sg15
Nsg16
S'//130.60.131.134/studi/Filme/frueher_Film/3157_Loie_Fuller_1905\\3157_1_1_LoieFuller_1905_DVD_ELAN.eaf'
p421
sg18
I00
sba(i__main__
Movie
p422
(dp423
g3
Nsg4
S'UnDrameAuFondDeLaMer'
p424
sg6
S'//130.60.131.134/studi/Filme/frueher_Film/3159_Un_Drame_Au_Fond_De_La_Mer_1901/'
p425
sg8
(lp426
sg10
(lp427
I3159
aI1
aI1
asg12
S'frueher_Film/3159_Un_Drame_Au_Fond_De_La_Mer_1901/'
p428
sg14
I00
sg15
Nsg16
S'//130.60.131.134/studi/Filme/frueher_Film/3159_Un_Drame_Au_Fond_De_La_Mer_1901\\3159_1_1_UnDrameAuFondDeLaMer_1901_DVD_ELAN.eaf'
p429
sg18
I00
sba(i__main__
Movie
p430
(dp431
g3
Nsg4
S'TheLoveCharm'
p432
sg6
S'//130.60.131.134/studi/Filme/frueher_Film/3161_The_Love_Charm_1928/'
p433
sg8
(lp434
sg10
(lp435
I3161
aI1
aI1
asg12
S'frueher_Film/3161_The_Love_Charm_1928/'
p436
sg14
I00
sg15
Nsg16
S'//130.60.131.134/studi/Filme/frueher_Film/3161_The_Love_Charm_1928\\3161_1_1_TheLoveCharm_1928_DVD_ELAN.eaf'
p437
sg18
I00
sba(i__main__
Movie
p438
(dp439
g3
Nsg4
S"L'Atlantide"
p440
sg6
S'//130.60.131.134/studi/Filme/frueher_Film/3165_LAtlantide_1921/'
p441
sg8
(lp442
sg10
(lp443
I3165
aI1
aI1
asg12
S'frueher_Film/3165_LAtlantide_1921/'
p444
sg14
I00
sg15
Nsg16
S"//130.60.131.134/studi/Filme/frueher_Film/3165_LAtlantide_1921\\3165_1_1_L'Atlantide_1921_ELAN.eaf"
p445
sg18
I00
sba(i__main__
Movie
p446
(dp447
g3
Nsg4
S'LaLegendeDuFantome'
p448
sg6
S'//130.60.131.134/studi/Filme/frueher_Film/3180_La_Legende_Du_Fantome_1908/'
p449
sg8
(lp450
sg10
(lp451
I3180
aI1
aI1
asg12
S'frueher_Film/3180_La_Legende_Du_Fantome_1908/'
p452
sg14
I00
sg15
Nsg16
S'//130.60.131.134/studi/Filme/frueher_Film/3180_La_Legende_Du_Fantome_1908\\3180_1_1_LaLegendeDuFantome_1908_DVD_ELAN.eaf'
p453
sg18
I00
sba(i__main__
Movie
p454
(dp455
g3
Nsg4
S'LeRoiDesDollars'
p456
sg6
S'//130.60.131.134/studi/Filme/frueher_Film/3182_Le_Roi_Des_Dollars_1905/'
p457
sg8
(lp458
sg10
(lp459
I3182
aI1
aI1
asg12
S'frueher_Film/3182_Le_Roi_Des_Dollars_1905/'
p460
sg14
I00
sg15
Nsg16
S'//130.60.131.134/studi/Filme/frueher_Film/3182_Le_Roi_Des_Dollars_1905\\3182_1_1_LeRoiDesDollars_1905_DVD_Elan.eaf'
p461
sg18
I00
sba(i__main__
Movie
p462
(dp463
g3
Nsg4
S'LAlbumMerveilleux'
p464
sg6
S'//130.60.131.134/studi/Filme/frueher_Film/3186_LAlbum_Merveilleux_1905/'
p465
sg8
(lp466
sg10
(lp467
I3186
aI1
aI1
asg12
S'frueher_Film/3186_LAlbum_Merveilleux_1905/'
p468
sg14
I00
sg15
Nsg16
S'//130.60.131.134/studi/Filme/frueher_Film/3186_LAlbum_Merveilleux_1905\\3186_LAlbumMerveilleux_1905_DVD_ELAN.eaf'
p469
sg18
I00
sba(i__main__
Movie
p470
(dp471
g3
Nsg4
S'LaPouleAuxOeufsDor'
p472
sg6
S'//130.60.131.134/studi/Filme/frueher_Film/31_La_Poule_Aux_Oeufs_Dor_1905/'
p473
sg8
(lp474
sg10
(lp475
I31
aI1
aI2
asg12
S'frueher_Film/31_La_Poule_Aux_Oeufs_Dor_1905/'
p476
sg14
I00
sg15
Nsg16
S'//130.60.131.134/studi/Filme/frueher_Film/31_La_Poule_Aux_Oeufs_Dor_1905\\31_1_2_LaPouleAuxOeufsDor_1905_ELAN.eaf'
p477
sg18
I00
sba(i__main__
Movie
p478
(dp479
g3
Nsg4
S'Japonaiseries'
p480
sg6
S'//130.60.131.134/studi/Filme/frueher_Film/3229_Japonaiseries_1904/'
p481
sg8
(lp482
sg10
(lp483
I3229
aI1
aI1
asg12
S'frueher_Film/3229_Japonaiseries_1904/'
p484
sg14
I00
sg15
Nsg16
S'//130.60.131.134/studi/Filme/frueher_Film/3229_Japonaiseries_1904\\3229_1_1_Japonaiseries_1904_DVD_Elan.eaf'
p485
sg18
I00
sba(i__main__
Movie
p486
(dp487
g3
Nsg4
S'LaFeePrintemps'
p488
sg6
S'//130.60.131.134/studi/Filme/frueher_Film/3230_La_Fee_Printemps_1906/'
p489
sg8
(lp490
sg10
(lp491
I3230
aI1
aI1
asg12
S'frueher_Film/3230_La_Fee_Printemps_1906/'
p492
sg14
I00
sg15
Nsg16
S'//130.60.131.134/studi/Filme/frueher_Film/3230_La_Fee_Printemps_1906\\3230_1_1_LaFeePrintemps_1906_DVD_ELAN.eaf'
p493
sg18
I00
sba(i__main__
Movie
p494
(dp495
g3
Nsg4
S'LaSorciereNoire'
p496
sg6
S'//130.60.131.134/studi/Filme/frueher_Film/3241_La_Sorciere_Noire_1907/'
p497
sg8
(lp498
sg10
(lp499
I3241
aI1
aI1
asg12
S'frueher_Film/3241_La_Sorciere_Noire_1907/'
p500
sg14
I00
sg15
Nsg16
S'//130.60.131.134/studi/Filme/frueher_Film/3241_La_Sorciere_Noire_1907\\3241_1_1_LaSorciereNoire_1907_DVD_ELAN.eaf'
p501
sg18
I00
sba(i__main__
Movie
p502
(dp503
g3
Nsg4
S'LaBelleAuBoisDormant'
p504
sg6
S'//130.60.131.134/studi/Filme/frueher_Film/3248_La_Belle_Au_Bois_Dormant_1908/'
p505
sg8
(lp506
sg10
(lp507
I3248
aI1
aI1
asg12
S'frueher_Film/3248_La_Belle_Au_Bois_Dormant_1908/'
p508
sg14
I00
sg15
Nsg16
S'//130.60.131.134/studi/Filme/frueher_Film/3248_La_Belle_Au_Bois_Dormant_1908\\3248_1_1_LaBelleAuBoisDormant_1908_DVD_ELAN.eaf'
p509
sg18
I00
sba(i__main__
Movie
p510
(dp511
g3
Nsg4
S'ValseExcentrique'
p512
sg6
S'//130.60.131.134/studi/Filme/frueher_Film/3249_Valse_Excentrique_1903/'
p513
sg8
(lp514
sg10
(lp515
I3249
aI1
aI1
asg12
S'frueher_Film/3249_Valse_Excentrique_1903/'
p516
sg14
I00
sg15
Nsg16
S'//130.60.131.134/studi/Filme/frueher_Film/3249_Valse_Excentrique_1903\\3249_1_1_ValseExcentrique_1903_DVD_ELAN.eaf'
p517
sg18
I00
sba(i__main__
Movie
p518
(dp519
g3
Nsg4
S'Der'
p520
sg6
S'//130.60.131.134/studi/Filme/frueher_Film/3250_Der_Golem_oder_wie_er_in_die_Welt_kam_1920/'
p521
sg8
(lp522
sg10
(lp523
I3250
aI1
aI1
asg12
S'frueher_Film/3250_Der_Golem_oder_wie_er_in_die_Welt_kam_1920/'
p524
sg14
I00
sg15
Nsg16
S'//130.60.131.134/studi/Filme/frueher_Film/3250_Der_Golem_oder_wie_er_in_die_Welt_kam_1920\\3250_1_1_Der_GolemOderWieErInDieWeltKam_1920_DVD_ELAN.eaf'
p525
sg18
I00
sba(i__main__
Movie
p526
(dp527
g3
Nsg4
S'Inferno'
p528
sg6
S'//130.60.131.134/studi/Filme/frueher_Film/3370_LInferno_1911/'
p529
sg8
(lp530
sg10
(lp531
I3370
aI1
aI1
asg12
S'frueher_Film/3370_LInferno_1911/'
p532
sg14
I00
sg15
Nsg16
S'//130.60.131.134/studi/Filme/frueher_Film/3370_LInferno_1911\\3370_1_1_Inferno_1911_DVD_ELAN.eaf'
p533
sg18
I00
sba(i__main__
Movie
p534
(dp535
g3
Nsg4
S'BalletDesSylphides'
p536
sg6
S'//130.60.131.134/studi/Filme/frueher_Film/3380_Ballet_Des_Sylphides_1902/'
p537
sg8
(lp538
sg10
(lp539
I3380
aI1
aI1
asg12
S'frueher_Film/3380_Ballet_Des_Sylphides_1902/'
p540
sg14
I00
sg15
Nsg16
S'//130.60.131.134/studi/Filme/frueher_Film/3380_Ballet_Des_Sylphides_1902\\3380_1_1_BalletDesSylphides_1902_DVD_ELAN.eaf'
p541
sg18
I00
sba(i__main__
Movie
p542
(dp543
g3
Nsg4
S'TheWrathOfTheGods'
p544
sg6
S'//130.60.131.134/studi/Filme/frueher_Film/3381_The_Wrath_Of_The_Gods_1914/'
p545
sg8
(lp546
sg10
(lp547
I3381
aI1
aI1
asg12
S'frueher_Film/3381_The_Wrath_Of_The_Gods_1914/'
p548
sg14
I00
sg15
Nsg16
S'//130.60.131.134/studi/Filme/frueher_Film/3381_The_Wrath_Of_The_Gods_1914\\3381_1_1_TheWrathOfTheGods_1914_DVD_ELAN.eaf'
p549
sg18
I00
sba(i__main__
Movie
p550
(dp551
g3
Nsg4
S'TheDragonPainter'
p552
sg6
S'//130.60.131.134/studi/Filme/frueher_Film/3382_The_Dragon_Painter_1919/'
p553
sg8
(lp554
sg10
(lp555
I3382
aI1
aI1
asg12
S'frueher_Film/3382_The_Dragon_Painter_1919/'
p556
sg14
I00
sg15
Nsg16
S'//130.60.131.134/studi/Filme/frueher_Film/3382_The_Dragon_Painter_1919\\3382_1_1_TheDragonPainter_1919_DVD_ELAN.eaf'
p557
sg18
I00
sba(i__main__
Movie
p558
(dp559
g3
Nsg4
S'KiRiKiAcrobatesJaponais'
p560
sg6
S'//130.60.131.134/studi/Filme/frueher_Film/3385_KiRiKi_Acrobates_Japonais_1907/'
p561
sg8
(lp562
sg10
(lp563
I3385
aI1
aI1
asg12
S'frueher_Film/3385_KiRiKi_Acrobates_Japonais_1907/'
p564
sg14
I00
sg15
Nsg16
S'//130.60.131.134/studi/Filme/frueher_Film/3385_KiRiKi_Acrobates_Japonais_1907\\3385_1_1_KiRiKiAcrobatesJaponais_1907_DVD_ELAN.eaf'
p565
sg18
I00
sba(i__main__
Movie
p566
(dp567
g3
Nsg4
S'AmourDesclave'
p568
sg6
S'//130.60.131.134/studi/Filme/frueher_Film/3399_Amour_Desclave_1907/'
p569
sg8
(lp570
sg10
(lp571
I3399
aI1
aI1
asg12
S'frueher_Film/3399_Amour_Desclave_1907/'
p572
sg14
I00
sg15
Nsg16
S'//130.60.131.134/studi/Filme/frueher_Film/3399_Amour_Desclave_1907\\3399_1_1_AmourDesclave_1907_DVD_ELAN.eaf'
p573
sg18
I00
sba(i__main__
Movie
p574
(dp575
g3
Nsg4
S'TerjeVigen'
p576
sg6
S'//130.60.131.134/studi/Filme/frueher_Film/3401_Terje_Vigen_1917/'
p577
sg8
(lp578
sg10
(lp579
I3401
aI1
aI1
asg12
S'frueher_Film/3401_Terje_Vigen_1917/'
p580
sg14
I00
sg15
Nsg16
S'//130.60.131.134/studi/Filme/frueher_Film/3401_Terje_Vigen_1917\\3401_1_1_TerjeVigen_1917_DVD_ELAN.eaf'
p581
sg18
I00
sba(i__main__
Movie
p582
(dp583
g3
Nsg4
S'Fruits'
p584
sg6
S'//130.60.131.134/studi/Filme/frueher_Film/3403_Fruits_1912/'
p585
sg8
(lp586
sg10
(lp587
I3403
aI1
aI1
asg12
S'frueher_Film/3403_Fruits_1912/'
p588
sg14
I00
sg15
Nsg16
S'//130.60.131.134/studi/Filme/frueher_Film/3403_Fruits_1912\\3403_1_1_Fruits_1912_DVD_ELAN.eaf'
p589
sg18
I00
sba(i__main__
Movie
p590
(dp591
g3
Nsg4
S'FeuMathiasPascal'
p592
sg6
S'//130.60.131.134/studi/Filme/frueher_Film/3428_Feu_Mathias_Pascal_1924/'
p593
sg8
(lp594
S'//130.60.131.134/studi/Filme/frueher_Film/3428_Feu_Mathias_Pascal_1924\\3428_1_1_FeuMathiasPascal_1924_ELAN.txt'
p595
asg10
(lp596
I3428
aI1
aI1
asg12
S'frueher_Film/3428_Feu_Mathias_Pascal_1924/'
p597
sg14
I00
sg15
Nsg16
S'//130.60.131.134/studi/Filme/frueher_Film/3428_Feu_Mathias_Pascal_1924\\3428_1_1_FeuMathiasPascal_1924_ELAN.eaf'
p598
sg18
I00
sba(i__main__
Movie
p599
(dp600
g3
Nsg4
S'HerrAgnesPengar'
p601
sg6
S'//130.60.131.134/studi/Filme/frueher_Film/3449_Herr_Arnes_Pengar_1919/'
p602
sg8
(lp603
sg10
(lp604
I3449
aI1
aI1
asg12
S'frueher_Film/3449_Herr_Arnes_Pengar_1919/'
p605
sg14
I00
sg15
Nsg16
S'//130.60.131.134/studi/Filme/frueher_Film/3449_Herr_Arnes_Pengar_1919\\3449_1_1_HerrAgnesPengar_1919_DVD_ELAN.eaf'
p606
sg18
I00
sba(i__main__
Movie
p607
(dp608
g3
Nsg4
S'ZapatasBande'
p609
sg6
S'//130.60.131.134/studi/Filme/frueher_Film/3457_Zapatas_Bande_1914/'
p610
sg8
(lp611
sg10
(lp612
I3457
aI1
aI1
asg12
S'frueher_Film/3457_Zapatas_Bande_1914/'
p613
sg14
I00
sg15
Nsg16
S'//130.60.131.134/studi/Filme/frueher_Film/3457_Zapatas_Bande_1914\\3457_1_1_ZapatasBande_1914_DVD_ELAN.eaf'
p614
sg18
I00
sba(i__main__
Movie
p615
(dp616
g3
Nsg4
S'TheGeneral'
p617
sg6
S'//130.60.131.134/studi/Filme/frueher_Film/3462_The_General_1926/'
p618
sg8
(lp619
sg10
(lp620
I3462
aI1
aI1
asg12
S'frueher_Film/3462_The_General_1926/'
p621
sg14
I00
sg15
Nsg16
S'//130.60.131.134/studi/Filme/frueher_Film/3462_The_General_1926\\3462_1_1_TheGeneral_1926_DVD_ELAN.eaf'
p622
sg18
I00
sba(i__main__
Movie
p623
(dp624
g3
Nsg4
S'TheInformer'
p625
sg6
S'//130.60.131.134/studi/Filme/frueher_Film/3463_The_Informer_1929/'
p626
sg8
(lp627
sg10
(lp628
I3463
aI1
aI1
asg12
S'frueher_Film/3463_The_Informer_1929/'
p629
sg14
I00
sg15
Nsg16
S'//130.60.131.134/studi/Filme/frueher_Film/3463_The_Informer_1929\\3463_1_1_TheInformer_1929_DVD_ELAN.eaf'
p630
sg18
I00
sba(i__main__
Movie
p631
(dp632
g3
Nsg4
S'JeanneDArc'
p633
sg6
S'//130.60.131.134/studi/Filme/frueher_Film/3469_Jeanne_DArc_1900/'
p634
sg8
(lp635
sg10
(lp636
I3469
aI1
aI1
asg12
S'frueher_Film/3469_Jeanne_DArc_1900/'
p637
sg14
I00
sg15
Nsg16
S'//130.60.131.134/studi/Filme/frueher_Film/3469_Jeanne_DArc_1900\\3469_1_1_JeanneDArc_1900_DVD_ELAN.eaf'
p638
sg18
I00
sba(i__main__
Movie
p639
(dp640
g3
Nsg4
S'LeVoyageDeGulliverALilliputEtChezLesGeants'
p641
sg6
S'//130.60.131.134/studi/Filme/frueher_Film/3470_Le_Voyage_De_Gulliver_A_Lilliput_E_t_Chez_Les_Geants_1902/'
p642
sg8
(lp643
sg10
(lp644
I3470
aI1
aI1
asg12
S'frueher_Film/3470_Le_Voyage_De_Gulliver_A_Lilliput_E_t_Chez_Les_Geants_1902/'
p645
sg14
I00
sg15
Nsg16
S'//130.60.131.134/studi/Filme/frueher_Film/3470_Le_Voyage_De_Gulliver_A_Lilliput_E_t_Chez_Les_Geants_1902\\3470_1_1_LeVoyageDeGulliverALilliputEtChezLesGeants_1902_DVD_ELAN.eaf'
p646
sg18
I00
sba(i__main__
Movie
p647
(dp648
g3
Nsg4
S'Nerven'
p649
sg6
S'//130.60.131.134/studi/Filme/frueher_Film/350_Nerven_1919/'
p650
sg8
(lp651
sg10
(lp652
I350
aI1
aI1
asg12
S'frueher_Film/350_Nerven_1919/'
p653
sg14
I00
sg15
Nsg16
S'//130.60.131.134/studi/Filme/frueher_Film/350_Nerven_1919\\350_1_1_Nerven_1919_DVD_ELAN.eaf'
p654
sg18
I00
sba(i__main__
Movie
p655
(dp656
g3
Nsg4
S'TheLostWorld'
p657
sg6
S'//130.60.131.134/studi/Filme/frueher_Film/3556_The_Lost_World_1925/'
p658
sg8
(lp659
sg10
(lp660
I3556
aI1
aI1
asg12
S'frueher_Film/3556_The_Lost_World_1925/'
p661
sg14
I00
sg15
Nsg16
S'//130.60.131.134/studi/Filme/frueher_Film/3556_The_Lost_World_1925\\3556_1_1_TheLostWorld_1925_DVD_ELAN.eaf'
p662
sg18
I00
sba(i__main__
Movie
p663
(dp664
g3
Nsg4
S'TheHunchbackofNotreDame'
p665
sg6
S'//130.60.131.134/studi/Filme/frueher_Film/3557_The_Hunchback_Of_Notre_Dame_1923/'
p666
sg8
(lp667
sg10
(lp668
I3557
aI1
aI1
asg12
S'frueher_Film/3557_The_Hunchback_Of_Notre_Dame_1923/'
p669
sg14
I00
sg15
Nsg16
S'//130.60.131.134/studi/Filme/frueher_Film/3557_The_Hunchback_Of_Notre_Dame_1923\\3557_1_1_TheHunchbackofNotreDame_1923_DVD_ELAN.eaf'
p670
sg18
I00
sba(i__main__
Movie
p671
(dp672
g3
Nsg4
S'TwelfthNight'
p673
sg6
S'//130.60.131.134/studi/Filme/frueher_Film/3561_Twelfth_Night_1910/'
p674
sg8
(lp675
sg10
(lp676
I3561
aI1
aI1
asg12
S'frueher_Film/3561_Twelfth_Night_1910/'
p677
sg14
I00
sg15
Nsg16
S'//130.60.131.134/studi/Filme/frueher_Film/3561_Twelfth_Night_1910\\3561_1_1_TwelfthNight_1910_DVD_ELAN.eaf'
p678
sg18
I00
sba(i__main__
Movie
p679
(dp680
g3
Nsg4
S'AMidsummernightsDream'
p681
sg6
S'//130.60.131.134/studi/Filme/frueher_Film/3562_A_Midsummer_Nights_Dream_1909/'
p682
sg8
(lp683
sg10
(lp684
I3562
aI1
aI1
asg12
S'frueher_Film/3562_A_Midsummer_Nights_Dream_1909/'
p685
sg14
I00
sg15
Nsg16
S'//130.60.131.134/studi/Filme/frueher_Film/3562_A_Midsummer_Nights_Dream_1909\\3562_1_1_AMidsummernightsDream_1909_ELAN.eaf'
p686
sg18
I00
sba(i__main__
Movie
p687
(dp688
g3
Nsg4
S'TheTempest'
p689
sg6
S'//130.60.131.134/studi/Filme/frueher_Film/3564_The_Tempest_1908/'
p690
sg8
(lp691
sg10
(lp692
I3564
aI1
aI1
asg12
S'frueher_Film/3564_The_Tempest_1908/'
p693
sg14
I00
sg15
Nsg16
S'//130.60.131.134/studi/Filme/frueher_Film/3564_The_Tempest_1908\\3564_1_1_TheTempest_1908_ELAN.eaf'
p694
sg18
I00
sba(i__main__
Movie
p695
(dp696
g3
Nsg4
S'SozenjiBaba'
p697
sg6
S'//130.60.131.134/studi/Filme/frueher_Film/3566_Sozenji_Baba_1928/'
p698
sg8
(lp699
sg10
(lp700
I3566
aI1
aI1
asg12
S'frueher_Film/3566_Sozenji_Baba_1928/'
p701
sg14
I00
sg15
Nsg16
S'//130.60.131.134/studi/Filme/frueher_Film/3566_Sozenji_Baba_1928\\3566_1_1_SozenjiBaba_1928_DVD_ELAN.eaf'
p702
sg18
I00
sba(i__main__
Movie
p703
(dp704
g3
Nsg4
S'LePeintreNeoimpressioniste'
p705
sg6
S'//130.60.131.134/studi/Filme/frueher_Film/3567_Le_Peintre_Neoimpressioniste_1910/'
p706
sg8
(lp707
sg10
(lp708
I3567
aI1
aI1
asg12
S'frueher_Film/3567_Le_Peintre_Neoimpressioniste_1910/'
p709
sg14
I00
sg15
Nsg16
S'//130.60.131.134/studi/Filme/frueher_Film/3567_Le_Peintre_Neoimpressioniste_1910\\3567_1_1_LePeintreNeoimpressioniste_1910_DVD_ELAN.eaf'
p710
sg18
I00
sba(i__main__
Movie
p711
(dp712
g3
Nsg4
S'DanseursEspagnols'
p713
sg6
S'//130.60.131.134/studi/Filme/frueher_Film/3569_Danseurs_Espagnols_1898/'
p714
sg8
(lp715
sg10
(lp716
I3569
aI1
aI1
asg12
S'frueher_Film/3569_Danseurs_Espagnols_1898/'
p717
sg14
I00
sg15
Nsg16
S'//130.60.131.134/studi/Filme/frueher_Film/3569_Danseurs_Espagnols_1898\\3569_1_1_DanseursEspagnols_1898_DVD_ELAN.eaf'
p718
sg18
I00
sba(i__main__
Movie
p719
(dp720
g3
Nsg4
S'LHallucinationDeLAlchimiste'
p721
sg6
S'//130.60.131.134/studi/Filme/frueher_Film/3589_LHallucination_De_LAlchimiste_1897/'
p722
sg8
(lp723
sg10
(lp724
I3589
aI1
aI1
asg12
S'frueher_Film/3589_LHallucination_De_LAlchimiste_1897/'
p725
sg14
I00
sg15
Nsg16
S'//130.60.131.134/studi/Filme/frueher_Film/3589_LHallucination_De_LAlchimiste_1897\\3589_1_1_LHallucinationDeLAlchimiste_1897_DVD_ELAN.eaf'
p726
sg18
I00
sba(i__main__
Movie
p727
(dp728
g3
Nsg4
S'MetamorphoseDuPapillon'
p729
sg6
S'//130.60.131.134/studi/Filme/frueher_Film/362_Metamorphose_Du_Papillon_1904/'
p730
sg8
(lp731
sg10
(lp732
I362
aI1
aI1
asg12
S'frueher_Film/362_Metamorphose_Du_Papillon_1904/'
p733
sg14
I00
sg15
Nsg16
S'//130.60.131.134/studi/Filme/frueher_Film/362_Metamorphose_Du_Papillon_1904\\362_1_1_MetamorphoseDuPapillon_1904_DVD_ELAN.eaf'
p734
sg18
I00
sba(i__main__
Movie
p735
(dp736
g3
Nsg4
S'CyranoDeBergerac'
p737
sg6
S'//130.60.131.134/studi/Filme/frueher_Film/364_Cyrano_De_Bergerac_1923/'
p738
sg8
(lp739
sg10
(lp740
I364
aI1
aI1
asg12
S'frueher_Film/364_Cyrano_De_Bergerac_1923/'
p741
sg14
I00
sg15
Nsg16
S'//130.60.131.134/studi/Filme/frueher_Film/364_Cyrano_De_Bergerac_1923\\364_1_1_CyranoDeBergerac_1923_DVD_ELAN.eaf'
p742
sg18
I00
sba(i__main__
Movie
p743
(dp744
g3
Nsg4
S'LePalaisDesMilleEtUneNuits'
p745
sg6
S'//130.60.131.134/studi/Filme/frueher_Film/37_Le_Palais_Des_Mille_Et_Une_Nuits_1905/'
p746
sg8
(lp747
sg10
(lp748
I37
aI1
aI1
asg12
S'frueher_Film/37_Le_Palais_Des_Mille_Et_Une_Nuits_1905/'
p749
sg14
I00
sg15
Nsg16
S'//130.60.131.134/studi/Filme/frueher_Film/37_Le_Palais_Des_Mille_Et_Une_Nuits_1905\\37_1_1_LePalaisDesMilleEtUneNuits_1905_DVD_ELAN.eaf'
p750
sg18
I00
sba(i__main__
Movie
p751
(dp752
g3
Nsg4
S'Redskin'
p753
sg6
S'//130.60.131.134/studi/Filme/frueher_Film/39_Redskin_1929/'
p754
sg8
(lp755
sg10
(lp756
I39
aI1
aI2
asg12
S'frueher_Film/39_Redskin_1929/'
p757
sg14
I00
sg15
Nsg16
S'//130.60.131.134/studi/Filme/frueher_Film/39_Redskin_1929\\39_1_2_Redskin_1929_DVD_ELAN.eaf'
p758
sg18
I00
sba(i__main__
Movie
p759
(dp760
g3
Nsg4
S'Maerchenwald'
p761
sg6
S'//130.60.131.134/studi/Filme/frueher_Film/409_Maerchenwald_1919/'
p762
sg8
(lp763
S'//130.60.131.134/studi/Filme/frueher_Film/409_Maerchenwald_1919\\409_1_2_Maerchenwald_1919_ELAN_BF.txt'
p764
asg10
(lp765
I409
aI1
aI2
asg12
S'frueher_Film/409_Maerchenwald_1919/'
p766
sg14
I00
sg15
Nsg16
S'//130.60.131.134/studi/Filme/frueher_Film/409_Maerchenwald_1919\\409_1_2_Maerchenwald_1919_ELAN_BF.eaf'
p767
sg18
I00
sba(i__main__
Movie
p768
(dp769
g3
Nsg4
S'TheEpicOfEverest'
p770
sg6
S'//130.60.131.134/studi/Filme/frueher_Film/411_The_Epic_of_Everest_1924/'
p771
sg8
(lp772
sg10
(lp773
I411
aI1
aI1
asg12
S'frueher_Film/411_The_Epic_of_Everest_1924/'
p774
sg14
I00
sg15
Nsg16
S'//130.60.131.134/studi/Filme/frueher_Film/411_The_Epic_of_Everest_1924\\411_1_1_TheEpicOfEverest_1924_DVD_Elan.eaf'
p775
sg18
I00
sba(i__main__
Movie
p776
(dp777
g3
Nsg4
S'TheGreatWhiteSilence'
p778
sg6
S'//130.60.131.134/studi/Filme/frueher_Film/412_The_Great_White_Silence_1924/'
p779
sg8
(lp780
sg10
(lp781
I412
aI1
aI1
asg12
S'frueher_Film/412_The_Great_White_Silence_1924/'
p782
sg14
I00
sg15
Nsg16
S'//130.60.131.134/studi/Filme/frueher_Film/412_The_Great_White_Silence_1924\\412_1_1_TheGreatWhiteSilence_1924_DVD_Elan.eaf'
p783
sg18
I00
sba(i__main__
Movie
p784
(dp785
g3
Nsg4
S'TheRedLantern'
p786
sg6
S'//130.60.131.134/studi/Filme/frueher_Film/47_The_Red_Lantern_1919/'
p787
sg8
(lp788
sg10
(lp789
I47
aI1
aI1
asg12
S'frueher_Film/47_The_Red_Lantern_1919/'
p790
sg14
I00
sg15
Nsg16
S'//130.60.131.134/studi/Filme/frueher_Film/47_The_Red_Lantern_1919\\47_1_1_TheRedLantern_1919_DVD_ELAN.eaf'
p791
sg18
I00
sba(i__main__
Movie
p792
(dp793
g3
Nsg4
S'TheTollOfTheSea'
p794
sg6
S'//130.60.131.134/studi/Filme/frueher_Film/51_The_Toll_of_the_Sea_1922/'
p795
sg8
(lp796
sg10
(lp797
I51
aI1
aI1
asg12
S'frueher_Film/51_The_Toll_of_the_Sea_1922/'
p798
sg14
I00
sg15
Nsg16
S'//130.60.131.134/studi/Filme/frueher_Film/51_The_Toll_of_the_Sea_1922\\51_1_1_TheTollOfTheSea_1922_DVD_ELAN.eaf'
p799
sg18
I00
sba(i__main__
Movie
p800
(dp801
g3
Nsg4
S'ThePhantomoftheOpera'
p802
sg6
S'//130.60.131.134/studi/Filme/frueher_Film/52_The_Phantom_of_the_Opera_1925/'
p803
sg8
(lp804
sg10
(lp805
I52
aI1
aI1
asg12
S'frueher_Film/52_The_Phantom_of_the_Opera_1925/'
p806
sg14
I00
sg15
Nsg16
S'//130.60.131.134/studi/Filme/frueher_Film/52_The_Phantom_of_the_Opera_1925\\52_1_1_ThePhantomoftheOpera_1925_DVD_Elan.eaf'
p807
sg18
I00
sba(i__main__
Movie
p808
(dp809
g3
Nsg4
S'TheBlackPirate'
p810
sg6
S'//130.60.131.134/studi/Filme/frueher_Film/53_The_Black_Pirate_1926/'
p811
sg8
(lp812
sg10
(lp813
I53
aI1
aI1
asg12
S'frueher_Film/53_The_Black_Pirate_1926/'
p814
sg14
I00
sg15
Nsg16
S'//130.60.131.134/studi/Filme/frueher_Film/53_The_Black_Pirate_1926\\53_1_1_TheBlackPirate_1926_DVD_Elan.eaf'
p815
sg18
I00
sba(i__main__
Movie
p816
(dp817
g3
Nsg4
S'Whoopee'
p818
sg6
S'//130.60.131.134/studi/Filme/frueher_Film/574_Whoopee_1930/'
p819
sg8
(lp820
sg10
(lp821
I574
aI1
aI1
asg12
S'frueher_Film/574_Whoopee_1930/'
p822
sg14
I00
sg15
Nsg16
S'//130.60.131.134/studi/Filme/frueher_Film/574_Whoopee_1930\\574_1_1_Whoopee_1930_ELAN.eaf'
p823
sg18
I00
sba(i__main__
Movie
p824
(dp825
g3
Nsg4
S'Die'
p826
sg6
S'//130.60.131.134/studi/Filme/frueher_Film/576_Die_Freudlose_Gasse_1925/'
p827
sg8
(lp828
sg10
(lp829
I576
aI1
aI1
asg12
S'frueher_Film/576_Die_Freudlose_Gasse_1925/'
p830
sg14
I00
sg15
Nsg16
S'//130.60.131.134/studi/Filme/frueher_Film/576_Die_Freudlose_Gasse_1925\\576_1_1_Die_Freudlose_Gasse_1925_ELAN.eaf'
p831
sg18
I00
sba(i__main__
Movie
p832
(dp833
g3
Nsg4
S'TheThiefOfBagdad'
p834
sg6
S'//130.60.131.134/studi/Filme/frueher_Film/613_The_Thief_Of_Bagdad_1924/'
p835
sg8
(lp836
sg10
(lp837
I613
aI1
aI1
asg12
S'frueher_Film/613_The_Thief_Of_Bagdad_1924/'
p838
sg14
I00
sg15
Nsg16
S'//130.60.131.134/studi/Filme/frueher_Film/613_The_Thief_Of_Bagdad_1924\\613_1_1_TheThiefOfBagdad_1924_DVD_ELAN.eaf'
p839
sg18
I00
sba(i__main__
Movie
p840
(dp841
g3
Nsg4
S'Erotikon'
p842
sg6
S'//130.60.131.134/studi/Filme/frueher_Film/614_Erotikon_1920/'
p843
sg8
(lp844
sg10
(lp845
I614
aI1
aI1
asg12
S'frueher_Film/614_Erotikon_1920/'
p846
sg14
I00
sg15
Nsg16
S'//130.60.131.134/studi/Filme/frueher_Film/614_Erotikon_1920\\614_1_1_Erotikon_1920_DVD_ELAN.eaf'
p847
sg18
I00
sba(i__main__
Movie
p848
(dp849
g3
Nsg4
S'BehindTheDoor'
p850
sg6
S'//130.60.131.134/studi/Filme/frueher_Film/616_Behind_The_Door_1919/'
p851
sg8
(lp852
sg10
(lp853
I616
aI1
aI1
asg12
S'frueher_Film/616_Behind_The_Door_1919/'
p854
sg14
I00
sg15
Nsg16
S'//130.60.131.134/studi/Filme/frueher_Film/616_Behind_The_Door_1919\\616_1_1_BehindTheDoor_1919_DVD_ELAN.eaf'
p855
sg18
I00
sba(i__main__
Movie
p856
(dp857
g3
Nsg4
S'LaDanseDuDiable'
p858
sg6
S'//130.60.131.134/studi/Filme/frueher_Film/640_La_Danse_Du_Diable_1904/'
p859
sg8
(lp860
sg10
(lp861
I640
aI1
aI1
asg12
S'frueher_Film/640_La_Danse_Du_Diable_1904/'
p862
sg14
I00
sg15
Nsg16
S'//130.60.131.134/studi/Filme/frueher_Film/640_La_Danse_Du_Diable_1904\\640_1_1_LaDanseDuDiable_1904_DVD_Elan.eaf'
p863
sg18
I00
sba(i__main__
Movie
p864
(dp865
g3
Nsg4
S'LaFeeAuxFleurs'
p866
sg6
S'//130.60.131.134/studi/Filme/frueher_Film/641_La_Fee_Aux_Fleurs_1905/'
p867
sg8
(lp868
sg10
(lp869
I641
aI1
aI4
asg12
S'frueher_Film/641_La_Fee_Aux_Fleurs_1905/'
p870
sg14
I00
sg15
Nsg16
S'//130.60.131.134/studi/Filme/frueher_Film/641_La_Fee_Aux_Fleurs_1905\\641_1_4_LaFeeAuxFleurs_1905_DVD_ELAN.eaf'
p871
sg18
I00
sba(i__main__
Movie
p872
(dp873
g3
Nsg4
S'LePiedDeMouton'
p874
sg6
S'//130.60.131.134/studi/Filme/frueher_Film/642_Le_Pied_De_Mouton_1907/'
p875
sg8
(lp876
sg10
(lp877
I642
aI1
aI1
asg12
S'frueher_Film/642_Le_Pied_De_Mouton_1907/'
p878
sg14
I00
sg15
Nsg16
S'//130.60.131.134/studi/Filme/frueher_Film/642_Le_Pied_De_Mouton_1907\\642_1_1_LePiedDeMouton_1907_DVD_ELAN.eaf'
p879
sg18
I00
sba(i__main__
Movie
p880
(dp881
g3
Nsg4
S'AssuntaSpina'
p882
sg6
S'//130.60.131.134/studi/Filme/frueher_Film/699_Assunta_Spina_1915/'
p883
sg8
(lp884
sg10
(lp885
I699
aI1
aI1
asg12
S'frueher_Film/699_Assunta_Spina_1915/'
p886
sg14
I00
sg15
Nsg16
S'//130.60.131.134/studi/Filme/frueher_Film/699_Assunta_Spina_1915\\699_1_1_AssuntaSpina_1915_DVD_ELAN.eaf'
p887
sg18
I00
sba(i__main__
Movie
p888
(dp889
g3
Nsg4
S'RobinHood'
p890
sg6
S'//130.60.131.134/studi/Filme/frueher_Film/751_Robin_Hood_1922/'
p891
sg8
(lp892
sg10
(lp893
I751
aI1
aI1
asg12
S'frueher_Film/751_Robin_Hood_1922/'
p894
sg14
I00
sg15
Nsg16
S'//130.60.131.134/studi/Filme/frueher_Film/751_Robin_Hood_1922\\751_1_1_RobinHood_1922_DVD_Elan.eaf'
p895
sg18
I00
sba(i__main__
Movie
p896
(dp897
g3
Nsg4
S'TheGoldenBeetle'
p898
sg6
S'//130.60.131.134/studi/Filme/frueher_Film/779_The_Golden_Beetle_1907/'
p899
sg8
(lp900
sg10
(lp901
I779
aI1
aI1
asg12
S'frueher_Film/779_The_Golden_Beetle_1907/'
p902
sg14
I00
sg15
Nsg16
S'//130.60.131.134/studi/Filme/frueher_Film/779_The_Golden_Beetle_1907\\779_1_1_TheGoldenBeetle_1907_DVD_Elan.eaf'
p903
sg18
I00
sba(i__main__
Movie
p904
(dp905
g3
Nsg4
S'TheGreatTrainRobbery'
p906
sg6
S'//130.60.131.134/studi/Filme/frueher_Film/788_The_Great_Train_Robbery_1903/'
p907
sg8
(lp908
sg10
(lp909
I788
aI1
aI1
asg12
S'frueher_Film/788_The_Great_Train_Robbery_1903/'
p910
sg14
I00
sg15
Nsg16
S'//130.60.131.134/studi/Filme/frueher_Film/788_The_Great_Train_Robbery_1903\\788_1_1_TheGreatTrainRobbery_1903_DVD_Elan.eaf'
p911
sg18
I00
sba(i__main__
Movie
p912
(dp913
g3
Nsg4
S'ElNegro'
p914
sg6
S'//130.60.131.134/studi/Filme/frueher_Film/830_El_Negro_Que_Tenia_El_Alma_Blanca_1927/'
p915
sg8
(lp916
sg10
(lp917
I830
aI1
aI1
asg12
S'frueher_Film/830_El_Negro_Que_Tenia_El_Alma_Blanca_1927/'
p918
sg14
I00
sg15
Nsg16
S'//130.60.131.134/studi/Filme/frueher_Film/830_El_Negro_Que_Tenia_El_Alma_Blanca_1927\\830_1_1_ElNegro_1927_DVD_ELAN.eaf'
p919
sg18
I00
sba(i__main__
Movie
p920
(dp921
g3
Nsg4
S'Intolerance'
p922
sg6
S'//130.60.131.134/studi/Filme/frueher_Film/832_Intolerance_1916/'
p923
sg8
(lp924
sg10
(lp925
I832
aI1
aI1
asg12
S'frueher_Film/832_Intolerance_1916/'
p926
sg14
I00
sg15
Nsg16
S'//130.60.131.134/studi/Filme/frueher_Film/832_Intolerance_1916\\832_1_1_Intolerance_1916_DVD_Elan.eaf'
p927
sg18
I00
sba(i__main__
Movie
p928
(dp929
g3
Nsg4
S'AliceInWonderland'
p930
sg6
S'//130.60.131.134/studi/Filme/frueher_Film/851_Alice_In_Wonderland_1915/'
p931
sg8
(lp932
sg10
(lp933
I851
aI1
aI1
asg12
S'frueher_Film/851_Alice_In_Wonderland_1915/'
p934
sg14
I00
sg15
Nsg16
S'//130.60.131.134/studi/Filme/frueher_Film/851_Alice_In_Wonderland_1915\\851_1_1_AliceInWonderland_1915_DVD_ELAN.eaf'
p935
sg18
I00
sba(i__main__
Movie
p936
(dp937
g3
Nsg4
S'DieNibelungen'
p938
sg6
S'//130.60.131.134/studi/Filme/frueher_Film/854_Die_Nibelungen_1924/854_1_1_DieNibelungen_1924_DVD/'
p939
sg8
(lp940
sg10
(lp941
I854
aI1
aI1
asg12
S'frueher_Film/854_Die_Nibelungen_1924/854_1_1_DieNibelungen_1924_DVD/'
p942
sg14
I00
sg15
Nsg16
S'//130.60.131.134/studi/Filme/frueher_Film/854_Die_Nibelungen_1924/854_1_1_DieNibelungen_1924_DVD\\854_1_1_DieNibelungen_1924_DVD_ELAN.eaf'
p943
sg18
I00
sba(i__main__
Movie
p944
(dp945
g3
Nsg4
S'DieNibelungen'
p946
sg6
S'//130.60.131.134/studi/Filme/frueher_Film/854_Die_Nibelungen_1924/854_2_1_DieNibelungen_1924_DVD/'
p947
sg8
(lp948
sg10
(lp949
I854
aI2
aI1
asg12
S'frueher_Film/854_Die_Nibelungen_1924/854_2_1_DieNibelungen_1924_DVD/'
p950
sg14
I00
sg15
Nsg16
S'//130.60.131.134/studi/Filme/frueher_Film/854_Die_Nibelungen_1924/854_2_1_DieNibelungen_1924_DVD\\854_2_1_DieNibelungen_1924_DVD_ELAN.eaf'
p951
sg18
I00
sba(i__main__
Movie
p952
(dp953
g3
Nsg4
S'Ildfluen'
p954
sg6
S'//130.60.131.134/studi/Filme/frueher_Film/855_Ildfluen_1913/'
p955
sg8
(lp956
sg10
(lp957
I855
aI1
aI1
asg12
S'frueher_Film/855_Ildfluen_1913/'
p958
sg14
I00
sg15
Nsg16
S'//130.60.131.134/studi/Filme/frueher_Film/855_Ildfluen_1913\\855_1_1_Ildfluen_1913_ELAN.eaf'
p959
sg18
I00
sba(i__main__
Movie
p960
(dp961
g3
Nsg4
S'Napoleon'
p962
sg6
S'//130.60.131.134/studi/Filme/frueher_Film/860_Napoleon_1927/860_1_1_Napoleon_1927/'
p963
sg8
(lp964
sg10
(lp965
I860
aI1
aI1
asg12
S'frueher_Film/860_Napoleon_1927/860_1_1_Napoleon_1927/'
p966
sg14
I00
sg15
Nsg16
S'//130.60.131.134/studi/Filme/frueher_Film/860_Napoleon_1927/860_1_1_Napoleon_1927\\860_1_1_Napoleon_1927_Disc1_ELAN.eaf'
p967
sg18
I00
sba(i__main__
Movie
p968
(dp969
g3
Nsg4
S'Napoleon'
p970
sg6
S'//130.60.131.134/studi/Filme/frueher_Film/860_Napoleon_1927/860_1_2_Napoleon_1927/'
p971
sg8
(lp972
sg10
(lp973
I860
aI1
aI2
asg12
S'frueher_Film/860_Napoleon_1927/860_1_2_Napoleon_1927/'
p974
sg14
I00
sg15
Nsg16
S'//130.60.131.134/studi/Filme/frueher_Film/860_Napoleon_1927/860_1_2_Napoleon_1927\\860_1_2_Napoleon_1927_Disc2_ELAN.eaf'
p975
sg18
I00
sba(i__main__
Movie
p976
(dp977
g3
Nsg4
S'Napoleon'
p978
sg6
S'//130.60.131.134/studi/Filme/frueher_Film/860_Napoleon_1927/860_1_3_Napoleon_1927/'
p979
sg8
(lp980
sg10
(lp981
I860
aI1
aI3
asg12
S'frueher_Film/860_Napoleon_1927/860_1_3_Napoleon_1927/'
p982
sg14
I00
sg15
Nsg16
S'//130.60.131.134/studi/Filme/frueher_Film/860_Napoleon_1927/860_1_3_Napoleon_1927\\860_1_3_Napoleon_1927_Disc3_ELAN.eaf'
p983
sg18
I00
sba(i__main__
Movie
p984
(dp985
g3
Nsg4
S'Napoleon'
p986
sg6
S'//130.60.131.134/studi/Filme/frueher_Film/860_Napoleon_1927/860_1_4_Napoleon_1927/'
p987
sg8
(lp988
sg10
(lp989
I860
aI1
aI4
asg12
S'frueher_Film/860_Napoleon_1927/860_1_4_Napoleon_1927/'
p990
sg14
I00
sg15
Nsg16
S'//130.60.131.134/studi/Filme/frueher_Film/860_Napoleon_1927/860_1_4_Napoleon_1927\\860_1_4_Napoleon_1927_Disc4_ELAN.eaf'
p991
sg18
I00
sba(i__main__
Movie
p992
(dp993
g3
Nsg4
S'LeFaune'
p994
sg6
S'//130.60.131.134/studi/Filme/frueher_Film/863_Le_Faune_1908/'
p995
sg8
(lp996
sg10
(lp997
I863
aI1
aI1
asg12
S'frueher_Film/863_Le_Faune_1908/'
p998
sg14
I00
sg15
Nsg16
S'//130.60.131.134/studi/Filme/frueher_Film/863_Le_Faune_1908\\863_1_1_LeFaune_1908_DVD_Elan.eaf'
p999
sg18
I00
sba(i__main__
Movie
p1000
(dp1001
g3
Nsg4
S'TheOpenRoad'
p1002
sg6
S'//130.60.131.134/studi/Filme/frueher_Film/878_The_Open_Road_1925/'
p1003
sg8
(lp1004
sg10
(lp1005
I878
aI1
aI1
asg12
S'frueher_Film/878_The_Open_Road_1925/'
p1006
sg14
I00
sg15
Nsg16
S'//130.60.131.134/studi/Filme/frueher_Film/878_The_Open_Road_1925\\878_1_1_TheOpenRoad_1925_DVD_ELAN.eaf'
p1007
sg18
I00
sba(i__main__
Movie
p1008
(dp1009
g3
Nsg4
S'YolandaAndTheThief'
p1010
sg6
S'//130.60.131.134/studi/Filme/mittlere_Filme/1038_Yolanda_and_the_Thief_1945/'
p1011
sg8
(lp1012
S'//130.60.131.134/studi/Filme/mittlere_Filme/1038_Yolanda_and_the_Thief_1945\\1038_1_1_YolandaAndTheThief_1945_DVD_ELAN.txt'
p1013
asg10
(lp1014
I1038
aI1
aI1
asg12
S'mittlere_Filme/1038_Yolanda_and_the_Thief_1945/'
p1015
sg14
I00
sg15
Nsg16
S'//130.60.131.134/studi/Filme/mittlere_Filme/1038_Yolanda_and_the_Thief_1945\\1038_1_1_YolandaAndTheThief_1945_DVD_ELAN.eaf'
p1016
sg18
I00
sba(i__main__
Movie
p1017
(dp1018
g3
Nsg4
S'BlancheFury'
p1019
sg6
S'//130.60.131.134/studi/Filme/mittlere_Filme/105_Blanche_Fury_1948/'
p1020
sg8
(lp1021
sg10
(lp1022
I105
aI1
aI1
asg12
S'mittlere_Filme/105_Blanche_Fury_1948/'
p1023
sg14
I00
sg15
Nsg16
S'//130.60.131.134/studi/Filme/mittlere_Filme/105_Blanche_Fury_1948\\105_1_1_BlancheFury_1948_DVD_ELAN.eaf'
p1024
sg18
I00
sba(i__main__
Movie
p1025
(dp1026
g3
Nsg4
S'LeaveHerToHeaven'
p1027
sg6
S'//130.60.131.134/studi/Filme/mittlere_Filme/107_Leave_Her_to_Heaven_1945/'
p1028
sg8
(lp1029
sg10
(lp1030
I107
aI1
aI1
asg12
S'mittlere_Filme/107_Leave_Her_to_Heaven_1945/'
p1031
sg14
I00
sg15
Nsg16
S'//130.60.131.134/studi/Filme/mittlere_Filme/107_Leave_Her_to_Heaven_1945\\107_1_1_LeaveHerToHeaven_1945_DVD_ELAN_BF.eaf'
p1032
sg18
I00
sba(i__main__
Movie
p1033
(dp1034
g3
Nsg4
S'NightAndDay'
p1035
sg6
S'//130.60.131.134/studi/Filme/mittlere_Filme/1110_Night_and_Day_1946/'
p1036
sg8
(lp1037
sg10
(lp1038
I1110
aI1
aI1
asg12
S'mittlere_Filme/1110_Night_and_Day_1946/'
p1039
sg14
I00
sg15
Nsg16
S'//130.60.131.134/studi/Filme/mittlere_Filme/1110_Night_and_Day_1946\\1110_1_1_NightAndDay_1946_DVD_ELAN.eaf'
p1040
sg18
I00
sba(i__main__
Movie
p1041
(dp1042
g3
Nsg4
S'ImmerBereit'
p1043
sg6
S'//130.60.131.134/studi/Filme/mittlere_Filme/1169_Immer_bereit_1950/'
p1044
sg8
(lp1045
S'//130.60.131.134/studi/Filme/mittlere_Filme/1169_Immer_bereit_1950\\1169_1_1_ImmerBereit_1950_DVD_ELAN.txt'
p1046
asg10
(lp1047
I1169
aI1
aI1
asg12
S'mittlere_Filme/1169_Immer_bereit_1950/'
p1048
sg14
I00
sg15
Nsg16
S'//130.60.131.134/studi/Filme/mittlere_Filme/1169_Immer_bereit_1950\\1169_1_1_ImmerBereit_1950_DVD_ELAN.eaf'
p1049
sg18
I00
sba(i__main__
Movie
p1050
(dp1051
g3
Nsg4
S'TeethOfSteel'
p1052
sg6
S'//130.60.131.134/studi/Filme/mittlere_Filme/1213_Teeth_of_Steel_1942/'
p1053
sg8
(lp1054
S'//130.60.131.134/studi/Filme/mittlere_Filme/1213_Teeth_of_Steel_1942\\1213_1_1_TeethOfSteel_1942_DVD_ELAN.txt'
p1055
asg10
(lp1056
I1213
aI1
aI1
asg12
S'mittlere_Filme/1213_Teeth_of_Steel_1942/'
p1057
sg14
I00
sg15
Nsg16
S'//130.60.131.134/studi/Filme/mittlere_Filme/1213_Teeth_of_Steel_1942\\1213_1_1_TeethOfSteel_1942_DVD_ELAN.eaf'
p1058
sg18
I00
sba(i__main__
Movie
p1059
(dp1060
g3
Nsg4
S'TheThiefOfBagdad'
p1061
sg6
S'//130.60.131.134/studi/Filme/mittlere_Filme/122_The_Thief_of_Bagdad_1940/'
p1062
sg8
(lp1063
S'//130.60.131.134/studi/Filme/mittlere_Filme/122_The_Thief_of_Bagdad_1940\\122_1_1_TheThiefOfBagdad_1940_DVD_ELAN.txt'
p1064
asg10
(lp1065
I122
aI1
aI1
asg12
S'mittlere_Filme/122_The_Thief_of_Bagdad_1940/'
p1066
sg14
I00
sg15
Nsg16
S'//130.60.131.134/studi/Filme/mittlere_Filme/122_The_Thief_of_Bagdad_1940\\122_1_1_ELAN_Projektdatei\\122_1_1_TheThiefOfBagdad_1940_DVD_ELAN.eaf'
p1067
sg18
I00
sba(i__main__
Movie
p1068
(dp1069
g3
Nsg4
S'TheCoronationOfTheirMajestiesKingGeorgeVIAndQueenElizabeth'
p1070
sg6
S'//130.60.131.134/studi/Filme/mittlere_Filme/1230_The_Coronation_of_Their_Majesties_King_George_VI_and_Queen_Elizabeth_1937/'
p1071
sg8
(lp1072
S'//130.60.131.134/studi/Filme/mittlere_Filme/1230_The_Coronation_of_Their_Majesties_King_George_VI_and_Queen_Elizabeth_1937\\1230_1_1_TheCoronationOfTheirMajestiesKingGeorgeVIAndQueenElizabeth_1937_DVD_ELAN.txt'
p1073
asg10
(lp1074
I1230
aI1
aI1
asg12
S'mittlere_Filme/1230_The_Coronation_of_Their_Majesties_King_George_VI_and_Queen_Elizabeth_1937/'
p1075
sg14
I00
sg15
Nsg16
S'//130.60.131.134/studi/Filme/mittlere_Filme/1230_The_Coronation_of_Their_Majesties_King_George_VI_and_Queen_Elizabeth_1937\\1230_1_1_TheCoronationOfTheirMajestiesKingGeorgeVIAndQueenElizabeth_1937_DVD_ELAN.eaf'
p1076
sg18
I00
sba(i__main__
Movie
p1077
(dp1078
g3
Nsg4
S'TheRiver'
p1079
sg6
S'//130.60.131.134/studi/Filme/mittlere_Filme/1278_The_River_1951/'
p1080
sg8
(lp1081
S'//130.60.131.134/studi/Filme/mittlere_Filme/1278_The_River_1951\\1278_1_1_TheRiver_1951_DVD_ELAN.txt'
p1082
asg10
(lp1083
I1278
aI1
aI1
asg12
S'mittlere_Filme/1278_The_River_1951/'
p1084
sg14
I00
sg15
Nsg16
S'//130.60.131.134/studi/Filme/mittlere_Filme/1278_The_River_1951\\1278_1_1_TheRiver_1951_DVD_ELAN.eaf'
p1085
sg18
I00
sba(i__main__
Movie
p1086
(dp1087
g3
Nsg4
S'TheFourFeathers'
p1088
sg6
S'//130.60.131.134/studi/Filme/mittlere_Filme/127_The_Four_Feathers_1939/'
p1089
sg8
(lp1090
sg10
(lp1091
I127
aI1
aI1
asg12
S'mittlere_Filme/127_The_Four_Feathers_1939/'
p1092
sg14
I00
sg15
Nsg16
S'//130.60.131.134/studi/Filme/mittlere_Filme/127_The_Four_Feathers_1939\\127_1_1_TheFourFeathers_1939_DVD_ELAN.eaf'
p1093
sg18
I00
sba(i__main__
Movie
p1094
(dp1095
g3
Nsg4
S'WingsOfTheMorning'
p1096
sg6
S'//130.60.131.134/studi/Filme/mittlere_Filme/13_Wings_of_the_Morning_1937/'
p1097
sg8
(lp1098
S'//130.60.131.134/studi/Filme/mittlere_Filme/13_Wings_of_the_Morning_1937\\13_1_2_WingsOfTheMorning_1937_DVD_ELAN.txt'
p1099
asg10
(lp1100
I13
aI1
aI2
asg12
S'mittlere_Filme/13_Wings_of_the_Morning_1937/'
p1101
sg14
I00
sg15
Nsg16
S'//130.60.131.134/studi/Filme/mittlere_Filme/13_Wings_of_the_Morning_1937\\13_1_2_WingsOfTheMorning_1937_DVD_ELAN.eaf'
p1102
sg18
I00
sba(i__main__
Movie
p1103
(dp1104
g3
Nsg4
S'TheWaroftheWorlds'
p1105
sg6
S'//130.60.131.134/studi/Filme/mittlere_Filme/143_The_War_of_the_Worlds_1953/'
p1106
sg8
(lp1107
sg10
(lp1108
I143
aI1
aI1
asg12
S'mittlere_Filme/143_The_War_of_the_Worlds_1953/'
p1109
sg14
I00
sg15
Nsg16
S'//130.60.131.134/studi/Filme/mittlere_Filme/143_The_War_of_the_Worlds_1953\\143_1_1_TheWaroftheWorlds_1953_DVD_ELAN.eaf'
p1110
sg18
I00
sba(i__main__
Movie
p1111
(dp1112
g3
Nsg4
S'Brigadoon'
p1113
sg6
S'//130.60.131.134/studi/Filme/mittlere_Filme/1475_Brigadoon_1954/'
p1114
sg8
(lp1115
S'//130.60.131.134/studi/Filme/mittlere_Filme/1475_Brigadoon_1954\\1475_1_1_Brigadoon_1954_DVD_ELAN.txt'
p1116
asg10
(lp1117
I1475
aI1
aI1
asg12
S'mittlere_Filme/1475_Brigadoon_1954/'
p1118
sg14
I00
sg15
Nsg16
S'//130.60.131.134/studi/Filme/mittlere_Filme/1475_Brigadoon_1954\\1475_1_1_Brigadoon_1954_DVD_ELAN.eaf'
p1119
sg18
I00
sba(i__main__
Movie
p1120
(dp1121
g3
Nsg4
S'RiverOfNoReturn'
p1122
sg6
S'//130.60.131.134/studi/Filme/mittlere_Filme/1713_Maske_in_Blau_1953/'
p1123
sg8
(lp1124
S'//130.60.131.134/studi/Filme/mittlere_Filme/1713_Maske_in_Blau_1953\\3372_1_1_RiverOfNoReturn_1954_DVD_ELAN.txt'
p1125
asg10
(lp1126
I3372
aI1
aI1
asg12
S'mittlere_Filme/1713_Maske_in_Blau_1953/'
p1127
sg14
I00
sg15
Nsg16
S'//130.60.131.134/studi/Filme/mittlere_Filme/1713_Maske_in_Blau_1953\\3372_1_1_RiverOfNoReturn_1954_DVD_ELAN.eaf'
p1128
sg18
I00
sba(i__main__
Movie
p1129
(dp1130
g3
Nsg4
S'FrauenSindDochBessereDiplomaten'
p1131
sg6
S'//130.60.131.134/studi/Filme/mittlere_Filme/177_Frauen_sind_doch_bessere_Diplomaten_1941/'
p1132
sg8
(lp1133
S'//130.60.131.134/studi/Filme/mittlere_Filme/177_Frauen_sind_doch_bessere_Diplomaten_1941\\177_1_1_FrauenSindDochBessereDiplomaten_1941_DVD_ELAN.txt'
p1134
asg10
(lp1135
I177
aI1
aI1
asg12
S'mittlere_Filme/177_Frauen_sind_doch_bessere_Diplomaten_1941/'
p1136
sg14
I00
sg15
Nsg16
S'//130.60.131.134/studi/Filme/mittlere_Filme/177_Frauen_sind_doch_bessere_Diplomaten_1941\\ELAN_Projektdatei\\177_1_1_FrauenSindDochBessereDiplomaten_1941_DVD_ELAN.eaf'
p1137
sg18
I00
sba(i__main__
Movie
p1138
(dp1139
g3
Nsg4
S'TheRedShoes'
p1140
sg6
S'//130.60.131.134/studi/Filme/mittlere_Filme/180_The_Red_Shoes_1948/'
p1141
sg8
(lp1142
S'//130.60.131.134/studi/Filme/mittlere_Filme/180_The_Red_Shoes_1948\\180_1_1_TheRedShoes_1948_DVD_ELAN.txt'
p1143
asg10
(lp1144
I180
aI1
aI1
asg12
S'mittlere_Filme/180_The_Red_Shoes_1948/'
p1145
sg14
I00
sg15
Nsg16
S'//130.60.131.134/studi/Filme/mittlere_Filme/180_The_Red_Shoes_1948\\ELAN_Projektdatei\\180_1_1_TheRedShoes_1948_DVD_ELAN.eaf'
p1146
sg18
I00
sba(i__main__
Movie
p1147
(dp1148
g3
Nsg4
S'SheWhoreAYellowRibbon'
p1149
sg6
S'//130.60.131.134/studi/Filme/mittlere_Filme/181_She_Wore_A_Yellow_Ribbon_1949/'
p1150
sg8
(lp1151
sg10
(lp1152
I181
aI1
aI1
asg12
S'mittlere_Filme/181_She_Wore_A_Yellow_Ribbon_1949/'
p1153
sg14
I00
sg15
Nsg16
S'//130.60.131.134/studi/Filme/mittlere_Filme/181_She_Wore_A_Yellow_Ribbon_1949\\181_1_1_SheWhoreAYellowRibbon_1949_DVD_ELAN.eaf'
p1154
sg18
I00
sba(i__main__
Movie
p1155
(dp1156
g3
Nsg4
S'MakingFashion'
p1157
sg6
S'//130.60.131.134/studi/Filme/mittlere_Filme/182_Making_Fashion_1938/'
p1158
sg8
(lp1159
S'//130.60.131.134/studi/Filme/mittlere_Filme/182_Making_Fashion_1938\\182_1_1_MakingFashion_1938_DVD_ELAN.txt'
p1160
asg10
(lp1161
I182
aI1
aI1
asg12
S'mittlere_Filme/182_Making_Fashion_1938/'
p1162
sg14
I00
sg15
Nsg16
S'//130.60.131.134/studi/Filme/mittlere_Filme/182_Making_Fashion_1938\\ELAN_Projektdatei\\182_1_1_MakingFashion_1938_DVD_ELAN.eaf'
p1163
sg18
I00
sba(i__main__
Movie
p1164
(dp1165
g3
Nsg4
S'Kolberg'
p1166
sg6
S'//130.60.131.134/studi/Filme/mittlere_Filme/183_Kolberg_1945/'
p1167
sg8
(lp1168
S'//130.60.131.134/studi/Filme/mittlere_Filme/183_Kolberg_1945\\183_1_3_Kolberg_1945_DVD_ELAN.txt'
p1169
asg10
(lp1170
I183
aI1
aI3
asg12
S'mittlere_Filme/183_Kolberg_1945/'
p1171
sg14
I00
sg15
Nsg16
S'//130.60.131.134/studi/Filme/mittlere_Filme/183_Kolberg_1945\\183_1_3_Kolberg_1945_DVD_ELAN.eaf'
p1172
sg18
I00
sba(i__main__
Movie
p1173
(dp1174
g3
Nsg4
S'BlackNarcissus'
p1175
sg6
S'//130.60.131.134/studi/Filme/mittlere_Filme/184_Black_Narcissus_1947/'
p1176
sg8
(lp1177
S'//130.60.131.134/studi/Filme/mittlere_Filme/184_Black_Narcissus_1947\\184_1_1_BlackNarcissus_1947_DVD_ELAN_BF.txt'
p1178
asg10
(lp1179
I184
aI1
aI1
asg12
S'mittlere_Filme/184_Black_Narcissus_1947/'
p1180
sg14
I00
sg15
Nsg16
S'//130.60.131.134/studi/Filme/mittlere_Filme/184_Black_Narcissus_1947\\184_1_1_BlackNarcissus_1947_DVD_ELAN_BF.eaf'
p1181
sg18
I00
sba(i__main__
Movie
p1182
(dp1183
g3
Nsg4
S'TheAdventuresOfRobinHood'
p1184
sg6
S'//130.60.131.134/studi/Filme/mittlere_Filme/185_The_Adventures_of_Robin_Hood_1938/'
p1185
sg8
(lp1186
S'//130.60.131.134/studi/Filme/mittlere_Filme/185_The_Adventures_of_Robin_Hood_1938\\185_1_1_TheAdventuresOfRobinHood_1938_DVD_ELAN.txt'
p1187
asg10
(lp1188
I185
aI1
aI1
asg12
S'mittlere_Filme/185_The_Adventures_of_Robin_Hood_1938/'
p1189
sg14
I00
sg15
Nsg16
S'//130.60.131.134/studi/Filme/mittlere_Filme/185_The_Adventures_of_Robin_Hood_1938\\ELAN_Projektdatei\\185_1_1_TheAdventuresOfRobinHood_1938_DVD_ELAN.eaf'
p1190
sg18
I00
sba(i__main__
Movie
p1191
(dp1192
g3
Nsg4
S'TheLongLongTrailer'
p1193
sg6
S'//130.60.131.134/studi/Filme/mittlere_Filme/1866_The_Long_Long_Trailer_1953/'
p1194
sg8
(lp1195
S'//130.60.131.134/studi/Filme/mittlere_Filme/1866_The_Long_Long_Trailer_1953\\1866_1_1_TheLongLongTrailer_1953_DVD_ELAN.txt'
p1196
asg10
(lp1197
I1866
aI1
aI1
asg12
S'mittlere_Filme/1866_The_Long_Long_Trailer_1953/'
p1198
sg14
I00
sg15
Nsg16
S'//130.60.131.134/studi/Filme/mittlere_Filme/1866_The_Long_Long_Trailer_1953\\1866_1_1_TheLongLongTrailer_1953_DVD_ELAN.eaf'
p1199
sg18
I00
sba(i__main__
Movie
p1200
(dp1201
g3
Nsg4
S'Muenchhausen'
p1202
sg6
S'//130.60.131.134/studi/Filme/mittlere_Filme/186_Muenchhausen_1943/'
p1203
sg8
(lp1204
S'//130.60.131.134/studi/Filme/mittlere_Filme/186_Muenchhausen_1943\\186_1_1_Muenchhausen_1943_DVD_ELAN.txt'
p1205
asg10
(lp1206
I186
aI1
aI1
asg12
S'mittlere_Filme/186_Muenchhausen_1943/'
p1207
sg14
I00
sg15
Nsg16
S'//130.60.131.134/studi/Filme/mittlere_Filme/186_Muenchhausen_1943\\ELAN_Projektdatei\\186_1_1_Muenchhausen_1943_DVD_ELAN.eaf'
p1208
sg18
I00
sba(i__main__
Movie
p1209
(dp1210
g3
Nsg4
S'BloodAndSand'
p1211
sg6
S'//130.60.131.134/studi/Filme/mittlere_Filme/18_Blood_and_Sand_1941/'
p1212
sg8
(lp1213
S'//130.60.131.134/studi/Filme/mittlere_Filme/18_Blood_and_Sand_1941\\18_1_1_BloodAndSand_1941_DVD_ELAN.txt'
p1214
asg10
(lp1215
I18
aI1
aI1
asg12
S'mittlere_Filme/18_Blood_and_Sand_1941/'
p1216
sg14
I00
sg15
Nsg16
S'//130.60.131.134/studi/Filme/mittlere_Filme/18_Blood_and_Sand_1941\\ELAN Projektdatei\\18_1_1_BloodAndSand_1941_DVD_ELAN_VR.eaf'
p1217
sg18
I00
sba(i__main__
Movie
p1218
(dp1219
g3
Nsg4
S'Immensee'
p1220
sg6
S'//130.60.131.134/studi/Filme/mittlere_Filme/223_Immensee_1943/'
p1221
sg8
(lp1222
S'//130.60.131.134/studi/Filme/mittlere_Filme/223_Immensee_1943\\223_1_1_Immensee_1943_DVD_ELAN.txt'
p1223
asg10
(lp1224
I223
aI1
aI1
asg12
S'mittlere_Filme/223_Immensee_1943/'
p1225
sg14
I00
sg15
Nsg16
S'//130.60.131.134/studi/Filme/mittlere_Filme/223_Immensee_1943\\ELAN_Projektdatei\\223_1_1_Immensee_1943_DVD_ELAN.eaf'
p1226
sg18
I00
sba(i__main__
Movie
p1227
(dp1228
g3
Nsg4
S'Opfergang'
p1229
sg6
S'//130.60.131.134/studi/Filme/mittlere_Filme/224_Opfergang_1944/'
p1230
sg8
(lp1231
S'//130.60.131.134/studi/Filme/mittlere_Filme/224_Opfergang_1944\\224_1_1_Opfergang_1944_DVD_ELAN.txt'
p1232
asg10
(lp1233
I224
aI1
aI1
asg12
S'mittlere_Filme/224_Opfergang_1944/'
p1234
sg14
I00
sg15
Nsg16
S'//130.60.131.134/studi/Filme/mittlere_Filme/224_Opfergang_1944\\224_1_1_ELAN_Projektdatei\\224_1_1_Opfergang_1944_DVD_ELAN.eaf'
p1235
sg18
I00
sba(i__main__
Movie
p1236
(dp1237
g3
Nsg4
S'NewYork'
p1238
sg6
S'//130.60.131.134/studi/Filme/mittlere_Filme/225_New_York_1938/'
p1239
sg8
(lp1240
S'//130.60.131.134/studi/Filme/mittlere_Filme/225_New_York_1938\\225_1_1_NewYork_1938_DVD_ELAN.txt'
p1241
asg10
(lp1242
I225
aI1
aI1
asg12
S'mittlere_Filme/225_New_York_1938/'
p1243
sg14
I00
sg15
Nsg16
S'//130.60.131.134/studi/Filme/mittlere_Filme/225_New_York_1938\\225_1_1_NewYork_1938_DVD_ELAN.eaf'
p1244
sg18
I00
sba(i__main__
Movie
p1245
(dp1246
g3
Nsg4
S'JeunesFemmesPrenantLeThe'
p1247
sg6
S'//130.60.131.134/studi/Filme/mittlere_Filme/226_Jeunes_femmes_prenant_le_the_1937/'
p1248
sg8
(lp1249
S'//130.60.131.134/studi/Filme/mittlere_Filme/226_Jeunes_femmes_prenant_le_the_1937\\226_1_1_JeunesFemmesPrenantLeThe_1937_DVD_ELAN.txt'
p1250
asg10
(lp1251
I226
aI1
aI1
asg12
S'mittlere_Filme/226_Jeunes_femmes_prenant_le_the_1937/'
p1252
sg14
I00
sg15
Nsg16
S'//130.60.131.134/studi/Filme/mittlere_Filme/226_Jeunes_femmes_prenant_le_the_1937\\ELAN_Projektdatei\\226_1_1_JeunesFemmesPrenantLeThe_1937_DVD_ELAN.eaf'
p1253
sg18
I00
sba(i__main__
Movie
p1254
(dp1255
g3
Nsg4
S'SnowWhiteAndTheSevenDwarfs'
p1256
sg6
S'//130.60.131.134/studi/Filme/mittlere_Filme/228_Snow_White_And_The_Seven_Dwarfs_1937/'
p1257
sg8
(lp1258
sg10
(lp1259
I228
aI1
aI1
asg12
S'mittlere_Filme/228_Snow_White_And_The_Seven_Dwarfs_1937/'
p1260
sg14
I00
sg15
Nsg16
S'//130.60.131.134/studi/Filme/mittlere_Filme/228_Snow_White_And_The_Seven_Dwarfs_1937\\228_1_1_SnowWhiteAndTheSevenDwarfs_1937_DVD_ELAN.eaf'
p1261
sg18
I00
sba(i__main__
Movie
p1262
(dp1263
g3
Nsg4
S'MeetMeinStLouis'
p1264
sg6
S'//130.60.131.134/studi/Filme/mittlere_Filme/230_Meet_Me_in_St_Louis_1944/'
p1265
sg8
(lp1266
S'//130.60.131.134/studi/Filme/mittlere_Filme/230_Meet_Me_in_St_Louis_1944\\230_1_1_MeetMeinStLouis_1944_DVD_exp.txt'
p1267
asg10
(lp1268
I230
aI1
aI1
asg12
S'mittlere_Filme/230_Meet_Me_in_St_Louis_1944/'
p1269
sg14
I00
sg15
Nsg16
S'//130.60.131.134/studi/Filme/mittlere_Filme/230_Meet_Me_in_St_Louis_1944\\230_1_1_MeetMeinStLouis_1944_DVD_ELAN_BF.eaf'
p1270
sg18
I00
sba(i__main__
Movie
p1271
(dp1272
g3
Nsg4
S'TheTrailOfTheLonesomePine'
p1273
sg6
S'//130.60.131.134/studi/Filme/mittlere_Filme/231_The_Trail_of_the_Lonesome_Pine_1936/'
p1274
sg8
(lp1275
S'//130.60.131.134/studi/Filme/mittlere_Filme/231_The_Trail_of_the_Lonesome_Pine_1936\\231_1_1_TheTrailOfTheLonesomePine_1936_DVD_ELAN.txt'
p1276
asg10
(lp1277
I231
aI1
aI1
asg12
S'mittlere_Filme/231_The_Trail_of_the_Lonesome_Pine_1936/'
p1278
sg14
I00
sg15
Nsg16
S'//130.60.131.134/studi/Filme/mittlere_Filme/231_The_Trail_of_the_Lonesome_Pine_1936\\231_1_1_TheTrailOfTheLonesomePine_1936_DVD_ELAN.eaf'
p1279
sg18
I00
sba(i__main__
Movie
p1280
(dp1281
g3
Nsg4
S'TheTalesOfHoffmann'
p1282
sg6
S'//130.60.131.134/studi/Filme/mittlere_Filme/237_The_Tales_of_Hoffmann_1951/'
p1283
sg8
(lp1284
S'//130.60.131.134/studi/Filme/mittlere_Filme/237_The_Tales_of_Hoffmann_1951\\237_1_2_TheTalesOfHoffmann_1951_DVD_ELAN_BF.txt'
p1285
asg10
(lp1286
I237
aI1
aI2
asg12
S'mittlere_Filme/237_The_Tales_of_Hoffmann_1951/'
p1287
sg14
I00
sg15
Nsg16
S'//130.60.131.134/studi/Filme/mittlere_Filme/237_The_Tales_of_Hoffmann_1951\\237_1_2_TheTalesOfHoffmann_1951_DVD_ELAN_BF.eaf'
p1288
sg18
I00
sba(i__main__
Movie
p1289
(dp1290
g3
Nsg4
S'AnAmericanInParis'
p1291
sg6
S'//130.60.131.134/studi/Filme/mittlere_Filme/249_An_American_in_Paris_1951/'
p1292
sg8
(lp1293
S'//130.60.131.134/studi/Filme/mittlere_Filme/249_An_American_in_Paris_1951\\249_1_1_AnAmericanInParis_1951_DVD_ELAN.txt'
p1294
asg10
(lp1295
I249
aI1
aI1
asg12
S'mittlere_Filme/249_An_American_in_Paris_1951/'
p1296
sg14
I00
sg15
Nsg16
S'//130.60.131.134/studi/Filme/mittlere_Filme/249_An_American_in_Paris_1951\\249_1_1_AnAmericanInParis_1951_DVD_ELAN.eaf'
p1297
sg18
I00
sba(i__main__
Movie
p1298
(dp1299
g3
Nsg4
S'ImWeissenRoessl'
p1300
sg6
S'//130.60.131.134/studi/Filme/mittlere_Filme/2564_Im_Weissen_Roessl_1952/'
p1301
sg8
(lp1302
S'//130.60.131.134/studi/Filme/mittlere_Filme/2564_Im_Weissen_Roessl_1952\\2564_1_1_ImWeissenRoessl_1952_DVD_ELAN.txt'
p1303
asg10
(lp1304
I2564
aI1
aI1
asg12
S'mittlere_Filme/2564_Im_Weissen_Roessl_1952/'
p1305
sg14
I00
sg15
Nsg16
S'//130.60.131.134/studi/Filme/mittlere_Filme/2564_Im_Weissen_Roessl_1952\\2564_1_1_ImWeissenRoessl_1952_DVD_ELAN.eaf'
p1306
sg18
I00
sba(i__main__
Movie
p1307
(dp1308
g3
Nsg4
S'GentlemenPreferBlondes'
p1309
sg6
S'//130.60.131.134/studi/Filme/mittlere_Filme/256_Gentlemen_Prefer_Blondes_1953/'
p1310
sg8
(lp1311
sg10
(lp1312
I256
aI1
aI1
asg12
S'mittlere_Filme/256_Gentlemen_Prefer_Blondes_1953/'
p1313
sg14
I00
sg15
Nsg16
S'//130.60.131.134/studi/Filme/mittlere_Filme/256_Gentlemen_Prefer_Blondes_1953\\256_1_1GentlemenPreferBlondes_1953_DVD.eaf'
p1314
sg18
I00
sba(i__main__
Movie
p1315
(dp1316
g3
Nsg4
S'JohnnyGuitar'
p1317
sg6
S'//130.60.131.134/studi/Filme/mittlere_Filme/258_Johnny_Guitar_1954/'
p1318
sg8
(lp1319
S'//130.60.131.134/studi/Filme/mittlere_Filme/258_Johnny_Guitar_1954\\258_1_1_JohnnyGuitar_1954_DVD_ELAN.txt'
p1320
asg10
(lp1321
I258
aI1
aI1
asg12
S'mittlere_Filme/258_Johnny_Guitar_1954/'
p1322
sg14
I00
sg15
Nsg16
S'//130.60.131.134/studi/Filme/mittlere_Filme/258_Johnny_Guitar_1954\\ELAN_Projektdatei\\258_1_1_JohnnyGuitar_1954_DVD_ELAN.eaf'
p1323
sg18
I00
sba(i__main__
Movie
p1324
(dp1325
g3
Nsg4
S'JourDeFete'
p1326
sg6
S'//130.60.131.134/studi/Filme/mittlere_Filme/25_Jour_de_fete_1949/'
p1327
sg8
(lp1328
S'//130.60.131.134/studi/Filme/mittlere_Filme/25_Jour_de_fete_1949\\25_1_1_JourDeFete_1949_DVD_ELAN.txt'
p1329
asg10
(lp1330
I25
aI1
aI1
asg12
S'mittlere_Filme/25_Jour_de_fete_1949/'
p1331
sg14
I00
sg15
Nsg16
S'//130.60.131.134/studi/Filme/mittlere_Filme/25_Jour_de_fete_1949\\ELAN_Projektdatei\\25_1_1_JourDeFete_1949_DVD_ELAN.eaf'
p1332
sg18
I00
sba(i__main__
Movie
p1333
(dp1334
g3
Nsg4
S'TheGardenOfAllah'
p1335
sg6
S'//130.60.131.134/studi/Filme/mittlere_Filme/266_The_Garden_of_Allah_1936/'
p1336
sg8
(lp1337
S'//130.60.131.134/studi/Filme/mittlere_Filme/266_The_Garden_of_Allah_1936\\266_1_1_TheGardenOfAllah_1936_DVD_ELAN.txt'
p1338
asg10
(lp1339
I266
aI1
aI1
asg12
S'mittlere_Filme/266_The_Garden_of_Allah_1936/'
p1340
sg14
I00
sg15
Nsg16
S'//130.60.131.134/studi/Filme/mittlere_Filme/266_The_Garden_of_Allah_1936\\266_1_1_TheGardenOfAllah_1936_DVD_ELAN.eaf'
p1341
sg18
I00
sba(i__main__
Movie
p1342
(dp1343
g3
Nsg4
S'Senso'
p1344
sg6
S'//130.60.131.134/studi/Filme/mittlere_Filme/268_Senso_1954/'
p1345
sg8
(lp1346
sg10
(lp1347
I268
aI1
aI1
asg12
S'mittlere_Filme/268_Senso_1954/'
p1348
sg14
I00
sg15
Nsg16
S'//130.60.131.134/studi/Filme/mittlere_Filme/268_Senso_1954\\268_1_1_Senso_1954_DVD_ELAN.eaf'
p1349
sg18
I00
sba(i__main__
Movie
p1350
(dp1351
g3
Nsg4
S'MoulinRouge'
p1352
sg6
S'//130.60.131.134/studi/Filme/mittlere_Filme/27_Moulin_Rouge_1952/'
p1353
sg8
(lp1354
sg10
(lp1355
I27
aI1
aI1
asg12
S'mittlere_Filme/27_Moulin_Rouge_1952/'
p1356
sg14
I00
sg15
Nsg16
S'//130.60.131.134/studi/Filme/mittlere_Filme/27_Moulin_Rouge_1952\\27_1_1_MoulinRouge_1952_DVD.eaf'
p1357
sg18
I00
sba(i__main__
Movie
p1358
(dp1359
g3
Nsg4
S'HeavenCanWait'
p1360
sg6
S'//130.60.131.134/studi/Filme/mittlere_Filme/289_Heaven_Can_Wait_1943/'
p1361
sg8
(lp1362
S'//130.60.131.134/studi/Filme/mittlere_Filme/289_Heaven_Can_Wait_1943\\289_1_1_HeavenCanWait_1943_DVD_ELAN.txt'
p1363
asg10
(lp1364
I289
aI1
aI1
asg12
S'mittlere_Filme/289_Heaven_Can_Wait_1943/'
p1365
sg14
I00
sg15
Nsg16
S'//130.60.131.134/studi/Filme/mittlere_Filme/289_Heaven_Can_Wait_1943\\289_1_1_ELAN_Projektdatei\\289_1_1_HeavenCanWait_1943_DVD_ELAN.eaf'
p1366
sg18
I00
sba(i__main__
Movie
p1367
(dp1368
g3
Nsg4
S'DasKalteHerz'
p1369
sg6
S'//130.60.131.134/studi/Filme/mittlere_Filme/293_Das_kalte_Herz_1950/'
p1370
sg8
(lp1371
S'//130.60.131.134/studi/Filme/mittlere_Filme/293_Das_kalte_Herz_1950\\ELAN_Projektdatei\\293_1_1_DasKalteHerz_1950_DVD_ELAN.txt'
p1372
asg10
(lp1373
I293
aI1
aI1
asg12
S'mittlere_Filme/293_Das_kalte_Herz_1950/'
p1374
sg14
I00
sg15
Nsg16
S'//130.60.131.134/studi/Filme/mittlere_Filme/293_Das_kalte_Herz_1950\\ELAN_Projektdatei\\293_1_1_DasKalteHerz_1950_DVD_ELAN.eaf'
p1375
sg18
I00
sba(i__main__
Movie
p1376
(dp1377
g3
Nsg4
S'TheBlackSwan'
p1378
sg6
S'//130.60.131.134/studi/Filme/mittlere_Filme/299_The_Black_Swan_1942/'
p1379
sg8
(lp1380
sg10
(lp1381
I299
aI1
aI1
asg12
S'mittlere_Filme/299_The_Black_Swan_1942/'
p1382
sg14
I00
sg15
Nsg16
S'//130.60.131.134/studi/Filme/mittlere_Filme/299_The_Black_Swan_1942\\299_1_1_TheBlackSwan_1942_DVD_ELAN.eaf'
p1383
sg18
I00
sba(i__main__
Movie
p1384
(dp1385
g3
Nsg4
S'FlightToMars'
p1386
sg6
S'//130.60.131.134/studi/Filme/mittlere_Filme/2_Flight_to_Mars_1951/'
p1387
sg8
(lp1388
sg10
(lp1389
I2
aI1
aI1
asg12
S'mittlere_Filme/2_Flight_to_Mars_1951/'
p1390
sg14
I00
sg15
Nsg16
S'//130.60.131.134/studi/Filme/mittlere_Filme/2_Flight_to_Mars_1951\\2_1_1_FlightToMars_1951_DVD_ELAN.eaf'
p1391
sg18
I00
sba(i__main__
Movie
p1392
(dp1393
g3
Nsg4
S'Steel'
p1394
sg6
S'//130.60.131.134/studi/Filme/mittlere_Filme/300_Steel_1945/'
p1395
sg8
(lp1396
S'//130.60.131.134/studi/Filme/mittlere_Filme/300_Steel_1945\\300_1_2_Steel_1945_DVD_ELAN.txt'
p1397
asg10
(lp1398
I300
aI1
aI2
asg12
S'mittlere_Filme/300_Steel_1945/'
p1399
sg14
I00
sg15
Nsg16
S'//130.60.131.134/studi/Filme/mittlere_Filme/300_Steel_1945\\300_1_2_Steel_1945_DVD_ELAN.eaf'
p1400
sg18
I00
sba(i__main__
Movie
p1401
(dp1402
g3
Nsg4
S'Rope'
p1403
sg6
S'//130.60.131.134/studi/Filme/mittlere_Filme/301_Rope_1948/'
p1404
sg8
(lp1405
S'//130.60.131.134/studi/Filme/mittlere_Filme/301_Rope_1948\\301_1_2_Rope_1948_DVD_ELAN.txt'
p1406
asg10
(lp1407
I301
aI1
aI2
asg12
S'mittlere_Filme/301_Rope_1948/'
p1408
sg14
I00
sg15
Nsg16
S'//130.60.131.134/studi/Filme/mittlere_Filme/301_Rope_1948\\301_1_2_ELAN_Projektdatei\\301_1_2_Rope_1948_DVD_ELAN.eaf'
p1409
sg18
I00
sba(i__main__
Movie
p1410
(dp1411
g3
Nsg4
S'TroopingTheColour'
p1412
sg6
S'//130.60.131.134/studi/Filme/mittlere_Filme/3133_Trooping_the_Colour_1937/'
p1413
sg8
(lp1414
S'//130.60.131.134/studi/Filme/mittlere_Filme/3133_Trooping_the_Colour_1937\\3133_1_1_TroopingTheColour_1937_DVD_ELAN.txt'
p1415
asg10
(lp1416
I3133
aI1
aI1
asg12
S'mittlere_Filme/3133_Trooping_the_Colour_1937/'
p1417
sg14
I00
sg15
Nsg16
S'//130.60.131.134/studi/Filme/mittlere_Filme/3133_Trooping_the_Colour_1937\\3133_1_1_TroopingTheColour_1937_DVD_ELAN.eaf'
p1418
sg18
I00
sba(i__main__
Movie
p1419
(dp1420
g3
Nsg4
S'TheRoyalOccasion'
p1421
sg6
S'//130.60.131.134/studi/Filme/mittlere_Filme/3139_The_Royal_Occasion_1953/'
p1422
sg8
(lp1423
S'//130.60.131.134/studi/Filme/mittlere_Filme/3139_The_Royal_Occasion_1953\\3139_1_1_TheRoyalOccasion_1953_DVD_ELAN.txt'
p1424
asg10
(lp1425
I3139
aI1
aI1
asg12
S'mittlere_Filme/3139_The_Royal_Occasion_1953/'
p1426
sg14
I00
sg15
Nsg16
S'//130.60.131.134/studi/Filme/mittlere_Filme/3139_The_Royal_Occasion_1953\\3139_1_1_TheRoyalOccasion_1953_DVD_ELAN.eaf'
p1427
sg18
I00
sba(i__main__
Movie
p1428
(dp1429
g3
Nsg4
S'BrokenArrow'
p1430
sg6
S'//130.60.131.134/studi/Filme/mittlere_Filme/314_Broken_Arrow_1950/'
p1431
sg8
(lp1432
sg10
(lp1433
I314
aI1
aI1
asg12
S'mittlere_Filme/314_Broken_Arrow_1950/'
p1434
sg14
I00
sg15
Nsg16
S'//130.60.131.134/studi/Filme/mittlere_Filme/314_Broken_Arrow_1950\\314_1_1_BrokenArrow_1950_DVD_ELAN.eaf'
p1435
sg18
I00
sba(i__main__
Movie
p1436
(dp1437
g3
Nsg4
S'ThePirate'
p1438
sg6
S'//130.60.131.134/studi/Filme/mittlere_Filme/3151_The_Pirate_1949/'
p1439
sg8
(lp1440
sg10
(lp1441
I3151
aI1
aI1
asg12
S'mittlere_Filme/3151_The_Pirate_1949/'
p1442
sg14
I00
sg15
Nsg16
S'//130.60.131.134/studi/Filme/mittlere_Filme/3151_The_Pirate_1949\\3151_1_1_ThePirate_1949_DVD_ELAN.eaf'
p1443
sg18
I00
sba(i__main__
Movie
p1444
(dp1445
g3
Nsg4
S'WesternUnion'
p1446
sg6
S'//130.60.131.134/studi/Filme/mittlere_Filme/3170_Western_Union_1941/'
p1447
sg8
(lp1448
S'//130.60.131.134/studi/Filme/mittlere_Filme/3170_Western_Union_1941\\3170_1_1_WesternUnion_1941_DVD_ELAN.txt'
p1449
asg10
(lp1450
I3170
aI1
aI1
asg12
S'mittlere_Filme/3170_Western_Union_1941/'
p1451
sg14
I00
sg15
Nsg16
S'//130.60.131.134/studi/Filme/mittlere_Filme/3170_Western_Union_1941\\3170_1_1_WesternUnion_1941_DVD_ELAN.eaf'
p1452
sg18
I00
sba(i__main__
Movie
p1453
(dp1454
g3
Nsg4
S'LaFiestaDeSantaBarbara'
p1455
sg6
S'//130.60.131.134/studi/Filme/mittlere_Filme/3172_La_Fiesta_de_Santa_Barbara_1935/'
p1456
sg8
(lp1457
S'//130.60.131.134/studi/Filme/mittlere_Filme/3172_La_Fiesta_de_Santa_Barbara_1935\\3172_1_1_LaFiestaDeSantaBarbara_1935_DVD_ELAN.txt'
p1458
asg10
(lp1459
I3172
aI1
aI1
asg12
S'mittlere_Filme/3172_La_Fiesta_de_Santa_Barbara_1935/'
p1460
sg14
I00
sg15
Nsg16
S'//130.60.131.134/studi/Filme/mittlere_Filme/3172_La_Fiesta_de_Santa_Barbara_1935\\3172_1_1_LaFiestaDeSantaBarbara_1935_DVD_ELAN.eaf'
p1461
sg18
I00
sba(i__main__
Movie
p1462
(dp1463
g3
Nsg4
S'FarewellTopsails'
p1464
sg6
S'//130.60.131.134/studi/Filme/mittlere_Filme/323_Farewell_Topsails_1937/'
p1465
sg8
(lp1466
S'//130.60.131.134/studi/Filme/mittlere_Filme/323_Farewell_Topsails_1937\\323_1_1_FarewellTopsails_1937_DVD_ELAN.txt'
p1467
asg10
(lp1468
I323
aI1
aI1
asg12
S'mittlere_Filme/323_Farewell_Topsails_1937/'
p1469
sg14
I00
sg15
Nsg16
S'//130.60.131.134/studi/Filme/mittlere_Filme/323_Farewell_Topsails_1937\\ELAN_Projektdatei\\323_1_1_FarewellTopsails_1937_DVD_ELAN.eaf'
p1470
sg18
I00
sba(i__main__
Movie
p1471
(dp1472
g3
Nsg4
S'DiveBomber'
p1473
sg6
S'//130.60.131.134/studi/Filme/mittlere_Filme/324_Dive_Bomber_1941/'
p1474
sg8
(lp1475
S'//130.60.131.134/studi/Filme/mittlere_Filme/324_Dive_Bomber_1941\\324_1_1_DiveBomber_1941_DVD_ELAN.txt'
p1476
asg10
(lp1477
I324
aI1
aI1
asg12
S'mittlere_Filme/324_Dive_Bomber_1941/'
p1478
sg14
I00
sg15
Nsg16
S'//130.60.131.134/studi/Filme/mittlere_Filme/324_Dive_Bomber_1941\\324_1_1_DiveBomber_1941_DVD_ELAN.eaf'
p1479
sg18
I00
sba(i__main__
Movie
p1480
(dp1481
g3
Nsg4
S'RiverOfNoReturn'
p1482
sg6
S'//130.60.131.134/studi/Filme/mittlere_Filme/3372_River_of_No_Return_1954/'
p1483
sg8
(lp1484
S'//130.60.131.134/studi/Filme/mittlere_Filme/3372_River_of_No_Return_1954\\3372_1_1_RiverOfNoReturn_1954_DVD_ELAN.txt'
p1485
asg10
(lp1486
I3372
aI1
aI1
asg12
S'mittlere_Filme/3372_River_of_No_Return_1954/'
p1487
sg14
I00
sg15
Nsg16
S'//130.60.131.134/studi/Filme/mittlere_Filme/3372_River_of_No_Return_1954\\3372_1_1_RiverOfNoReturn_1954_DVD_ELAN.eaf'
p1488
sg18
I00
sba(i__main__
Movie
p1489
(dp1490
g3
Nsg4
S'DrCyclops'
p1491
sg6
S'//130.60.131.134/studi/Filme/mittlere_Filme/3377_Dr_Cyclops_1940/'
p1492
sg8
(lp1493
S'//130.60.131.134/studi/Filme/mittlere_Filme/3377_Dr_Cyclops_1940\\3377_1_1_DrCyclops_1940_DVD_ELAN.txt'
p1494
asg10
(lp1495
I3377
aI1
aI1
asg12
S'mittlere_Filme/3377_Dr_Cyclops_1940/'
p1496
sg14
I00
sg15
Nsg16
S'//130.60.131.134/studi/Filme/mittlere_Filme/3377_Dr_Cyclops_1940\\3377_1_1_DrCyclops_1940_DVD_ELAN.eaf'
p1497
sg18
I00
sba(i__main__
Movie
p1498
(dp1499
g3
Nsg4
S'DesertFury'
p1500
sg6
S'//130.60.131.134/studi/Filme/mittlere_Filme/3378_Desert_Fury_1947/'
p1501
sg8
(lp1502
sg10
(lp1503
I3378
aI1
aI1
asg12
S'mittlere_Filme/3378_Desert_Fury_1947/'
p1504
sg14
I00
sg15
Nsg16
S'//130.60.131.134/studi/Filme/mittlere_Filme/3378_Desert_Fury_1947\\3378_1_1_DesertFury_1947_DVD_ELAN.eaf'
p1505
sg18
I00
sba(i__main__
Movie
p1506
(dp1507
g3
Nsg4
S'Fantasia '
p1508
sg6
S'//130.60.131.134/studi/Filme/mittlere_Filme/343_Fantasia _1940/'
p1509
sg8
(lp1510
sg10
(lp1511
I343
aI1
aI1
asg12
S'mittlere_Filme/343_Fantasia _1940/'
p1512
sg14
I00
sg15
Nsg16
S'//130.60.131.134/studi/Filme/mittlere_Filme/343_Fantasia _1940\\343_1_1_Fantasia _1940_DVD_ELAN.eaf'
p1513
sg18
I00
sba(i__main__
Movie
p1514
(dp1515
g3
Nsg4
S'TheLifeAndDeathOfColonelBlimp'
p1516
sg6
S'//130.60.131.134/studi/Filme/mittlere_Filme/344_The_Life_and_Death_of_Colonel_Blimp_1943/'
p1517
sg8
(lp1518
sg10
(lp1519
I344
aI1
aI1
asg12
S'mittlere_Filme/344_The_Life_and_Death_of_Colonel_Blimp_1943/'
p1520
sg14
I00
sg15
Nsg16
S'//130.60.131.134/studi/Filme/mittlere_Filme/344_The_Life_and_Death_of_Colonel_Blimp_1943\\344_1_1_TheLifeAndDeathOfColonelBlimp_1943_DVD_ELAN.eaf'
p1521
sg18
I00
sba(i__main__
Movie
p1522
(dp1523
g3
Nsg4
S'OnTheTown'
p1524
sg6
S'//130.60.131.134/studi/Filme/mittlere_Filme/3458_On_the_Town_1949/'
p1525
sg8
(lp1526
S'//130.60.131.134/studi/Filme/mittlere_Filme/3458_On_the_Town_1949\\3458_1_1_OnTheTown_1949_DVD_ELAN.txt'
p1527
asg10
(lp1528
I3458
aI1
aI1
asg12
S'mittlere_Filme/3458_On_the_Town_1949/'
p1529
sg14
I00
sg15
Nsg16
S'//130.60.131.134/studi/Filme/mittlere_Filme/3458_On_the_Town_1949\\3458_1_1_OnTheTown_1949_DVD_ELAN.eaf'
p1530
sg18
I00
sba(i__main__
Movie
p1531
(dp1532
g3
Nsg4
S'TheFarm'
p1533
sg6
S'//130.60.131.134/studi/Filme/mittlere_Filme/345_The_Farm_1938/'
p1534
sg8
(lp1535
S'//130.60.131.134/studi/Filme/mittlere_Filme/345_The_Farm_1938\\345_1_1_TheFarm_1938_DVD_ELAN.txt'
p1536
asg10
(lp1537
I345
aI1
aI1
asg12
S'mittlere_Filme/345_The_Farm_1938/'
p1538
sg14
I00
sg15
Nsg16
S'//130.60.131.134/studi/Filme/mittlere_Filme/345_The_Farm_1938\\ELAN_Projektdatei\\345_1_1_TheFarm_1938_DVD_ELAN.eaf'
p1539
sg18
I00
sba(i__main__
Movie
p1540
(dp1541
g3
Nsg4
S'UnderCapricorn'
p1542
sg6
S'//130.60.131.134/studi/Filme/mittlere_Filme/353_Under_Capricorn_1949/'
p1543
sg8
(lp1544
sg10
(lp1545
I353
aI1
aI1
asg12
S'mittlere_Filme/353_Under_Capricorn_1949/'
p1546
sg14
I00
sg15
Nsg16
S'//130.60.131.134/studi/Filme/mittlere_Filme/353_Under_Capricorn_1949\\353_1_1_UnderCapricorn_1949_DVD_ELAN.eaf'
p1547
sg18
I00
sba(i__main__
Movie
p1548
(dp1549
g3
Nsg4
S'LassieComeHome'
p1550
sg6
S'//130.60.131.134/studi/Filme/mittlere_Filme/369_Lassie_Come_Home_1943/'
p1551
sg8
(lp1552
sg10
(lp1553
I369
aI1
aI1
asg12
S'mittlere_Filme/369_Lassie_Come_Home_1943/'
p1554
sg14
I00
sg15
Nsg16
S'//130.60.131.134/studi/Filme/mittlere_Filme/369_Lassie_Come_Home_1943\\369_1_1_LassieComeHome_1943_DVD_ELAN.eaf'
p1555
sg18
I00
sba(i__main__
Movie
p1556
(dp1557
g3
Nsg4
S'TheGangSAllHere'
p1558
sg6
S'//130.60.131.134/studi/Filme/mittlere_Filme/371_The_Gang_S_All_Here_1943/'
p1559
sg8
(lp1560
S'//130.60.131.134/studi/Filme/mittlere_Filme/371_The_Gang_S_All_Here_1943\\371_1_1_TheGangSAllHere_1943_Bluray_ELAN_BF.txt'
p1561
asg10
(lp1562
I371
aI1
aI1
asg12
S'mittlere_Filme/371_The_Gang_S_All_Here_1943/'
p1563
sg14
I00
sg15
Nsg16
S'//130.60.131.134/studi/Filme/mittlere_Filme/371_The_Gang_S_All_Here_1943\\371_1_1_TheGangSAllHere_1943_Bluray_ELAN_BF.eaf'
p1564
sg18
I00
sba(i__main__
Movie
p1565
(dp1566
g3
Nsg4
S'TheMikado'
p1567
sg6
S'//130.60.131.134/studi/Filme/mittlere_Filme/377_The_Mikado_1939/'
p1568
sg8
(lp1569
S'//130.60.131.134/studi/Filme/mittlere_Filme/377_The_Mikado_1939\\377_1_1_TheMikado_1939_DVD_ELAN.txt'
p1570
asg10
(lp1571
I377
aI1
aI1
asg12
S'mittlere_Filme/377_The_Mikado_1939/'
p1572
sg14
I00
sg15
Nsg16
S'//130.60.131.134/studi/Filme/mittlere_Filme/377_The_Mikado_1939\\ELAN_Projektdatei\\377_1_1_TheMikado_1939_DVD_ELAN.eaf'
p1573
sg18
I00
sba(i__main__
Movie
p1574
(dp1575
g3
Nsg4
S'WesternApproaches'
p1576
sg6
S'//130.60.131.134/studi/Filme/mittlere_Filme/382_Western_Approaches_1944/'
p1577
sg8
(lp1578
S'//130.60.131.134/studi/Filme/mittlere_Filme/382_Western_Approaches_1944\\382_1_1_WesternApproaches_1944_DVD_ELAN.txt'
p1579
asg10
(lp1580
I382
aI1
aI1
asg12
S'mittlere_Filme/382_Western_Approaches_1944/'
p1581
sg14
I00
sg15
Nsg16
S'//130.60.131.134/studi/Filme/mittlere_Filme/382_Western_Approaches_1944\\382_1_1_WesternApproaches_1944_DVD_ELAN.eaf'
p1582
sg18
I00
sba(i__main__
Movie
p1583
(dp1584
g3
Nsg4
S'BlitheSpirit'
p1585
sg6
S'//130.60.131.134/studi/Filme/mittlere_Filme/383_Blithe_Spirit_1945/'
p1586
sg8
(lp1587
S'//130.60.131.134/studi/Filme/mittlere_Filme/383_Blithe_Spirit_1945\\383_1_1_BlitheSpirit_1945_DVD_ELAN.txt'
p1588
asg10
(lp1589
I383
aI1
aI1
asg12
S'mittlere_Filme/383_Blithe_Spirit_1945/'
p1590
sg14
I00
sg15
Nsg16
S'//130.60.131.134/studi/Filme/mittlere_Filme/383_Blithe_Spirit_1945\\ELAN_Projektdatei\\383_1_1_BlitheSpirit_1945_DVD_ELAN.eaf'
p1591
sg18
I00
sba(i__main__
Movie
p1592
(dp1593
g3
Nsg4
S'AMatterOfLifeAndDeath'
p1594
sg6
S'//130.60.131.134/studi/Filme/mittlere_Filme/386_A_Matter_of_Life_and_Death_1946/'
p1595
sg8
(lp1596
S'//130.60.131.134/studi/Filme/mittlere_Filme/386_A_Matter_of_Life_and_Death_1946\\386_1_1_AMatterOfLifeAndDeath_1946_DVD_ELAN.txt'
p1597
asg10
(lp1598
I386
aI1
aI1
asg12
S'mittlere_Filme/386_A_Matter_of_Life_and_Death_1946/'
p1599
sg14
I00
sg15
Nsg16
S'//130.60.131.134/studi/Filme/mittlere_Filme/386_A_Matter_of_Life_and_Death_1946\\386_1_1_AMatterOfLifeAndDeath_1946_DVD_ELAN.eaf'
p1600
sg18
I00
sba(i__main__
Movie
p1601
(dp1602
g3
Nsg4
S'DrumsAlongTheMohawk'
p1603
sg6
S'//130.60.131.134/studi/Filme/mittlere_Filme/391_Drums_along_the_Mohawk_1939/'
p1604
sg8
(lp1605
S'//130.60.131.134/studi/Filme/mittlere_Filme/391_Drums_along_the_Mohawk_1939\\391_1_1_DrumsAlongTheMohawk_1939_DVD_ELAN.txt'
p1606
asg10
(lp1607
I391
aI1
aI1
asg12
S'mittlere_Filme/391_Drums_along_the_Mohawk_1939/'
p1608
sg14
I00
sg15
Nsg16
S'//130.60.131.134/studi/Filme/mittlere_Filme/391_Drums_along_the_Mohawk_1939\\391_1_1_DrumsAlongTheMohawk_1939_DVD_ELAN.eaf'
p1609
sg18
I00
sba(i__main__
Movie
p1610
(dp1611
g3
Nsg4
S'ThePrivateLivesOfElizabethAndEssex'
p1612
sg6
S'//130.60.131.134/studi/Filme/mittlere_Filme/392_The_Private_Lives_of_Elizabeth_and_Essex_1939/'
p1613
sg8
(lp1614
S'//130.60.131.134/studi/Filme/mittlere_Filme/392_The_Private_Lives_of_Elizabeth_and_Essex_1939\\392_1_1_ThePrivateLivesOfElizabethAndEssex_1939_DVD_ELAN_BF.txt'
p1615
asg10
(lp1616
I392
aI1
aI1
asg12
S'mittlere_Filme/392_The_Private_Lives_of_Elizabeth_and_Essex_1939/'
p1617
sg14
I00
sg15
Nsg16
S'//130.60.131.134/studi/Filme/mittlere_Filme/392_The_Private_Lives_of_Elizabeth_and_Essex_1939\\392_1_1_ThePrivateLivesOfElizabethAndEssex_1939_DVD_ELAN_BF.eaf'
p1618
sg18
I00
sba(i__main__
Movie
p1619
(dp1620
g3
Nsg4
S'Wilson'
p1621
sg6
S'//130.60.131.134/studi/Filme/mittlere_Filme/394_Wilson_1944/'
p1622
sg8
(lp1623
sg10
(lp1624
I394
aI1
aI1
asg12
S'mittlere_Filme/394_Wilson_1944/'
p1625
sg14
I00
sg15
Nsg16
S'//130.60.131.134/studi/Filme/mittlere_Filme/394_Wilson_1944\\394_1_1_Wilson_1944_DVD_ELAN.eaf'
p1626
sg18
I00
sba(i__main__
Movie
p1627
(dp1628
g3
Nsg4
S'TheQuietMan'
p1629
sg6
S'//130.60.131.134/studi/Filme/mittlere_Filme/399_The_Quiet_Man_1952/'
p1630
sg8
(lp1631
S'//130.60.131.134/studi/Filme/mittlere_Filme/399_The_Quiet_Man_1952\\399_1_1_TheQuietMan_1992_DVD_ELAN_BF_exp.txt'
p1632
asg10
(lp1633
I399
aI1
aI1
asg12
S'mittlere_Filme/399_The_Quiet_Man_1952/'
p1634
sg14
I00
sg15
Nsg16
S'//130.60.131.134/studi/Filme/mittlere_Filme/399_The_Quiet_Man_1952\\399_1_1_TheQuietMan_1992_DVD_ELAN_BF.eaf'
p1635
sg18
I00
sba(i__main__
Movie
p1636
(dp1637
g3
Nsg4
S'Shane'
p1638
sg6
S'//130.60.131.134/studi/Filme/mittlere_Filme/400_Shane_1953/'
p1639
sg8
(lp1640
S'//130.60.131.134/studi/Filme/mittlere_Filme/400_Shane_1953\\400_1_1_Shane_1953_DVD_ELAN.txt'
p1641
asg10
(lp1642
I400
aI1
aI1
asg12
S'mittlere_Filme/400_Shane_1953/'
p1643
sg14
I00
sg15
Nsg16
S'//130.60.131.134/studi/Filme/mittlere_Filme/400_Shane_1953\\400_1_1_Shane_1953_DVD_ELAN.eaf'
p1644
sg18
I00
sba(i__main__
Movie
p1645
(dp1646
g3
Nsg4
S'DieGoldeneStadt'
p1647
sg6
S'//130.60.131.134/studi/Filme/mittlere_Filme/417_Die_goldene_Stadt_1942/'
p1648
sg8
(lp1649
S'//130.60.131.134/studi/Filme/mittlere_Filme/417_Die_goldene_Stadt_1942\\417_1_1_DieGoldeneStadt_1942_DVD_ELAN.txt'
p1650
asg10
(lp1651
I417
aI1
aI1
asg12
S'mittlere_Filme/417_Die_goldene_Stadt_1942/'
p1652
sg14
I00
sg15
Nsg16
S'//130.60.131.134/studi/Filme/mittlere_Filme/417_Die_goldene_Stadt_1942\\417_1_1_DieGoldeneStadt_1942_DVD_ELAN.eaf'
p1653
sg18
I00
sba(i__main__
Movie
p1654
(dp1655
g3
Nsg4
S'GrosseFreiheitNr7'
p1656
sg6
S'//130.60.131.134/studi/Filme/mittlere_Filme/429_Grosse_Freiheit_Nr_7_1944/'
p1657
sg8
(lp1658
sg10
(lp1659
I429
aI1
aI1
asg12
S'mittlere_Filme/429_Grosse_Freiheit_Nr_7_1944/'
p1660
sg14
I00
sg15
Nsg16
S'//130.60.131.134/studi/Filme/mittlere_Filme/429_Grosse_Freiheit_Nr_7_1944\\429_1_1_GrosseFreiheitNr7_1944_DVD_ELAN.eaf'
p1661
sg18
I00
sba(i__main__
Movie
p1662
(dp1663
g3
Nsg4
S'AStarIsBorn'
p1664
sg6
S'//130.60.131.134/studi/Filme/mittlere_Filme/434_A_Star_Is_Born_1954/'
p1665
sg8
(lp1666
sg10
(lp1667
I434
aI1
aI1
asg12
S'mittlere_Filme/434_A_Star_Is_Born_1954/'
p1668
sg14
I00
sg15
Nsg16
S'//130.60.131.134/studi/Filme/mittlere_Filme/434_A_Star_Is_Born_1954\\434_1_1_AStarIsBorn_1954_DVD_ELAN.eaf'
p1669
sg18
I00
sba(i__main__
Movie
p1670
(dp1671
g3
Nsg4
S'DieFrauMeinerTraeume'
p1672
sg6
S'//130.60.131.134/studi/Filme/mittlere_Filme/435_Die_Frau_meiner_Traeume_1944/'
p1673
sg8
(lp1674
S'//130.60.131.134/studi/Filme/mittlere_Filme/435_Die_Frau_meiner_Traeume_1944\\435_1_1_DieFrauMeinerTraeume_1944_DVD_ELAN.txt'
p1675
asg10
(lp1676
I435
aI1
aI1
asg12
S'mittlere_Filme/435_Die_Frau_meiner_Traeume_1944/'
p1677
sg14
I00
sg15
Nsg16
S'//130.60.131.134/studi/Filme/mittlere_Filme/435_Die_Frau_meiner_Traeume_1944\\435_1_1_DieFrauMeinerTraeume_1944_DVD_ELAN.eaf'
p1678
sg18
I00
sba(i__main__
Movie
p1679
(dp1680
g3
Nsg4
S'AStarIsBorn'
p1681
sg6
S'//130.60.131.134/studi/Filme/mittlere_Filme/43_A_Star_Is_Born_1937/'
p1682
sg8
(lp1683
sg10
(lp1684
I43
aI1
aI1
asg12
S'mittlere_Filme/43_A_Star_Is_Born_1937/'
p1685
sg14
I00
sg15
Nsg16
S'//130.60.131.134/studi/Filme/mittlere_Filme/43_A_Star_Is_Born_1937\\43_1_1_AStarIsBorn_1937_DVD_ELAN.eaf'
p1686
sg18
I00
sba(i__main__
Movie
p1687
(dp1688
g3
Nsg4
S'DownArgentineWay'
p1689
sg6
S'//130.60.131.134/studi/Filme/mittlere_Filme/442_Down_Argentine_Way_1940/'
p1690
sg8
(lp1691
sg10
(lp1692
I442
aI1
aI1
asg12
S'mittlere_Filme/442_Down_Argentine_Way_1940/'
p1693
sg14
I00
sg15
Nsg16
S'//130.60.131.134/studi/Filme/mittlere_Filme/442_Down_Argentine_Way_1940\\442_1_1_DownArgentineWay_1940_DVD_ELAN.eaf'
p1694
sg18
I00
sba(i__main__
Movie
p1695
(dp1696
g3
Nsg4
S'AnnieGetYourGun'
p1697
sg6
S'//130.60.131.134/studi/Filme/mittlere_Filme/474_Annie_Get_Your_Gun_1950/'
p1698
sg8
(lp1699
S'//130.60.131.134/studi/Filme/mittlere_Filme/474_Annie_Get_Your_Gun_1950\\474_1_1_AnnieGetYourGun_1950_DVD_ELAN.txt'
p1700
asg10
(lp1701
I474
aI1
aI1
asg12
S'mittlere_Filme/474_Annie_Get_Your_Gun_1950/'
p1702
sg14
I00
sg15
Nsg16
S'//130.60.131.134/studi/Filme/mittlere_Filme/474_Annie_Get_Your_Gun_1950\\474_1_1_AnnieGetYourGun_1950_DVD_ELAN.eaf'
p1703
sg18
I00
sba(i__main__
Movie
p1704
(dp1705
g3
Nsg4
S'MillionDollarMermaid'
p1706
sg6
S'//130.60.131.134/studi/Filme/mittlere_Filme/483_Million_Dollar_Mermaid_1952/'
p1707
sg8
(lp1708
S'//130.60.131.134/studi/Filme/mittlere_Filme/483_Million_Dollar_Mermaid_1952\\483_1_1_MillionDollarMermaid_1952_DVD_ELAN_BF_exp.txt'
p1709
asg10
(lp1710
I483
aI1
aI1
asg12
S'mittlere_Filme/483_Million_Dollar_Mermaid_1952/'
p1711
sg14
I00
sg15
Nsg16
S'//130.60.131.134/studi/Filme/mittlere_Filme/483_Million_Dollar_Mermaid_1952\\483_1_1_MillionDollarMermaid_1952_DVD_ELAN_BF.eaf'
p1712
sg18
I00
sba(i__main__
Movie
p1713
(dp1714
g3
Nsg4
S'TheRobe'
p1715
sg6
S'//130.60.131.134/studi/Filme/mittlere_Filme/488_The_Robe_1953/'
p1716
sg8
(lp1717
S'//130.60.131.134/studi/Filme/mittlere_Filme/488_The_Robe_1953\\488_1_1_TheRobe_1953_DVD_ELAN.txt'
p1718
asg10
(lp1719
I488
aI1
aI1
asg12
S'mittlere_Filme/488_The_Robe_1953/'
p1720
sg14
I00
sg15
Nsg16
S'//130.60.131.134/studi/Filme/mittlere_Filme/488_The_Robe_1953\\488_1_1_TheRobe_1953_DVD_ELAN.eaf'
p1721
sg18
I00
sba(i__main__
Movie
p1722
(dp1723
g3
Nsg4
S'LaCucaracha'
p1724
sg6
S'//130.60.131.134/studi/Filme/mittlere_Filme/48_La_Cucaracha_1934/'
p1725
sg8
(lp1726
sg10
(lp1727
I48
aI1
aI1
asg12
S'mittlere_Filme/48_La_Cucaracha_1934/'
p1728
sg14
I00
sg15
Nsg16
S'//130.60.131.134/studi/Filme/mittlere_Filme/48_La_Cucaracha_1934\\ELAN_Projektdatei\\48_1_1_LaCucaracha_1934_DVD_ELAN.eaf'
p1729
sg18
I00
sba(i__main__
Movie
p1730
(dp1731
g3
Nsg4
S'RearWindow'
p1732
sg6
S'//130.60.131.134/studi/Filme/mittlere_Filme/490_Rear_Window_1954/'
p1733
sg8
(lp1734
sg10
(lp1735
I490
aI1
aI1
asg12
S'mittlere_Filme/490_Rear_Window_1954/'
p1736
sg14
I00
sg15
Nsg16
S'//130.60.131.134/studi/Filme/mittlere_Filme/490_Rear_Window_1954\\490_1_1_RearWindow_1954_DVD_ELAN.eaf'
p1737
sg18
I00
sba(i__main__
Movie
p1738
(dp1739
g3
Nsg4
S'SevenBridesForSevenBrothers'
p1740
sg6
S'//130.60.131.134/studi/Filme/mittlere_Filme/491_Seven_Brides_for_Seven_Brothers_1954/'
p1741
sg8
(lp1742
S'//130.60.131.134/studi/Filme/mittlere_Filme/491_Seven_Brides_for_Seven_Brothers_1954\\491_1_1_SevenBridesForSevenBrothers_1954_DVD_ELAN.txt'
p1743
asg10
(lp1744
I491
aI1
aI1
asg12
S'mittlere_Filme/491_Seven_Brides_for_Seven_Brothers_1954/'
p1745
sg14
I00
sg15
Nsg16
S'//130.60.131.134/studi/Filme/mittlere_Filme/491_Seven_Brides_for_Seven_Brothers_1954\\491_1_1_SevenBridesForSevenBrothers_1954_DVD_ELAN.eaf'
p1746
sg18
I00
sba(i__main__
Movie
p1747
(dp1748
g3
Nsg4
S'SinginInTheRain'
p1749
sg6
S'//130.60.131.134/studi/Filme/mittlere_Filme/546_Singin_in_the_Rain_1952/'
p1750
sg8
(lp1751
S'//130.60.131.134/studi/Filme/mittlere_Filme/546_Singin_in_the_Rain_1952\\546_1_1_SinginInTheRain_1952_DVD_ELAN.txt'
p1752
asg10
(lp1753
I546
aI1
aI1
asg12
S'mittlere_Filme/546_Singin_in_the_Rain_1952/'
p1754
sg14
I00
sg15
Nsg16
S'//130.60.131.134/studi/Filme/mittlere_Filme/546_Singin_in_the_Rain_1952\\546_1_1_SinginInTheRain_1952_DVD_ELAN.eaf'
p1755
sg18
I00
sba(i__main__
Movie
p1756
(dp1757
g3
Nsg4
S'TheBoldCaballero'
p1758
sg6
S'//130.60.131.134/studi/Filme/mittlere_Filme/548_The_Bold_Caballero_1936/'
p1759
sg8
(lp1760
S'//130.60.131.134/studi/Filme/mittlere_Filme/548_The_Bold_Caballero_1936\\548_1_1_TheBoldCaballero_1936_DVD_ELAN.txt'
p1761
asg10
(lp1762
I548
aI1
aI1
asg12
S'mittlere_Filme/548_The_Bold_Caballero_1936/'
p1763
sg14
I00
sg15
Nsg16
S'//130.60.131.134/studi/Filme/mittlere_Filme/548_The_Bold_Caballero_1936\\548_1_1_TheBoldCaballero_1936_DVD_ELAN.eaf'
p1764
sg18
I00
sba(i__main__
Movie
p1765
(dp1766
g3
Nsg4
S'OutCaliforniaWay'
p1767
sg6
S'//130.60.131.134/studi/Filme/mittlere_Filme/550_Out_California_Way_1946/'
p1768
sg8
(lp1769
S'//130.60.131.134/studi/Filme/mittlere_Filme/550_Out_California_Way_1946\\550_1_1_OutCaliforniaWay_1946_DVD_ELAN.txt'
p1770
asg10
(lp1771
I550
aI1
aI1
asg12
S'mittlere_Filme/550_Out_California_Way_1946/'
p1772
sg14
I00
sg15
Nsg16
S'//130.60.131.134/studi/Filme/mittlere_Filme/550_Out_California_Way_1946\\550_1_1_OutCaliforniaWay_1946_DVD_ELAN.eaf'
p1773
sg18
I00
sba(i__main__
Movie
p1774
(dp1775
g3
Nsg4
S'TheGoldwynFollies'
p1776
sg6
S'//130.60.131.134/studi/Filme/mittlere_Filme/553_The_Goldwyn_Follies_1938/'
p1777
sg8
(lp1778
sg10
(lp1779
I553
aI1
aI1
asg12
S'mittlere_Filme/553_The_Goldwyn_Follies_1938/'
p1780
sg14
I00
sg15
Nsg16
S'//130.60.131.134/studi/Filme/mittlere_Filme/553_The_Goldwyn_Follies_1938\\553_1_1_TheGoldwynFollies_1938_DVD_ELAN.eaf'
p1781
sg18
I00
sba(i__main__
Movie
p1782
(dp1783
g3
Nsg4
S'NothingSacred'
p1784
sg6
S'//130.60.131.134/studi/Filme/mittlere_Filme/561_Nothing_Sacred_1937/'
p1785
sg8
(lp1786
S'//130.60.131.134/studi/Filme/mittlere_Filme/561_Nothing_Sacred_1937\\561_1_1_NothingSacred_1937_DVD_ELAN.txt'
p1787
asg10
(lp1788
I561
aI1
aI1
asg12
S'mittlere_Filme/561_Nothing_Sacred_1937/'
p1789
sg14
I00
sg15
Nsg16
S'//130.60.131.134/studi/Filme/mittlere_Filme/561_Nothing_Sacred_1937\\561_1_1_NothingSacred_1937_DVD_ELAN.eaf'
p1790
sg18
I00
sba(i__main__
Movie
p1791
(dp1792
g3
Nsg4
S'InvadersFromMars'
p1793
sg6
S'//130.60.131.134/studi/Filme/mittlere_Filme/620_Invaders_from_Mars_1953/'
p1794
sg8
(lp1795
S'//130.60.131.134/studi/Filme/mittlere_Filme/620_Invaders_from_Mars_1953\\620_1_1_InvadersFromMars_1953_DVD_ELAN.txt'
p1796
asg10
(lp1797
I620
aI1
aI1
asg12
S'mittlere_Filme/620_Invaders_from_Mars_1953/'
p1798
sg14
I00
sg15
Nsg16
S'//130.60.131.134/studi/Filme/mittlere_Filme/620_Invaders_from_Mars_1953\\620_1_1_InvadersFromMars_1953_DVD_ELAN.eaf'
p1799
sg18
I00
sba(i__main__
Movie
p1800
(dp1801
g3
Nsg4
S'DestinationMoon'
p1802
sg6
S'//130.60.131.134/studi/Filme/mittlere_Filme/622_Destination_Moon_1950/'
p1803
sg8
(lp1804
sg10
(lp1805
I622
aI1
aI1
asg12
S'mittlere_Filme/622_Destination_Moon_1950/'
p1806
sg14
I00
sg15
Nsg16
S'//130.60.131.134/studi/Filme/mittlere_Filme/622_Destination_Moon_1950\\622_1_1_DestinationMoon_1950_DVD_ELAN.eaf'
p1807
sg18
I00
sba(i__main__
Movie
p1808
(dp1809
g3
Nsg4
S'HenryV'
p1810
sg6
S'//130.60.131.134/studi/Filme/mittlere_Filme/62_Henry_V_1944/'
p1811
sg8
(lp1812
sg10
(lp1813
I62
aI1
aI1
asg12
S'mittlere_Filme/62_Henry_V_1944/'
p1814
sg14
I00
sg15
Nsg16
S'//130.60.131.134/studi/Filme/mittlere_Filme/62_Henry_V_1944\\62_1_1_HenryV_1944_DVD_ELAN.eaf'
p1815
sg18
I00
sba(i__main__
Movie
p1816
(dp1817
g3
Nsg4
S'BeckySharp'
p1818
sg6
S'//130.60.131.134/studi/Filme/mittlere_Filme/63_Becky_Sharp_1935/'
p1819
sg8
(lp1820
sg10
(lp1821
I63
aI1
aI2
asg12
S'mittlere_Filme/63_Becky_Sharp_1935/'
p1822
sg14
I00
sg15
Nsg16
S'//130.60.131.134/studi/Filme/mittlere_Filme/63_Becky_Sharp_1935\\63_1_2_BeckySharp_1935_DVD_ELAN.eaf'
p1823
sg18
I00
sba(i__main__
Movie
p1824
(dp1825
g3
Nsg4
S'FlowersAndTrees'
p1826
sg6
S'//130.60.131.134/studi/Filme/mittlere_Filme/81_Flowers_and_Trees_1932/'
p1827
sg8
(lp1828
sg10
(lp1829
I81
aI1
aI1
asg12
S'mittlere_Filme/81_Flowers_and_Trees_1932/'
p1830
sg14
I00
sg15
Nsg16
S'//130.60.131.134/studi/Filme/mittlere_Filme/81_Flowers_and_Trees_1932\\81_1_1_FlowersAndTrees_1932_DVD_ELAN.eaf'
p1831
sg18
I00
sba(i__main__
Movie
p1832
(dp1833
g3
Nsg4
S'Schwarzwaldmaedel'
p1834
sg6
S'//130.60.131.134/studi/Filme/mittlere_Filme/821_Schwarzwaldmaedel_1950/'
p1835
sg8
(lp1836
S'//130.60.131.134/studi/Filme/mittlere_Filme/821_Schwarzwaldmaedel_1950\\821_1_2_Schwarzwaldmaedel_1950_DVD_ELAN.txt'
p1837
asg10
(lp1838
I821
aI1
aI2
asg12
S'mittlere_Filme/821_Schwarzwaldmaedel_1950/'
p1839
sg14
I00
sg15
Nsg16
S'//130.60.131.134/studi/Filme/mittlere_Filme/821_Schwarzwaldmaedel_1950\\821_1_2_Schwarzwaldmaedel_1950_DVD_ELAN.eaf'
p1840
sg18
I00
sba(i__main__
Movie
p1841
(dp1842
g3
Nsg4
S'Frauenschicksale'
p1843
sg6
S'//130.60.131.134/studi/Filme/mittlere_Filme/840_Frauenschicksale_1952/'
p1844
sg8
(lp1845
S'//130.60.131.134/studi/Filme/mittlere_Filme/840_Frauenschicksale_1952\\840_1_1_Frauenschicksale_1952_DVD_ELAN.txt'
p1846
asg10
(lp1847
I840
aI1
aI1
asg12
S'mittlere_Filme/840_Frauenschicksale_1952/'
p1848
sg14
I00
sg15
Nsg16
S'//130.60.131.134/studi/Filme/mittlere_Filme/840_Frauenschicksale_1952\\840_1_1_Frauenschicksale_1952_DVD_ELAN.eaf'
p1849
sg18
I00
sba(i__main__
Movie
p1850
(dp1851
g3
Nsg4
S'FrenchCancan'
p1852
sg6
S'//130.60.131.134/studi/Filme/mittlere_Filme/864_French_Cancan_1954/'
p1853
sg8
(lp1854
sg10
(lp1855
I864
aI1
aI1
asg12
S'mittlere_Filme/864_French_Cancan_1954/'
p1856
sg14
I00
sg15
Nsg16
S'//130.60.131.134/studi/Filme/mittlere_Filme/864_French_Cancan_1954\\864_1_1_FrenchCancan_1954_DVD.eaf'
p1857
sg18
I00
sba(i__main__
Movie
p1858
(dp1859
g3
Nsg4
S'TheWizardOfOz'
p1860
sg6
S'//130.60.131.134/studi/Filme/mittlere_Filme/87_The_Wizard_of_Oz_1939/'
p1861
sg8
(lp1862
sg10
(lp1863
I87
aI1
aI1
asg12
S'mittlere_Filme/87_The_Wizard_of_Oz_1939/'
p1864
sg14
I00
sg15
Nsg16
S'//130.60.131.134/studi/Filme/mittlere_Filme/87_The_Wizard_of_Oz_1939\\87_1_1_TheWizardOfOz_1939_DVD_ELAN.eaf'
p1865
sg18
I00
sba(i__main__
Movie
p1866
(dp1867
g3
Nsg4
S'MaerkischeFahrt'
p1868
sg6
S'//130.60.131.134/studi/Filme/mittlere_Filme/891_Maerkische_Fahrt_1942/'
p1869
sg8
(lp1870
S'//130.60.131.134/studi/Filme/mittlere_Filme/891_Maerkische_Fahrt_1942\\891_1_3_MaerkischeFahrt_1942_DVD_ELAN.txt'
p1871
asg10
(lp1872
I891
aI1
aI3
asg12
S'mittlere_Filme/891_Maerkische_Fahrt_1942/'
p1873
sg14
I00
sg15
Nsg16
S'//130.60.131.134/studi/Filme/mittlere_Filme/891_Maerkische_Fahrt_1942\\891_1_3_MaerkischeFahrt_1942_DVD_ELAN.eaf'
p1874
sg18
I00
sba(i__main__
Movie
p1875
(dp1876
g3
Nsg4
S'GoneWithTheWind'
p1877
sg6
S'//130.60.131.134/studi/Filme/mittlere_Filme/8_Gone_With_The_Wind_1940/8_1_1_Gone with the Wind_1940_DVD/'
p1878
sg8
(lp1879
sg10
(lp1880
I8
aI1
aI1
asg12
S'mittlere_Filme/8_Gone_With_The_Wind_1940/8_1_1_Gone with the Wind_1940_DVD/'
p1881
sg14
I00
sg15
Nsg16
S'//130.60.131.134/studi/Filme/mittlere_Filme/8_Gone_With_The_Wind_1940/8_1_1_Gone with the Wind_1940_DVD\\8_1_1_GoneWithTheWind_Part1_1940_DVD_ELAN.eaf'
p1882
sg18
I00
sba(i__main__
Movie
p1883
(dp1884
g3
Nsg4
S'GoneWithTheWind'
p1885
sg6
S'//130.60.131.134/studi/Filme/mittlere_Filme/8_Gone_With_The_Wind_1940/8_1_2_Gone with the Wind_1940_DVD/'
p1886
sg8
(lp1887
sg10
(lp1888
I8
aI1
aI2
asg12
S'mittlere_Filme/8_Gone_With_The_Wind_1940/8_1_2_Gone with the Wind_1940_DVD/'
p1889
sg14
I00
sg15
Nsg16
S'//130.60.131.134/studi/Filme/mittlere_Filme/8_Gone_With_The_Wind_1940/8_1_2_Gone with the Wind_1940_DVD\\8_1_2_GoneWithTheWind_Part2_1940_DVD_ELAN.eaf'
p1890
sg18
I00
sba(i__main__
Movie
p1891
(dp1892
g3
Nsg4
S'DodgeCity'
p1893
sg6
S'//130.60.131.134/studi/Filme/mittlere_Filme/948_Dodge_City_1939/'
p1894
sg8
(lp1895
sg10
(lp1896
I948
aI1
aI1
asg12
S'mittlere_Filme/948_Dodge_City_1939/'
p1897
sg14
I00
sg15
Nsg16
S'//130.60.131.134/studi/Filme/mittlere_Filme/948_Dodge_City_1939\\948_1_1_DodgeCity_1939_DVD_ELAN.eaf'
p1898
sg18
I00
sba(i__main__
Movie
p1899
(dp1900
g3
Nsg4
S'ParisOnParade'
p1901
sg6
S'//130.60.131.134/studi/Filme/mittlere_Filme/959_Paris_on_Parade_1938/'
p1902
sg8
(lp1903
S'//130.60.131.134/studi/Filme/mittlere_Filme/959_Paris_on_Parade_1938\\959_1_1_ParisOnParade_1938_DVD_ELAN.txt'
p1904
asg10
(lp1905
I959
aI1
aI1
asg12
S'mittlere_Filme/959_Paris_on_Parade_1938/'
p1906
sg14
I00
sg15
Nsg16
S'//130.60.131.134/studi/Filme/mittlere_Filme/959_Paris_on_Parade_1938\\959_1_1_ParisOnParade_1938_DVD_ELAN.eaf'
p1907
sg18
I00
sba(i__main__
Movie
p1908
(dp1909
g3
Nsg4
S'DeuxOuTroisChosesQueJeSaisDElle'
p1910
sg6
S'//130.60.131.134/studi/Filme/spaete_Filme/102_Deux_ou_trois_choses_que_je_sais_d_elle_1966/'
p1911
sg8
(lp1912
S'//130.60.131.134/studi/Filme/spaete_Filme/102_Deux_ou_trois_choses_que_je_sais_d_elle_1966\\102_1_1_DeuxOuTroisChosesQueJeSaisDElle_1966_DVD_ELAN.txt'
p1913
asg10
(lp1914
I102
aI1
aI1
asg12
S'spaete_Filme/102_Deux_ou_trois_choses_que_je_sais_d_elle_1966/'
p1915
sg14
I00
sg15
Nsg16
S'//130.60.131.134/studi/Filme/spaete_Filme/102_Deux_ou_trois_choses_que_je_sais_d_elle_1966\\ELAN Projektdatei\\102_1_1_DeuxOuTroisChosesQueJeSaisDElle_1966_DVD_ELAN.eaf'
p1916
sg18
I00
sba(i__main__
Movie
p1917
(dp1918
g3
Nsg4
S'Marnie'
p1919
sg6
S'//130.60.131.134/studi/Filme/spaete_Filme/103_Marnie_1964/'
p1920
sg8
(lp1921
S'//130.60.131.134/studi/Filme/spaete_Filme/103_Marnie_1964\\103_Marnie_1964_DVD_ELAN_Export.txt'
p1922
asg10
(lp1923
I103
aI1
aI1
asg12
S'spaete_Filme/103_Marnie_1964/'
p1924
sg14
I00
sg15
Nsg16
S'//130.60.131.134/studi/Filme/spaete_Filme/103_Marnie_1964\\103_1_1_Marnie_1964_DVD_ELAN.eaf'
p1925
sg18
I00
sba(i__main__
Movie
p1926
(dp1927
g3
Nsg4
S'PalJoey'
p1928
sg6
S'//130.60.131.134/studi/Filme/spaete_Filme/104_Pal_Joey_1957/'
p1929
sg8
(lp1930
S'//130.60.131.134/studi/Filme/spaete_Filme/104_Pal_Joey_1957\\104_1_1_PalJoey_1957_DVD_ELAN.txt'
p1931
asg10
(lp1932
I104
aI1
aI1
asg12
S'spaete_Filme/104_Pal_Joey_1957/'
p1933
sg14
I00
sg15
Nsg16
S'//130.60.131.134/studi/Filme/spaete_Filme/104_Pal_Joey_1957\\ELAN Projektdatei\\104_1_1_PalJoey_1957_DVD_ELAN.eaf'
p1934
sg18
I00
sba(i__main__
Movie
p1935
(dp1936
g3
Nsg4
S'LeMepris'
p1937
sg6
S'//130.60.131.134/studi/Filme/spaete_Filme/108_Le_Mepris_1964/'
p1938
sg8
(lp1939
S'//130.60.131.134/studi/Filme/spaete_Filme/108_Le_Mepris_1964\\108_1_1_LeMepris_DVD_ELAN_BF.txt'
p1940
asg10
(lp1941
I108
aI1
aI1
asg12
S'spaete_Filme/108_Le_Mepris_1964/'
p1942
sg14
I00
sg15
Nsg16
S'//130.60.131.134/studi/Filme/spaete_Filme/108_Le_Mepris_1964\\108_1_1_LeMepris_DVD_ELAN_BF.eaf'
p1943
sg18
I00
sba(i__main__
Movie
p1944
(dp1945
g3
Nsg4
S'ThePiano'
p1946
sg6
S'//130.60.131.134/studi/Filme/spaete_Filme/1142_The_Piano_1993/'
p1947
sg8
(lp1948
sg10
(lp1949
I1142
aI1
aI1
asg12
S'spaete_Filme/1142_The_Piano_1993/'
p1950
sg14
I00
sg15
Nsg16
S'//130.60.131.134/studi/Filme/spaete_Filme/1142_The_Piano_1993\\1142_1_1_ThePiano_1993_DVD_ELAN.eaf'
p1951
sg18
I00
sba(i__main__
Movie
p1952
(dp1953
g3
Nsg4
S'HallucinationsImagesduMondeVisionnaire'
p1954
sg6
S'//130.60.131.134/studi/Filme/spaete_Filme/116_HallucinationsImagesduMondeVisionnaire_1963/'
p1955
sg8
(lp1956
sg10
(lp1957
I116
aI1
aI1
asg12
S'spaete_Filme/116_HallucinationsImagesduMondeVisionnaire_1963/'
p1958
sg14
I00
sg15
Nsg16
S'//130.60.131.134/studi/Filme/spaete_Filme/116_HallucinationsImagesduMondeVisionnaire_1963\\116_1_1_HallucinationsImagesduMondeVisionnaire_1963_Medfilm_ELAN.eaf'
p1959
sg18
I00
sba(i__main__
Movie
p1960
(dp1961
g3
Nsg4
S'TheGodfather'
p1962
sg6
S'//130.60.131.134/studi/Filme/spaete_Filme/1242_The_Godfather_1972/'
p1963
sg8
(lp1964
S'//130.60.131.134/studi/Filme/spaete_Filme/1242_The_Godfather_1972\\1242_1_1_TheGodfather_1972_DVD_ELAN.txt'
p1965
asg10
(lp1966
I1242
aI1
aI1
asg12
S'spaete_Filme/1242_The_Godfather_1972/'
p1967
sg14
I00
sg15
Nsg16
S'//130.60.131.134/studi/Filme/spaete_Filme/1242_The_Godfather_1972\\ELAN Projektdatei\\1242_1_1_TheGodfather_1972_DVD_ELAN.eaf'
p1968
sg18
I00
sba(i__main__
Movie
p1969
(dp1970
g3
Nsg4
S'DontLookNow'
p1971
sg6
S'//130.60.131.134/studi/Filme/spaete_Filme/124_Dont_Look_Now_1974/'
p1972
sg8
(lp1973
S'//130.60.131.134/studi/Filme/spaete_Filme/124_Dont_Look_Now_1974\\124_DontLookNow_1974_DVD_ELAN_Export_2.txt'
p1974
asg10
(lp1975
I124
aI1
aI1
asg12
S'spaete_Filme/124_Dont_Look_Now_1974/'
p1976
sg14
I00
sg15
Nsg16
S'//130.60.131.134/studi/Filme/spaete_Filme/124_Dont_Look_Now_1974\\124_1_1_DontLookNow_1973_DVD_ELAN.eaf'
p1977
sg18
I00
sba(i__main__
Movie
p1978
(dp1979
g3
Nsg4
S'HallucinationsLaPerceptionetlImaginaire'
p1980
sg6
S'//130.60.131.134/studi/Filme/spaete_Filme/128_HallucinationsLaPerceptionetlImaginaire_1964/'
p1981
sg8
(lp1982
sg10
(lp1983
I128
aI1
aI1
asg12
S'spaete_Filme/128_HallucinationsLaPerceptionetlImaginaire_1964/'
p1984
sg14
I00
sg15
Nsg16
S'//130.60.131.134/studi/Filme/spaete_Filme/128_HallucinationsLaPerceptionetlImaginaire_1964\\128_1_1_HallucinationsLaPerceptionetlImaginaire_1964_Medfilm_ELAN.eaf'
p1985
sg18
I00
sba(i__main__
Movie
p1986
(dp1987
g3
Nsg4
S'TheLivingDaylights'
p1988
sg6
S'//130.60.131.134/studi/Filme/spaete_Filme/1296_The_Living_Daylights_1987/'
p1989
sg8
(lp1990
S'//130.60.131.134/studi/Filme/spaete_Filme/1296_The_Living_Daylights_1987\\1296_1_1_TheLivingDaylights_1987_DVD_ELAN.txt'
p1991
asg10
(lp1992
I1296
aI1
aI1
asg12
S'spaete_Filme/1296_The_Living_Daylights_1987/'
p1993
sg14
I00
sg15
Nsg16
S'//130.60.131.134/studi/Filme/spaete_Filme/1296_The_Living_Daylights_1987\\ELAN Projektdatei\\1296_1_1_TheLivingDaylights_1987_DVD_ELAN.eaf'
p1994
sg18
I00
sba(i__main__
Movie
p1995
(dp1996
g3
Nsg4
S'Aliens'
p1997
sg6
S'//130.60.131.134/studi/Filme/spaete_Filme/1307_Aliens_1986/'
p1998
sg8
(lp1999
S'//130.60.131.134/studi/Filme/spaete_Filme/1307_Aliens_1986\\1307_1_1_Aliens_1986_DVD_ELAN.txt'
p2000
asg10
(lp2001
I1307
aI1
aI1
asg12
S'spaete_Filme/1307_Aliens_1986/'
p2002
sg14
I00
sg15
Nsg16
S'//130.60.131.134/studi/Filme/spaete_Filme/1307_Aliens_1986\\ELAN Projektdatei\\1307_1_1_Aliens_1986_DVD_ELAN.eaf'
p2003
sg18
I00
sba(i__main__
Movie
p2004
(dp2005
g3
Nsg4
S'Batman'
p2006
sg6
S'//130.60.131.134/studi/Filme/spaete_Filme/1318_Batman_1989/'
p2007
sg8
(lp2008
S'//130.60.131.134/studi/Filme/spaete_Filme/1318_Batman_1989\\1318_1_1_Batman_1989_DVD_ELAN.txt'
p2009
asg10
(lp2010
I1318
aI1
aI1
asg12
S'spaete_Filme/1318_Batman_1989/'
p2011
sg14
I00
sg15
Nsg16
S'//130.60.131.134/studi/Filme/spaete_Filme/1318_Batman_1989\\ELAN Projektdatei\\1318_1_1_Batman_1989_DVD_ELAN.eaf'
p2012
sg18
I00
sba(i__main__
Movie
p2013
(dp2014
g3
Nsg4
S'OutOfAfrica'
p2015
sg6
S'//130.60.131.134/studi/Filme/spaete_Filme/1381_Out_Of_Africa_1985/'
p2016
sg8
(lp2017
S'//130.60.131.134/studi/Filme/spaete_Filme/1381_Out_Of_Africa_1985\\1381_1_1_OutOfAfrica_1985_DVD_ELAN.txt'
p2018
asg10
(lp2019
I1381
aI1
aI1
asg12
S'spaete_Filme/1381_Out_Of_Africa_1985/'
p2020
sg14
I00
sg15
Nsg16
S'//130.60.131.134/studi/Filme/spaete_Filme/1381_Out_Of_Africa_1985\\ELAN Projektdatei\\1381_1_1_OutOfAfrica_1985_DVD_ELAN.eaf'
p2021
sg18
I00
sba(i__main__
Movie
p2022
(dp2023
g3
Nsg4
S'StarWarsV'
p2024
sg6
S'//130.60.131.134/studi/Filme/spaete_Filme/1400_Star_Wars_V_1980/'
p2025
sg8
(lp2026
sg10
(lp2027
I1400
aI1
aI1
asg12
S'spaete_Filme/1400_Star_Wars_V_1980/'
p2028
sg14
I00
sg15
Nsg16
S'//130.60.131.134/studi/Filme/spaete_Filme/1400_Star_Wars_V_1980\\1400_1_1_StarWarsV_1980_DVD_ELAN.eaf'
p2029
sg18
I00
sba(i__main__
Movie
p2030
(dp2031
g3
Nsg4
S'TheFrenchConnection'
p2032
sg6
S'//130.60.131.134/studi/Filme/spaete_Filme/1408_The_French_Connection_1971/'
p2033
sg8
(lp2034
S'//130.60.131.134/studi/Filme/spaete_Filme/1408_The_French_Connection_1971\\1408_1_1_TheFrenchConnection_1971_DVD_ELAN_export.txt'
p2035
aS'//130.60.131.134/studi/Filme/spaete_Filme/1408_The_French_Connection_1971\\1510_1_1_DasBoot_1981_DVD_ELAN_export.txt'
p2036
asg10
(lp2037
I1408
aI1
aI1
asg12
S'spaete_Filme/1408_The_French_Connection_1971/'
p2038
sg14
I00
sg15
Nsg16
S'//130.60.131.134/studi/Filme/spaete_Filme/1408_The_French_Connection_1971\\1408_1_1_TheFrenchConnection_1971_DVD_ELAN.eaf'
p2039
sg18
I00
sba(i__main__
Movie
p2040
(dp2041
g3
Nsg4
S'CloseEncountersoftheThirdKind'
p2042
sg6
S'//130.60.131.134/studi/Filme/spaete_Filme/149_Close_Encounters_of_the_Third_Kind_1977/'
p2043
sg8
(lp2044
sg10
(lp2045
I149
aI1
aI1
asg12
S'spaete_Filme/149_Close_Encounters_of_the_Third_Kind_1977/'
p2046
sg14
I00
sg15
Nsg16
S'//130.60.131.134/studi/Filme/spaete_Filme/149_Close_Encounters_of_the_Third_Kind_1977\\149_1_1_CloseEncountersoftheThirdKind_1977_DVD_ELAN.eaf'
p2047
sg18
I00
sba(i__main__
Movie
p2048
(dp2049
g3
Nsg4
S'UneFemmeEstUneFemme'
p2050
sg6
S'//130.60.131.134/studi/Filme/spaete_Filme/14_Une_Femme_est_une_Femme_1961/'
p2051
sg8
(lp2052
S'//130.60.131.134/studi/Filme/spaete_Filme/14_Une_Femme_est_une_Femme_1961\\14_1_1_UneFemmeEstUneFemme_1961_DVD_ELAN_BF.txt'
p2053
asg10
(lp2054
I14
aI1
aI1
asg12
S'spaete_Filme/14_Une_Femme_est_une_Femme_1961/'
p2055
sg14
I00
sg15
Nsg16
S'//130.60.131.134/studi/Filme/spaete_Filme/14_Une_Femme_est_une_Femme_1961\\14_1_1_UneFemmeEstUneFemme_1961_DVD_ELAN_BF.eaf'
p2056
sg18
I00
sba(i__main__
Movie
p2057
(dp2058
g3
Nsg4
S'DasBoot'
p2059
sg6
S'//130.60.131.134/studi/Filme/spaete_Filme/1510_Das_Boot_1981/'
p2060
sg8
(lp2061
S'//130.60.131.134/studi/Filme/spaete_Filme/1510_Das_Boot_1981\\1510_1_1_DasBoot_1981_DVD_ELAN_export.txt'
p2062
aS'//130.60.131.134/studi/Filme/spaete_Filme/1510_Das_Boot_1981\\1510_1_1_DasBoot_1981_DVD_ELAN_export.csv'
p2063
aS'//130.60.131.134/studi/Filme/spaete_Filme/1510_Das_Boot_1981\\1510_1_1_DasBoot_1981_DVD_FCT_snapchots.csv'
p2064
aS'//130.60.131.134/studi/Filme/spaete_Filme/1510_Das_Boot_1981\\1510_1_1_DasBoot_1981_DVD_FCT_temp.csv'
p2065
asg10
(lp2066
I1510
aI1
aI1
asg12
S'spaete_Filme/1510_Das_Boot_1981/'
p2067
sg14
I00
sg15
Nsg16
S'//130.60.131.134/studi/Filme/spaete_Filme/1510_Das_Boot_1981\\1510_1_1_DasBoot_1981_DVD_ELAN.eaf'
p2068
sg18
I00
sba(i__main__
Movie
p2069
(dp2070
g3
Nsg4
S'DaysOfHeaven'
p2071
sg6
S'//130.60.131.134/studi/Filme/spaete_Filme/1517_Days_of_Heaven_1978/'
p2072
sg8
(lp2073
S'//130.60.131.134/studi/Filme/spaete_Filme/1517_Days_of_Heaven_1978\\1517_1_1_DaysOfHeaven_1978_DVD_ELAN.txt'
p2074
asg10
(lp2075
I1517
aI1
aI1
asg12
S'spaete_Filme/1517_Days_of_Heaven_1978/'
p2076
sg14
I00
sg15
Nsg16
S'//130.60.131.134/studi/Filme/spaete_Filme/1517_Days_of_Heaven_1978\\ELAN Projektdatei\\1517_1_1_DaysOfHeaven_1978_DVD_ELAN.eaf'
p2077
sg18
I00
sba(i__main__
Movie
p2078
(dp2079
g3
Nsg4
S'DickTracy'
p2080
sg6
S'//130.60.131.134/studi/Filme/spaete_Filme/1535_Dick_Tracy_1990/'
p2081
sg8
(lp2082
S'//130.60.131.134/studi/Filme/spaete_Filme/1535_Dick_Tracy_1990\\1535_1_1_DickTracy_1990_DVD_ELAN_2.txt'
p2083
asg10
(lp2084
I1535
aI1
aI1
asg12
S'spaete_Filme/1535_Dick_Tracy_1990/'
p2085
sg14
I00
sg15
Nsg16
S'//130.60.131.134/studi/Filme/spaete_Filme/1535_Dick_Tracy_1990\\1535_1_1_DickTracy_1990_DVD_ELAN.eaf'
p2086
sg18
I00
sba(i__main__
Movie
p2087
(dp2088
g3
Nsg4
S'DieEheDerMariaBraun'
p2089
sg6
S'//130.60.131.134/studi/Filme/spaete_Filme/1537_Die_Ehe_Der_Maria_Braun_1979/'
p2090
sg8
(lp2091
S'//130.60.131.134/studi/Filme/spaete_Filme/1537_Die_Ehe_Der_Maria_Braun_1979\\1537_1_1_DieEheDerMariaBraun_1979_DVD_ELAN_export.txt'
p2092
asg10
(lp2093
I1537
aI1
aI1
asg12
S'spaete_Filme/1537_Die_Ehe_Der_Maria_Braun_1979/'
p2094
sg14
I00
sg15
Nsg16
S'//130.60.131.134/studi/Filme/spaete_Filme/1537_Die_Ehe_Der_Maria_Braun_1979\\1537_1_1_DieEheDerMariaBraun_1979_DVD_ELAN.eaf'
p2095
sg18
I00
sba(i__main__
Movie
p2096
(dp2097
g3
Nsg4
S'Eolomea'
p2098
sg6
S'//130.60.131.134/studi/Filme/spaete_Filme/1563_Eolomea_1972/'
p2099
sg8
(lp2100
S'//130.60.131.134/studi/Filme/spaete_Filme/1563_Eolomea_1972\\1563_1_1_Eolomea_1972_DVD_ELAN.txt'
p2101
asg10
(lp2102
I1563
aI1
aI1
asg12
S'spaete_Filme/1563_Eolomea_1972/'
p2103
sg14
I00
sg15
Nsg16
S'//130.60.131.134/studi/Filme/spaete_Filme/1563_Eolomea_1972\\ELAN Projektdatei\\1563_1_1_Eolomea_1972_DVD_ELAN.eaf'
p2104
sg18
I00
sba(i__main__
Movie
p2105
(dp2106
g3
Nsg4
S'Flashdance'
p2107
sg6
S'//130.60.131.134/studi/Filme/spaete_Filme/1574_Flashdance_1983/'
p2108
sg8
(lp2109
S'//130.60.131.134/studi/Filme/spaete_Filme/1574_Flashdance_1983\\1574_1_1_Flashdance_1983_DVD_ELAN.txt'
p2110
asg10
(lp2111
I1574
aI1
aI1
asg12
S'spaete_Filme/1574_Flashdance_1983/'
p2112
sg14
I00
sg15
Nsg16
S'//130.60.131.134/studi/Filme/spaete_Filme/1574_Flashdance_1983\\ELAN Projektdatei\\1574_1_1_Flashdance_1983_DVD_ELAN.eaf'
p2113
sg18
I00
sba(i__main__
Movie
p2114
(dp2115
g3
Nsg4
S'TroisCouleursBlue'
p2116
sg6
S'//130.60.131.134/studi/Filme/spaete_Filme/15_Trois_couleurs_Blue_1993/'
p2117
sg8
(lp2118
S'//130.60.131.134/studi/Filme/spaete_Filme/15_Trois_couleurs_Blue_1993\\15_1_1_TroisCouleursBlue_1993_DVD_ELAN_2_Export_ELAN.txt'
p2119
asg10
(lp2120
I15
aI1
aI1
asg12
S'spaete_Filme/15_Trois_couleurs_Blue_1993/'
p2121
sg14
I00
sg15
Nsg16
S'//130.60.131.134/studi/Filme/spaete_Filme/15_Trois_couleurs_Blue_1993\\15_1_1_TroisCouleursBlue_1993_DVD_ELAN_2_JK.eaf'
p2122
sg18
I00
sba(i__main__
Movie
p2123
(dp2124
g3
Nsg4
S'LaDoubleVieDeVeronique'
p2125
sg6
S'//130.60.131.134/studi/Filme/spaete_Filme/1654_La_double_vie_de_Veronique_1991/'
p2126
sg8
(lp2127
S'//130.60.131.134/studi/Filme/spaete_Filme/1654_La_double_vie_de_Veronique_1991\\1654_1_1_LaDoubleVieDeVeronique_1991_DVD_ELAN.txt'
p2128
asg10
(lp2129
I1654
aI1
aI1
asg12
S'spaete_Filme/1654_La_double_vie_de_Veronique_1991/'
p2130
sg14
I00
sg15
Nsg16
S'//130.60.131.134/studi/Filme/spaete_Filme/1654_La_double_vie_de_Veronique_1991\\ELAN Projektdatei\\1654_1_1_LaDoubleVieDeVeronique_1991_DVD_ELAN.eaf'
p2131
sg18
I00
sba(i__main__
Movie
p2132
(dp2133
g3
Nsg4
S'LeDernierMetro'
p2134
sg6
S'//130.60.131.134/studi/Filme/spaete_Filme/1669_Le_Dernier_Metro_1980/'
p2135
sg8
(lp2136
S'//130.60.131.134/studi/Filme/spaete_Filme/1669_Le_Dernier_Metro_1980\\1669_1_1_LeDernierMetro_1980_DVD_ELAN_export.txt'
p2137
asg10
(lp2138
I1669
aI1
aI1
asg12
S'spaete_Filme/1669_Le_Dernier_Metro_1980/'
p2139
sg14
I00
sg15
Nsg16
S'//130.60.131.134/studi/Filme/spaete_Filme/1669_Le_Dernier_Metro_1980\\1669_1_1_LeDernierMetro_1980_DVD_ELAN.eaf'
p2140
sg18
I00
sba(i__main__
Movie
p2141
(dp2142
g3
Nsg4
S'AgeofInnocence'
p2143
sg6
S'//130.60.131.134/studi/Filme/spaete_Filme/16_Age_of_Innocence_1993/'
p2144
sg8
(lp2145
sg10
(lp2146
I16
aI1
aI1
asg12
S'spaete_Filme/16_Age_of_Innocence_1993/'
p2147
sg14
I00
sg15
Nsg16
S'//130.60.131.134/studi/Filme/spaete_Filme/16_Age_of_Innocence_1993\\16_1_1_AgeofInnocence_1993_DVD_ELAN.eaf'
p2148
sg18
I00
sba(i__main__
Movie
p2149
(dp2150
g3
Nsg4
S'CeraUnaVoltaIlWest'
p2151
sg6
S'//130.60.131.134/studi/Filme/spaete_Filme/1746_Cera_Una_Volta_Il_West_1968/'
p2152
sg8
(lp2153
S'//130.60.131.134/studi/Filme/spaete_Filme/1746_Cera_Una_Volta_Il_West_1968\\1746_1_1_CeraUnaVoltaIlWest_1968_DVD_ELAN_export.txt'
p2154
asg10
(lp2155
I1746
aI1
aI1
asg12
S'spaete_Filme/1746_Cera_Una_Volta_Il_West_1968/'
p2156
sg14
I00
sg15
Nsg16
S'//130.60.131.134/studi/Filme/spaete_Filme/1746_Cera_Una_Volta_Il_West_1968\\1746_1_1_CeraUnaVoltaIlWest_1968_DVD_ELAN.eaf'
p2157
sg18
I00
sba(i__main__
Movie
p2158
(dp2159
g3
Nsg4
S'Ran'
p2160
sg6
S'//130.60.131.134/studi/Filme/spaete_Filme/1774_Ran_1985/'
p2161
sg8
(lp2162
S'//130.60.131.134/studi/Filme/spaete_Filme/1774_Ran_1985\\1774_1_1_Ran_1985_DVD_ELAN_export.txt'
p2163
asg10
(lp2164
I1774
aI1
aI1
asg12
S'spaete_Filme/1774_Ran_1985/'
p2165
sg14
I00
sg15
Nsg16
S'//130.60.131.134/studi/Filme/spaete_Filme/1774_Ran_1985\\1774_1_1_Ran_1985_DVD_ELAN.eaf'
p2166
sg18
I00
sba(i__main__
Movie
p2167
(dp2168
g3
Nsg4
S'TheLastEmperor'
p2169
sg6
S'//130.60.131.134/studi/Filme/spaete_Filme/1860_The_Last_Emperor_1987/'
p2170
sg8
(lp2171
S'//130.60.131.134/studi/Filme/spaete_Filme/1860_The_Last_Emperor_1987\\1860_1_1_TheLastEmperor_1987_BluRay_ELAN.txt'
p2172
asg10
(lp2173
I1860
aI1
aI1
asg12
S'spaete_Filme/1860_The_Last_Emperor_1987/'
p2174
sg14
I00
sg15
Nsg16
S'//130.60.131.134/studi/Filme/spaete_Filme/1860_The_Last_Emperor_1987\\ELAN Projektdatei\\1860_1_1_TheLastEmperor_1987_BluRay_ELAN.eaf'
p2175
sg18
I00
sba(i__main__
Movie
p2176
(dp2177
g3
Nsg4
S'TheManWhoFellToEarth'
p2178
sg6
S'//130.60.131.134/studi/Filme/spaete_Filme/1868_The_Man_Who_Fell_To_Earth_1976/'
p2179
sg8
(lp2180
S'//130.60.131.134/studi/Filme/spaete_Filme/1868_The_Man_Who_Fell_To_Earth_1976\\1868_1_1_TheManWhoFellToEarth_1976_DVD_ELAN_export.txt'
p2181
asg10
(lp2182
I1868
aI1
aI1
asg12
S'spaete_Filme/1868_The_Man_Who_Fell_To_Earth_1976/'
p2183
sg14
I00
sg15
Nsg16
S'//130.60.131.134/studi/Filme/spaete_Filme/1868_The_Man_Who_Fell_To_Earth_1976\\1868_1_1_TheManWhoFellToEarth_1976_DVD_ELAN.eaf'
p2184
sg18
I00
sba(i__main__
Movie
p2185
(dp2186
g3
Nsg4
S'SilenceLambs'
p2187
sg6
S'//130.60.131.134/studi/Filme/spaete_Filme/1880_SilenceLambs_1991/'
p2188
sg8
(lp2189
sg10
(lp2190
I1880
aI1
aI1
asg12
S'spaete_Filme/1880_SilenceLambs_1991/'
p2191
sg14
I00
sg15
Nsg16
S'//130.60.131.134/studi/Filme/spaete_Filme/1880_SilenceLambs_1991\\1880_1_1_SilenceLambs_1991_DVD_ELAN.eaf'
p2192
sg18
I00
sba(i__main__
Movie
p2193
(dp2194
g3
Nsg4
S'UnaGiornataParticolare'
p2195
sg6
S'//130.60.131.134/studi/Filme/spaete_Filme/1908_UnaGiornataParticolare_1977/'
p2196
sg8
(lp2197
sg10
(lp2198
I1908
aI1
aI1
asg12
S'spaete_Filme/1908_UnaGiornataParticolare_1977/'
p2199
sg14
I00
sg15
Nsg16
S'//130.60.131.134/studi/Filme/spaete_Filme/1908_UnaGiornataParticolare_1977\\1908_1_1_UnaGiornataParticolare_1977.eaf'
p2200
sg18
I00
sba(i__main__
Movie
p2201
(dp2202
g3
Nsg4
S'THX1138'
p2203
sg6
S'//130.60.131.134/studi/Filme/spaete_Filme/1976_THX_1138_1971/'
p2204
sg8
(lp2205
S'//130.60.131.134/studi/Filme/spaete_Filme/1976_THX_1138_1971\\1976_1_1_THX1138_1971_DVD_ELAN_export.txt'
p2206
asg10
(lp2207
I1976
aI1
aI1
asg12
S'spaete_Filme/1976_THX_1138_1971/'
p2208
sg14
I00
sg15
Nsg16
S'//130.60.131.134/studi/Filme/spaete_Filme/1976_THX_1138_1971\\1976_1_1_THX1138_1971_DVD_ELAN.eaf'
p2209
sg18
I00
sba(i__main__
Movie
p2210
(dp2211
g3
Nsg4
S'IlDesertoRosso'
p2212
sg6
S'//130.60.131.134/studi/Filme/spaete_Filme/203_Il_Deserto_Rosso_1964/'
p2213
sg8
(lp2214
sg10
(lp2215
I203
aI1
aI1
asg12
S'spaete_Filme/203_Il_Deserto_Rosso_1964/'
p2216
sg14
I00
sg15
Nsg16
S'//130.60.131.134/studi/Filme/spaete_Filme/203_Il_Deserto_Rosso_1964\\203_1_1_IlDesertoRosso_1964_DVD_ELAN.eaf'
p2217
sg18
I00
sba(i__main__
Movie
p2218
(dp2219
g3
Nsg4
S'Vertigo'
p2220
sg6
S'//130.60.131.134/studi/Filme/spaete_Filme/205_Vertigo_1958/'
p2221
sg8
(lp2222
S'//130.60.131.134/studi/Filme/spaete_Filme/205_Vertigo_1958\\205_1_1_Vertigo_1958_DVD_ELAN_Export.txt'
p2223
asg10
(lp2224
I205
aI1
aI1
asg12
S'spaete_Filme/205_Vertigo_1958/'
p2225
sg14
I00
sg15
Nsg16
S'//130.60.131.134/studi/Filme/spaete_Filme/205_Vertigo_1958\\205_1_1_Vertigo_1958_DVD_ELAN.eaf'
p2226
sg18
I00
sba(i__main__
Movie
p2227
(dp2228
g3
Nsg4
S'IWantYou'
p2229
sg6
S'//130.60.131.134/studi/Filme/spaete_Filme/207_I_Want_You_1998/'
p2230
sg8
(lp2231
S'//130.60.131.134/studi/Filme/spaete_Filme/207_I_Want_You_1998\\207_1_1_IWantYou_1998_DVD_ELAN.txt'
p2232
asg10
(lp2233
I207
aI1
aI1
asg12
S'spaete_Filme/207_I_Want_You_1998/'
p2234
sg14
I00
sg15
Nsg16
S'//130.60.131.134/studi/Filme/spaete_Filme/207_I_Want_You_1998\\ELAN Projektdatei\\207_1_1_IWantYou_1998_DVD_ELAN.eaf'
p2235
sg18
I00
sba(i__main__
Movie
p2236
(dp2237
g3
Nsg4
S'Suspiria'
p2238
sg6
S'//130.60.131.134/studi/Filme/spaete_Filme/209_Suspiria_1977/'
p2239
sg8
(lp2240
S'//130.60.131.134/studi/Filme/spaete_Filme/209_Suspiria_1977\\209_1_1_Suspiria_1977_DVD_ELAN.txt'
p2241
asg10
(lp2242
I209
aI1
aI1
asg12
S'spaete_Filme/209_Suspiria_1977/'
p2243
sg14
I00
sg15
Nsg16
S'//130.60.131.134/studi/Filme/spaete_Filme/209_Suspiria_1977\\ELAN Projektdatei\\209_1_1_Suspiria_1977_DVD_ELAN.eaf'
p2244
sg18
I00
sba(i__main__
Movie
p2245
(dp2246
g3
Nsg4
S'ChungHingSamIam'
p2247
sg6
S'//130.60.131.134/studi/Filme/spaete_Filme/210_Chung_Hing_sam_Iam_1996/'
p2248
sg8
(lp2249
S'//130.60.131.134/studi/Filme/spaete_Filme/210_Chung_Hing_sam_Iam_1996\\210_1_1_ChungHingSamIam_1996_DVD_ELAN_Export.txt'
p2250
asg10
(lp2251
I210
aI1
aI1
asg12
S'spaete_Filme/210_Chung_Hing_sam_Iam_1996/'
p2252
sg14
I00
sg15
Nsg16
S'//130.60.131.134/studi/Filme/spaete_Filme/210_Chung_Hing_sam_Iam_1996\\210_1_1_ChungHingSamIam_1996_DVD_ELAN.eaf'
p2253
sg18
I00
sba(i__main__
Movie
p2254
(dp2255
g3
Nsg4
S'SoloSunny'
p2256
sg6
S'//130.60.131.134/studi/Filme/spaete_Filme/212_Solo_Sunny_1980/'
p2257
sg8
(lp2258
S'//130.60.131.134/studi/Filme/spaete_Filme/212_Solo_Sunny_1980\\212_SoloSunny_1980_DVD_ELAN_Export.txt'
p2259
asg10
(lp2260
I212
aI1
aI1
asg12
S'spaete_Filme/212_Solo_Sunny_1980/'
p2261
sg14
I00
sg15
Nsg16
S'//130.60.131.134/studi/Filme/spaete_Filme/212_Solo_Sunny_1980\\212_1_1_SoloSunny_1980_DVD_ELAN.eaf'
p2262
sg18
I00
sba(i__main__
Movie
p2263
(dp2264
g3
Nsg4
S'TheCookTheThiefHisWifeAndHerLover'
p2265
sg6
S'//130.60.131.134/studi/Filme/spaete_Filme/215_The_Cook_the_Thief_His_Wife_and_Her_Lover_1990/'
p2266
sg8
(lp2267
S'//130.60.131.134/studi/Filme/spaete_Filme/215_The_Cook_the_Thief_His_Wife_and_Her_Lover_1990\\215_1_1_TheCookTheThiefHisWifeAndHerLover_1990_DVD_ELAN_Export2.txt'
p2268
asg10
(lp2269
I215
aI1
aI1
asg12
S'spaete_Filme/215_The_Cook_the_Thief_His_Wife_and_Her_Lover_1990/'
p2270
sg14
I00
sg15
Nsg16
S'//130.60.131.134/studi/Filme/spaete_Filme/215_The_Cook_the_Thief_His_Wife_and_Her_Lover_1990\\215_1_1_TheCookTheThiefHisWifeAndHerLover_1990_DVD_ELAN.eaf'
p2271
sg18
I00
sba(i__main__
Movie
p2272
(dp2273
g3
Nsg4
S'LesParapuiesDeCherbourg'
p2274
sg6
S'//130.60.131.134/studi/Filme/spaete_Filme/216_Les_parapluies_de_Cherbourg_1964/'
p2275
sg8
(lp2276
sg10
(lp2277
I216
aI1
aI1
asg12
S'spaete_Filme/216_Les_parapluies_de_Cherbourg_1964/'
p2278
sg14
I00
sg15
Nsg16
S'//130.60.131.134/studi/Filme/spaete_Filme/216_Les_parapluies_de_Cherbourg_1964\\216_1_1_LesParapuiesDeCherbourg_1964_DVD.eaf'
p2279
sg18
I00
sba(i__main__
Movie
p2280
(dp2281
g3
Nsg4
S'ApocalypseNow'
p2282
sg6
S'//130.60.131.134/studi/Filme/spaete_Filme/218_Apocalypse_Now_1979/'
p2283
sg8
(lp2284
S'//130.60.131.134/studi/Filme/spaete_Filme/218_Apocalypse_Now_1979\\218_1_1_ApocalypseNow_1979_DVD_ELAN_2-export.txt'
p2285
aS'//130.60.131.134/studi/Filme/spaete_Filme/218_Apocalypse_Now_1979\\218_1_1_ApocalypseNow_1979_DVD_ELAN_2-export.csv'
p2286
aS'//130.60.131.134/studi/Filme/spaete_Filme/218_Apocalypse_Now_1979\\218_1_1_ApocalypseNow_1979_DVD_FCT_snapchots.csv'
p2287
aS'//130.60.131.134/studi/Filme/spaete_Filme/218_Apocalypse_Now_1979\\218_1_1_ApocalypseNow_1979_DVD_FCT_temp.csv'
p2288
asg10
(lp2289
I218
aI1
aI1
asg12
S'spaete_Filme/218_Apocalypse_Now_1979/'
p2290
sg14
I00
sg15
Nsg16
S'//130.60.131.134/studi/Filme/spaete_Filme/218_Apocalypse_Now_1979\\218_1_1_ApocalypseNow_1979_DVD_ELAN_2.eaf'
p2291
sg18
I00
sba(i__main__
Movie
p2292
(dp2293
g3
Nsg4
S'ImitationOfLife'
p2294
sg6
S'//130.60.131.134/studi/Filme/spaete_Filme/21_Imitation_of_Life_1959/'
p2295
sg8
(lp2296
sg10
(lp2297
I21
aI1
aI1
asg12
S'spaete_Filme/21_Imitation_of_Life_1959/'
p2298
sg14
I00
sg15
Nsg16
S'//130.60.131.134/studi/Filme/spaete_Filme/21_Imitation_of_Life_1959\\21_1_1_ImitationOfLife_15072016_BF.eaf'
p2299
sg18
I00
sba(i__main__
Movie
p2300
(dp2301
g3
Nsg4
S'NarayamaBushiko'
p2302
sg6
S'//130.60.131.134/studi/Filme/spaete_Filme/227_NarayamaBushiko_1958/'
p2303
sg8
(lp2304
S'//130.60.131.134/studi/Filme/spaete_Filme/227_NarayamaBushiko_1958\\227_1_1_NarayamaBushiko_1958_DVD_ELAN_Export.txt'
p2305
asg10
(lp2306
I227
aI1
aI1
asg12
S'spaete_Filme/227_NarayamaBushiko_1958/'
p2307
sg14
I00
sg15
Nsg16
S'//130.60.131.134/studi/Filme/spaete_Filme/227_NarayamaBushiko_1958\\227_1_1_NarayamaBushiko_1958_DVD_ELAN.eaf'
p2308
sg18
I00
sba(i__main__
Movie
p2309
(dp2310
g3
Nsg4
S'Jigokumon'
p2311
sg6
S'//130.60.131.134/studi/Filme/spaete_Filme/229_Jigokumon_1953/'
p2312
sg8
(lp2313
sg10
(lp2314
I229
aI1
aI1
asg12
S'spaete_Filme/229_Jigokumon_1953/'
p2315
sg14
I00
sg15
Nsg16
S'//130.60.131.134/studi/Filme/spaete_Filme/229_Jigokumon_1953\\229_1_1_Jigokumon_1953_BF.eaf'
p2316
sg18
I00
sba(i__main__
Movie
p2317
(dp2318
g3
Nsg4
S'Stalker'
p2319
sg6
S'//130.60.131.134/studi/Filme/spaete_Filme/23_Stalker_1980/'
p2320
sg8
(lp2321
S'//130.60.131.134/studi/Filme/spaete_Filme/23_Stalker_1980\\023_1_1_Stalker_1980_DVD_ELAN_Export.txt'
p2322
asg10
(lp2323
I23
aI1
aI1
asg12
S'spaete_Filme/23_Stalker_1980/'
p2324
sg14
I00
sg15
Nsg16
S'//130.60.131.134/studi/Filme/spaete_Filme/23_Stalker_1980\\023_1_1_Stalker_1980_DVD_ELAN.eaf'
p2325
sg18
I00
sba(i__main__
Movie
p2326
(dp2327
g3
Nsg4
S'IntheMoodforLove'
p2328
sg6
S'//130.60.131.134/studi/Filme/spaete_Filme/240_In_the_Mood_for_Love_2000/'
p2329
sg8
(lp2330
sg10
(lp2331
I240
aI1
aI1
asg12
S'spaete_Filme/240_In_the_Mood_for_Love_2000/'
p2332
sg14
I00
sg15
Nsg16
S'//130.60.131.134/studi/Filme/spaete_Filme/240_In_the_Mood_for_Love_2000\\240_1_1_IntheMoodforLove_2000_ELAN.eaf'
p2333
sg18
I00
sba(i__main__
Movie
p2334
(dp2335
g3
Nsg4
S'AllThatHeavenAllows'
p2336
sg6
S'//130.60.131.134/studi/Filme/spaete_Filme/241_All_That_Heaven_Allows_1955/'
p2337
sg8
(lp2338
sg10
(lp2339
I241
aI1
aI1
asg12
S'spaete_Filme/241_All_That_Heaven_Allows_1955/'
p2340
sg14
I00
sg15
Nsg16
S'//130.60.131.134/studi/Filme/spaete_Filme/241_All_That_Heaven_Allows_1955\\241_1_1_AllThatHeavenAllows_1955_DVD_ELAN_BF.eaf'
p2341
sg18
I00
sba(i__main__
Movie
p2342
(dp2343
g3
Nsg4
S'BlueVelvet'
p2344
sg6
S'//130.60.131.134/studi/Filme/spaete_Filme/244_Blue_Velvet_1986/'
p2345
sg8
(lp2346
sg10
(lp2347
I244
aI1
aI1
asg12
S'spaete_Filme/244_Blue_Velvet_1986/'
p2348
sg14
I00
sg15
Nsg16
S'//130.60.131.134/studi/Filme/spaete_Filme/244_Blue_Velvet_1986\\244_1_1_BlueVelvet_1986_DVD_ELAN.eaf'
p2349
sg18
I00
sba(i__main__
Movie
p2350
(dp2351
g3
Nsg4
S'SayatNova'
p2352
sg6
S'//130.60.131.134/studi/Filme/spaete_Filme/246_Sayat_Nova_1969/'
p2353
sg8
(lp2354
sg10
(lp2355
I246
aI1
aI1
asg12
S'spaete_Filme/246_Sayat_Nova_1969/'
p2356
sg14
I00
sg15
Nsg16
S'//130.60.131.134/studi/Filme/spaete_Filme/246_Sayat_Nova_1969\\246_1_1_SayatNova_1969_DVD_ELAN.eaf'
p2357
sg18
I00
sba(i__main__
Movie
p2358
(dp2359
g3
Nsg4
S'MonOncle'
p2360
sg6
S'//130.60.131.134/studi/Filme/spaete_Filme/254_MonOncle_1958/'
p2361
sg8
(lp2362
S'//130.60.131.134/studi/Filme/spaete_Filme/254_MonOncle_1958\\254_1_1_MonOncle_1958_DVD_ELAN_Export.txt'
p2363
asg10
(lp2364
I254
aI1
aI1
asg12
S'spaete_Filme/254_MonOncle_1958/'
p2365
sg14
I00
sg15
Nsg16
S'//130.60.131.134/studi/Filme/spaete_Filme/254_MonOncle_1958\\254_1_1_MonOncle_1958_DVD_ELAN.eaf'
p2366
sg18
I00
sba(i__main__
Movie
p2367
(dp2368
g3
Nsg4
S'Lola'
p2369
sg6
S'//130.60.131.134/studi/Filme/spaete_Filme/255_Lola_1981/'
p2370
sg8
(lp2371
sg10
(lp2372
I255
aI1
aI1
asg12
S'spaete_Filme/255_Lola_1981/'
p2373
sg14
I00
sg15
Nsg16
S'//130.60.131.134/studi/Filme/spaete_Filme/255_Lola_1981\\255_1_1_Lola_1981_DVD_ELAN.eaf'
p2374
sg18
I00
sba(i__main__
Movie
p2375
(dp2376
g3
Nsg4
S'Viskningarochrop'
p2377
sg6
S'//130.60.131.134/studi/Filme/spaete_Filme/259_Viskningar_och_rop_1972/'
p2378
sg8
(lp2379
S'//130.60.131.134/studi/Filme/spaete_Filme/259_Viskningar_och_rop_1972\\259_1_1_Viskningarochrop_1972_DVD_ELAN_Export2.txt'
p2380
asg10
(lp2381
I259
aI1
aI1
asg12
S'spaete_Filme/259_Viskningar_och_rop_1972/'
p2382
sg14
I00
sg15
Nsg16
S'//130.60.131.134/studi/Filme/spaete_Filme/259_Viskningar_och_rop_1972\\259_1_1_Viskningarochrop_1972_DVD_ELAN.eaf'
p2383
sg18
I00
sba(i__main__
Movie
p2384
(dp2385
g3
Nsg4
S'FunnyFace'
p2386
sg6
S'//130.60.131.134/studi/Filme/spaete_Filme/260_FunnyFace_1957/'
p2387
sg8
(lp2388
sg10
(lp2389
I260
aI1
aI1
asg12
S'spaete_Filme/260_FunnyFace_1957/'
p2390
sg14
I00
sg15
Nsg16
S'//130.60.131.134/studi/Filme/spaete_Filme/260_FunnyFace_1957\\260_1_1_FunnyFace_1957.eaf'
p2391
sg18
I00
sba(i__main__
Movie
p2392
(dp2393
g3
Nsg4
S'SeiDonnePerLAssassino'
p2394
sg6
S'//130.60.131.134/studi/Filme/spaete_Filme/261_SeiDonnePerLAssassino_1964/'
p2395
sg8
(lp2396
S'//130.60.131.134/studi/Filme/spaete_Filme/261_SeiDonnePerLAssassino_1964\\261_1_1_SeiDonnePerLAssassino_1964_DVD_ELAN_BF.txt'
p2397
aS'//130.60.131.134/studi/Filme/spaete_Filme/261_SeiDonnePerLAssassino_1964\\261_1_1_SeiDonnePerLAssassino_1964_DVD_ELAN_BF_korr2.txt'
p2398
asg10
(lp2399
I261
aI1
aI1
asg12
S'spaete_Filme/261_SeiDonnePerLAssassino_1964/'
p2400
sg14
I00
sg15
Nsg16
S'//130.60.131.134/studi/Filme/spaete_Filme/261_SeiDonnePerLAssassino_1964\\261_1_1_SeiDonnePerLAssassino_1964_DVD_ELAN_BF_korr2.eaf'
p2401
sg18
I00
sba(i__main__
Movie
p2402
(dp2403
g3
Nsg4
S'BlackHawkDown'
p2404
sg6
S'//130.60.131.134/studi/Filme/spaete_Filme/272_Black_Hawk_Down_2001/'
p2405
sg8
(lp2406
sg10
(lp2407
I272
aI1
aI1
asg12
S'spaete_Filme/272_Black_Hawk_Down_2001/'
p2408
sg14
I00
sg15
Nsg16
S'//130.60.131.134/studi/Filme/spaete_Filme/272_Black_Hawk_Down_2001\\ELAN Projektdatei\\272_1_1_BlackHawkDown_2001_DVD_ELAN.eaf'
p2409
sg18
I00
sba(i__main__
Movie
p2410
(dp2411
g3
Nsg4
S'IlMisteroDiOberwald'
p2412
sg6
S'//130.60.131.134/studi/Filme/spaete_Filme/277_Il_mistero_di_Oberwald_1981/'
p2413
sg8
(lp2414
S'//130.60.131.134/studi/Filme/spaete_Filme/277_Il_mistero_di_Oberwald_1981\\277_1_1_IlMisteroDiOberwald_1981_DVD.txt'
p2415
asg10
(lp2416
I277
aI1
aI1
asg12
S'spaete_Filme/277_Il_mistero_di_Oberwald_1981/'
p2417
sg14
I00
sg15
Nsg16
S'//130.60.131.134/studi/Filme/spaete_Filme/277_Il_mistero_di_Oberwald_1981\\277_1_1_IlMisteroDiOberwald_1981_DVD.eaf'
p2418
sg18
I00
sba(i__main__
Movie
p2419
(dp2420
g3
Nsg4
S'Possession'
p2421
sg6
S'//130.60.131.134/studi/Filme/spaete_Filme/278_Possession_1981/'
p2422
sg8
(lp2423
sg10
(lp2424
I278
aI1
aI1
asg12
S'spaete_Filme/278_Possession_1981/'
p2425
sg14
I00
sg15
Nsg16
S'//130.60.131.134/studi/Filme/spaete_Filme/278_Possession_1981\\278_1_1_Possession_1981_DVD_ELAN.eaf'
p2426
sg18
I00
sba(i__main__
Movie
p2427
(dp2428
g3
Nsg4
S'Kika'
p2429
sg6
S'//130.60.131.134/studi/Filme/spaete_Filme/280_Kika_1990/'
p2430
sg8
(lp2431
S'//130.60.131.134/studi/Filme/spaete_Filme/280_Kika_1990\\280_1_1_Kika_1993_DVD_ELAN_export.txt'
p2432
asg10
(lp2433
I280
aI1
aI1
asg12
S'spaete_Filme/280_Kika_1990/'
p2434
sg14
I00
sg15
Nsg16
S'//130.60.131.134/studi/Filme/spaete_Filme/280_Kika_1990\\280_1_1_Kika_1993_DVD_ELAN.eaf'
p2435
sg18
I00
sba(i__main__
Movie
p2436
(dp2437
g3
Nsg4
S'NorthByNorthwest'
p2438
sg6
S'//130.60.131.134/studi/Filme/spaete_Filme/282_NorthByNorthwest_1959/'
p2439
sg8
(lp2440
S'//130.60.131.134/studi/Filme/spaete_Filme/282_NorthByNorthwest_1959\\282_1_3_NorthByNorthwest_1959_BD_ELAN_BF.txt'
p2441
asg10
(lp2442
I282
aI1
aI3
asg12
S'spaete_Filme/282_NorthByNorthwest_1959/'
p2443
sg14
I00
sg15
Nsg16
S'//130.60.131.134/studi/Filme/spaete_Filme/282_NorthByNorthwest_1959\\282_1_3_NorthByNorthwest_1959_BD_ELAN_BF.eaf'
p2444
sg18
I00
sba(i__main__
Movie
p2445
(dp2446
g3
Nsg4
S'ToCatchAThief'
p2447
sg6
S'//130.60.131.134/studi/Filme/spaete_Filme/287_To_Catch_A_Thief_1955/'
p2448
sg8
(lp2449
S'//130.60.131.134/studi/Filme/spaete_Filme/287_To_Catch_A_Thief_1955\\287_1_4_ToCatchAThief_1955_Bluray_ELAN_BF.txt'
p2450
asg10
(lp2451
I287
aI1
aI4
asg12
S'spaete_Filme/287_To_Catch_A_Thief_1955/'
p2452
sg14
I00
sg15
Nsg16
S'//130.60.131.134/studi/Filme/spaete_Filme/287_To_Catch_A_Thief_1955\\287_1_4_ToCatchAThief_1955_Bluray_ELAN_BF.eaf'
p2453
sg18
I00
sba(i__main__
Movie
p2454
(dp2455
g3
Nsg4
S'SignaleEinWeltraumabenteuer'
p2456
sg6
S'//130.60.131.134/studi/Filme/spaete_Filme/2887_Signale_Ein_Weltraumabenteuer_1970/'
p2457
sg8
(lp2458
S'//130.60.131.134/studi/Filme/spaete_Filme/2887_Signale_Ein_Weltraumabenteuer_1970\\2887_1_1_SignaleEinWeltraumabenteuer_1970_DVD_ELAN_export.txt'
p2459
asg10
(lp2460
I2887
aI1
aI1
asg12
S'spaete_Filme/2887_Signale_Ein_Weltraumabenteuer_1970/'
p2461
sg14
I00
sg15
Nsg16
S'//130.60.131.134/studi/Filme/spaete_Filme/2887_Signale_Ein_Weltraumabenteuer_1970\\2887_1_1_SignaleEinWeltraumabenteuer_1970_DVD_ELAN.eaf'
p2462
sg18
I00
sba(i__main__
Movie
p2463
(dp2464
g3
Nsg4
S'Spartacus'
p2465
sg6
S'//130.60.131.134/studi/Filme/spaete_Filme/291_Spartacus_1960/'
p2466
sg8
(lp2467
sg10
(lp2468
I291
aI1
aI1
asg12
S'spaete_Filme/291_Spartacus_1960/'
p2469
sg14
I00
sg15
Nsg16
S'//130.60.131.134/studi/Filme/spaete_Filme/291_Spartacus_1960\\291_1_1_Spartacus_1960_DVD_ELAN.eaf'
p2470
sg18
I00
sba(i__main__
Movie
p2471
(dp2472
g3
Nsg4
S'ModestyBlaise'
p2473
sg6
S'//130.60.131.134/studi/Filme/spaete_Filme/3085_Modesty_Blaise_1965/'
p2474
sg8
(lp2475
S'//130.60.131.134/studi/Filme/spaete_Filme/3085_Modesty_Blaise_1965\\3085_1_1_ModestyBlaise_1965_DVD_ELAN_BF.txt'
p2476
asg10
(lp2477
I3085
aI1
aI1
asg12
S'spaete_Filme/3085_Modesty_Blaise_1965/'
p2478
sg14
I00
sg15
Nsg16
S'//130.60.131.134/studi/Filme/spaete_Filme/3085_Modesty_Blaise_1965\\3085_1_1_ModestyBlaise_1965_DVD_ELAN_BF.eaf'
p2479
sg18
I00
sba(i__main__
Movie
p2480
(dp2481
g3
Nsg4
S'Frenzy'
p2482
sg6
S'//130.60.131.134/studi/Filme/spaete_Filme/3093_Frenzy_1972/'
p2483
sg8
(lp2484
sg10
(lp2485
I3093
aI1
aI1
asg12
S'spaete_Filme/3093_Frenzy_1972/'
p2486
sg14
I00
sg15
Nsg16
S'//130.60.131.134/studi/Filme/spaete_Filme/3093_Frenzy_1972\\3093_1_1_Frenzy_1972_DVD_ELAN.eaf'
p2487
sg18
I00
sba(i__main__
Movie
p2488
(dp2489
g3
Nsg4
S'KyuketsukiGokemidoro'
p2490
sg6
S'//130.60.131.134/studi/Filme/spaete_Filme/3100_Kyuketsuki_Gokemidoro_1968/'
p2491
sg8
(lp2492
S'//130.60.131.134/studi/Filme/spaete_Filme/3100_Kyuketsuki_Gokemidoro_1968\\3100_1_1_KyuketsukiGokemidoro_1968_DVD_ELAN_export.txt'
p2493
asg10
(lp2494
I3100
aI1
aI1
asg12
S'spaete_Filme/3100_Kyuketsuki_Gokemidoro_1968/'
p2495
sg14
I00
sg15
Nsg16
S'//130.60.131.134/studi/Filme/spaete_Filme/3100_Kyuketsuki_Gokemidoro_1968\\3100_1_1_KyuketsukiGokemidoro_1968_DVD_ELAN.eaf'
p2496
sg18
I00
sba(i__main__
Movie
p2497
(dp2498
g3
Nsg4
S'KnochuDaisenso'
p2499
sg6
S'//130.60.131.134/studi/Filme/spaete_Filme/3101_Knochu_daisenso_1968/'
p2500
sg8
(lp2501
S'//130.60.131.134/studi/Filme/spaete_Filme/3101_Knochu_daisenso_1968\\3101_1_1_KnochuDaisenso_1968_DVD_ELAN_export.txt'
p2502
asg10
(lp2503
I3101
aI1
aI1
asg12
S'spaete_Filme/3101_Knochu_daisenso_1968/'
p2504
sg14
I00
sg15
Nsg16
S'//130.60.131.134/studi/Filme/spaete_Filme/3101_Knochu_daisenso_1968\\3101_1_1_KnochuDaisenso_1968_DVD_ELAN.eaf'
p2505
sg18
I00
sba(i__main__
Movie
p2506
(dp2507
g3
Nsg4
S'DerWegzudenSternen'
p2508
sg6
S'//130.60.131.134/studi/Filme/spaete_Filme/3102_DerWegzudenSternen_1957/'
p2509
sg8
(lp2510
S'//130.60.131.134/studi/Filme/spaete_Filme/3102_DerWegzudenSternen_1957\\3102_1_1_DerWegzudenSternen_1957_DVD_ELAN_export.txt'
p2511
asg10
(lp2512
I3102
aI1
aI1
asg12
S'spaete_Filme/3102_DerWegzudenSternen_1957/'
p2513
sg14
I00
sg15
Nsg16
S'//130.60.131.134/studi/Filme/spaete_Filme/3102_DerWegzudenSternen_1957\\3102_1_1_DerWegzudenSternen_1957_DVD_ELAN.eaf'
p2514
sg18
I00
sba(i__main__
Movie
p2515
(dp2516
g3
Nsg4
S'OtrokiVoVselennoy'
p2517
sg6
S'//130.60.131.134/studi/Filme/spaete_Filme/3137_Otroki_Vo_Vselennoy_1975/'
p2518
sg8
(lp2519
S'//130.60.131.134/studi/Filme/spaete_Filme/3137_Otroki_Vo_Vselennoy_1975\\3137_1_1_OtrokiVoVselennoy_1975_DVD_ELAN.txt'
p2520
asg10
(lp2521
I3137
aI1
aI1
asg12
S'spaete_Filme/3137_Otroki_Vo_Vselennoy_1975/'
p2522
sg14
I00
sg15
Nsg16
S'//130.60.131.134/studi/Filme/spaete_Filme/3137_Otroki_Vo_Vselennoy_1975\\ELAN Projektdatei\\3137_1_1_OtrokiVoVselennoy_1975_DVD_ELAN.eaf'
p2523
sg18
I00
sba(i__main__
Movie
p2524
(dp2525
g3
Nsg4
S'TheShelteringSky'
p2526
sg6
S'//130.60.131.134/studi/Filme/spaete_Filme/3144_The_Sheltering_Sky_1990/'
p2527
sg8
(lp2528
S'//130.60.131.134/studi/Filme/spaete_Filme/3144_The_Sheltering_Sky_1990\\3144_1_1_TheShelteringSky_1990_DVD_ELAN_export.txt'
p2529
asg10
(lp2530
I3144
aI1
aI1
asg12
S'spaete_Filme/3144_The_Sheltering_Sky_1990/'
p2531
sg14
I00
sg15
Nsg16
S'//130.60.131.134/studi/Filme/spaete_Filme/3144_The_Sheltering_Sky_1990\\3144_1_1_TheShelteringSky_1990_DVD_ELAN.eaf'
p2532
sg18
I00
sba(i__main__
Movie
p2533
(dp2534
g3
Nsg4
S'TheExorcist'
p2535
sg6
S'//130.60.131.134/studi/Filme/spaete_Filme/3145_TheExorcist_1973/'
p2536
sg8
(lp2537
S'//130.60.131.134/studi/Filme/spaete_Filme/3145_TheExorcist_1973\\3145_1_1_TheExorcist_1973_DVD_ELAN.txt'
p2538
asg10
(lp2539
I3145
aI1
aI1
asg12
S'spaete_Filme/3145_TheExorcist_1973/'
p2540
sg14
I00
sg15
Nsg16
S'//130.60.131.134/studi/Filme/spaete_Filme/3145_TheExorcist_1973\\3145_1_1_TheExorcist_1973_DVD_ELAN.eaf'
p2541
sg18
I00
sba(i__main__
Movie
p2542
(dp2543
g3
Nsg4
S'TheBlueLagoon'
p2544
sg6
S'//130.60.131.134/studi/Filme/spaete_Filme/3153_TheBlueLagoon_1980/'
p2545
sg8
(lp2546
S'//130.60.131.134/studi/Filme/spaete_Filme/3153_TheBlueLagoon_1980\\3153_1_1_TheBlueLagoon_1980_DVD_ELAN.txt'
p2547
asg10
(lp2548
I3153
aI1
aI1
asg12
S'spaete_Filme/3153_TheBlueLagoon_1980/'
p2549
sg14
I00
sg15
Nsg16
S'//130.60.131.134/studi/Filme/spaete_Filme/3153_TheBlueLagoon_1980\\3153_1_1_TheBlueLagoon_1980_DVD_ELAN.eaf'
p2550
sg18
I00
sba(i__main__
Movie
p2551
(dp2552
g3
Nsg4
S'TopGun'
p2553
sg6
S'//130.60.131.134/studi/Filme/spaete_Filme/3154_TopGun_1986/'
p2554
sg8
(lp2555
sg10
(lp2556
I3154
aI1
aI1
asg12
S'spaete_Filme/3154_TopGun_1986/'
p2557
sg14
I00
sg15
Nsg16
S'//130.60.131.134/studi/Filme/spaete_Filme/3154_TopGun_1986\\3154_1_1_TopGun_1986.eaf'
p2558
sg18
I00
sba(i__main__
Movie
p2559
(dp2560
g3
Nsg4
S'PlayTime'
p2561
sg6
S'//130.60.131.134/studi/Filme/spaete_Filme/315_Playtime_1967/'
p2562
sg8
(lp2563
sg10
(lp2564
I315
aI1
aI1
asg12
S'spaete_Filme/315_Playtime_1967/'
p2565
sg14
I00
sg15
Nsg16
S'//130.60.131.134/studi/Filme/spaete_Filme/315_Playtime_1967\\315_1_1_PlayTime_1967_DVD_ELAN.eaf'
p2566
sg18
I00
sba(i__main__
Movie
p2567
(dp2568
g3
Nsg4
S'TheShining'
p2569
sg6
S'//130.60.131.134/studi/Filme/spaete_Filme/316_TheShining_1980/'
p2570
sg8
(lp2571
sg10
(lp2572
I316
aI1
aI1
asg12
S'spaete_Filme/316_TheShining_1980/'
p2573
sg14
I00
sg15
Nsg16
S'//130.60.131.134/studi/Filme/spaete_Filme/316_TheShining_1980\\316_1_1_TheShining_1980_DVD_ELAN.eaf'
p2574
sg18
I00
sba(i__main__
Movie
p2575
(dp2576
g3
Nsg4
S'Hoehenfeuer'
p2577
sg6
S'//130.60.131.134/studi/Filme/spaete_Filme/3185_Hoehenfeuer_1985/'
p2578
sg8
(lp2579
S'//130.60.131.134/studi/Filme/spaete_Filme/3185_Hoehenfeuer_1985\\3185_1_1_Hoehenfeuer_1985_DVD_ELAN_export.txt'
p2580
asg10
(lp2581
I3185
aI1
aI1
asg12
S'spaete_Filme/3185_Hoehenfeuer_1985/'
p2582
sg14
I00
sg15
Nsg16
S'//130.60.131.134/studi/Filme/spaete_Filme/3185_Hoehenfeuer_1985\\3185_1_1_Hoehenfeuer_1985_DVD_ELAN.eaf'
p2583
sg18
I00
sba(i__main__
Movie
p2584
(dp2585
g3
Nsg4
S'Bilitis'
p2586
sg6
S'//130.60.131.134/studi/Filme/spaete_Filme/3231_Bilitis_1977/'
p2587
sg8
(lp2588
S'//130.60.131.134/studi/Filme/spaete_Filme/3231_Bilitis_1977\\3231_1_1_Bilitis_1977_DVD_ELAN_export.txt'
p2589
asg10
(lp2590
I3231
aI1
aI1
asg12
S'spaete_Filme/3231_Bilitis_1977/'
p2591
sg14
I00
sg15
Nsg16
S'//130.60.131.134/studi/Filme/spaete_Filme/3231_Bilitis_1977\\3231_1_1_Bilitis_1977_DVD_ELAN.eaf'
p2592
sg18
I00
sba(i__main__
Movie
p2593
(dp2594
g3
Nsg4
S'StarTrekVITheUndiscoveredCountry'
p2595
sg6
S'//130.60.131.134/studi/Filme/spaete_Filme/3243_Star_Trek_VI_The_Undiscovered_Country_1991/'
p2596
sg8
(lp2597
S'//130.60.131.134/studi/Filme/spaete_Filme/3243_Star_Trek_VI_The_Undiscovered_Country_1991\\3243_1_1_StarTrekVITheUndiscoveredCountry_1991_DVD_ELAN_export.txt'
p2598
asg10
(lp2599
I3243
aI1
aI1
asg12
S'spaete_Filme/3243_Star_Trek_VI_The_Undiscovered_Country_1991/'
p2600
sg14
I00
sg15
Nsg16
S'//130.60.131.134/studi/Filme/spaete_Filme/3243_Star_Trek_VI_The_Undiscovered_Country_1991\\3243_1_1_StarTrekVITheUndiscoveredCountry_1991_DVD_ELAN.eaf'
p2601
sg18
I00
sba(i__main__
Movie
p2602
(dp2603
g3
Nsg4
S'TschelowekAmfibija'
p2604
sg6
S'//130.60.131.134/studi/Filme/spaete_Filme/3244_Tschelowek_Amfibija_1963/'
p2605
sg8
(lp2606
S'//130.60.131.134/studi/Filme/spaete_Filme/3244_Tschelowek_Amfibija_1963\\3244_1_1_TschelowekAmfibija_1963_DVD_ELAN_export.txt'
p2607
asg10
(lp2608
I3244
aI1
aI1
asg12
S'spaete_Filme/3244_Tschelowek_Amfibija_1963/'
p2609
sg14
I00
sg15
Nsg16
S'//130.60.131.134/studi/Filme/spaete_Filme/3244_Tschelowek_Amfibija_1963\\3244_1_1_TschelowekAmfibija_1963_DVD_ELAN.eaf'
p2610
sg18
I00
sba(i__main__
Movie
p2611
(dp2612
g3
Nsg4
S'TotalRecall'
p2613
sg6
S'//130.60.131.134/studi/Filme/spaete_Filme/328_TotalRecall_1990_DVD/'
p2614
sg8
(lp2615
sg10
(lp2616
I328
aI1
aI1
asg12
S'spaete_Filme/328_TotalRecall_1990_DVD/'
p2617
sg14
I00
sg15
Nsg16
S'//130.60.131.134/studi/Filme/spaete_Filme/328_TotalRecall_1990_DVD\\328_1_1_TotalRecall_1990_DVD_ELAN.eaf'
p2618
sg18
I00
sba(i__main__
Movie
p2619
(dp2620
g3
Nsg4
S'BladeRunner'
p2621
sg6
S'//130.60.131.134/studi/Filme/spaete_Filme/329_Blade_Runner_1982/'
p2622
sg8
(lp2623
S'//130.60.131.134/studi/Filme/spaete_Filme/329_Blade_Runner_1982\\329_1_1_BladeRunner_1982_DVD_ELAN_export2.txt'
p2624
asg10
(lp2625
I329
aI1
aI1
asg12
S'spaete_Filme/329_Blade_Runner_1982/'
p2626
sg14
I00
sg15
Nsg16
S'//130.60.131.134/studi/Filme/spaete_Filme/329_Blade_Runner_1982\\329_1_1_BladeRunner_1982_DVD_ELAN.eaf'
p2627
sg18
I00
sba(i__main__
Movie
p2628
(dp2629
g3
Nsg4
S'CriaCuervos'
p2630
sg6
S'//130.60.131.134/studi/Filme/spaete_Filme/335_Cria_Cuervos_1976/'
p2631
sg8
(lp2632
sg10
(lp2633
I335
aI1
aI1
asg12
S'spaete_Filme/335_Cria_Cuervos_1976/'
p2634
sg14
I00
sg15
Nsg16
S'//130.60.131.134/studi/Filme/spaete_Filme/335_Cria_Cuervos_1976\\335_1_1_CriaCuervos_1976_DVD.eaf'
p2635
sg18
I00
sba(i__main__
Movie
p2636
(dp2637
g3
Nsg4
S"L'uccelloDallePiumeDiCristallo"
p2638
sg6
S"//130.60.131.134/studi/Filme/spaete_Filme/3369_L'uccello_Dalle_Piume_Di_Cristallo_1970/"
p2639
sg8
(lp2640
S"//130.60.131.134/studi/Filme/spaete_Filme/3369_L'uccello_Dalle_Piume_Di_Cristallo_1970\\3369_1_1_L'uccelloDallePiumeDiCristallo_1970_DVD_ELAN_export.txt"
p2641
asg10
(lp2642
I3369
aI1
aI1
asg12
S"spaete_Filme/3369_L'uccello_Dalle_Piume_Di_Cristallo_1970/"
p2643
sg14
I00
sg15
Nsg16
S"//130.60.131.134/studi/Filme/spaete_Filme/3369_L'uccello_Dalle_Piume_Di_Cristallo_1970\\3369_1_1_L'uccelloDallePiumeDiCristallo_1970_DVD_ELAN.eaf"
p2644
sg18
I00
sba(i__main__
Movie
p2645
(dp2646
g3
Nsg4
S'Matador'
p2647
sg6
S'//130.60.131.134/studi/Filme/spaete_Filme/336_Matador_1986/'
p2648
sg8
(lp2649
S'//130.60.131.134/studi/Filme/spaete_Filme/336_Matador_1986\\336_1_1_Matador_1986_ELAN.txt'
p2650
asg10
(lp2651
I336
aI1
aI1
asg12
S'spaete_Filme/336_Matador_1986/'
p2652
sg14
I00
sg15
Nsg16
S'//130.60.131.134/studi/Filme/spaete_Filme/336_Matador_1986\\ELAN Projektdatei\\336_1_1_Matador_1986_ELAN.eaf'
p2653
sg18
I00
sba(i__main__
Movie
p2654
(dp2655
g3
Nsg4
S'IFidanzatiDellaMorte'
p2656
sg6
S'//130.60.131.134/studi/Filme/spaete_Filme/3374_I_fidanzati_della_morte_1957/'
p2657
sg8
(lp2658
sg10
(lp2659
I3374
aI1
aI1
asg12
S'spaete_Filme/3374_I_fidanzati_della_morte_1957/'
p2660
sg14
I00
sg15
Nsg16
S'//130.60.131.134/studi/Filme/spaete_Filme/3374_I_fidanzati_della_morte_1957\\ELAN Projektdatei\\3374_1_1_IFidanzatiDellaMorte_1957_DVD_ELAN.eaf'
p2661
sg18
I00
sba(i__main__
Movie
p2662
(dp2663
g3
Nsg4
S'MujeresAlBorde'
p2664
sg6
S'//130.60.131.134/studi/Filme/spaete_Filme/337_Mujeres_Al_Borde_De_Un_Ataque_De_Nervios_1988/'
p2665
sg8
(lp2666
sg10
(lp2667
I337
aI1
aI1
asg12
S'spaete_Filme/337_Mujeres_Al_Borde_De_Un_Ataque_De_Nervios_1988/'
p2668
sg14
I00
sg15
Nsg16
S'//130.60.131.134/studi/Filme/spaete_Filme/337_Mujeres_Al_Borde_De_Un_Ataque_De_Nervios_1988\\337_1_1_MujeresAlBorde_1988_DVD_ELAN.eaf'
p2669
sg18
I00
sba(i__main__
Movie
p2670
(dp2671
g3
Nsg4
S'Hecate'
p2672
sg6
S'//130.60.131.134/studi/Filme/spaete_Filme/3387_Hecate_1982/'
p2673
sg8
(lp2674
S'//130.60.131.134/studi/Filme/spaete_Filme/3387_Hecate_1982\\3387_1_1_Hecate_1982_DVD_ELAN_export.txt'
p2675
asg10
(lp2676
I3387
aI1
aI1
asg12
S'spaete_Filme/3387_Hecate_1982/'
p2677
sg14
I00
sg15
Nsg16
S'//130.60.131.134/studi/Filme/spaete_Filme/3387_Hecate_1982\\3387_1_1_Hecate_1982_DVD_ELAN.eaf'
p2678
sg18
I00
sba(i__main__
Movie
p2679
(dp2680
g3
Nsg4
S'TaxiDriver'
p2681
sg6
S'//130.60.131.134/studi/Filme/spaete_Filme/338_TaxiDriver_1978/'
p2682
sg8
(lp2683
S'//130.60.131.134/studi/Filme/spaete_Filme/338_TaxiDriver_1978\\338_1_1_TaxiDriver_1976_DVD_ELAN.txt'
p2684
asg10
(lp2685
I338
aI1
aI1
asg12
S'spaete_Filme/338_TaxiDriver_1978/'
p2686
sg14
I00
sg15
Nsg16
S'//130.60.131.134/studi/Filme/spaete_Filme/338_TaxiDriver_1978\\338_1_1_TaxiDriver_1976_DVD_ELAN.eaf'
p2687
sg18
I00
sba(i__main__
Movie
p2688
(dp2689
g3
Nsg4
S'DoTheRightThing'
p2690
sg6
S'//130.60.131.134/studi/Filme/spaete_Filme/3460_Do_The_Right_Thing_1989/'
p2691
sg8
(lp2692
S'//130.60.131.134/studi/Filme/spaete_Filme/3460_Do_The_Right_Thing_1989\\3460_1_1_DoTheRightThing_1989_DVD_ELAN_BF.txt'
p2693
asg10
(lp2694
I3460
aI1
aI1
asg12
S'spaete_Filme/3460_Do_The_Right_Thing_1989/'
p2695
sg14
I00
sg15
Nsg16
S'//130.60.131.134/studi/Filme/spaete_Filme/3460_Do_The_Right_Thing_1989\\3460_1_1_DoTheRightThing_1989_DVD_ELAN_BF.eaf'
p2696
sg18
I00
sba(i__main__
Movie
p2697
(dp2698
g3
Nsg4
S'Shurayukihime'
p2699
sg6
S'//130.60.131.134/studi/Filme/spaete_Filme/3478_Shurayukihime_1973/'
p2700
sg8
(lp2701
S'//130.60.131.134/studi/Filme/spaete_Filme/3478_Shurayukihime_1973\\3478_1_1_Shurayukihime_1973_DVD_ELAN_export.txt'
p2702
asg10
(lp2703
I3478
aI1
aI1
asg12
S'spaete_Filme/3478_Shurayukihime_1973/'
p2704
sg14
I00
sg15
Nsg16
S'//130.60.131.134/studi/Filme/spaete_Filme/3478_Shurayukihime_1973\\3478_1_1_Shurayukihime_1973_DVD_ELAN.eaf'
p2705
sg18
I00
sba(i__main__
Movie
p2706
(dp2707
g3
Nsg4
S'DaHongDengLongGaoGaoGua'
p2708
sg6
S'//130.60.131.134/studi/Filme/spaete_Filme/3480_Da_HongDengLong_GaoGao_Gua_1991/'
p2709
sg8
(lp2710
S'//130.60.131.134/studi/Filme/spaete_Filme/3480_Da_HongDengLong_GaoGao_Gua_1991\\3480_1_1_DaHongDengLongGaoGaoGua_1991_DVD_ELAN_export.txt'
p2711
asg10
(lp2712
I3480
aI1
aI1
asg12
S'spaete_Filme/3480_Da_HongDengLong_GaoGao_Gua_1991/'
p2713
sg14
I00
sg15
Nsg16
S'//130.60.131.134/studi/Filme/spaete_Filme/3480_Da_HongDengLong_GaoGao_Gua_1991\\3480_1_1_DaHongDengLongGaoGaoGua_1991_DVD_ELAN.eaf'
p2714
sg18
I00
sba(i__main__
Movie
p2715
(dp2716
g3
Nsg4
S'Dyrygent'
p2717
sg6
S'//130.60.131.134/studi/Filme/spaete_Filme/3484_Dyrygent_1979/'
p2718
sg8
(lp2719
S'//130.60.131.134/studi/Filme/spaete_Filme/3484_Dyrygent_1979\\3484_1_1_Dyrygent_1980_DVD_ELAN_export.txt'
p2720
aS'//130.60.131.134/studi/Filme/spaete_Filme/3484_Dyrygent_1979\\3484_1_1_Dyrygent_1980_DVD_ELAN_export.csv'
p2721
aS'//130.60.131.134/studi/Filme/spaete_Filme/3484_Dyrygent_1979\\3484_1_1_Dyrygent_1980_DVD_FCT_snapchots.csv'
p2722
aS'//130.60.131.134/studi/Filme/spaete_Filme/3484_Dyrygent_1979\\3484_1_1_Dyrygent_1980_DVD_FCT_temp.csv'
p2723
asg10
(lp2724
I3484
aI1
aI1
asg12
S'spaete_Filme/3484_Dyrygent_1979/'
p2725
sg14
I00
sg15
Nsg16
S'//130.60.131.134/studi/Filme/spaete_Filme/3484_Dyrygent_1979\\3484_1_1_Dyrygent_1980_DVD_ELAN.eaf'
p2726
sg18
I00
sba(i__main__
Movie
p2727
(dp2728
g3
Nsg4
S'HongGaoliang'
p2729
sg6
S'//130.60.131.134/studi/Filme/spaete_Filme/3488_Hong_Gaoliang_1987/'
p2730
sg8
(lp2731
S'//130.60.131.134/studi/Filme/spaete_Filme/3488_Hong_Gaoliang_1987\\3488_1_1_HongGaoliang_1987_DVD_ELAN.txt'
p2732
asg10
(lp2733
I3488
aI1
aI1
asg12
S'spaete_Filme/3488_Hong_Gaoliang_1987/'
p2734
sg14
I00
sg15
Nsg16
S'//130.60.131.134/studi/Filme/spaete_Filme/3488_Hong_Gaoliang_1987\\ELAN Projektdatei\\3488_1_1_HongGaoliang_1987_DVD_ELAN.eaf'
p2735
sg18
I00
sba(i__main__
Movie
p2736
(dp2737
g3
Nsg4
S'RosemarysBaby'
p2738
sg6
S'//130.60.131.134/studi/Filme/spaete_Filme/348_Rosemarys_Baby_1968/'
p2739
sg8
(lp2740
S'//130.60.131.134/studi/Filme/spaete_Filme/348_Rosemarys_Baby_1968\\348_1_1_RosemarysBaby_1968_DVD_ELAN_Export1.txt'
p2741
asg10
(lp2742
I348
aI1
aI1
asg12
S'spaete_Filme/348_Rosemarys_Baby_1968/'
p2743
sg14
I00
sg15
Nsg16
S'//130.60.131.134/studi/Filme/spaete_Filme/348_Rosemarys_Baby_1968\\348_1_1_RosemarysBaby_1968_DVD_ELAN.eaf'
p2744
sg18
I00
sba(i__main__
Movie
p2745
(dp2746
g3
Nsg4
S'Indiscreet'
p2747
sg6
S'//130.60.131.134/studi/Filme/spaete_Filme/3491_Indiscreet_1957/'
p2748
sg8
(lp2749
S'//130.60.131.134/studi/Filme/spaete_Filme/3491_Indiscreet_1957\\3491_1_1_Indiscreet_1957_DVD_ELAN_export.txt'
p2750
asg10
(lp2751
I3491
aI1
aI1
asg12
S'spaete_Filme/3491_Indiscreet_1957/'
p2752
sg14
I00
sg15
Nsg16
S'//130.60.131.134/studi/Filme/spaete_Filme/3491_Indiscreet_1957\\3491_1_1_Indiscreet_1957_DVD_ELAN.eaf'
p2753
sg18
I00
sba(i__main__
Movie
p2754
(dp2755
g3
Nsg4
S'Wojna'
p2756
sg6
S'//130.60.131.134/studi/Filme/spaete_Filme/3492_Wojna_Swjatow_1981/'
p2757
sg8
(lp2758
S'//130.60.131.134/studi/Filme/spaete_Filme/3492_Wojna_Swjatow_1981\\3492_1_1_Wojna_Swjatow_1981_DVD_ELAN_export.txt'
p2759
asg10
(lp2760
I3492
aI1
aI1
asg12
S'spaete_Filme/3492_Wojna_Swjatow_1981/'
p2761
sg14
I00
sg15
Nsg16
S'//130.60.131.134/studi/Filme/spaete_Filme/3492_Wojna_Swjatow_1981\\3492_1_1_Wojna_Swjatow_1981_DVD_ELAN.eaf'
p2762
sg18
I00
sba(i__main__
Movie
p2763
(dp2764
g3
Nsg4
S'LaDecimaVittima'
p2765
sg6
S'//130.60.131.134/studi/Filme/spaete_Filme/3493_La_Decima_Vittima_1965/'
p2766
sg8
(lp2767
S'//130.60.131.134/studi/Filme/spaete_Filme/3493_La_Decima_Vittima_1965\\3493_1_1_LaDecimaVittima_1965_DVD_ELAN_export.txt'
p2768
asg10
(lp2769
I3493
aI1
aI1
asg12
S'spaete_Filme/3493_La_Decima_Vittima_1965/'
p2770
sg14
I00
sg15
Nsg16
S'//130.60.131.134/studi/Filme/spaete_Filme/3493_La_Decima_Vittima_1965\\3493_1_1_LaDecimaVittima_1965_DVD_ELAN.eaf'
p2771
sg18
I00
sba(i__main__
Movie
p2772
(dp2773
g3
Nsg4
S'Cyclo'
p2774
sg6
S'//130.60.131.134/studi/Filme/spaete_Filme/365_Cyclo_1995/'
p2775
sg8
(lp2776
S'//130.60.131.134/studi/Filme/spaete_Filme/365_Cyclo_1995\\365_1_1_Cyclo_1995_DVD_ELAN.txt'
p2777
asg10
(lp2778
I365
aI1
aI1
asg12
S'spaete_Filme/365_Cyclo_1995/'
p2779
sg14
I00
sg15
Nsg16
S'//130.60.131.134/studi/Filme/spaete_Filme/365_Cyclo_1995\\ELAN Projektdatei\\365_1_1_Cyclo_1995_DVD_ELAN.eaf'
p2780
sg18
I00
sba(i__main__
Movie
p2781
(dp2782
g3
Nsg4
S'Solayaris'
p2783
sg6
S'//130.60.131.134/studi/Filme/spaete_Filme/366_Solayaris_1972/'
p2784
sg8
(lp2785
S'//130.60.131.134/studi/Filme/spaete_Filme/366_Solayaris_1972\\366_1_1_Solayaris_1972_DVD_ELAN_export.txt'
p2786
asg10
(lp2787
I366
aI1
aI1
asg12
S'spaete_Filme/366_Solayaris_1972/'
p2788
sg14
I00
sg15
Nsg16
S'//130.60.131.134/studi/Filme/spaete_Filme/366_Solayaris_1972\\366_1_1_Solayaris_1972_DVD_ELAN.eaf'
p2789
sg18
I00
sba(i__main__
Movie
p2790
(dp2791
g3
Nsg4
S'DeepEnd'
p2792
sg6
S'//130.60.131.134/studi/Filme/spaete_Filme/367_Deep_End_1970/'
p2793
sg8
(lp2794
S'//130.60.131.134/studi/Filme/spaete_Filme/367_Deep_End_1970\\367_1_1_DeepEnd_1970_DVD_ELAN_Export.txt'
p2795
asg10
(lp2796
I367
aI1
aI1
asg12
S'spaete_Filme/367_Deep_End_1970/'
p2797
sg14
I00
sg15
Nsg16
S'//130.60.131.134/studi/Filme/spaete_Filme/367_Deep_End_1970\\367_1_1_DeepEnd_1970_DVD_ELAN.eaf'
p2798
sg18
I00
sba(i__main__
Movie
p2799
(dp2800
g3
Nsg4
S'TheTrip'
p2801
sg6
S'//130.60.131.134/studi/Filme/spaete_Filme/373_TheTrip_1967/'
p2802
sg8
(lp2803
sg10
(lp2804
I373
aI1
aI1
asg12
S'spaete_Filme/373_TheTrip_1967/'
p2805
sg14
I00
sg15
Nsg16
S'//130.60.131.134/studi/Filme/spaete_Filme/373_TheTrip_1967\\373_1_1_TheTrip_1967_ELAN.eaf'
p2806
sg18
I00
sba(i__main__
Movie
p2807
(dp2808
g3
Nsg4
S'Fahrenheit451'
p2809
sg6
S'//130.60.131.134/studi/Filme/spaete_Filme/374_Fahrenheit_451_1966/'
p2810
sg8
(lp2811
S'//130.60.131.134/studi/Filme/spaete_Filme/374_Fahrenheit_451_1966\\374_1_1_Fahrenheit451_1966_DVD_ELAN_Export.txt'
p2812
asg10
(lp2813
I374
aI1
aI1
asg12
S'spaete_Filme/374_Fahrenheit_451_1966/'
p2814
sg14
I00
sg15
Nsg16
S'//130.60.131.134/studi/Filme/spaete_Filme/374_Fahrenheit_451_1966\\374_1_1_Fahrenheit451_1966_DVD_ELAN.eaf'
p2815
sg18
I00
sba(i__main__
Movie
p2816
(dp2817
g3
Nsg4
S'IlConformista'
p2818
sg6
S'//130.60.131.134/studi/Filme/spaete_Filme/403_Il_Conformista_1970/'
p2819
sg8
(lp2820
S'//130.60.131.134/studi/Filme/spaete_Filme/403_Il_Conformista_1970\\403_1_1_IlConformista_1970_DVD_ELAN_Export.txt'
p2821
asg10
(lp2822
I403
aI1
aI1
asg12
S'spaete_Filme/403_Il_Conformista_1970/'
p2823
sg14
I00
sg15
Nsg16
S'//130.60.131.134/studi/Filme/spaete_Filme/403_Il_Conformista_1970\\403_1_1_IlConformista_1970_DVD_ELAN.eaf'
p2824
sg18
I00
sba(i__main__
Movie
p2825
(dp2826
g3
Nsg4
S'HalluciantionsConcertoMecaniquepourlaFolie'
p2827
sg6
S'//130.60.131.134/studi/Filme/spaete_Filme/415_HallucinationsConcerto_1963/'
p2828
sg8
(lp2829
sg10
(lp2830
I415
aI1
aI1
asg12
S'spaete_Filme/415_HallucinationsConcerto_1963/'
p2831
sg14
I00
sg15
Nsg16
S'//130.60.131.134/studi/Filme/spaete_Filme/415_HallucinationsConcerto_1963\\415_1_1_HalluciantionsConcertoMecaniquepourlaFolie_1963_Medfilm_ELAN.eaf'
p2832
sg18
I00
sba(i__main__
Movie
p2833
(dp2834
g3
Nsg4
S'ErnstThaelmannSohnSeinerKlasse'
p2835
sg6
S'//130.60.131.134/studi/Filme/spaete_Filme/418_Ernst_Thaelmann_Sohn_seiner_Klasse_1954/'
p2836
sg8
(lp2837
sg10
(lp2838
I418
aI1
aI1
asg12
S'spaete_Filme/418_Ernst_Thaelmann_Sohn_seiner_Klasse_1954/'
p2839
sg14
I00
sg15
Nsg16
S'//130.60.131.134/studi/Filme/spaete_Filme/418_Ernst_Thaelmann_Sohn_seiner_Klasse_1954\\418_1_1_ErnstThaelmannSohnSeinerKlasse_1954_DVD_ELAN.eaf'
p2840
sg18
I00
sba(i__main__
Movie
p2841
(dp2842
g3
Nsg4
S'BlowUp'
p2843
sg6
S'//130.60.131.134/studi/Filme/spaete_Filme/432_Blow_Up_1966/'
p2844
sg8
(lp2845
S'//130.60.131.134/studi/Filme/spaete_Filme/432_Blow_Up_1966\\432_1_1_BlowUp_1966_DVD_ELAN_Export2.txt'
p2846
asg10
(lp2847
I432
aI1
aI1
asg12
S'spaete_Filme/432_Blow_Up_1966/'
p2848
sg14
I00
sg15
Nsg16
S'//130.60.131.134/studi/Filme/spaete_Filme/432_Blow_Up_1966\\432_1_1_BlowUp_1966_DVD_ELAN.eaf'
p2849
sg18
I00
sba(i__main__
Movie
p2850
(dp2851
g3
Nsg4
S'Alien'
p2852
sg6
S'//130.60.131.134/studi/Filme/spaete_Filme/436_Alien_1979/'
p2853
sg8
(lp2854
S'//130.60.131.134/studi/Filme/spaete_Filme/436_Alien_1979\\436_1_1_Alien_1979_DVD_ELAN_Export.txt'
p2855
asg10
(lp2856
I436
aI1
aI1
asg12
S'spaete_Filme/436_Alien_1979/'
p2857
sg14
I00
sg15
Nsg16
S'//130.60.131.134/studi/Filme/spaete_Filme/436_Alien_1979\\436_1_1_Alien_1979_DVD_ELAN.eaf'
p2858
sg18
I00
sba(i__main__
Movie
p2859
(dp2860
g3
Nsg4
S'RebelWithoutACause'
p2861
sg6
S'//130.60.131.134/studi/Filme/spaete_Filme/437_Rebel_Without_A_Cause_1955/'
p2862
sg8
(lp2863
S'//130.60.131.134/studi/Filme/spaete_Filme/437_Rebel_Without_A_Cause_1955\\437_1_1_RebelWithoutACause_1955_DVD_ELAN_2_export.txt'
p2864
asg10
(lp2865
I437
aI1
aI1
asg12
S'spaete_Filme/437_Rebel_Without_A_Cause_1955/'
p2866
sg14
I00
sg15
Nsg16
S'//130.60.131.134/studi/Filme/spaete_Filme/437_Rebel_Without_A_Cause_1955\\437_1_1_RebelWithoutACause_1955_DVD_ELAN_2.eaf'
p2867
sg18
I00
sba(i__main__
Movie
p2868
(dp2869
g3
Nsg4
S'LoverComeBack'
p2870
sg6
S'//130.60.131.134/studi/Filme/spaete_Filme/4_Lover_Come_Back_1961/'
p2871
sg8
(lp2872
S'//130.60.131.134/studi/Filme/spaete_Filme/4_Lover_Come_Back_1961\\4_1_1_Lover_Come_Back_1961_DVD_ELAN_export.txt'
p2873
asg10
(lp2874
I4
aI1
aI1
asg12
S'spaete_Filme/4_Lover_Come_Back_1961/'
p2875
sg14
I00
sg15
Nsg16
S'//130.60.131.134/studi/Filme/spaete_Filme/4_Lover_Come_Back_1961\\4_1_1_LoverComeBack_1961_DVD_ELAN.eaf'
p2876
sg18
I00
sba(i__main__
Movie
p2877
(dp2878
g3
Nsg4
S'Gigi'
p2879
sg6
S'//130.60.131.134/studi/Filme/spaete_Filme/504_Gigi_1958/'
p2880
sg8
(lp2881
S'//130.60.131.134/studi/Filme/spaete_Filme/504_Gigi_1958\\504_1_1_Gigi_1958_DVD_ELAN.txt'
p2882
asg10
(lp2883
I504
aI1
aI1
asg12
S'spaete_Filme/504_Gigi_1958/'
p2884
sg14
I00
sg15
Nsg16
S'//130.60.131.134/studi/Filme/spaete_Filme/504_Gigi_1958\\ELAN Projektdatei\\504_1_1_Gigi_1958_DVD_ELAN.eaf'
p2885
sg18
I00
sba(i__main__
Movie
p2886
(dp2887
g3
Nsg4
S'WestSideStory'
p2888
sg6
S'//130.60.131.134/studi/Filme/spaete_Filme/520_West_Side_Story_1961/'
p2889
sg8
(lp2890
S'//130.60.131.134/studi/Filme/spaete_Filme/520_West_Side_Story_1961\\520_1_1_WestSideStory_1961_ELAN.txt'
p2891
asg10
(lp2892
I520
aI1
aI1
asg12
S'spaete_Filme/520_West_Side_Story_1961/'
p2893
sg14
I00
sg15
Nsg16
S'//130.60.131.134/studi/Filme/spaete_Filme/520_West_Side_Story_1961\\ELAN Projektdatei\\520_1_1_WestSideStory_1961_DVD_ELAN.eaf'
p2894
sg18
I00
sba(i__main__
Movie
p2895
(dp2896
g3
Nsg4
S'LawrenceOfArabia'
p2897
sg6
S'//130.60.131.134/studi/Filme/spaete_Filme/523_Lawrence_of_Arabia_1962/'
p2898
sg8
(lp2899
S'//130.60.131.134/studi/Filme/spaete_Filme/523_Lawrence_of_Arabia_1962\\523_1_1_LawrenceOfArabia_1962_Bluray_ELAN_export.txt'
p2900
asg10
(lp2901
I523
aI1
aI1
asg12
S'spaete_Filme/523_Lawrence_of_Arabia_1962/'
p2902
sg14
I00
sg15
Nsg16
S'//130.60.131.134/studi/Filme/spaete_Filme/523_Lawrence_of_Arabia_1962\\523_1_1_LawrenceOfArabia_1962_Bluray_ELAN.eaf'
p2903
sg18
I00
sba(i__main__
Movie
p2904
(dp2905
g3
Nsg4
S'MaryPoppins'
p2906
sg6
S'//130.60.131.134/studi/Filme/spaete_Filme/533_Mary_Poppins_1964/'
p2907
sg8
(lp2908
S'//130.60.131.134/studi/Filme/spaete_Filme/533_Mary_Poppins_1964\\533_1_1_MaryPoppins_1964_DVD_ELAN.txt'
p2909
asg10
(lp2910
I533
aI1
aI1
asg12
S'spaete_Filme/533_Mary_Poppins_1964/'
p2911
sg14
I00
sg15
Nsg16
S'//130.60.131.134/studi/Filme/spaete_Filme/533_Mary_Poppins_1964\\ELAN Projektdatei\\533_1_1_MaryPoppins_1964_DVD_ELAN.eaf'
p2912
sg18
I00
sba(i__main__
Movie
p2913
(dp2914
g3
Nsg4
S'FantasticVoyage'
p2915
sg6
S'//130.60.131.134/studi/Filme/spaete_Filme/541_Fantastic_Voyage_1966/'
p2916
sg8
(lp2917
S'//130.60.131.134/studi/Filme/spaete_Filme/541_Fantastic_Voyage_1966\\541_1_1_FantasticVoyage_1966_DVD_ELAN_export.txt'
p2918
asg10
(lp2919
I541
aI1
aI1
asg12
S'spaete_Filme/541_Fantastic_Voyage_1966/'
p2920
sg14
I00
sg15
Nsg16
S'//130.60.131.134/studi/Filme/spaete_Filme/541_Fantastic_Voyage_1966\\541_1_1_FantasticVoyage_1966_DVD_ELAN.eaf'
p2921
sg18
I00
sba(i__main__
Movie
p2922
(dp2923
g3
Nsg4
S'Goldfinger'
p2924
sg6
S'//130.60.131.134/studi/Filme/spaete_Filme/629_Goldfinger_1964/'
p2925
sg8
(lp2926
S'//130.60.131.134/studi/Filme/spaete_Filme/629_Goldfinger_1964\\629_Goldfinger_1964_DVD_ELAN_Export.txt'
p2927
asg10
(lp2928
I629
aI1
aI1
asg12
S'spaete_Filme/629_Goldfinger_1964/'
p2929
sg14
I00
sg15
Nsg16
S'//130.60.131.134/studi/Filme/spaete_Filme/629_Goldfinger_1964\\629_1_1_Goldfinger_1964_DVD_ELAN.eaf'
p2930
sg18
I00
sba(i__main__
Movie
p2931
(dp2932
g3
Nsg4
S'PierrotLeFou'
p2933
sg6
S'//130.60.131.134/studi/Filme/spaete_Filme/69_Pierrot_le_Fou_1965/'
p2934
sg8
(lp2935
S'//130.60.131.134/studi/Filme/spaete_Filme/69_Pierrot_le_Fou_1965\\69_PierrotLeFou_1965_DVD_ELAN_BF.txt'
p2936
asg10
(lp2937
I69
aI1
aI1
asg12
S'spaete_Filme/69_Pierrot_le_Fou_1965/'
p2938
sg14
I00
sg15
Nsg16
S'//130.60.131.134/studi/Filme/spaete_Filme/69_Pierrot_le_Fou_1965\\69_1_1_PierrotLeFou_1965_DVD_ELAN_BF_korr.eaf'
p2939
sg18
I00
sba(i__main__
Movie
p2940
(dp2941
g3
Nsg4
S'LolaMontes'
p2942
sg6
S'//130.60.131.134/studi/Filme/spaete_Filme/70_Lola_Montes_1955/'
p2943
sg8
(lp2944
S'//130.60.131.134/studi/Filme/spaete_Filme/70_Lola_Montes_1955\\70_1_1_LolaMontes_1955_DVD_ELAN_Export.txt'
p2945
asg10
(lp2946
I70
aI1
aI1
asg12
S'spaete_Filme/70_Lola_Montes_1955/'
p2947
sg14
I00
sg15
Nsg16
S'//130.60.131.134/studi/Filme/spaete_Filme/70_Lola_Montes_1955\\70_1_1_LolaMontes_1955_DVD_ELAN.eaf'
p2948
sg18
I00
sba(i__main__
Movie
p2949
(dp2950
g3
Nsg4
S'Higanbana'
p2951
sg6
S'//130.60.131.134/studi/Filme/spaete_Filme/73_Higanbana_1958/'
p2952
sg8
(lp2953
S'//130.60.131.134/studi/Filme/spaete_Filme/73_Higanbana_1958\\73_1_1_Higanbana_1958_DVD_ELAN.txt'
p2954
asg10
(lp2955
I73
aI1
aI1
asg12
S'spaete_Filme/73_Higanbana_1958/'
p2956
sg14
I00
sg15
Nsg16
S'//130.60.131.134/studi/Filme/spaete_Filme/73_Higanbana_1958\\ELAN Projektdatei\\73_1_1_Higanbana_1958_DVD_ELAN.eaf'
p2957
sg18
I00
sba(i__main__
Movie
p2958
(dp2959
g3
Nsg4
S'Jaws'
p2960
sg6
S'//130.60.131.134/studi/Filme/spaete_Filme/750_Jaws_1975/'
p2961
sg8
(lp2962
S'//130.60.131.134/studi/Filme/spaete_Filme/750_Jaws_1975\\750_1_1_Jaws_1975_DVD_ELAN_export.txt'
p2963
asg10
(lp2964
I750
aI1
aI1
asg12
S'spaete_Filme/750_Jaws_1975/'
p2965
sg14
I00
sg15
Nsg16
S'//130.60.131.134/studi/Filme/spaete_Filme/750_Jaws_1975\\750_1_1_Jaws_1975_DVD_ELAN.eaf'
p2966
sg18
I00
sba(i__main__
Movie
p2967
(dp2968
g3
Nsg4
S'DasParfum'
p2969
sg6
S'//130.60.131.134/studi/Filme/spaete_Filme/766_DasParfum_2006/'
p2970
sg8
(lp2971
sg10
(lp2972
I766
aI1
aI1
asg12
S'spaete_Filme/766_DasParfum_2006/'
p2973
sg14
I00
sg15
Nsg16
S'//130.60.131.134/studi/Filme/spaete_Filme/766_DasParfum_2006\\766_1_1_DasParfum_2006_DVD_ELAN.eaf'
p2974
sg18
I00
sba(i__main__
Movie
p2975
(dp2976
g3
Nsg4
S'TheBoyWhoTurnedYellow'
p2977
sg6
S'//130.60.131.134/studi/Filme/spaete_Filme/811_TheBoyWhoTurnedYellow_1972/'
p2978
sg8
(lp2979
sg10
(lp2980
I811
aI1
aI1
asg12
S'spaete_Filme/811_TheBoyWhoTurnedYellow_1972/'
p2981
sg14
I00
sg15
Nsg16
S'//130.60.131.134/studi/Filme/spaete_Filme/811_TheBoyWhoTurnedYellow_1972\\811_1_1_TheBoyWhoTurnedYellow_1972_DVD_ELAN.eaf'
p2982
sg18
I00
sba(i__main__
Movie
p2983
(dp2984
g3
Nsg4
S'DieGeschichteVomKleinenMuck'
p2985
sg6
S'//130.60.131.134/studi/Filme/spaete_Filme/817_Die_Geschichte_vom_kleinen_Muck_1953/'
p2986
sg8
(lp2987
S'//130.60.131.134/studi/Filme/spaete_Filme/817_Die_Geschichte_vom_kleinen_Muck_1953\\ELAN_Projektdatei\\817_1_1_DieGeschichteVomKleinenMuck_1953_DVD_ELAN.txt'
p2988
aS'//130.60.131.134/studi/Filme/spaete_Filme/817_Die_Geschichte_vom_kleinen_Muck_1953\\ELAN_Projektdatei\\817_1_1_DieGeschichteVomKleinenMuck_1953_DVD_ELAN.csv'
p2989
asg10
(lp2990
I817
aI1
aI1
asg12
S'spaete_Filme/817_Die_Geschichte_vom_kleinen_Muck_1953/'
p2991
sg14
I00
sg15
Nsg16
S'//130.60.131.134/studi/Filme/spaete_Filme/817_Die_Geschichte_vom_kleinen_Muck_1953\\ELAN_Projektdatei\\817_1_1_DieGeschichteVomKleinenMuck_1953_DVD_ELAN.eaf'
p2992
sg18
I00
sba(i__main__
Movie
p2993
(dp2994
g3
Nsg4
S'DasWirtshausImSpessart'
p2995
sg6
S'//130.60.131.134/studi/Filme/spaete_Filme/820_Das_Wirtshaus_im_Spessart_1957/'
p2996
sg8
(lp2997
S'//130.60.131.134/studi/Filme/spaete_Filme/820_Das_Wirtshaus_im_Spessart_1957\\820_1_2_DasWirtshausImSpessart_1957_DVD_ELAN_export.txt'
p2998
asg10
(lp2999
I820
aI1
aI2
asg12
S'spaete_Filme/820_Das_Wirtshaus_im_Spessart_1957/'
p3000
sg14
I00
sg15
Nsg16
S'//130.60.131.134/studi/Filme/spaete_Filme/820_Das_Wirtshaus_im_Spessart_1957\\820_1_2_DasWirtshausImSpessart_1957_DVD_ELAN.eaf'
p3001
sg18
I00
sba(i__main__
Movie
p3002
(dp3003
g3
Nsg4
S'ITreVoltiDellaPaura'
p3004
sg6
S'//130.60.131.134/studi/Filme/spaete_Filme/825_I_tre_volti_della_paura_1963/'
p3005
sg8
(lp3006
S'//130.60.131.134/studi/Filme/spaete_Filme/825_I_tre_volti_della_paura_1963\\825_1_1_ITreVoltiDellaPaura_DVD_ELAN_BF.txt'
p3007
asg10
(lp3008
I825
aI1
aI1
asg12
S'spaete_Filme/825_I_tre_volti_della_paura_1963/'
p3009
sg14
I00
sg15
Nsg16
S'//130.60.131.134/studi/Filme/spaete_Filme/825_I_tre_volti_della_paura_1963\\825_1_1_ITreVoltiDellaPaura_DVD_ELAN_BF_Kopie.eaf'
p3010
sg18
I00
sba(i__main__
Movie
p3011
(dp3012
g3
Nsg4
S'IlBuonoIlBruttoIlCattivo'
p3013
sg6
S'//130.60.131.134/studi/Filme/spaete_Filme/826_Il_Buono_il_brutto_il_cattivo_1966/'
p3014
sg8
(lp3015
sg10
(lp3016
I826
aI1
aI1
asg12
S'spaete_Filme/826_Il_Buono_il_brutto_il_cattivo_1966/'
p3017
sg14
I00
sg15
Nsg16
S'//130.60.131.134/studi/Filme/spaete_Filme/826_Il_Buono_il_brutto_il_cattivo_1966\\826_1_1_IlBuonoIlBruttoIlCattivo_1966_DVD_ELAN.eaf'
p3018
sg18
I00
sba(i__main__
Movie
p3019
(dp3020
g3
Nsg4
S'DraughtmansContract'
p3021
sg6
S'//130.60.131.134/studi/Filme/spaete_Filme/831_Draughtmans_Contract_1982/'
p3022
sg8
(lp3023
S'//130.60.131.134/studi/Filme/spaete_Filme/831_Draughtmans_Contract_1982\\831_1_1_DraughtmansContract_1982_DVD_ELAN_export.txt'
p3024
asg10
(lp3025
I831
aI1
aI1
asg12
S'spaete_Filme/831_Draughtmans_Contract_1982/'
p3026
sg14
I00
sg15
Nsg16
S'//130.60.131.134/studi/Filme/spaete_Filme/831_Draughtmans_Contract_1982\\831_1_1_DraughtmansContract_1982_DVD_ELAN.eaf'
p3027
sg18
I00
sba(i__main__
Movie
p3028
(dp3029
g3
Nsg4
S'DerSchweigendeStern'
p3030
sg6
S'//130.60.131.134/studi/Filme/spaete_Filme/838_Der_schweigende_Stern_1960/'
p3031
sg8
(lp3032
sg10
(lp3033
I838
aI1
aI1
asg12
S'spaete_Filme/838_Der_schweigende_Stern_1960/'
p3034
sg14
I00
sg15
Nsg16
S'//130.60.131.134/studi/Filme/spaete_Filme/838_Der_schweigende_Stern_1960\\838_1_1_DerSchweigendeStern_1960_DVD_ELAN_Projektdatei\\838_1_1_DerSchweigendeStern_1960_ELAN.eaf'
p3035
sg18
I00
sba(i__main__
Movie
p3036
(dp3037
g3
Nsg4
S'ParisTexas'
p3038
sg6
S'//130.60.131.134/studi/Filme/spaete_Filme/852_Paris_Texas_1984/'
p3039
sg8
(lp3040
sg10
(lp3041
I852
aI1
aI1
asg12
S'spaete_Filme/852_Paris_Texas_1984/'
p3042
sg14
I00
sg15
Nsg16
S'//130.60.131.134/studi/Filme/spaete_Filme/852_Paris_Texas_1984\\852_1_1_ParisTexas_1984_DVD_ELAN_BF.eaf'
p3043
sg18
I00
sba(i__main__
Movie
p3044
(dp3045
g3
Nsg4
S'DieBlechtrommel'
p3046
sg6
S'//130.60.131.134/studi/Filme/spaete_Filme/876_Die_Blechtrommel_1979/'
p3047
sg8
(lp3048
S'//130.60.131.134/studi/Filme/spaete_Filme/876_Die_Blechtrommel_1979\\876_1_1_DieBlechtrommel_1979_DVD_ELAN.txt'
p3049
asg10
(lp3050
I876
aI1
aI1
asg12
S'spaete_Filme/876_Die_Blechtrommel_1979/'
p3051
sg14
I00
sg15
Nsg16
S'//130.60.131.134/studi/Filme/spaete_Filme/876_Die_Blechtrommel_1979\\ELAN Projektdatei\\876_1_1_DieBlechtrommel_1979_DVD_ELAN.eaf'
p3052
sg18
I00
sba(i__main__
Movie
p3053
(dp3054
g3
Nsg4
S'HaroldAndMaude'
p3055
sg6
S'//130.60.131.134/studi/Filme/spaete_Filme/879_Harold_and_Maude_1971/'
p3056
sg8
(lp3057
S'//130.60.131.134/studi/Filme/spaete_Filme/879_Harold_and_Maude_1971\\879_1_1_HaroldAndMaude_1971_DVD_ELAN_export.txt'
p3058
asg10
(lp3059
I879
aI1
aI1
asg12
S'spaete_Filme/879_Harold_and_Maude_1971/'
p3060
sg14
I00
sg15
Nsg16
S'//130.60.131.134/studi/Filme/spaete_Filme/879_Harold_and_Maude_1971\\879_1_1_HaroldAndMaude_1971_DVD_ELAN.eaf'
p3061
sg18
I00
sba(i__main__
Movie
p3062
(dp3063
g3
Nsg4
S'LaGrandeBouffe'
p3064
sg6
S'//130.60.131.134/studi/Filme/spaete_Filme/897_La_Grande_Bouffe_1973/'
p3065
sg8
(lp3066
sg10
(lp3067
I897
aI1
aI2
asg12
S'spaete_Filme/897_La_Grande_Bouffe_1973/'
p3068
sg14
I00
sg15
Nsg16
S'//130.60.131.134/studi/Filme/spaete_Filme/897_La_Grande_Bouffe_1973\\897_1_2_LaGrandeBouffe_1973_DVD_ELAN.eaf'
p3069
sg18
I00
sba(i__main__
Movie
p3070
(dp3071
g3
Nsg4
S'MorteAVenezia'
p3072
sg6
S'//130.60.131.134/studi/Filme/spaete_Filme/902_MorteAVenezia_1971/'
p3073
sg8
(lp3074
S'//130.60.131.134/studi/Filme/spaete_Filme/902_MorteAVenezia_1971\\902_1_1_MorteAVenezia_1971_DVD_ELAN_BF.txt'
p3075
asg10
(lp3076
I902
aI1
aI1
asg12
S'spaete_Filme/902_MorteAVenezia_1971/'
p3077
sg14
I00
sg15
Nsg16
S'//130.60.131.134/studi/Filme/spaete_Filme/902_MorteAVenezia_1971\\902_1_1_MorteAVenezia_1971_DVD_ELAN_BF.eaf'
p3078
sg18
I00
sba(i__main__
Movie
p3079
(dp3080
g3
Nsg4
S'TulitikkutehtaanTytto'
p3081
sg6
S'//130.60.131.134/studi/Filme/spaete_Filme/931_Tulitikkutehtaan_Tytto_1990/'
p3082
sg8
(lp3083
S'//130.60.131.134/studi/Filme/spaete_Filme/931_Tulitikkutehtaan_Tytto_1990\\1400_1_1_StarWarsV_1980_DVD_ELAN_export.txt'
p3084
aS'//130.60.131.134/studi/Filme/spaete_Filme/931_Tulitikkutehtaan_Tytto_1990\\931_1_1_TulitikkutehtaanTytto_1990_DVD_ELAN_export2.txt'
p3085
asg10
(lp3086
I931
aI1
aI1
asg12
S'spaete_Filme/931_Tulitikkutehtaan_Tytto_1990/'
p3087
sg14
I00
sg15
Nsg16
S'//130.60.131.134/studi/Filme/spaete_Filme/931_Tulitikkutehtaan_Tytto_1990\\931_1_1_TulitikkutehtaanTytto_1990_DVD_ELAN.eaf'
p3088
sg18
I00
sba(i__main__
Movie
p3089
(dp3090
g3
Nsg4
S'2001ASpaceOdyssey'
p3091
sg6
S'//130.60.131.134/studi/Filme/spaete_Filme/96_2001_A_Space_Odyssey_1968/'
p3092
sg8
(lp3093
S'//130.60.131.134/studi/Filme/spaete_Filme/96_2001_A_Space_Odyssey_1968\\96_1_1_2001ASpaceOdyssey_1968_DVD_ELAN_Export1.txt'
p3094
asg10
(lp3095
I96
aI1
aI1
asg12
S'spaete_Filme/96_2001_A_Space_Odyssey_1968/'
p3096
sg14
I00
sg15
Nsg16
S'//130.60.131.134/studi/Filme/spaete_Filme/96_2001_A_Space_Odyssey_1968\\96_1_1_2001ASpaceOdyssey_1968_DVD_ELAN.eaf'
p3097
sg18
I00
sba(i__main__
Movie
p3098
(dp3099
g3
Nsg4
S'Indiscreet'
p3100
sg6
S'//130.60.131.134/studi/Filme/spaete_Filme/spaete_Filme/'
p3101
sg8
(lp3102
S'//130.60.131.134/studi/Filme/spaete_Filme/spaete_Filme\\3491_1_1_Indiscreet_1957_DVD_ELAN_export.txt'
p3103
asg10
(lp3104
I3491
aI1
aI1
asg12
S'spaete_Filme/spaete_Filme/'
p3105
sg14
I00
sg15
Nsg16
S'//130.60.131.134/studi/Filme/spaete_Filme/spaete_Filme\\3491_1_1_Indiscreet_1957_DVD_ELAN.eaf'
p3106
sg18
I00
sba.