(lp0
(iextensions.fiwi_tools.fiwi_parser_2
Movie
p1
(dp2
S'errors'
p3
NsS'movie_name'
p4
VSeiDonnePerLAssassino
p5
sS'folder_path'
p6
V//130.60.131.134/studi/Filme/spaete_Filme/261_SeiDonnePerLAssassino_1964/
p7
sS'segmentation_path'
p8
(lp9
V//130.60.131.134/studi/Filme/spaete_Filme/261_SeiDonnePerLAssassino_1964\u005c261_1_1_SeiDonnePerLAssassino_1964_DVD_ELAN_BF.txt
p10
aV//130.60.131.134/studi/Filme/spaete_Filme/261_SeiDonnePerLAssassino_1964\u005c261_1_1_SeiDonnePerLAssassino_1964_DVD_ELAN_BF_korr2.txt
p11
asS'filemaker_ID'
p12
(lp13
I261
aI1
aI1
asS'relative_path'
p14
Vspaete_Filme/261_SeiDonnePerLAssassino_1964/
p15
sS'has_sub_segmentation'
p16
I00
sS'shots'
p17
NsS'elan_path'
p18
V//130.60.131.134/studi/Filme/spaete_Filme/261_SeiDonnePerLAssassino_1964\u005c261_1_1_SeiDonnePerLAssassino_1964_DVD_ELAN_BF_korr2.eaf
p19
sS'needs_segmentation'
p20
I00
sba.