(lp0
(i__main__
Movie
p1
(dp2
S'errors'
p3
NsS'movie_name'
p4
S'HellsAngels'
p5
sS'folder_path'
p6
S'//130.60.131.134/studi/Filme/frueher_Film/1062_Hells_Angels_1930/'
p7
sS'segmentation_path'
p8
(lp9
sS'filemaker_ID'
p10
(lp11
I1062
aI1
aI3
asS'relative_path'
p12
S'frueher_Film/1062_Hells_Angels_1930/'
p13
sS'has_sub_segmentation'
p14
I00
sS'shots'
p15
NsS'elan_path'
p16
S'//130.60.131.134/studi/Filme/frueher_Film/1062_Hells_Angels_1930\\1062_1_3_HellsAngels_1930_DVD_ELAN.eaf'
p17
sS'needs_segmentation'
p18
I00
sba(i__main__
Movie
p19
(dp20
g3
Nsg4
S'LaRoue'
p21
sg6
S'//130.60.131.134/studi/Filme/frueher_Film/167_La_Roue_1923/167_1_1_LaRoue_1923_DVD/'
p22
sg8
(lp23
sg10
(lp24
I167
aI1
aI1
asg12
S'frueher_Film/167_La_Roue_1923/167_1_1_LaRoue_1923_DVD/'
p25
sg14
I00
sg15
Nsg16
S'//130.60.131.134/studi/Filme/frueher_Film/167_La_Roue_1923/167_1_1_LaRoue_1923_DVD\\167_1_1_LaRoue_1923_DVD_ELAN.eaf'
p26
sg18
I00
sba(i__main__
Movie
p27
(dp28
g3
Nsg4
S'LaRoue'
p29
sg6
S'//130.60.131.134/studi/Filme/frueher_Film/167_La_Roue_1923/167_1_2_LaRoue_1923_DVD/'
p30
sg8
(lp31
sg10
(lp32
I167
aI1
aI2
asg12
S'frueher_Film/167_La_Roue_1923/167_1_2_LaRoue_1923_DVD/'
p33
sg14
I00
sg15
Nsg16
S'//130.60.131.134/studi/Filme/frueher_Film/167_La_Roue_1923/167_1_2_LaRoue_1923_DVD\\167_1_2_LaRoue_1923_DVD_ELAN.eaf'
p34
sg18
I00
sba(i__main__
Movie
p35
(dp36
g3
Nsg4
S'LondonsFreeShows'
p37
sg6
S'//130.60.131.134/studi/Filme/frueher_Film/172_Londons_Free_Shows_1924/'
p38
sg8
(lp39
sg10
(lp40
I172
aI1
aI1
asg12
S'frueher_Film/172_Londons_Free_Shows_1924/'
p41
sg14
I00
sg15
Nsg16
S'//130.60.131.134/studi/Filme/frueher_Film/172_Londons_Free_Shows_1924\\172_1_1_LondonsFreeShows_1924_DVD_Elan.eaf'
p42
sg18
I00
sba(i__main__
Movie
p43
(dp44
g3
Nsg4
S'LondonsFreeShows'
p45
sg6
S'//130.60.131.134/studi/Filme/frueher_Film/174_Londons_Sunday_1924/'
p46
sg8
(lp47
sg10
(lp48
I172
aI1
aI1
asg12
S'frueher_Film/174_Londons_Sunday_1924/'
p49
sg14
I00
sg15
Nsg16
S'//130.60.131.134/studi/Filme/frueher_Film/174_Londons_Sunday_1924\\172_1_1_LondonsFreeShows_1924_DVD_Elan.eaf'
p50
sg18
I00
sba(i__main__
Movie
p51
(dp52
g3
Nsg4
S'ImBad'
p53
sg6
S'//130.60.131.134/studi/Filme/frueher_Film/2020_Im_Bad_1917/'
p54
sg8
(lp55
S'//130.60.131.134/studi/Filme/frueher_Film/2020_Im_Bad_1917\\2020_1_3_ImBad_1917_ELAN.txt'
p56
asg10
(lp57
I2020
aI1
aI3
asg12
S'frueher_Film/2020_Im_Bad_1917/'
p58
sg14
I00
sg15
Nsg16
S'//130.60.131.134/studi/Filme/frueher_Film/2020_Im_Bad_1917\\2020_1_3_ImBad_1917_ELAN.eaf'
p59
sg18
I00
sba(i__main__
Movie
p60
(dp61
g3
Nsg4
S'TheFluteOfKrishna'
p62
sg6
S'//130.60.131.134/studi/Filme/frueher_Film/269_The_Flute_Of_Krishna_1926/'
p63
sg8
(lp64
sg10
(lp65
I269
aI1
aI2
asg12
S'frueher_Film/269_The_Flute_Of_Krishna_1926/'
p66
sg14
I00
sg15
Nsg16
S'//130.60.131.134/studi/Filme/frueher_Film/269_The_Flute_Of_Krishna_1926\\269_1_2_TheFluteOfKrishna_1926_DVD_Elan.eaf'
p67
sg18
I00
sba(i__main__
Movie
p68
(dp69
g3
Nsg4
S'Doctor'
p70
sg6
S'//130.60.131.134/studi/Filme/frueher_Film/306_Doctor_X_1932/'
p71
sg8
(lp72
sg10
(lp73
I306
aI1
aI2
asg12
S'frueher_Film/306_Doctor_X_1932/'
p74
sg14
I00
sg15
Nsg16
S'//130.60.131.134/studi/Filme/frueher_Film/306_Doctor_X_1932\\306_1_2_Doctor_X_1932_DVD_ELAN.eaf'
p75
sg18
I00
sba(i__main__
Movie
p76
(dp77
g3
Nsg4
S'LaPouleAuxOeufsDor'
p78
sg6
S'//130.60.131.134/studi/Filme/frueher_Film/31_La_Poule_Aux_Oeufs_Dor_1905/'
p79
sg8
(lp80
sg10
(lp81
I31
aI1
aI2
asg12
S'frueher_Film/31_La_Poule_Aux_Oeufs_Dor_1905/'
p82
sg14
I00
sg15
Nsg16
S'//130.60.131.134/studi/Filme/frueher_Film/31_La_Poule_Aux_Oeufs_Dor_1905\\31_1_2_LaPouleAuxOeufsDor_1905_ELAN.eaf'
p83
sg18
I00
sba(i__main__
Movie
p84
(dp85
g3
Nsg4
S'Redskin'
p86
sg6
S'//130.60.131.134/studi/Filme/frueher_Film/39_Redskin_1929/'
p87
sg8
(lp88
sg10
(lp89
I39
aI1
aI2
asg12
S'frueher_Film/39_Redskin_1929/'
p90
sg14
I00
sg15
Nsg16
S'//130.60.131.134/studi/Filme/frueher_Film/39_Redskin_1929\\39_1_2_Redskin_1929_DVD_ELAN.eaf'
p91
sg18
I00
sba(i__main__
Movie
p92
(dp93
g3
Nsg4
S'Maerchenwald'
p94
sg6
S'//130.60.131.134/studi/Filme/frueher_Film/409_Maerchenwald_1919/'
p95
sg8
(lp96
S'//130.60.131.134/studi/Filme/frueher_Film/409_Maerchenwald_1919\\409_1_2_Maerchenwald_1919_ELAN_BF.txt'
p97
asg10
(lp98
I409
aI1
aI2
asg12
S'frueher_Film/409_Maerchenwald_1919/'
p99
sg14
I00
sg15
Nsg16
S'//130.60.131.134/studi/Filme/frueher_Film/409_Maerchenwald_1919\\409_1_2_Maerchenwald_1919_ELAN_BF.eaf'
p100
sg18
I00
sba(i__main__
Movie
p101
(dp102
g3
Nsg4
S'LaFeeAuxFleurs'
p103
sg6
S'//130.60.131.134/studi/Filme/frueher_Film/641_La_Fee_Aux_Fleurs_1905/'
p104
sg8
(lp105
sg10
(lp106
I641
aI1
aI4
asg12
S'frueher_Film/641_La_Fee_Aux_Fleurs_1905/'
p107
sg14
I00
sg15
Nsg16
S'//130.60.131.134/studi/Filme/frueher_Film/641_La_Fee_Aux_Fleurs_1905\\641_1_4_LaFeeAuxFleurs_1905_DVD_ELAN.eaf'
p108
sg18
I00
sba(i__main__
Movie
p109
(dp110
g3
Nsg4
S'DieNibelungen'
p111
sg6
S'//130.60.131.134/studi/Filme/frueher_Film/854_Die_Nibelungen_1924/854_1_1_DieNibelungen_1924_DVD/'
p112
sg8
(lp113
sg10
(lp114
I854
aI1
aI1
asg12
S'frueher_Film/854_Die_Nibelungen_1924/854_1_1_DieNibelungen_1924_DVD/'
p115
sg14
I00
sg15
Nsg16
S'//130.60.131.134/studi/Filme/frueher_Film/854_Die_Nibelungen_1924/854_1_1_DieNibelungen_1924_DVD\\854_1_1_DieNibelungen_1924_DVD_ELAN.eaf'
p116
sg18
I00
sba(i__main__
Movie
p117
(dp118
g3
Nsg4
S'DieNibelungen'
p119
sg6
S'//130.60.131.134/studi/Filme/frueher_Film/854_Die_Nibelungen_1924/854_2_1_DieNibelungen_1924_DVD/'
p120
sg8
(lp121
sg10
(lp122
I854
aI2
aI1
asg12
S'frueher_Film/854_Die_Nibelungen_1924/854_2_1_DieNibelungen_1924_DVD/'
p123
sg14
I00
sg15
Nsg16
S'//130.60.131.134/studi/Filme/frueher_Film/854_Die_Nibelungen_1924/854_2_1_DieNibelungen_1924_DVD\\854_2_1_DieNibelungen_1924_DVD_ELAN.eaf'
p124
sg18
I00
sba(i__main__
Movie
p125
(dp126
g3
Nsg4
S'Napoleon'
p127
sg6
S'//130.60.131.134/studi/Filme/frueher_Film/860_Napoleon_1927/860_1_1_Napoleon_1927/'
p128
sg8
(lp129
sg10
(lp130
I860
aI1
aI1
asg12
S'frueher_Film/860_Napoleon_1927/860_1_1_Napoleon_1927/'
p131
sg14
I00
sg15
Nsg16
S'//130.60.131.134/studi/Filme/frueher_Film/860_Napoleon_1927/860_1_1_Napoleon_1927\\860_1_1_Napoleon_1927_Disc1_ELAN.eaf'
p132
sg18
I00
sba(i__main__
Movie
p133
(dp134
g3
Nsg4
S'Napoleon'
p135
sg6
S'//130.60.131.134/studi/Filme/frueher_Film/860_Napoleon_1927/860_1_2_Napoleon_1927/'
p136
sg8
(lp137
sg10
(lp138
I860
aI1
aI2
asg12
S'frueher_Film/860_Napoleon_1927/860_1_2_Napoleon_1927/'
p139
sg14
I00
sg15
Nsg16
S'//130.60.131.134/studi/Filme/frueher_Film/860_Napoleon_1927/860_1_2_Napoleon_1927\\860_1_2_Napoleon_1927_Disc2_ELAN.eaf'
p140
sg18
I00
sba(i__main__
Movie
p141
(dp142
g3
Nsg4
S'Napoleon'
p143
sg6
S'//130.60.131.134/studi/Filme/frueher_Film/860_Napoleon_1927/860_1_3_Napoleon_1927/'
p144
sg8
(lp145
sg10
(lp146
I860
aI1
aI3
asg12
S'frueher_Film/860_Napoleon_1927/860_1_3_Napoleon_1927/'
p147
sg14
I00
sg15
Nsg16
S'//130.60.131.134/studi/Filme/frueher_Film/860_Napoleon_1927/860_1_3_Napoleon_1927\\860_1_3_Napoleon_1927_Disc3_ELAN.eaf'
p148
sg18
I00
sba(i__main__
Movie
p149
(dp150
g3
Nsg4
S'Napoleon'
p151
sg6
S'//130.60.131.134/studi/Filme/frueher_Film/860_Napoleon_1927/860_1_4_Napoleon_1927/'
p152
sg8
(lp153
sg10
(lp154
I860
aI1
aI4
asg12
S'frueher_Film/860_Napoleon_1927/860_1_4_Napoleon_1927/'
p155
sg14
I00
sg15
Nsg16
S'//130.60.131.134/studi/Filme/frueher_Film/860_Napoleon_1927/860_1_4_Napoleon_1927\\860_1_4_Napoleon_1927_Disc4_ELAN.eaf'
p156
sg18
I00
sba(i__main__
Movie
p157
(dp158
g3
Nsg4
S'WingsOfTheMorning'
p159
sg6
S'//130.60.131.134/studi/Filme/mittlere_Filme/13_Wings_of_the_Morning_1937/'
p160
sg8
(lp161
S'//130.60.131.134/studi/Filme/mittlere_Filme/13_Wings_of_the_Morning_1937\\13_1_2_WingsOfTheMorning_1937_DVD_ELAN.txt'
p162
asg10
(lp163
I13
aI1
aI2
asg12
S'mittlere_Filme/13_Wings_of_the_Morning_1937/'
p164
sg14
I00
sg15
Nsg16
S'//130.60.131.134/studi/Filme/mittlere_Filme/13_Wings_of_the_Morning_1937\\13_1_2_WingsOfTheMorning_1937_DVD_ELAN.eaf'
p165
sg18
I00
sba(i__main__
Movie
p166
(dp167
g3
Nsg4
S'MakingFashion'
p168
sg6
S'//130.60.131.134/studi/Filme/mittlere_Filme/182_Making_Fashion_1938/'
p169
sg8
(lp170
S'//130.60.131.134/studi/Filme/mittlere_Filme/182_Making_Fashion_1938\\182_1_2_MakingFashion_1938_DVD_ELAN.txt'
p171
asg10
(lp172
I182
aI1
aI2
asg12
S'mittlere_Filme/182_Making_Fashion_1938/'
p173
sg14
I00
sg15
Nsg16
S'//130.60.131.134/studi/Filme/mittlere_Filme/182_Making_Fashion_1938\\ELAN_Projektdatei\\182_1_2_MakingFashion_1938_DVD_ELAN.eaf'
p174
sg18
I00
sba(i__main__
Movie
p175
(dp176
g3
Nsg4
S'Kolberg'
p177
sg6
S'//130.60.131.134/studi/Filme/mittlere_Filme/183_Kolberg_1945/'
p178
sg8
(lp179
S'//130.60.131.134/studi/Filme/mittlere_Filme/183_Kolberg_1945\\183_1_3_Kolberg_1945_DVD_ELAN.txt'
p180
asg10
(lp181
I183
aI1
aI3
asg12
S'mittlere_Filme/183_Kolberg_1945/'
p182
sg14
I00
sg15
Nsg16
S'//130.60.131.134/studi/Filme/mittlere_Filme/183_Kolberg_1945\\183_1_3_Kolberg_1945_DVD_ELAN.eaf'
p183
sg18
I00
sba(i__main__
Movie
p184
(dp185
g3
Nsg4
S'TheTalesOfHoffmann'
p186
sg6
S'//130.60.131.134/studi/Filme/mittlere_Filme/237_The_Tales_of_Hoffmann_1951/'
p187
sg8
(lp188
S'//130.60.131.134/studi/Filme/mittlere_Filme/237_The_Tales_of_Hoffmann_1951\\237_1_2_TheTalesOfHoffmann_1951_DVD_ELAN_BF.txt'
p189
asg10
(lp190
I237
aI1
aI2
asg12
S'mittlere_Filme/237_The_Tales_of_Hoffmann_1951/'
p191
sg14
I00
sg15
Nsg16
S'//130.60.131.134/studi/Filme/mittlere_Filme/237_The_Tales_of_Hoffmann_1951\\237_1_2_TheTalesOfHoffmann_1951_DVD_ELAN_BF.eaf'
p192
sg18
I00
sba(i__main__
Movie
p193
(dp194
g3
Nsg4
S'TheGardenOfAllah'
p195
sg6
S'//130.60.131.134/studi/Filme/mittlere_Filme/266_The_Garden_of_Allah_1936/'
p196
sg8
(lp197
S'//130.60.131.134/studi/Filme/mittlere_Filme/266_The_Garden_of_Allah_1936\\266_1_2_TheGardenOfAllah_1936_DVD_ELAN.txt'
p198
asg10
(lp199
I266
aI1
aI2
asg12
S'mittlere_Filme/266_The_Garden_of_Allah_1936/'
p200
sg14
I00
sg15
Nsg16
S'//130.60.131.134/studi/Filme/mittlere_Filme/266_The_Garden_of_Allah_1936\\266_1_2_TheGardenOfAllah_1936_DVD_ELAN.eaf'
p201
sg18
I00
sba(i__main__
Movie
p202
(dp203
g3
Nsg4
S'Steel'
p204
sg6
S'//130.60.131.134/studi/Filme/mittlere_Filme/300_Steel_1945/'
p205
sg8
(lp206
S'//130.60.131.134/studi/Filme/mittlere_Filme/300_Steel_1945\\300_1_2_Steel_1945_DVD_ELAN.txt'
p207
asg10
(lp208
I300
aI1
aI2
asg12
S'mittlere_Filme/300_Steel_1945/'
p209
sg14
I00
sg15
Nsg16
S'//130.60.131.134/studi/Filme/mittlere_Filme/300_Steel_1945\\300_1_2_Steel_1945_DVD_ELAN.eaf'
p210
sg18
I00
sba(i__main__
Movie
p211
(dp212
g3
Nsg4
S'Rope'
p213
sg6
S'//130.60.131.134/studi/Filme/mittlere_Filme/301_Rope_1948/'
p214
sg8
(lp215
S'//130.60.131.134/studi/Filme/mittlere_Filme/301_Rope_1948\\301_1_2_Rope_1948_DVD_ELAN.txt'
p216
asg10
(lp217
I301
aI1
aI2
asg12
S'mittlere_Filme/301_Rope_1948/'
p218
sg14
I00
sg15
Nsg16
S'//130.60.131.134/studi/Filme/mittlere_Filme/301_Rope_1948\\301_1_2_ELAN_Projektdatei\\301_1_2_Rope_1948_DVD_ELAN.eaf'
p219
sg18
I00
sba(i__main__
Movie
p220
(dp221
g3
Nsg4
S'BeckySharp'
p222
sg6
S'//130.60.131.134/studi/Filme/mittlere_Filme/63_Becky_Sharp_1935/'
p223
sg8
(lp224
sg10
(lp225
I63
aI1
aI2
asg12
S'mittlere_Filme/63_Becky_Sharp_1935/'
p226
sg14
I00
sg15
Nsg16
S'//130.60.131.134/studi/Filme/mittlere_Filme/63_Becky_Sharp_1935\\63_1_2_BeckySharp_1935_DVD_ELAN.eaf'
p227
sg18
I00
sba(i__main__
Movie
p228
(dp229
g3
Nsg4
S'Schwarzwaldmaedel'
p230
sg6
S'//130.60.131.134/studi/Filme/mittlere_Filme/821_Schwarzwaldmaedel_1950/'
p231
sg8
(lp232
S'//130.60.131.134/studi/Filme/mittlere_Filme/821_Schwarzwaldmaedel_1950\\821_1_2_Schwarzwaldmaedel_1950_DVD_ELAN.txt'
p233
asg10
(lp234
I821
aI1
aI2
asg12
S'mittlere_Filme/821_Schwarzwaldmaedel_1950/'
p235
sg14
I00
sg15
Nsg16
S'//130.60.131.134/studi/Filme/mittlere_Filme/821_Schwarzwaldmaedel_1950\\821_1_2_Schwarzwaldmaedel_1950_DVD_ELAN.eaf'
p236
sg18
I00
sba(i__main__
Movie
p237
(dp238
g3
Nsg4
S'MaerkischeFahrt'
p239
sg6
S'//130.60.131.134/studi/Filme/mittlere_Filme/891_Maerkische_Fahrt_1942/'
p240
sg8
(lp241
S'//130.60.131.134/studi/Filme/mittlere_Filme/891_Maerkische_Fahrt_1942\\891_1_3_MaerkischeFahrt_1942_DVD_ELAN.txt'
p242
asg10
(lp243
I891
aI1
aI3
asg12
S'mittlere_Filme/891_Maerkische_Fahrt_1942/'
p244
sg14
I00
sg15
Nsg16
S'//130.60.131.134/studi/Filme/mittlere_Filme/891_Maerkische_Fahrt_1942\\891_1_3_MaerkischeFahrt_1942_DVD_ELAN.eaf'
p245
sg18
I00
sba(i__main__
Movie
p246
(dp247
g3
Nsg4
S'GoneWithTheWind'
p248
sg6
S'//130.60.131.134/studi/Filme/mittlere_Filme/8_Gone_With_The_Wind_1940/8_1_1_Gone with the Wind_1940_DVD/'
p249
sg8
(lp250
sg10
(lp251
I8
aI1
aI1
asg12
S'mittlere_Filme/8_Gone_With_The_Wind_1940/8_1_1_Gone with the Wind_1940_DVD/'
p252
sg14
I00
sg15
Nsg16
S'//130.60.131.134/studi/Filme/mittlere_Filme/8_Gone_With_The_Wind_1940/8_1_1_Gone with the Wind_1940_DVD\\8_1_1_GoneWithTheWind_Part1_1940_DVD_ELAN.eaf'
p253
sg18
I00
sba(i__main__
Movie
p254
(dp255
g3
Nsg4
S'GoneWithTheWind'
p256
sg6
S'//130.60.131.134/studi/Filme/mittlere_Filme/8_Gone_With_The_Wind_1940/8_1_2_Gone with the Wind_1940_DVD/'
p257
sg8
(lp258
sg10
(lp259
I8
aI1
aI2
asg12
S'mittlere_Filme/8_Gone_With_The_Wind_1940/8_1_2_Gone with the Wind_1940_DVD/'
p260
sg14
I00
sg15
Nsg16
S'//130.60.131.134/studi/Filme/mittlere_Filme/8_Gone_With_The_Wind_1940/8_1_2_Gone with the Wind_1940_DVD\\8_1_2_GoneWithTheWind_Part2_1940_DVD_ELAN.eaf'
p261
sg18
I00
sba(i__main__
Movie
p262
(dp263
g3
Nsg4
S'NorthByNorthwest'
p264
sg6
S'//130.60.131.134/studi/Filme/spaete_Filme/282_NorthByNorthwest_1959/'
p265
sg8
(lp266
S'//130.60.131.134/studi/Filme/spaete_Filme/282_NorthByNorthwest_1959\\282_1_3_NorthByNorthwest_1959_BD_ELAN_BF.txt'
p267
asg10
(lp268
I282
aI1
aI3
asg12
S'spaete_Filme/282_NorthByNorthwest_1959/'
p269
sg14
I00
sg15
Nsg16
S'//130.60.131.134/studi/Filme/spaete_Filme/282_NorthByNorthwest_1959\\282_1_3_NorthByNorthwest_1959_BD_ELAN_BF.eaf'
p270
sg18
I00
sba(i__main__
Movie
p271
(dp272
g3
Nsg4
S'ToCatchAThief'
p273
sg6
S'//130.60.131.134/studi/Filme/spaete_Filme/287_To_Catch_A_Thief_1955/'
p274
sg8
(lp275
S'//130.60.131.134/studi/Filme/spaete_Filme/287_To_Catch_A_Thief_1955\\287_1_4_ToCatchAThief_1955_Bluray_ELAN_BF.txt'
p276
asg10
(lp277
I287
aI1
aI4
asg12
S'spaete_Filme/287_To_Catch_A_Thief_1955/'
p278
sg14
I00
sg15
Nsg16
S'//130.60.131.134/studi/Filme/spaete_Filme/287_To_Catch_A_Thief_1955\\287_1_4_ToCatchAThief_1955_Bluray_ELAN_BF.eaf'
p279
sg18
I00
sba(i__main__
Movie
p280
(dp281
g3
Nsg4
S'DasWirtshausImSpessart'
p282
sg6
S'//130.60.131.134/studi/Filme/spaete_Filme/820_Das_Wirtshaus_im_Spessart_1957/'
p283
sg8
(lp284
S'//130.60.131.134/studi/Filme/spaete_Filme/820_Das_Wirtshaus_im_Spessart_1957\\820_1_2_DasWirtshausImSpessart_1957_DVD_ELAN_export.txt'
p285
asg10
(lp286
I820
aI1
aI2
asg12
S'spaete_Filme/820_Das_Wirtshaus_im_Spessart_1957/'
p287
sg14
I00
sg15
Nsg16
S'//130.60.131.134/studi/Filme/spaete_Filme/820_Das_Wirtshaus_im_Spessart_1957\\820_1_2_DasWirtshausImSpessart_1957_DVD_ELAN.eaf'
p288
sg18
I00
sba(i__main__
Movie
p289
(dp290
g3
Nsg4
S'LaGrandeBouffe'
p291
sg6
S'//130.60.131.134/studi/Filme/spaete_Filme/897_La_Grande_Bouffe_1973/'
p292
sg8
(lp293
sg10
(lp294
I897
aI1
aI2
asg12
S'spaete_Filme/897_La_Grande_Bouffe_1973/'
p295
sg14
I00
sg15
Nsg16
S'//130.60.131.134/studi/Filme/spaete_Filme/897_La_Grande_Bouffe_1973\\897_1_2_LaGrandeBouffe_1973_DVD_ELAN.eaf'
p296
sg18
I00
sba(i__main__
Movie
p297
(dp298
g3
Nsg4
S'TheTollOfTheSea'
p299
sg6
S'//130.60.131.134/studi/Filme/frueher_Film/51_The_Toll_of_the_Sea_1922/'
p300
sg8
(lp301
sg10
(lp302
I51
aI1
aI1
asg12
S'frueher_Film/51_The_Toll_of_the_Sea_1922/'
p303
sg14
I00
sg15
Nsg16
S'//130.60.131.134/studi/Filme/frueher_Film/51_The_Toll_of_the_Sea_1922\\51_1_1_TheTollOfTheSea_1922_DVD_ELAN.eaf'
p304
sg18
I00
sba(i__main__
Movie
p305
(dp306
g3
Nsg4
S'LaRevueDesRevues'
p307
sg6
S'//130.60.131.134/studi/Filme/frueher_Film/219_La_revue_des_revues_1927/'
p308
sg8
(lp309
sg10
(lp310
I219
aI1
aI1
asg12
S'frueher_Film/219_La_revue_des_revues_1927/'
p311
sg14
I00
sg15
Nsg16
S'//130.60.131.134/studi/Filme/frueher_Film/219_La_revue_des_revues_1927\\219_1_1_LaRevueDesRevues_1927_DVD_ELAN.eaf'
p312
sg18
I00
sba(i__main__
Movie
p313
(dp314
g3
Nsg4
S'ThePrivateLivesOfElizabethAndEssex'
p315
sg6
S'//130.60.131.134/studi/Filme/mittlere_Filme/392_The_Private_Lives_of_Elizabeth_and_Essex_1939/'
p316
sg8
(lp317
S'//130.60.131.134/studi/Filme/mittlere_Filme/392_The_Private_Lives_of_Elizabeth_and_Essex_1939\\392_1_1_ThePrivateLivesOfElizabethAndEssex_1939_DVD_ELAN_BF.txt'
p318
asg10
(lp319
I392
aI1
aI1
asg12
S'mittlere_Filme/392_The_Private_Lives_of_Elizabeth_and_Essex_1939/'
p320
sg14
I00
sg15
Nsg16
S'//130.60.131.134/studi/Filme/mittlere_Filme/392_The_Private_Lives_of_Elizabeth_and_Essex_1939\\392_1_1_ThePrivateLivesOfElizabethAndEssex_1939_DVD_ELAN_BF.eaf'
p321
sg18
I00
sba.