(lp0
(i__main__
Movie
p1
(dp2
S'errors'
p3
NsS'movie_name'
p4
S'MakingFashion'
p5
sS'folder_path'
p6
S'//130.60.131.134/studi/Filme/mittlere_Filme/182_Making_Fashion_1938/'
p7
sS'segmentation_path'
p8
(lp9
S'//130.60.131.134/studi/Filme/mittlere_Filme/182_Making_Fashion_1938\\182_1_2_MakingFashion_1938_DVD_ELAN.txt'
p10
asS'filemaker_ID'
p11
(lp12
I182
aI1
aI2
asS'relative_path'
p13
S'mittlere_Filme/182_Making_Fashion_1938/'
p14
sS'has_sub_segmentation'
p15
I00
sS'shots'
p16
NsS'elan_path'
p17
S'//130.60.131.134/studi/Filme/mittlere_Filme/182_Making_Fashion_1938\\ELAN_Projektdatei\\182_1_2_MakingFashion_1938_DVD_ELAN.eaf'
p18
sS'needs_segmentation'
p19
I00
sba(i__main__
Movie
p20
(dp21
g3
Nsg4
S'TheGardenOfAllah'
p22
sg6
S'//130.60.131.134/studi/Filme/mittlere_Filme/266_The_Garden_of_Allah_1936/'
p23
sg8
(lp24
S'//130.60.131.134/studi/Filme/mittlere_Filme/266_The_Garden_of_Allah_1936\\266_1_2_TheGardenOfAllah_1936_DVD_ELAN.txt'
p25
asg11
(lp26
I266
aI1
aI2
asg13
S'mittlere_Filme/266_The_Garden_of_Allah_1936/'
p27
sg15
I00
sg16
Nsg17
S'//130.60.131.134/studi/Filme/mittlere_Filme/266_The_Garden_of_Allah_1936\\266_1_2_TheGardenOfAllah_1936_DVD_ELAN.eaf'
p28
sg19
I00
sba.