(lp0
(i__main__
Movie
p1
(dp2
S'errors'
p3
NsS'movie_name'
p4
S'MysteryOfTheWaxMuseum'
p5
sS'folder_path'
p6
S'//130.60.131.134/studi/Filme/frueher_Film/1018_Mystery_Of_The_Wax_Museum_1933/'
p7
sS'segmentation_path'
p8
(lp9
sS'filemaker_ID'
p10
(lp11
I1018
aI1
aI1
asS'relative_path'
p12
S'frueher_Film/1018_Mystery_Of_The_Wax_Museum_1933/'
p13
sS'has_sub_segmentation'
p14
I00
sS'shots'
p15
NsS'elan_path'
p16
S'//130.60.131.134/studi/Filme/frueher_Film/1018_Mystery_Of_The_Wax_Museum_1933\\1018_1_1_MysteryOfTheWaxMuseum_1933_DVD_Elan.eaf'
p17
sS'needs_segmentation'
p18
I00
sba(i__main__
Movie
p19
(dp20
g3
Nsg4
S'HellsAngels'
p21
sg6
S'//130.60.131.134/studi/Filme/frueher_Film/1062_Hells_Angels_1930/'
p22
sg8
(lp23
sg10
(lp24
I1062
aI1
aI3
asg12
S'frueher_Film/1062_Hells_Angels_1930/'
p25
sg14
I00
sg15
Nsg16
S'//130.60.131.134/studi/Filme/frueher_Film/1062_Hells_Angels_1930\\1062_1_3_HellsAngels_1930_DVD_ELAN.eaf'
p26
sg18
I00
sba(i__main__
Movie
p27
(dp28
g3
Nsg4
S'K\xf6rkarlen'
p29
sg6
S'//130.60.131.134/studi/Filme/frueher_Film/1081_K\xf6rkarlen_1921/'
p30
sg8
(lp31
sg10
(lp32
I1081
aI1
aI1
asg12
S'frueher_Film/1081_K\xf6rkarlen_1921/'
p33
sg14
I00
sg15
Nsg16
S'//130.60.131.134/studi/Filme/frueher_Film/1081_K\xf6rkarlen_1921\\1081_1_1_K\xf6rkarlen_1921_DVD_ELAN.eaf'
p34
sg18
I00
sba(i__main__
Movie
p35
(dp36
g3
Nsg4
S'GoldDiggersOfBroadway'
p37
sg6
S'//130.60.131.134/studi/Filme/frueher_Film/142_Gold_Diggers_of_Broadway_1929/'
p38
sg8
(lp39
sg10
(lp40
I142
aI1
aI1
asg12
S'frueher_Film/142_Gold_Diggers_of_Broadway_1929/'
p41
sg14
I00
sg15
Nsg16
S'//130.60.131.134/studi/Filme/frueher_Film/142_Gold_Diggers_of_Broadway_1929\\142_1_1_GoldDiggersOfBroadway_1929_DVD_ELAN.eaf'
p42
sg18
I00
sba(i__main__
Movie
p43
(dp44
g3
Nsg4
S'CosmopolitanLondon'
p45
sg6
S'//130.60.131.134/studi/Filme/frueher_Film/158_Cosmopolitan_London_1924/'
p46
sg8
(lp47
sg10
(lp48
I158
aI1
aI1
asg12
S'frueher_Film/158_Cosmopolitan_London_1924/'
p49
sg14
I00
sg15
Nsg16
S'//130.60.131.134/studi/Filme/frueher_Film/158_Cosmopolitan_London_1924\\CosmopolitanLondon.eaf'
p50
sg18
I00
sba(i__main__
Movie
p51
(dp52
g3
Nsg4
S'Gribiche'
p53
sg6
S'//130.60.131.134/studi/Filme/frueher_Film/161_Gribiche_1926/'
p54
sg8
(lp55
S'//130.60.131.134/studi/Filme/frueher_Film/161_Gribiche_1926\\161_1_1_Gribiche_1926_DVD_ELAN.txt'
p56
asg10
(lp57
I161
aI1
aI1
asg12
S'frueher_Film/161_Gribiche_1926/'
p58
sg14
I00
sg15
Nsg16
S'//130.60.131.134/studi/Filme/frueher_Film/161_Gribiche_1926\\161_1_1_Gribiche_1926_DVD_ELAN.eaf'
p59
sg18
I00
sba(i__main__
Movie
p60
(dp61
g3
Nsg4
S'BrasierArdent'
p62
sg6
S'//130.60.131.134/studi/Filme/frueher_Film/163_Brasier_Ardent_1923/'
p63
sg8
(lp64
sg10
(lp65
I163
aI1
aI1
asg12
S'frueher_Film/163_Brasier_Ardent_1923/'
p66
sg14
I00
sg15
Nsg16
S'//130.60.131.134/studi/Filme/frueher_Film/163_Brasier_Ardent_1923\\163_1_1_BrasierArdent_1923_DVD_ELAN.eaf'
p67
sg18
I00
sba(i__main__
Movie
p68
(dp69
g3
Nsg4
S'Mauprat'
p70
sg6
S'//130.60.131.134/studi/Filme/frueher_Film/164_Mauprat_1926/'
p71
sg8
(lp72
sg10
(lp73
I164
aI1
aI1
asg12
S'frueher_Film/164_Mauprat_1926/'
p74
sg14
I00
sg15
Nsg16
S'//130.60.131.134/studi/Filme/frueher_Film/164_Mauprat_1926\\164_1_1_Mauprat_1926_DVD_Elan.eaf'
p75
sg18
I00
sba(i__main__
Movie
p76
(dp77
g3
Nsg4
S'LeVoyageDansLaLune'
p78
sg6
S'//130.60.131.134/studi/Filme/frueher_Film/166_Le_Voyage_Dans_La_Lune_1902/'
p79
sg8
(lp80
sg10
(lp81
I166
aI1
aI1
asg12
S'frueher_Film/166_Le_Voyage_Dans_La_Lune_1902/'
p82
sg14
I00
sg15
Nsg16
S'//130.60.131.134/studi/Filme/frueher_Film/166_Le_Voyage_Dans_La_Lune_1902\\166_1_1_LeVoyageDansLaLune_1902_DVD_ELAN_UF.eaf'
p83
sg18
I00
sba(i__main__
Movie
p84
(dp85
g3
Nsg4
S'LaRoue'
p86
sg6
S'//130.60.131.134/studi/Filme/frueher_Film/167_La_Roue_1923/167_1_1_LaRoue_1923_DVD/'
p87
sg8
(lp88
sg10
(lp89
I167
aI1
aI1
asg12
S'frueher_Film/167_La_Roue_1923/167_1_1_LaRoue_1923_DVD/'
p90
sg14
I00
sg15
Nsg16
S'//130.60.131.134/studi/Filme/frueher_Film/167_La_Roue_1923/167_1_1_LaRoue_1923_DVD\\167_1_1_LaRoue_1923_DVD_ELAN.eaf'
p91
sg18
I00
sba(i__main__
Movie
p92
(dp93
g3
Nsg4
S'LaRoue'
p94
sg6
S'//130.60.131.134/studi/Filme/frueher_Film/167_La_Roue_1923/167_1_2_LaRoue_1923_DVD/'
p95
sg8
(lp96
sg10
(lp97
I167
aI1
aI2
asg12
S'frueher_Film/167_La_Roue_1923/167_1_2_LaRoue_1923_DVD/'
p98
sg14
I00
sg15
Nsg16
S'//130.60.131.134/studi/Filme/frueher_Film/167_La_Roue_1923/167_1_2_LaRoue_1923_DVD\\167_1_2_LaRoue_1923_DVD_ELAN.eaf'
p99
sg18
I00
sba(i__main__
Movie
p100
(dp101
g3
Nsg4
S'DieFinanzenDesGrossherzogs'
p102
sg6
S'//130.60.131.134/studi/Filme/frueher_Film/169_Die_Finanzen_des_Grossherzogs_1924/'
p103
sg8
(lp104
sg10
(lp105
I169
aI1
aI1
asg12
S'frueher_Film/169_Die_Finanzen_des_Grossherzogs_1924/'
p106
sg14
I00
sg15
Nsg16
S'//130.60.131.134/studi/Filme/frueher_Film/169_Die_Finanzen_des_Grossherzogs_1924\\169_1_1_DieFinanzenDesGrossherzogs_1924_DVD_ELAN.eaf'
p107
sg18
I00
sba(i__main__
Movie
p108
(dp109
g3
Nsg4
S'FlowersofLondon'
p110
sg6
S'//130.60.131.134/studi/Filme/frueher_Film/171_Flowers_of_London_1924/'
p111
sg8
(lp112
sg10
(lp113
I171
aI1
aI1
asg12
S'frueher_Film/171_Flowers_of_London_1924/'
p114
sg14
I00
sg15
Nsg16
S'//130.60.131.134/studi/Filme/frueher_Film/171_Flowers_of_London_1924\\171_1_1_FlowersofLondon_1924_DVD_Elan.eaf'
p115
sg18
I00
sba(i__main__
Movie
p116
(dp117
g3
Nsg4
S'LondonsFreeShows'
p118
sg6
S'//130.60.131.134/studi/Filme/frueher_Film/172_Londons_Free_Shows_1924/'
p119
sg8
(lp120
sg10
(lp121
I172
aI1
aI1
asg12
S'frueher_Film/172_Londons_Free_Shows_1924/'
p122
sg14
I00
sg15
Nsg16
S'//130.60.131.134/studi/Filme/frueher_Film/172_Londons_Free_Shows_1924\\172_1_1_LondonsFreeShows_1924_DVD_Elan.eaf'
p123
sg18
I00
sba(i__main__
Movie
p124
(dp125
g3
Nsg4
S'BargingThroughLondon'
p126
sg6
S'//130.60.131.134/studi/Filme/frueher_Film/173_Barging_Through_London_1924/'
p127
sg8
(lp128
sg10
(lp129
I173
aI1
aI1
asg12
S'frueher_Film/173_Barging_Through_London_1924/'
p130
sg14
I00
sg15
Nsg16
S'//130.60.131.134/studi/Filme/frueher_Film/173_Barging_Through_London_1924\\173_1_1_BargingThroughLondon_1924_DVD_ELAN.eaf'
p131
sg18
I00
sba(i__main__
Movie
p132
(dp133
g3
Nsg4
S'LondonsFreeShows'
p134
sg6
S'//130.60.131.134/studi/Filme/frueher_Film/174_Londons_Sunday_1924/'
p135
sg8
(lp136
sg10
(lp137
I172
aI1
aI1
asg12
S'frueher_Film/174_Londons_Sunday_1924/'
p138
sg14
I00
sg15
Nsg16
S'//130.60.131.134/studi/Filme/frueher_Film/174_Londons_Sunday_1924\\172_1_1_LondonsFreeShows_1924_DVD_Elan.eaf'
p139
sg18
I00
sba(i__main__
Movie
p140
(dp141
g3
Nsg4
S'LondonoftheTrack'
p142
sg6
S'//130.60.131.134/studi/Filme/frueher_Film/175_London_Off_the_Track_1924/'
p143
sg8
(lp144
sg10
(lp145
I175
aI1
aI1
asg12
S'frueher_Film/175_London_Off_the_Track_1924/'
p146
sg14
I00
sg15
Nsg16
S'//130.60.131.134/studi/Filme/frueher_Film/175_London_Off_the_Track_1924\\175_1_1_LondonoftheTrack_1924_DVD_Elan.eaf'
p147
sg18
I00
sba(i__main__
Movie
p148
(dp149
g3
Nsg4
S'Phantom'
p150
sg6
S'//130.60.131.134/studi/Filme/frueher_Film/176_Phantom_1922/'
p151
sg8
(lp152
sg10
(lp153
I176
aI1
aI1
asg12
S'frueher_Film/176_Phantom_1922/'
p154
sg14
I00
sg15
Nsg16
S'//130.60.131.134/studi/Filme/frueher_Film/176_Phantom_1922\\176_1_1_Phantom_1922_DVD_ELAN.eaf'
p155
sg18
I00
sba(i__main__
Movie
p156
(dp157
g3
Nsg4
S'Der'
p158
sg6
S'//130.60.131.134/studi/Filme/frueher_Film/188_Der_m\xfcde_Tod_1921/'
p159
sg8
(lp160
sg10
(lp161
I188
aI1
aI1
asg12
S'frueher_Film/188_Der_m\xfcde_Tod_1921/'
p162
sg14
I00
sg15
Nsg16
S'//130.60.131.134/studi/Filme/frueher_Film/188_Der_m\xfcde_Tod_1921\\188_1_1_Der_Muede_Tod_1921_ELAN.eaf'
p163
sg18
I00
sba(i__main__
Movie
p164
(dp165
g3
Nsg4
S'VoyageSurJupiter'
p166
sg6
S'//130.60.131.134/studi/Filme/frueher_Film/189_Voyage_sur_Jupiter_1909/'
p167
sg8
(lp168
sg10
(lp169
I189
aI1
aI1
asg12
S'frueher_Film/189_Voyage_sur_Jupiter_1909/'
p170
sg14
I00
sg15
Nsg16
S'//130.60.131.134/studi/Filme/frueher_Film/189_Voyage_sur_Jupiter_1909\\189_1_1_VoyageSurJupiter_1909_DVD_ELAN.eaf'
p171
sg18
I00
sba(i__main__
Movie
p172
(dp173
g3
Nsg4
S'ModeDeParis'
p174
sg6
S'//130.60.131.134/studi/Filme/frueher_Film/190_Mode_de_Paris_1926/'
p175
sg8
(lp176
sg10
(lp177
I190
aI1
aI1
asg12
S'frueher_Film/190_Mode_de_Paris_1926/'
p178
sg14
I00
sg15
Nsg16
S'//130.60.131.134/studi/Filme/frueher_Film/190_Mode_de_Paris_1926\\190_1_1_ModeDeParis_1926_DVD_ELAN.eaf'
p179
sg18
I00
sba(i__main__
Movie
p180
(dp181
g3
Nsg4
S'LesRosesMagiques'
p182
sg6
S'//130.60.131.134/studi/Filme/frueher_Film/191_Les_Roses_Magiques_1906/'
p183
sg8
(lp184
sg10
(lp185
I191
aI1
aI1
asg12
S'frueher_Film/191_Les_Roses_Magiques_1906/'
p186
sg14
I00
sg15
Nsg16
S'//130.60.131.134/studi/Filme/frueher_Film/191_Les_Roses_Magiques_1906\\191_1_1_LesRosesMagiques_DVD_ELAN.eaf'
p187
sg18
I00
sba(i__main__
Movie
p188
(dp189
g3
Nsg4
S'SchattenEineNaechtlicheHalluzination'
p190
sg6
S'//130.60.131.134/studi/Filme/frueher_Film/192_Schatten_Eine_naechtliche_Halluzination_1923/'
p191
sg8
(lp192
sg10
(lp193
I192
aI1
aI1
asg12
S'frueher_Film/192_Schatten_Eine_naechtliche_Halluzination_1923/'
p194
sg14
I00
sg15
Nsg16
S'//130.60.131.134/studi/Filme/frueher_Film/192_Schatten_Eine_naechtliche_Halluzination_1923\\192_1_1_SchattenEineNaechtlicheHalluzination_1923_ELAN.eaf'
p195
sg18
I00
sba(i__main__
Movie
p196
(dp197
g3
Nsg4
S'LaVieEtLaPassionDeJesusChrist'
p198
sg6
S'//130.60.131.134/studi/Filme/frueher_Film/194_La_Vie_et_la_Passion_de_Jesus_Christ_1903/'
p199
sg8
(lp200
sg10
(lp201
I194
aI1
aI1
asg12
S'frueher_Film/194_La_Vie_et_la_Passion_de_Jesus_Christ_1903/'
p202
sg14
I00
sg15
Nsg16
S'//130.60.131.134/studi/Filme/frueher_Film/194_La_Vie_et_la_Passion_de_Jesus_Christ_1903\\194_1_1_LaVieEtLaPassionDeJesusChrist_1903_DVD_Elan.eaf'
p203
sg18
I00
sba(i__main__
Movie
p204
(dp205
g3
Nsg4
S'Linhumaine'
p206
sg6
S'//130.60.131.134/studi/Filme/frueher_Film/197_Linhumaine_1923/'
p207
sg8
(lp208
sg10
(lp209
I197
aI1
aI1
asg12
S'frueher_Film/197_Linhumaine_1923/'
p210
sg14
I00
sg15
Nsg16
S'//130.60.131.134/studi/Filme/frueher_Film/197_Linhumaine_1923\\197_1_1_Linhumaine_1923_DVD_Elan.eaf'
p211
sg18
I00
sba(i__main__
Movie
p212
(dp213
g3
Nsg4
S'MortDeMarat'
p214
sg6
S'//130.60.131.134/studi/Filme/frueher_Film/198_Mort_de_Marat_1897/'
p215
sg8
(lp216
sg10
(lp217
I198
aI1
aI1
asg12
S'frueher_Film/198_Mort_de_Marat_1897/'
p218
sg14
I00
sg15
Nsg16
S'//130.60.131.134/studi/Filme/frueher_Film/198_Mort_de_Marat_1897\\198_1_1_MortDeMarat_DVD_ELAN.eaf'
p219
sg18
I00
sba(i__main__
Movie
p220
(dp221
g3
Nsg4
S'RapsodiaSatanica'
p222
sg6
S'//130.60.131.134/studi/Filme/frueher_Film/199_Rapsodia_Satanica_1917/'
p223
sg8
(lp224
sg10
(lp225
I199
aI1
aI1
asg12
S'frueher_Film/199_Rapsodia_Satanica_1917/'
p226
sg14
I00
sg15
Nsg16
S'//130.60.131.134/studi/Filme/frueher_Film/199_Rapsodia_Satanica_1917\\199_1_1_RapsodiaSatanica_1917_ELAN.eaf'
p227
sg18
I00
sba(i__main__
Movie
p228
(dp229
g3
Nsg4
S'Nosferatu'
p230
sg6
S'//130.60.131.134/studi/Filme/frueher_Film/200_Nosferatu_Eine_Symphonie_des_Grauens_1922/'
p231
sg8
(lp232
S'//130.60.131.134/studi/Filme/frueher_Film/200_Nosferatu_Eine_Symphonie_des_Grauens_1922\\200_1_1_Nosferatu_1922_DVD_ELAN_txt.txt'
p233
asg10
(lp234
I200
aI1
aI1
asg12
S'frueher_Film/200_Nosferatu_Eine_Symphonie_des_Grauens_1922/'
p235
sg14
I00
sg15
Nsg16
S'//130.60.131.134/studi/Filme/frueher_Film/200_Nosferatu_Eine_Symphonie_des_Grauens_1922\\200_1_1_Nosferatu_1922_DVD_ELAN.eaf'
p236
sg18
I00
sba(i__main__
Movie
p237
(dp238
g3
Nsg4
S'BenHurATaleOfChrist'
p239
sg6
S'//130.60.131.134/studi/Filme/frueher_Film/201_Ben_Hur_A_Tale_of_Christ_1925/'
p240
sg8
(lp241
sg10
(lp242
I201
aI1
aI1
asg12
S'frueher_Film/201_Ben_Hur_A_Tale_of_Christ_1925/'
p243
sg14
I00
sg15
Nsg16
S'//130.60.131.134/studi/Filme/frueher_Film/201_Ben_Hur_A_Tale_of_Christ_1925\\201_1_1_BenHurATaleOfChrist_1925_DVD_ELAN_UF.eaf'
p244
sg18
I00
sba(i__main__
Movie
p245
(dp246
g3
Nsg4
S'ImBad'
p247
sg6
S'//130.60.131.134/studi/Filme/frueher_Film/2020_Im_Bad_1917/'
p248
sg8
(lp249
S'//130.60.131.134/studi/Filme/frueher_Film/2020_Im_Bad_1917\\2020_1_3_ImBad_1917_ELAN.txt'
p250
asg10
(lp251
I2020
aI1
aI3
asg12
S'frueher_Film/2020_Im_Bad_1917/'
p252
sg14
I00
sg15
Nsg16
S'//130.60.131.134/studi/Filme/frueher_Film/2020_Im_Bad_1917\\2020_1_3_ImBad_1917_ELAN.eaf'
p253
sg18
I00
sba(i__main__
Movie
p254
(dp255
g3
Nsg4
S'LesPapillonsJaponais'
p256
sg6
S'//130.60.131.134/studi/Filme/frueher_Film/202_Les_papillons_japonais_1908/'
p257
sg8
(lp258
sg10
(lp259
I202
aI1
aI1
asg12
S'frueher_Film/202_Les_papillons_japonais_1908/'
p260
sg14
I00
sg15
Nsg16
S'//130.60.131.134/studi/Filme/frueher_Film/202_Les_papillons_japonais_1908\\202_1_1_LesPapillonsJaponais_1908_ELAN.eaf'
p261
sg18
I00
sba(i__main__
Movie
p262
(dp263
g3
Nsg4
S'DieAbenteuerDesPrinzenAchmed'
p264
sg6
S'//130.60.131.134/studi/Filme/frueher_Film/204_Die_Abenteuer_des_Prinzen_Achmed_1925/'
p265
sg8
(lp266
sg10
(lp267
I204
aI1
aI1
asg12
S'frueher_Film/204_Die_Abenteuer_des_Prinzen_Achmed_1925/'
p268
sg14
I00
sg15
Nsg16
S'//130.60.131.134/studi/Filme/frueher_Film/204_Die_Abenteuer_des_Prinzen_Achmed_1925\\204_1_1_DieAbenteuerDesPrinzenAchmed_1925_DVD_ELAN_UF.eaf'
p269
sg18
I00
sba(i__main__
Movie
p270
(dp271
g3
Nsg4
S'AladinOuLLampeMerveilleuse'
p272
sg6
S'//130.60.131.134/studi/Filme/frueher_Film/206_Aladin_Ou_La_Lampe_Merveilleuse_1906/'
p273
sg8
(lp274
sg10
(lp275
I206
aI1
aI1
asg12
S'frueher_Film/206_Aladin_Ou_La_Lampe_Merveilleuse_1906/'
p276
sg14
I00
sg15
Nsg16
S'//130.60.131.134/studi/Filme/frueher_Film/206_Aladin_Ou_La_Lampe_Merveilleuse_1906\\206_1_1_AladinOuLLampeMerveilleuse_1906_DVD_ELAN.eaf'
p277
sg18
I00
sba(i__main__
Movie
p278
(dp279
g3
Nsg4
S'DasCabinetDesDrCaligari'
p280
sg6
S'//130.60.131.134/studi/Filme/frueher_Film/208_Das_Cabinet_des_Dr_Caligari_1919/'
p281
sg8
(lp282
sg10
(lp283
I208
aI1
aI1
asg12
S'frueher_Film/208_Das_Cabinet_des_Dr_Caligari_1919/'
p284
sg14
I00
sg15
Nsg16
S'//130.60.131.134/studi/Filme/frueher_Film/208_Das_Cabinet_des_Dr_Caligari_1919\\208_1_1_DasCabinetDesDrCaligari_1919_DVD_ELAN.eaf'
p285
sg18
I00
sba(i__main__
Movie
p286
(dp287
g3
Nsg4
S'DerStudentvonPrag'
p288
sg6
S'//130.60.131.134/studi/Filme/frueher_Film/211_Der_Student_von_Prag_1913/'
p289
sg8
(lp290
sg10
(lp291
I211
aI1
aI1
asg12
S'frueher_Film/211_Der_Student_von_Prag_1913/'
p292
sg14
I00
sg15
Nsg16
S'//130.60.131.134/studi/Filme/frueher_Film/211_Der_Student_von_Prag_1913\\211_1_1_DerStudentvonPrag_1913_DVD_Elan.eaf'
p293
sg18
I00
sba(i__main__
Movie
p294
(dp295
g3
Nsg4
S'H\xe4xan'
p296
sg6
S'//130.60.131.134/studi/Filme/frueher_Film/217_Haxan_1922/'
p297
sg8
(lp298
sg10
(lp299
I217
aI1
aI1
asg12
S'frueher_Film/217_Haxan_1922/'
p300
sg14
I00
sg15
Nsg16
S'//130.60.131.134/studi/Filme/frueher_Film/217_Haxan_1922\\217_H\xe4xan_1922_DVD_ELAN.eaf'
p301
sg18
I00
sba(i__main__
Movie
p302
(dp303
g3
Nsg4
S'LaRevueDesRevues'
p304
sg6
S'//130.60.131.134/studi/Filme/frueher_Film/219_La_revue_des_revues_1927/'
p305
sg8
(lp306
sg10
(lp307
I219
aI1
aI1
asg12
S'frueher_Film/219_La_revue_des_revues_1927/'
p308
sg14
I00
sg15
Nsg16
S'//130.60.131.134/studi/Filme/frueher_Film/219_La_revue_des_revues_1927\\219_1_1_LaRevueDesRevues_1927_DVD_ELAN.eaf'
p309
sg18
I00
sba(i__main__
Movie
p310
(dp311
g3
Nsg4
S'TheLodger'
p312
sg6
S'//130.60.131.134/studi/Filme/frueher_Film/222_The_Lodger_1926/'
p313
sg8
(lp314
sg10
(lp315
I222
aI1
aI1
asg12
S'frueher_Film/222_The_Lodger_1926/'
p316
sg14
I00
sg15
Nsg16
S'//130.60.131.134/studi/Filme/frueher_Film/222_The_Lodger_1926\\222_1_1_TheLodger_1926_DVD_Elan.eaf'
p317
sg18
I00
sba(i__main__
Movie
p318
(dp319
g3
Nsg4
S'TheFluteOfKrishna'
p320
sg6
S'//130.60.131.134/studi/Filme/frueher_Film/269_The_Flute_Of_Krishna_1926/'
p321
sg8
(lp322
sg10
(lp323
I269
aI1
aI2
asg12
S'frueher_Film/269_The_Flute_Of_Krishna_1926/'
p324
sg14
I00
sg15
Nsg16
S'//130.60.131.134/studi/Filme/frueher_Film/269_The_Flute_Of_Krishna_1926\\269_1_2_TheFluteOfKrishna_1926_DVD_Elan.eaf'
p325
sg18
I00
sba(i__main__
Movie
p326
(dp327
g3
Nsg4
S'JoanTheWoman'
p328
sg6
S'//130.60.131.134/studi/Filme/frueher_Film/26_Joan_the_Woman_1916/'
p329
sg8
(lp330
sg10
(lp331
I26
aI1
aI1
asg12
S'frueher_Film/26_Joan_the_Woman_1916/'
p332
sg14
I00
sg15
Nsg16
S'//130.60.131.134/studi/Filme/frueher_Film/26_Joan_the_Woman_1916\\26_1_1_JoanTheWoman_1916_DVD_ELAN.eaf'
p333
sg18
I00
sba(i__main__
Movie
p334
(dp335
g3
Nsg4
S'Doctor'
p336
sg6
S'//130.60.131.134/studi/Filme/frueher_Film/306_Doctor_X_1932/'
p337
sg8
(lp338
sg10
(lp339
I306
aI1
aI2
asg12
S'frueher_Film/306_Doctor_X_1932/'
p340
sg14
I00
sg15
Nsg16
S'//130.60.131.134/studi/Filme/frueher_Film/306_Doctor_X_1932\\306_1_2_Doctor_X_1932_DVD_ELAN.eaf'
p341
sg18
I00
sba(i__main__
Movie
p342
(dp343
g3
Nsg4
S'Wagon'
p344
sg6
S'//130.60.131.134/studi/Filme/frueher_Film/3076_Wagon_Tracks_1919/'
p345
sg8
(lp346
sg10
(lp347
I3076
aI1
aI1
asg12
S'frueher_Film/3076_Wagon_Tracks_1919/'
p348
sg14
I00
sg15
Nsg16
S'//130.60.131.134/studi/Filme/frueher_Film/3076_Wagon_Tracks_1919\\3076_1_1_Wagon_Tracks_1919_DVD_ELAN.eaf'
p349
sg18
I00
sba(i__main__
Movie
p350
(dp351
g3
Nsg4
S'LaPeineDuTalion'
p352
sg6
S'//130.60.131.134/studi/Filme/frueher_Film/3099_La_Peine_Du_Talion_1906/'
p353
sg8
(lp354
sg10
(lp355
I3099
aI1
aI1
asg12
S'frueher_Film/3099_La_Peine_Du_Talion_1906/'
p356
sg14
I00
sg15
Nsg16
S'//130.60.131.134/studi/Filme/frueher_Film/3099_La_Peine_Du_Talion_1906\\3099_1_1_LaPeineDuTalion_1906_DVD_Elan.eaf'
p357
sg18
I00
sba(i__main__
Movie
p358
(dp359
g3
Nsg4
S'MadameDubarry'
p360
sg6
S'//130.60.131.134/studi/Filme/frueher_Film/3103_Madame_Dubarry_1919/'
p361
sg8
(lp362
sg10
(lp363
I3101
aI1
aI1
asg12
S'frueher_Film/3103_Madame_Dubarry_1919/'
p364
sg14
I00
sg15
Nsg16
S'//130.60.131.134/studi/Filme/frueher_Film/3103_Madame_Dubarry_1919\\3101_1_1_MadameDubarry_1919_DVD_Elan.eaf'
p365
sg18
I00
sba(i__main__
Movie
p366
(dp367
g3
Nsg4
S'DasWachsfigurenkabinett'
p368
sg6
S'//130.60.131.134/studi/Filme/frueher_Film/3104_Das_Wachsfigurenkabinett_1923/'
p369
sg8
(lp370
sg10
(lp371
I3104
aI1
aI1
asg12
S'frueher_Film/3104_Das_Wachsfigurenkabinett_1923/'
p372
sg14
I00
sg15
Nsg16
S'//130.60.131.134/studi/Filme/frueher_Film/3104_Das_Wachsfigurenkabinett_1923\\3104_1_1_DasWachsfigurenkabinett_1923_DVD_Elan.eaf'
p373
sg18
I00
sba(i__main__
Movie
p374
(dp375
g3
Nsg4
S'PosleSmerti'
p376
sg6
S'//130.60.131.134/studi/Filme/frueher_Film/3109_Posle_Smerti_1915/'
p377
sg8
(lp378
sg10
(lp379
I3109
aI1
aI1
asg12
S'frueher_Film/3109_Posle_Smerti_1915/'
p380
sg14
I00
sg15
Nsg16
S'//130.60.131.134/studi/Filme/frueher_Film/3109_Posle_Smerti_1915\\3109_1_1_PosleSmerti_1915_DVD_ELAN.eaf'
p381
sg18
I00
sba(i__main__
Movie
p382
(dp383
g3
Nsg4
S'AliBabaEtLesQuaranteVoleurs'
p384
sg6
S'//130.60.131.134/studi/Filme/frueher_Film/3112_Ali_Baba_et_les_Quarante_Voleurs_1902/'
p385
sg8
(lp386
sg10
(lp387
I3112
aI1
aI1
asg12
S'frueher_Film/3112_Ali_Baba_et_les_Quarante_Voleurs_1902/'
p388
sg14
I00
sg15
Nsg16
S'//130.60.131.134/studi/Filme/frueher_Film/3112_Ali_Baba_et_les_Quarante_Voleurs_1902\\3112_1_1_AliBabaEtLesQuaranteVoleurs_1902_DVD_ELAN.eaf'
p389
sg18
I00
sba(i__main__
Movie
p390
(dp391
g3
Nsg4
S'Salome'
p392
sg6
S'//130.60.131.134/studi/Filme/frueher_Film/3118_Salome_1922/'
p393
sg8
(lp394
sg10
(lp395
I3118
aI1
aI1
asg12
S'frueher_Film/3118_Salome_1922/'
p396
sg14
I00
sg15
Nsg16
S'//130.60.131.134/studi/Filme/frueher_Film/3118_Salome_1922\\3118_1_1_Salome_1922_DVD_ELAN.eaf'
p397
sg18
I00
sba(i__main__
Movie
p398
(dp399
g3
Nsg4
S'SuperstitionAndalouse'
p400
sg6
S'//130.60.131.134/studi/Filme/frueher_Film/3146_Superstition_Andalouse_1912/'
p401
sg8
(lp402
sg10
(lp403
I3146
aI1
aI1
asg12
S'frueher_Film/3146_Superstition_Andalouse_1912/'
p404
sg14
I00
sg15
Nsg16
S'//130.60.131.134/studi/Filme/frueher_Film/3146_Superstition_Andalouse_1912\\3146_1_1_SuperstitionAndalouse_1912_DVD_ELAN.eaf'
p405
sg18
I00
sba(i__main__
Movie
p406
(dp407
g3
Nsg4
S'LesOeufsDePaques'
p408
sg6
S'//130.60.131.134/studi/Filme/frueher_Film/3156_Les_Oeufs_De_Paques_1907/'
p409
sg8
(lp410
sg10
(lp411
I3156
aI1
aI1
asg12
S'frueher_Film/3156_Les_Oeufs_De_Paques_1907/'
p412
sg14
I00
sg15
Nsg16
S'//130.60.131.134/studi/Filme/frueher_Film/3156_Les_Oeufs_De_Paques_1907\\3156_1_1_LesOeufsDePaques_1907_DVD_ELAN.eaf'
p413
sg18
I00
sba(i__main__
Movie
p414
(dp415
g3
Nsg4
S'LoieFuller'
p416
sg6
S'//130.60.131.134/studi/Filme/frueher_Film/3157_Loie_Fuller_1905/'
p417
sg8
(lp418
sg10
(lp419
I3157
aI1
aI1
asg12
S'frueher_Film/3157_Loie_Fuller_1905/'
p420
sg14
I00
sg15
Nsg16
S'//130.60.131.134/studi/Filme/frueher_Film/3157_Loie_Fuller_1905\\3157_1_1_LoieFuller_1905_DVD_ELAN.eaf'
p421
sg18
I00
sba(i__main__
Movie
p422
(dp423
g3
Nsg4
S'UnDrameAuFondDeLaMer'
p424
sg6
S'//130.60.131.134/studi/Filme/frueher_Film/3159_Un_Drame_Au_Fond_De_La_Mer_1901/'
p425
sg8
(lp426
sg10
(lp427
I3159
aI1
aI1
asg12
S'frueher_Film/3159_Un_Drame_Au_Fond_De_La_Mer_1901/'
p428
sg14
I00
sg15
Nsg16
S'//130.60.131.134/studi/Filme/frueher_Film/3159_Un_Drame_Au_Fond_De_La_Mer_1901\\3159_1_1_UnDrameAuFondDeLaMer_1901_DVD_ELAN.eaf'
p429
sg18
I00
sba(i__main__
Movie
p430
(dp431
g3
Nsg4
S'TheLoveCharm'
p432
sg6
S'//130.60.131.134/studi/Filme/frueher_Film/3161_The_Love_Charm_1928/'
p433
sg8
(lp434
sg10
(lp435
I3161
aI1
aI1
asg12
S'frueher_Film/3161_The_Love_Charm_1928/'
p436
sg14
I00
sg15
Nsg16
S'//130.60.131.134/studi/Filme/frueher_Film/3161_The_Love_Charm_1928\\3161_1_1_TheLoveCharm_1928_DVD_ELAN.eaf'
p437
sg18
I00
sba(i__main__
Movie
p438
(dp439
g3
Nsg4
S"L'Atlantide"
p440
sg6
S'//130.60.131.134/studi/Filme/frueher_Film/3165_LAtlantide_1921/'
p441
sg8
(lp442
sg10
(lp443
I3165
aI1
aI1
asg12
S'frueher_Film/3165_LAtlantide_1921/'
p444
sg14
I00
sg15
Nsg16
S"//130.60.131.134/studi/Filme/frueher_Film/3165_LAtlantide_1921\\3165_1_1_L'Atlantide_1921_ELAN.eaf"
p445
sg18
I00
sba(i__main__
Movie
p446
(dp447
g3
Nsg4
S'LaLegendeDuFantome'
p448
sg6
S'//130.60.131.134/studi/Filme/frueher_Film/3180_La_Legende_Du_Fantome_1908/'
p449
sg8
(lp450
sg10
(lp451
I3180
aI1
aI1
asg12
S'frueher_Film/3180_La_Legende_Du_Fantome_1908/'
p452
sg14
I00
sg15
Nsg16
S'//130.60.131.134/studi/Filme/frueher_Film/3180_La_Legende_Du_Fantome_1908\\3180_1_1_LaLegendeDuFantome_1908_DVD_ELAN.eaf'
p453
sg18
I00
sba(i__main__
Movie
p454
(dp455
g3
Nsg4
S'LeRoiDesDollars'
p456
sg6
S'//130.60.131.134/studi/Filme/frueher_Film/3182_Le_Roi_Des_Dollars_1905/'
p457
sg8
(lp458
sg10
(lp459
I3182
aI1
aI1
asg12
S'frueher_Film/3182_Le_Roi_Des_Dollars_1905/'
p460
sg14
I00
sg15
Nsg16
S'//130.60.131.134/studi/Filme/frueher_Film/3182_Le_Roi_Des_Dollars_1905\\3182_1_1_LeRoiDesDollars_1905_DVD_Elan.eaf'
p461
sg18
I00
sba(i__main__
Movie
p462
(dp463
g3
Nsg4
S'LAlbumMerveilleux'
p464
sg6
S'//130.60.131.134/studi/Filme/frueher_Film/3186_LAlbum_Merveilleux_1905/'
p465
sg8
(lp466
sg10
(lp467
I3186
aI1
aI1
asg12
S'frueher_Film/3186_LAlbum_Merveilleux_1905/'
p468
sg14
I00
sg15
Nsg16
S'//130.60.131.134/studi/Filme/frueher_Film/3186_LAlbum_Merveilleux_1905\\3186_LAlbumMerveilleux_1905_DVD_ELAN.eaf'
p469
sg18
I00
sba(i__main__
Movie
p470
(dp471
g3
Nsg4
S'LaPouleAuxOeufsDor'
p472
sg6
S'//130.60.131.134/studi/Filme/frueher_Film/31_La_Poule_Aux_Oeufs_Dor_1905/'
p473
sg8
(lp474
sg10
(lp475
I31
aI1
aI2
asg12
S'frueher_Film/31_La_Poule_Aux_Oeufs_Dor_1905/'
p476
sg14
I00
sg15
Nsg16
S'//130.60.131.134/studi/Filme/frueher_Film/31_La_Poule_Aux_Oeufs_Dor_1905\\31_1_2_LaPouleAuxOeufsDor_1905_ELAN.eaf'
p477
sg18
I00
sba(i__main__
Movie
p478
(dp479
g3
Nsg4
S'Japonaiseries'
p480
sg6
S'//130.60.131.134/studi/Filme/frueher_Film/3229_Japonaiseries_1904/'
p481
sg8
(lp482
sg10
(lp483
I3229
aI1
aI1
asg12
S'frueher_Film/3229_Japonaiseries_1904/'
p484
sg14
I00
sg15
Nsg16
S'//130.60.131.134/studi/Filme/frueher_Film/3229_Japonaiseries_1904\\3229_1_1_Japonaiseries_1904_DVD_Elan.eaf'
p485
sg18
I00
sba(i__main__
Movie
p486
(dp487
g3
Nsg4
S'LaFeePrintemps'
p488
sg6
S'//130.60.131.134/studi/Filme/frueher_Film/3230_La_Fee_Printemps_1906/'
p489
sg8
(lp490
sg10
(lp491
I3230
aI1
aI1
asg12
S'frueher_Film/3230_La_Fee_Printemps_1906/'
p492
sg14
I00
sg15
Nsg16
S'//130.60.131.134/studi/Filme/frueher_Film/3230_La_Fee_Printemps_1906\\3230_1_1_LaFeePrintemps_1906_DVD_ELAN.eaf'
p493
sg18
I00
sba(i__main__
Movie
p494
(dp495
g3
Nsg4
S'LaSorciereNoire'
p496
sg6
S'//130.60.131.134/studi/Filme/frueher_Film/3241_La_Sorciere_Noire_1907/'
p497
sg8
(lp498
sg10
(lp499
I3241
aI1
aI1
asg12
S'frueher_Film/3241_La_Sorciere_Noire_1907/'
p500
sg14
I00
sg15
Nsg16
S'//130.60.131.134/studi/Filme/frueher_Film/3241_La_Sorciere_Noire_1907\\3241_1_1_LaSorciereNoire_1907_DVD_ELAN.eaf'
p501
sg18
I00
sba(i__main__
Movie
p502
(dp503
g3
Nsg4
S'LaBelleAuBoisDormant'
p504
sg6
S'//130.60.131.134/studi/Filme/frueher_Film/3248_La_Belle_Au_Bois_Dormant_1908/'
p505
sg8
(lp506
sg10
(lp507
I3248
aI1
aI1
asg12
S'frueher_Film/3248_La_Belle_Au_Bois_Dormant_1908/'
p508
sg14
I00
sg15
Nsg16
S'//130.60.131.134/studi/Filme/frueher_Film/3248_La_Belle_Au_Bois_Dormant_1908\\3248_1_1_LaBelleAuBoisDormant_1908_DVD_ELAN.eaf'
p509
sg18
I00
sba(i__main__
Movie
p510
(dp511
g3
Nsg4
S'ValseExcentrique'
p512
sg6
S'//130.60.131.134/studi/Filme/frueher_Film/3249_Valse_Excentrique_1903/'
p513
sg8
(lp514
sg10
(lp515
I3249
aI1
aI1
asg12
S'frueher_Film/3249_Valse_Excentrique_1903/'
p516
sg14
I00
sg15
Nsg16
S'//130.60.131.134/studi/Filme/frueher_Film/3249_Valse_Excentrique_1903\\3249_1_1_ValseExcentrique_1903_DVD_ELAN.eaf'
p517
sg18
I00
sba(i__main__
Movie
p518
(dp519
g3
Nsg4
S'Der'
p520
sg6
S'//130.60.131.134/studi/Filme/frueher_Film/3250_Der_Golem_oder_wie_er_in_die_Welt_kam_1920/'
p521
sg8
(lp522
sg10
(lp523
I3250
aI1
aI1
asg12
S'frueher_Film/3250_Der_Golem_oder_wie_er_in_die_Welt_kam_1920/'
p524
sg14
I00
sg15
Nsg16
S'//130.60.131.134/studi/Filme/frueher_Film/3250_Der_Golem_oder_wie_er_in_die_Welt_kam_1920\\3250_1_1_Der_GolemOderWieErInDieWeltKam_1920_DVD_ELAN.eaf'
p525
sg18
I00
sba(i__main__
Movie
p526
(dp527
g3
Nsg4
S'Inferno'
p528
sg6
S'//130.60.131.134/studi/Filme/frueher_Film/3370_LInferno_1911/'
p529
sg8
(lp530
sg10
(lp531
I3370
aI1
aI1
asg12
S'frueher_Film/3370_LInferno_1911/'
p532
sg14
I00
sg15
Nsg16
S'//130.60.131.134/studi/Filme/frueher_Film/3370_LInferno_1911\\3370_1_1_Inferno_1911_DVD_ELAN.eaf'
p533
sg18
I00
sba(i__main__
Movie
p534
(dp535
g3
Nsg4
S'BalletDesSylphides'
p536
sg6
S'//130.60.131.134/studi/Filme/frueher_Film/3380_Ballet_Des_Sylphides_1902/'
p537
sg8
(lp538
sg10
(lp539
I3380
aI1
aI1
asg12
S'frueher_Film/3380_Ballet_Des_Sylphides_1902/'
p540
sg14
I00
sg15
Nsg16
S'//130.60.131.134/studi/Filme/frueher_Film/3380_Ballet_Des_Sylphides_1902\\3380_1_1_BalletDesSylphides_1902_DVD_ELAN.eaf'
p541
sg18
I00
sba(i__main__
Movie
p542
(dp543
g3
Nsg4
S'TheWrathOfTheGods'
p544
sg6
S'//130.60.131.134/studi/Filme/frueher_Film/3381_The_Wrath_Of_The_Gods_1914/'
p545
sg8
(lp546
sg10
(lp547
I3381
aI1
aI1
asg12
S'frueher_Film/3381_The_Wrath_Of_The_Gods_1914/'
p548
sg14
I00
sg15
Nsg16
S'//130.60.131.134/studi/Filme/frueher_Film/3381_The_Wrath_Of_The_Gods_1914\\3381_1_1_TheWrathOfTheGods_1914_DVD_ELAN.eaf'
p549
sg18
I00
sba(i__main__
Movie
p550
(dp551
g3
Nsg4
S'TheDragonPainter'
p552
sg6
S'//130.60.131.134/studi/Filme/frueher_Film/3382_The_Dragon_Painter_1919/'
p553
sg8
(lp554
sg10
(lp555
I3382
aI1
aI1
asg12
S'frueher_Film/3382_The_Dragon_Painter_1919/'
p556
sg14
I00
sg15
Nsg16
S'//130.60.131.134/studi/Filme/frueher_Film/3382_The_Dragon_Painter_1919\\3382_1_1_TheDragonPainter_1919_DVD_ELAN.eaf'
p557
sg18
I00
sba(i__main__
Movie
p558
(dp559
g3
Nsg4
S'KiRiKiAcrobatesJaponais'
p560
sg6
S'//130.60.131.134/studi/Filme/frueher_Film/3385_KiRiKi_Acrobates_Japonais_1907/'
p561
sg8
(lp562
sg10
(lp563
I3385
aI1
aI1
asg12
S'frueher_Film/3385_KiRiKi_Acrobates_Japonais_1907/'
p564
sg14
I00
sg15
Nsg16
S'//130.60.131.134/studi/Filme/frueher_Film/3385_KiRiKi_Acrobates_Japonais_1907\\3385_1_1_KiRiKiAcrobatesJaponais_1907_DVD_ELAN.eaf'
p565
sg18
I00
sba(i__main__
Movie
p566
(dp567
g3
Nsg4
S'AmourDesclave'
p568
sg6
S'//130.60.131.134/studi/Filme/frueher_Film/3399_Amour_Desclave_1907/'
p569
sg8
(lp570
sg10
(lp571
I3399
aI1
aI1
asg12
S'frueher_Film/3399_Amour_Desclave_1907/'
p572
sg14
I00
sg15
Nsg16
S'//130.60.131.134/studi/Filme/frueher_Film/3399_Amour_Desclave_1907\\3399_1_1_AmourDesclave_1907_DVD_ELAN.eaf'
p573
sg18
I00
sba(i__main__
Movie
p574
(dp575
g3
Nsg4
S'TerjeVigen'
p576
sg6
S'//130.60.131.134/studi/Filme/frueher_Film/3401_Terje_Vigen_1917/'
p577
sg8
(lp578
sg10
(lp579
I3401
aI1
aI1
asg12
S'frueher_Film/3401_Terje_Vigen_1917/'
p580
sg14
I00
sg15
Nsg16
S'//130.60.131.134/studi/Filme/frueher_Film/3401_Terje_Vigen_1917\\3401_1_1_TerjeVigen_1917_DVD_ELAN.eaf'
p581
sg18
I00
sba(i__main__
Movie
p582
(dp583
g3
Nsg4
S'Fruits'
p584
sg6
S'//130.60.131.134/studi/Filme/frueher_Film/3403_Fruits_1912/'
p585
sg8
(lp586
sg10
(lp587
I3403
aI1
aI1
asg12
S'frueher_Film/3403_Fruits_1912/'
p588
sg14
I00
sg15
Nsg16
S'//130.60.131.134/studi/Filme/frueher_Film/3403_Fruits_1912\\3403_1_1_Fruits_1912_DVD_ELAN.eaf'
p589
sg18
I00
sba(i__main__
Movie
p590
(dp591
g3
Nsg4
S'FeuMathiasPascal'
p592
sg6
S'//130.60.131.134/studi/Filme/frueher_Film/3428_Feu_Mathias_Pascal_1924/'
p593
sg8
(lp594
S'//130.60.131.134/studi/Filme/frueher_Film/3428_Feu_Mathias_Pascal_1924\\3428_1_1_FeuMathiasPascal_1924_ELAN.txt'
p595
asg10
(lp596
I3428
aI1
aI1
asg12
S'frueher_Film/3428_Feu_Mathias_Pascal_1924/'
p597
sg14
I00
sg15
Nsg16
S'//130.60.131.134/studi/Filme/frueher_Film/3428_Feu_Mathias_Pascal_1924\\3428_1_1_FeuMathiasPascal_1924_ELAN.eaf'
p598
sg18
I00
sba(i__main__
Movie
p599
(dp600
g3
Nsg4
S'HerrAgnesPengar'
p601
sg6
S'//130.60.131.134/studi/Filme/frueher_Film/3449_Herr_Arnes_Pengar_1919/'
p602
sg8
(lp603
sg10
(lp604
I3449
aI1
aI1
asg12
S'frueher_Film/3449_Herr_Arnes_Pengar_1919/'
p605
sg14
I00
sg15
Nsg16
S'//130.60.131.134/studi/Filme/frueher_Film/3449_Herr_Arnes_Pengar_1919\\3449_1_1_HerrAgnesPengar_1919_DVD_ELAN.eaf'
p606
sg18
I00
sba(i__main__
Movie
p607
(dp608
g3
Nsg4
S'ZapatasBande'
p609
sg6
S'//130.60.131.134/studi/Filme/frueher_Film/3457_Zapatas_Bande_1914/'
p610
sg8
(lp611
sg10
(lp612
I3457
aI1
aI1
asg12
S'frueher_Film/3457_Zapatas_Bande_1914/'
p613
sg14
I00
sg15
Nsg16
S'//130.60.131.134/studi/Filme/frueher_Film/3457_Zapatas_Bande_1914\\3457_1_1_ZapatasBande_1914_DVD_ELAN.eaf'
p614
sg18
I00
sba(i__main__
Movie
p615
(dp616
g3
Nsg4
S'TheGeneral'
p617
sg6
S'//130.60.131.134/studi/Filme/frueher_Film/3462_The_General_1926/'
p618
sg8
(lp619
sg10
(lp620
I3462
aI1
aI1
asg12
S'frueher_Film/3462_The_General_1926/'
p621
sg14
I00
sg15
Nsg16
S'//130.60.131.134/studi/Filme/frueher_Film/3462_The_General_1926\\3462_1_1_TheGeneral_1926_DVD_ELAN.eaf'
p622
sg18
I00
sba(i__main__
Movie
p623
(dp624
g3
Nsg4
S'TheInformer'
p625
sg6
S'//130.60.131.134/studi/Filme/frueher_Film/3463_The_Informer_1929/'
p626
sg8
(lp627
sg10
(lp628
I3463
aI1
aI1
asg12
S'frueher_Film/3463_The_Informer_1929/'
p629
sg14
I00
sg15
Nsg16
S'//130.60.131.134/studi/Filme/frueher_Film/3463_The_Informer_1929\\3463_1_1_TheInformer_1929_DVD_ELAN.eaf'
p630
sg18
I00
sba(i__main__
Movie
p631
(dp632
g3
Nsg4
S'JeanneDArc'
p633
sg6
S'//130.60.131.134/studi/Filme/frueher_Film/3469_Jeanne_DArc_1900/'
p634
sg8
(lp635
sg10
(lp636
I3469
aI1
aI1
asg12
S'frueher_Film/3469_Jeanne_DArc_1900/'
p637
sg14
I00
sg15
Nsg16
S'//130.60.131.134/studi/Filme/frueher_Film/3469_Jeanne_DArc_1900\\3469_1_1_JeanneDArc_1900_DVD_ELAN.eaf'
p638
sg18
I00
sba(i__main__
Movie
p639
(dp640
g3
Nsg4
S'LeVoyageDeGulliverALilliputEtChezLesGeants'
p641
sg6
S'//130.60.131.134/studi/Filme/frueher_Film/3470_Le_Voyage_De_Gulliver_A_Lilliput_E_t_Chez_Les_Geants_1902/'
p642
sg8
(lp643
sg10
(lp644
I3470
aI1
aI1
asg12
S'frueher_Film/3470_Le_Voyage_De_Gulliver_A_Lilliput_E_t_Chez_Les_Geants_1902/'
p645
sg14
I00
sg15
Nsg16
S'//130.60.131.134/studi/Filme/frueher_Film/3470_Le_Voyage_De_Gulliver_A_Lilliput_E_t_Chez_Les_Geants_1902\\3470_1_1_LeVoyageDeGulliverALilliputEtChezLesGeants_1902_DVD_ELAN.eaf'
p646
sg18
I00
sba(i__main__
Movie
p647
(dp648
g3
Nsg4
S'Nerven'
p649
sg6
S'//130.60.131.134/studi/Filme/frueher_Film/350_Nerven_1919/'
p650
sg8
(lp651
sg10
(lp652
I350
aI1
aI1
asg12
S'frueher_Film/350_Nerven_1919/'
p653
sg14
I00
sg15
Nsg16
S'//130.60.131.134/studi/Filme/frueher_Film/350_Nerven_1919\\350_1_1_Nerven_1919_DVD_ELAN.eaf'
p654
sg18
I00
sba(i__main__
Movie
p655
(dp656
g3
Nsg4
S'TheLostWorld'
p657
sg6
S'//130.60.131.134/studi/Filme/frueher_Film/3556_The_Lost_World_1925/'
p658
sg8
(lp659
sg10
(lp660
I3556
aI1
aI1
asg12
S'frueher_Film/3556_The_Lost_World_1925/'
p661
sg14
I00
sg15
Nsg16
S'//130.60.131.134/studi/Filme/frueher_Film/3556_The_Lost_World_1925\\3556_1_1_TheLostWorld_1925_DVD_ELAN.eaf'
p662
sg18
I00
sba(i__main__
Movie
p663
(dp664
g3
Nsg4
S'TheTempest'
p665
sg6
S'//130.60.131.134/studi/Filme/frueher_Film/3564_The_Tempest_1908/'
p666
sg8
(lp667
sg10
(lp668
I3564
aI1
aI1
asg12
S'frueher_Film/3564_The_Tempest_1908/'
p669
sg14
I00
sg15
Nsg16
S'//130.60.131.134/studi/Filme/frueher_Film/3564_The_Tempest_1908\\3564_1_1_TheTempest_1908_ELAN.eaf'
p670
sg18
I00
sba(i__main__
Movie
p671
(dp672
g3
Nsg4
S'SozenjiBaba'
p673
sg6
S'//130.60.131.134/studi/Filme/frueher_Film/3566_Sozenji_Baba_1928/'
p674
sg8
(lp675
sg10
(lp676
I3566
aI1
aI1
asg12
S'frueher_Film/3566_Sozenji_Baba_1928/'
p677
sg14
I00
sg15
Nsg16
S'//130.60.131.134/studi/Filme/frueher_Film/3566_Sozenji_Baba_1928\\3566_1_1_SozenjiBaba_1928_DVD_ELAN.eaf'
p678
sg18
I00
sba(i__main__
Movie
p679
(dp680
g3
Nsg4
S'LePeintreNeoimpressioniste'
p681
sg6
S'//130.60.131.134/studi/Filme/frueher_Film/3567_Le_Peintre_Neoimpressioniste_1910/'
p682
sg8
(lp683
sg10
(lp684
I3567
aI1
aI1
asg12
S'frueher_Film/3567_Le_Peintre_Neoimpressioniste_1910/'
p685
sg14
I00
sg15
Nsg16
S'//130.60.131.134/studi/Filme/frueher_Film/3567_Le_Peintre_Neoimpressioniste_1910\\3567_1_1_LePeintreNeoimpressioniste_1910_DVD_ELAN.eaf'
p686
sg18
I00
sba(i__main__
Movie
p687
(dp688
g3
Nsg4
S'DanseursEspagnols'
p689
sg6
S'//130.60.131.134/studi/Filme/frueher_Film/3569_Danseurs_Espagnols_1898/'
p690
sg8
(lp691
sg10
(lp692
I3569
aI1
aI1
asg12
S'frueher_Film/3569_Danseurs_Espagnols_1898/'
p693
sg14
I00
sg15
Nsg16
S'//130.60.131.134/studi/Filme/frueher_Film/3569_Danseurs_Espagnols_1898\\3569_1_1_DanseursEspagnols_1898_DVD_ELAN.eaf'
p694
sg18
I00
sba(i__main__
Movie
p695
(dp696
g3
Nsg4
S'MetamorphoseDuPapillon'
p697
sg6
S'//130.60.131.134/studi/Filme/frueher_Film/362_Metamorphose_Du_Papillon_1904/'
p698
sg8
(lp699
sg10
(lp700
I362
aI1
aI1
asg12
S'frueher_Film/362_Metamorphose_Du_Papillon_1904/'
p701
sg14
I00
sg15
Nsg16
S'//130.60.131.134/studi/Filme/frueher_Film/362_Metamorphose_Du_Papillon_1904\\362_1_1_MetamorphoseDuPapillon_1904_DVD_ELAN.eaf'
p702
sg18
I00
sba(i__main__
Movie
p703
(dp704
g3
Nsg4
S'CyranoDeBergerac'
p705
sg6
S'//130.60.131.134/studi/Filme/frueher_Film/364_Cyrano_De_Bergerac_1923/'
p706
sg8
(lp707
sg10
(lp708
I364
aI1
aI1
asg12
S'frueher_Film/364_Cyrano_De_Bergerac_1923/'
p709
sg14
I00
sg15
Nsg16
S'//130.60.131.134/studi/Filme/frueher_Film/364_Cyrano_De_Bergerac_1923\\364_1_1_CyranoDeBergerac_1923_DVD_ELAN.eaf'
p710
sg18
I00
sba(i__main__
Movie
p711
(dp712
g3
Nsg4
S'LePalaisDesMilleEtUneNuits'
p713
sg6
S'//130.60.131.134/studi/Filme/frueher_Film/37_Le_Palais_Des_Mille_Et_Une_Nuits_1905/'
p714
sg8
(lp715
sg10
(lp716
I37
aI1
aI1
asg12
S'frueher_Film/37_Le_Palais_Des_Mille_Et_Une_Nuits_1905/'
p717
sg14
I00
sg15
Nsg16
S'//130.60.131.134/studi/Filme/frueher_Film/37_Le_Palais_Des_Mille_Et_Une_Nuits_1905\\37_1_1_LePalaisDesMilleEtUneNuits_1905_DVD_ELAN.eaf'
p718
sg18
I00
sba(i__main__
Movie
p719
(dp720
g3
Nsg4
S'Redskin'
p721
sg6
S'//130.60.131.134/studi/Filme/frueher_Film/39_Redskin_1929/'
p722
sg8
(lp723
sg10
(lp724
I39
aI1
aI2
asg12
S'frueher_Film/39_Redskin_1929/'
p725
sg14
I00
sg15
Nsg16
S'//130.60.131.134/studi/Filme/frueher_Film/39_Redskin_1929\\39_1_2_Redskin_1929_DVD_ELAN.eaf'
p726
sg18
I00
sba(i__main__
Movie
p727
(dp728
g3
Nsg4
S'Maerchenwald'
p729
sg6
S'//130.60.131.134/studi/Filme/frueher_Film/409_Maerchenwald_1919/'
p730
sg8
(lp731
S'//130.60.131.134/studi/Filme/frueher_Film/409_Maerchenwald_1919\\409_1_2_Maerchenwald_1919_ELAN_BF.txt'
p732
asg10
(lp733
I409
aI1
aI2
asg12
S'frueher_Film/409_Maerchenwald_1919/'
p734
sg14
I00
sg15
Nsg16
S'//130.60.131.134/studi/Filme/frueher_Film/409_Maerchenwald_1919\\409_1_2_Maerchenwald_1919_ELAN_BF.eaf'
p735
sg18
I00
sba(i__main__
Movie
p736
(dp737
g3
Nsg4
S'TheEpicOfEverest'
p738
sg6
S'//130.60.131.134/studi/Filme/frueher_Film/411_The_Epic_of_Everest_1924/'
p739
sg8
(lp740
sg10
(lp741
I411
aI1
aI1
asg12
S'frueher_Film/411_The_Epic_of_Everest_1924/'
p742
sg14
I00
sg15
Nsg16
S'//130.60.131.134/studi/Filme/frueher_Film/411_The_Epic_of_Everest_1924\\411_1_1_TheEpicOfEverest_1924_DVD_Elan.eaf'
p743
sg18
I00
sba(i__main__
Movie
p744
(dp745
g3
Nsg4
S'TheGreatWhiteSilence'
p746
sg6
S'//130.60.131.134/studi/Filme/frueher_Film/412_The_Great_White_Silence_1924/'
p747
sg8
(lp748
sg10
(lp749
I412
aI1
aI1
asg12
S'frueher_Film/412_The_Great_White_Silence_1924/'
p750
sg14
I00
sg15
Nsg16
S'//130.60.131.134/studi/Filme/frueher_Film/412_The_Great_White_Silence_1924\\412_1_1_TheGreatWhiteSilence_1924_DVD_Elan.eaf'
p751
sg18
I00
sba(i__main__
Movie
p752
(dp753
g3
Nsg4
S'TheRedLantern'
p754
sg6
S'//130.60.131.134/studi/Filme/frueher_Film/47_The_Red_Lantern_1919/'
p755
sg8
(lp756
sg10
(lp757
I47
aI1
aI1
asg12
S'frueher_Film/47_The_Red_Lantern_1919/'
p758
sg14
I00
sg15
Nsg16
S'//130.60.131.134/studi/Filme/frueher_Film/47_The_Red_Lantern_1919\\47_1_1_TheRedLantern_1919_DVD_ELAN.eaf'
p759
sg18
I00
sba(i__main__
Movie
p760
(dp761
g3
Nsg4
S'TheTollOfTheSea'
p762
sg6
S'//130.60.131.134/studi/Filme/frueher_Film/51_The_Toll_of_the_Sea_1922/'
p763
sg8
(lp764
sg10
(lp765
I51
aI1
aI1
asg12
S'frueher_Film/51_The_Toll_of_the_Sea_1922/'
p766
sg14
I00
sg15
Nsg16
S'//130.60.131.134/studi/Filme/frueher_Film/51_The_Toll_of_the_Sea_1922\\51_1_1_TheTollOfTheSea_1922_DVD_ELAN.eaf'
p767
sg18
I00
sba(i__main__
Movie
p768
(dp769
g3
Nsg4
S'ThePhantomoftheOpera'
p770
sg6
S'//130.60.131.134/studi/Filme/frueher_Film/52_The_Phantom_of_the_Opera_1925/'
p771
sg8
(lp772
sg10
(lp773
I52
aI1
aI1
asg12
S'frueher_Film/52_The_Phantom_of_the_Opera_1925/'
p774
sg14
I00
sg15
Nsg16
S'//130.60.131.134/studi/Filme/frueher_Film/52_The_Phantom_of_the_Opera_1925\\52_1_1_ThePhantomoftheOpera_1925_DVD_Elan.eaf'
p775
sg18
I00
sba(i__main__
Movie
p776
(dp777
g3
Nsg4
S'TheBlackPirate'
p778
sg6
S'//130.60.131.134/studi/Filme/frueher_Film/53_The_Black_Pirate_1926/'
p779
sg8
(lp780
sg10
(lp781
I53
aI1
aI1
asg12
S'frueher_Film/53_The_Black_Pirate_1926/'
p782
sg14
I00
sg15
Nsg16
S'//130.60.131.134/studi/Filme/frueher_Film/53_The_Black_Pirate_1926\\53_1_1_TheBlackPirate_1926_DVD_Elan.eaf'
p783
sg18
I00
sba(i__main__
Movie
p784
(dp785
g3
Nsg4
S'Whoopee'
p786
sg6
S'//130.60.131.134/studi/Filme/frueher_Film/574_Whoopee_1930/'
p787
sg8
(lp788
sg10
(lp789
I574
aI1
aI1
asg12
S'frueher_Film/574_Whoopee_1930/'
p790
sg14
I00
sg15
Nsg16
S'//130.60.131.134/studi/Filme/frueher_Film/574_Whoopee_1930\\574_1_1_Whoopee_1930_ELAN.eaf'
p791
sg18
I00
sba(i__main__
Movie
p792
(dp793
g3
Nsg4
S'Die'
p794
sg6
S'//130.60.131.134/studi/Filme/frueher_Film/576_Die_Freudlose_Gasse_1925/'
p795
sg8
(lp796
sg10
(lp797
I576
aI1
aI1
asg12
S'frueher_Film/576_Die_Freudlose_Gasse_1925/'
p798
sg14
I00
sg15
Nsg16
S'//130.60.131.134/studi/Filme/frueher_Film/576_Die_Freudlose_Gasse_1925\\576_1_1_Die_Freudlose_Gasse_1925_ELAN.eaf'
p799
sg18
I00
sba(i__main__
Movie
p800
(dp801
g3
Nsg4
S'TheThiefOfBagdad'
p802
sg6
S'//130.60.131.134/studi/Filme/frueher_Film/613_The_Thief_Of_Bagdad_1924/'
p803
sg8
(lp804
sg10
(lp805
I613
aI1
aI1
asg12
S'frueher_Film/613_The_Thief_Of_Bagdad_1924/'
p806
sg14
I00
sg15
Nsg16
S'//130.60.131.134/studi/Filme/frueher_Film/613_The_Thief_Of_Bagdad_1924\\613_1_1_TheThiefOfBagdad_1924_DVD_ELAN.eaf'
p807
sg18
I00
sba(i__main__
Movie
p808
(dp809
g3
Nsg4
S'Erotikon'
p810
sg6
S'//130.60.131.134/studi/Filme/frueher_Film/614_Erotikon_1920/'
p811
sg8
(lp812
sg10
(lp813
I614
aI1
aI1
asg12
S'frueher_Film/614_Erotikon_1920/'
p814
sg14
I00
sg15
Nsg16
S'//130.60.131.134/studi/Filme/frueher_Film/614_Erotikon_1920\\614_1_1_Erotikon_1920_DVD_ELAN.eaf'
p815
sg18
I00
sba(i__main__
Movie
p816
(dp817
g3
Nsg4
S'BehindTheDoor'
p818
sg6
S'//130.60.131.134/studi/Filme/frueher_Film/616_Behind_The_Door_1919/'
p819
sg8
(lp820
sg10
(lp821
I616
aI1
aI1
asg12
S'frueher_Film/616_Behind_The_Door_1919/'
p822
sg14
I00
sg15
Nsg16
S'//130.60.131.134/studi/Filme/frueher_Film/616_Behind_The_Door_1919\\616_1_1_BehindTheDoor_1919_DVD_ELAN.eaf'
p823
sg18
I00
sba(i__main__
Movie
p824
(dp825
g3
Nsg4
S'LaDanseDuDiable'
p826
sg6
S'//130.60.131.134/studi/Filme/frueher_Film/640_La_Danse_Du_Diable_1904/'
p827
sg8
(lp828
sg10
(lp829
I640
aI1
aI1
asg12
S'frueher_Film/640_La_Danse_Du_Diable_1904/'
p830
sg14
I00
sg15
Nsg16
S'//130.60.131.134/studi/Filme/frueher_Film/640_La_Danse_Du_Diable_1904\\640_1_1_LaDanseDuDiable_1904_DVD_Elan.eaf'
p831
sg18
I00
sba(i__main__
Movie
p832
(dp833
g3
Nsg4
S'LaFeeAuxFleurs'
p834
sg6
S'//130.60.131.134/studi/Filme/frueher_Film/641_La_Fee_Aux_Fleurs_1905/'
p835
sg8
(lp836
sg10
(lp837
I641
aI1
aI4
asg12
S'frueher_Film/641_La_Fee_Aux_Fleurs_1905/'
p838
sg14
I00
sg15
Nsg16
S'//130.60.131.134/studi/Filme/frueher_Film/641_La_Fee_Aux_Fleurs_1905\\641_1_4_LaFeeAuxFleurs_1905_DVD_ELAN.eaf'
p839
sg18
I00
sba(i__main__
Movie
p840
(dp841
g3
Nsg4
S'LePiedDeMouton'
p842
sg6
S'//130.60.131.134/studi/Filme/frueher_Film/642_Le_Pied_De_Mouton_1907/'
p843
sg8
(lp844
sg10
(lp845
I642
aI1
aI1
asg12
S'frueher_Film/642_Le_Pied_De_Mouton_1907/'
p846
sg14
I00
sg15
Nsg16
S'//130.60.131.134/studi/Filme/frueher_Film/642_Le_Pied_De_Mouton_1907\\642_1_1_LePiedDeMouton_1907_DVD_ELAN.eaf'
p847
sg18
I00
sba(i__main__
Movie
p848
(dp849
g3
Nsg4
S'AssuntaSpina'
p850
sg6
S'//130.60.131.134/studi/Filme/frueher_Film/699_Assunta_Spina_1915/'
p851
sg8
(lp852
sg10
(lp853
I699
aI1
aI1
asg12
S'frueher_Film/699_Assunta_Spina_1915/'
p854
sg14
I00
sg15
Nsg16
S'//130.60.131.134/studi/Filme/frueher_Film/699_Assunta_Spina_1915\\699_1_1_AssuntaSpina_1915_DVD_ELAN.eaf'
p855
sg18
I00
sba(i__main__
Movie
p856
(dp857
g3
Nsg4
S'RobinHood'
p858
sg6
S'//130.60.131.134/studi/Filme/frueher_Film/751_Robin_Hood_1922/'
p859
sg8
(lp860
sg10
(lp861
I751
aI1
aI1
asg12
S'frueher_Film/751_Robin_Hood_1922/'
p862
sg14
I00
sg15
Nsg16
S'//130.60.131.134/studi/Filme/frueher_Film/751_Robin_Hood_1922\\751_1_1_RobinHood_1922_DVD_Elan.eaf'
p863
sg18
I00
sba(i__main__
Movie
p864
(dp865
g3
Nsg4
S'TheGoldenBeetle'
p866
sg6
S'//130.60.131.134/studi/Filme/frueher_Film/779_The_Golden_Beetle_1907/'
p867
sg8
(lp868
sg10
(lp869
I779
aI1
aI1
asg12
S'frueher_Film/779_The_Golden_Beetle_1907/'
p870
sg14
I00
sg15
Nsg16
S'//130.60.131.134/studi/Filme/frueher_Film/779_The_Golden_Beetle_1907\\779_1_1_TheGoldenBeetle_1907_DVD_Elan.eaf'
p871
sg18
I00
sba(i__main__
Movie
p872
(dp873
g3
Nsg4
S'TheGreatTrainRobbery'
p874
sg6
S'//130.60.131.134/studi/Filme/frueher_Film/788_The_Great_Train_Robbery_1903/'
p875
sg8
(lp876
sg10
(lp877
I788
aI1
aI1
asg12
S'frueher_Film/788_The_Great_Train_Robbery_1903/'
p878
sg14
I00
sg15
Nsg16
S'//130.60.131.134/studi/Filme/frueher_Film/788_The_Great_Train_Robbery_1903\\788_1_1_TheGreatTrainRobbery_1903_DVD_Elan.eaf'
p879
sg18
I00
sba(i__main__
Movie
p880
(dp881
g3
Nsg4
S'ElNegro'
p882
sg6
S'//130.60.131.134/studi/Filme/frueher_Film/830_El_Negro_Que_Tenia_El_Alma_Blanca_1927/'
p883
sg8
(lp884
sg10
(lp885
I830
aI1
aI1
asg12
S'frueher_Film/830_El_Negro_Que_Tenia_El_Alma_Blanca_1927/'
p886
sg14
I00
sg15
Nsg16
S'//130.60.131.134/studi/Filme/frueher_Film/830_El_Negro_Que_Tenia_El_Alma_Blanca_1927\\830_1_1_ElNegro_1927_DVD_ELAN.eaf'
p887
sg18
I00
sba(i__main__
Movie
p888
(dp889
g3
Nsg4
S'Intolerance'
p890
sg6
S'//130.60.131.134/studi/Filme/frueher_Film/832_Intolerance_1916/'
p891
sg8
(lp892
sg10
(lp893
I832
aI1
aI1
asg12
S'frueher_Film/832_Intolerance_1916/'
p894
sg14
I00
sg15
Nsg16
S'//130.60.131.134/studi/Filme/frueher_Film/832_Intolerance_1916\\832_1_1_Intolerance_1916_DVD_Elan.eaf'
p895
sg18
I00
sba(i__main__
Movie
p896
(dp897
g3
Nsg4
S'AliceInWonderland'
p898
sg6
S'//130.60.131.134/studi/Filme/frueher_Film/851_Alice_In_Wonderland_1915/'
p899
sg8
(lp900
sg10
(lp901
I851
aI1
aI1
asg12
S'frueher_Film/851_Alice_In_Wonderland_1915/'
p902
sg14
I00
sg15
Nsg16
S'//130.60.131.134/studi/Filme/frueher_Film/851_Alice_In_Wonderland_1915\\851_1_1_AliceInWonderland_1915_DVD_ELAN.eaf'
p903
sg18
I00
sba(i__main__
Movie
p904
(dp905
g3
Nsg4
S'DieNibelungen'
p906
sg6
S'//130.60.131.134/studi/Filme/frueher_Film/854_Die_Nibelungen_1924/854_1_1_DieNibelungen_1924_DVD/'
p907
sg8
(lp908
sg10
(lp909
I854
aI1
aI1
asg12
S'frueher_Film/854_Die_Nibelungen_1924/854_1_1_DieNibelungen_1924_DVD/'
p910
sg14
I00
sg15
Nsg16
S'//130.60.131.134/studi/Filme/frueher_Film/854_Die_Nibelungen_1924/854_1_1_DieNibelungen_1924_DVD\\854_1_1_DieNibelungen_1924_DVD_ELAN.eaf'
p911
sg18
I00
sba(i__main__
Movie
p912
(dp913
g3
Nsg4
S'DieNibelungen'
p914
sg6
S'//130.60.131.134/studi/Filme/frueher_Film/854_Die_Nibelungen_1924/854_2_1_DieNibelungen_1924_DVD/'
p915
sg8
(lp916
sg10
(lp917
I854
aI2
aI1
asg12
S'frueher_Film/854_Die_Nibelungen_1924/854_2_1_DieNibelungen_1924_DVD/'
p918
sg14
I00
sg15
Nsg16
S'//130.60.131.134/studi/Filme/frueher_Film/854_Die_Nibelungen_1924/854_2_1_DieNibelungen_1924_DVD\\854_2_1_DieNibelungen_1924_DVD_ELAN.eaf'
p919
sg18
I00
sba(i__main__
Movie
p920
(dp921
g3
Nsg4
S'Ildfluen'
p922
sg6
S'//130.60.131.134/studi/Filme/frueher_Film/855_Ildfluen_1913/'
p923
sg8
(lp924
sg10
(lp925
I855
aI1
aI1
asg12
S'frueher_Film/855_Ildfluen_1913/'
p926
sg14
I00
sg15
Nsg16
S'//130.60.131.134/studi/Filme/frueher_Film/855_Ildfluen_1913\\855_1_1_Ildfluen_1913_ELAN.eaf'
p927
sg18
I00
sba(i__main__
Movie
p928
(dp929
g3
Nsg4
S'Napoleon'
p930
sg6
S'//130.60.131.134/studi/Filme/frueher_Film/860_Napoleon_1927/860_1_1_Napoleon_1927/'
p931
sg8
(lp932
sg10
(lp933
I860
aI1
aI1
asg12
S'frueher_Film/860_Napoleon_1927/860_1_1_Napoleon_1927/'
p934
sg14
I00
sg15
Nsg16
S'//130.60.131.134/studi/Filme/frueher_Film/860_Napoleon_1927/860_1_1_Napoleon_1927\\860_1_1_Napoleon_1927_Disc1_ELAN.eaf'
p935
sg18
I00
sba(i__main__
Movie
p936
(dp937
g3
Nsg4
S'Napoleon'
p938
sg6
S'//130.60.131.134/studi/Filme/frueher_Film/860_Napoleon_1927/860_1_2_Napoleon_1927/'
p939
sg8
(lp940
sg10
(lp941
I860
aI1
aI2
asg12
S'frueher_Film/860_Napoleon_1927/860_1_2_Napoleon_1927/'
p942
sg14
I00
sg15
Nsg16
S'//130.60.131.134/studi/Filme/frueher_Film/860_Napoleon_1927/860_1_2_Napoleon_1927\\860_1_2_Napoleon_1927_Disc2_ELAN.eaf'
p943
sg18
I00
sba(i__main__
Movie
p944
(dp945
g3
Nsg4
S'Napoleon'
p946
sg6
S'//130.60.131.134/studi/Filme/frueher_Film/860_Napoleon_1927/860_1_3_Napoleon_1927/'
p947
sg8
(lp948
sg10
(lp949
I860
aI1
aI3
asg12
S'frueher_Film/860_Napoleon_1927/860_1_3_Napoleon_1927/'
p950
sg14
I00
sg15
Nsg16
S'//130.60.131.134/studi/Filme/frueher_Film/860_Napoleon_1927/860_1_3_Napoleon_1927\\860_1_3_Napoleon_1927_Disc3_ELAN.eaf'
p951
sg18
I00
sba(i__main__
Movie
p952
(dp953
g3
Nsg4
S'Napoleon'
p954
sg6
S'//130.60.131.134/studi/Filme/frueher_Film/860_Napoleon_1927/860_1_4_Napoleon_1927/'
p955
sg8
(lp956
sg10
(lp957
I860
aI1
aI4
asg12
S'frueher_Film/860_Napoleon_1927/860_1_4_Napoleon_1927/'
p958
sg14
I00
sg15
Nsg16
S'//130.60.131.134/studi/Filme/frueher_Film/860_Napoleon_1927/860_1_4_Napoleon_1927\\860_1_4_Napoleon_1927_Disc4_ELAN.eaf'
p959
sg18
I00
sba(i__main__
Movie
p960
(dp961
g3
Nsg4
S'LeFaune'
p962
sg6
S'//130.60.131.134/studi/Filme/frueher_Film/863_Le_Faune_1908/'
p963
sg8
(lp964
sg10
(lp965
I863
aI1
aI1
asg12
S'frueher_Film/863_Le_Faune_1908/'
p966
sg14
I00
sg15
Nsg16
S'//130.60.131.134/studi/Filme/frueher_Film/863_Le_Faune_1908\\863_1_1_LeFaune_1908_DVD_Elan.eaf'
p967
sg18
I00
sba(i__main__
Movie
p968
(dp969
g3
Nsg4
S'TheOpenRoad'
p970
sg6
S'//130.60.131.134/studi/Filme/frueher_Film/878_The_Open_Road_1925/'
p971
sg8
(lp972
sg10
(lp973
I878
aI1
aI1
asg12
S'frueher_Film/878_The_Open_Road_1925/'
p974
sg14
I00
sg15
Nsg16
S'//130.60.131.134/studi/Filme/frueher_Film/878_The_Open_Road_1925\\878_1_1_TheOpenRoad_1925_DVD_ELAN.eaf'
p975
sg18
I00
sba(i__main__
Movie
p976
(dp977
g3
Nsg4
S'YolandaAndTheThief'
p978
sg6
S'//130.60.131.134/studi/Filme/mittlere_Filme/1038_Yolanda_and_the_Thief_1945/'
p979
sg8
(lp980
S'//130.60.131.134/studi/Filme/mittlere_Filme/1038_Yolanda_and_the_Thief_1945\\1038_1_1_YolandaAndTheThief_1945_DVD_ELAN.txt'
p981
asg10
(lp982
I1038
aI1
aI1
asg12
S'mittlere_Filme/1038_Yolanda_and_the_Thief_1945/'
p983
sg14
I00
sg15
Nsg16
S'//130.60.131.134/studi/Filme/mittlere_Filme/1038_Yolanda_and_the_Thief_1945\\1038_1_1_YolandaAndTheThief_1945_DVD_ELAN.eaf'
p984
sg18
I00
sba(i__main__
Movie
p985
(dp986
g3
Nsg4
S'BlancheFury'
p987
sg6
S'//130.60.131.134/studi/Filme/mittlere_Filme/105_Blanche_Fury_1948/'
p988
sg8
(lp989
sg10
(lp990
I105
aI1
aI1
asg12
S'mittlere_Filme/105_Blanche_Fury_1948/'
p991
sg14
I00
sg15
Nsg16
S'//130.60.131.134/studi/Filme/mittlere_Filme/105_Blanche_Fury_1948\\105_1_1_BlancheFury_1948_DVD_ELAN.eaf'
p992
sg18
I00
sba(i__main__
Movie
p993
(dp994
g3
Nsg4
S'LeaveHerToHeaven'
p995
sg6
S'//130.60.131.134/studi/Filme/mittlere_Filme/107_Leave_Her_to_Heaven_1945/'
p996
sg8
(lp997
sg10
(lp998
I107
aI1
aI1
asg12
S'mittlere_Filme/107_Leave_Her_to_Heaven_1945/'
p999
sg14
I00
sg15
Nsg16
S'//130.60.131.134/studi/Filme/mittlere_Filme/107_Leave_Her_to_Heaven_1945\\107_1_1_LeaveHerToHeaven_1945_DVD_ELAN_BF.eaf'
p1000
sg18
I00
sba(i__main__
Movie
p1001
(dp1002
g3
Nsg4
S'NightAndDay'
p1003
sg6
S'//130.60.131.134/studi/Filme/mittlere_Filme/1110_Night_and_Day_1946/'
p1004
sg8
(lp1005
sg10
(lp1006
I1110
aI1
aI1
asg12
S'mittlere_Filme/1110_Night_and_Day_1946/'
p1007
sg14
I00
sg15
Nsg16
S'//130.60.131.134/studi/Filme/mittlere_Filme/1110_Night_and_Day_1946\\1110_1_1_NightAndDay_1946_DVD_ELAN.eaf'
p1008
sg18
I00
sba(i__main__
Movie
p1009
(dp1010
g3
Nsg4
S'ImmerBereit'
p1011
sg6
S'//130.60.131.134/studi/Filme/mittlere_Filme/1169_Immer_bereit_1950/'
p1012
sg8
(lp1013
S'//130.60.131.134/studi/Filme/mittlere_Filme/1169_Immer_bereit_1950\\1169_1_1_ImmerBereit_1950_DVD_ELAN.txt'
p1014
asg10
(lp1015
I1169
aI1
aI1
asg12
S'mittlere_Filme/1169_Immer_bereit_1950/'
p1016
sg14
I00
sg15
Nsg16
S'//130.60.131.134/studi/Filme/mittlere_Filme/1169_Immer_bereit_1950\\1169_1_1_ImmerBereit_1950_DVD_ELAN.eaf'
p1017
sg18
I00
sba(i__main__
Movie
p1018
(dp1019
g3
Nsg4
S'TeethOfSteel'
p1020
sg6
S'//130.60.131.134/studi/Filme/mittlere_Filme/1213_Teeth_of_Steel_1942/'
p1021
sg8
(lp1022
S'//130.60.131.134/studi/Filme/mittlere_Filme/1213_Teeth_of_Steel_1942\\1213_1_1_TeethOfSteel_1942_DVD_ELAN.txt'
p1023
asg10
(lp1024
I1213
aI1
aI1
asg12
S'mittlere_Filme/1213_Teeth_of_Steel_1942/'
p1025
sg14
I00
sg15
Nsg16
S'//130.60.131.134/studi/Filme/mittlere_Filme/1213_Teeth_of_Steel_1942\\1213_1_1_TeethOfSteel_1942_DVD_ELAN.eaf'
p1026
sg18
I00
sba(i__main__
Movie
p1027
(dp1028
g3
Nsg4
S'TheThiefOfBagdad'
p1029
sg6
S'//130.60.131.134/studi/Filme/mittlere_Filme/122_The_Thief_of_Bagdad_1940/'
p1030
sg8
(lp1031
S'//130.60.131.134/studi/Filme/mittlere_Filme/122_The_Thief_of_Bagdad_1940\\122_1_1_TheThiefOfBagdad_1940_DVD_ELAN.txt'
p1032
asg10
(lp1033
I122
aI1
aI1
asg12
S'mittlere_Filme/122_The_Thief_of_Bagdad_1940/'
p1034
sg14
I00
sg15
Nsg16
S'//130.60.131.134/studi/Filme/mittlere_Filme/122_The_Thief_of_Bagdad_1940\\122_1_1_ELAN_Projektdatei\\122_1_1_TheThiefOfBagdad_1940_DVD_ELAN.eaf'
p1035
sg18
I00
sba(i__main__
Movie
p1036
(dp1037
g3
Nsg4
S'TheCoronationOfTheirMajestiesKingGeorgeVIAndQueenElizabeth'
p1038
sg6
S'//130.60.131.134/studi/Filme/mittlere_Filme/1230_The_Coronation_of_Their_Majesties_King_George_VI_and_Queen_Elizabeth_1937/'
p1039
sg8
(lp1040
S'//130.60.131.134/studi/Filme/mittlere_Filme/1230_The_Coronation_of_Their_Majesties_King_George_VI_and_Queen_Elizabeth_1937\\1230_1_1_TheCoronationOfTheirMajestiesKingGeorgeVIAndQueenElizabeth_1937_DVD_ELAN.txt'
p1041
asg10
(lp1042
I1230
aI1
aI1
asg12
S'mittlere_Filme/1230_The_Coronation_of_Their_Majesties_King_George_VI_and_Queen_Elizabeth_1937/'
p1043
sg14
I00
sg15
Nsg16
S'//130.60.131.134/studi/Filme/mittlere_Filme/1230_The_Coronation_of_Their_Majesties_King_George_VI_and_Queen_Elizabeth_1937\\1230_1_1_TheCoronationOfTheirMajestiesKingGeorgeVIAndQueenElizabeth_1937_DVD_ELAN.eaf'
p1044
sg18
I00
sba(i__main__
Movie
p1045
(dp1046
g3
Nsg4
S'TheRiver'
p1047
sg6
S'//130.60.131.134/studi/Filme/mittlere_Filme/1278_The_River_1951/'
p1048
sg8
(lp1049
S'//130.60.131.134/studi/Filme/mittlere_Filme/1278_The_River_1951\\1278_1_1_TheRiver_1951_DVD_ELAN.txt'
p1050
asg10
(lp1051
I1278
aI1
aI1
asg12
S'mittlere_Filme/1278_The_River_1951/'
p1052
sg14
I00
sg15
Nsg16
S'//130.60.131.134/studi/Filme/mittlere_Filme/1278_The_River_1951\\1278_1_1_TheRiver_1951_DVD_ELAN.eaf'
p1053
sg18
I00
sba(i__main__
Movie
p1054
(dp1055
g3
Nsg4
S'TheFourFeathers'
p1056
sg6
S'//130.60.131.134/studi/Filme/mittlere_Filme/127_The_Four_Feathers_1939/'
p1057
sg8
(lp1058
sg10
(lp1059
I127
aI1
aI1
asg12
S'mittlere_Filme/127_The_Four_Feathers_1939/'
p1060
sg14
I00
sg15
Nsg16
S'//130.60.131.134/studi/Filme/mittlere_Filme/127_The_Four_Feathers_1939\\127_1_1_TheFourFeathers_1939_DVD_ELAN.eaf'
p1061
sg18
I00
sba(i__main__
Movie
p1062
(dp1063
g3
Nsg4
S'WingsOfTheMorning'
p1064
sg6
S'//130.60.131.134/studi/Filme/mittlere_Filme/13_Wings_of_the_Morning_1937/'
p1065
sg8
(lp1066
S'//130.60.131.134/studi/Filme/mittlere_Filme/13_Wings_of_the_Morning_1937\\13_1_2_WingsOfTheMorning_1937_DVD_ELAN.txt'
p1067
asg10
(lp1068
I13
aI1
aI2
asg12
S'mittlere_Filme/13_Wings_of_the_Morning_1937/'
p1069
sg14
I00
sg15
Nsg16
S'//130.60.131.134/studi/Filme/mittlere_Filme/13_Wings_of_the_Morning_1937\\13_1_2_WingsOfTheMorning_1937_DVD_ELAN.eaf'
p1070
sg18
I00
sba(i__main__
Movie
p1071
(dp1072
g3
Nsg4
S'TheWaroftheWorlds'
p1073
sg6
S'//130.60.131.134/studi/Filme/mittlere_Filme/143_The_War_of_the_Worlds_1953/'
p1074
sg8
(lp1075
sg10
(lp1076
I143
aI1
aI1
asg12
S'mittlere_Filme/143_The_War_of_the_Worlds_1953/'
p1077
sg14
I00
sg15
Nsg16
S'//130.60.131.134/studi/Filme/mittlere_Filme/143_The_War_of_the_Worlds_1953\\143_1_1_TheWaroftheWorlds_1953_DVD_ELAN.eaf'
p1078
sg18
I00
sba(i__main__
Movie
p1079
(dp1080
g3
Nsg4
S'Brigadoon'
p1081
sg6
S'//130.60.131.134/studi/Filme/mittlere_Filme/1475_Brigadoon_1954/'
p1082
sg8
(lp1083
S'//130.60.131.134/studi/Filme/mittlere_Filme/1475_Brigadoon_1954\\1475_1_1_Brigadoon_1954_DVD_ELAN.txt'
p1084
asg10
(lp1085
I1475
aI1
aI1
asg12
S'mittlere_Filme/1475_Brigadoon_1954/'
p1086
sg14
I00
sg15
Nsg16
S'//130.60.131.134/studi/Filme/mittlere_Filme/1475_Brigadoon_1954\\1475_1_1_Brigadoon_1954_DVD_ELAN.eaf'
p1087
sg18
I00
sba(i__main__
Movie
p1088
(dp1089
g3
Nsg4
S'RiverOfNoReturn'
p1090
sg6
S'//130.60.131.134/studi/Filme/mittlere_Filme/1713_Maske_in_Blau_1953/'
p1091
sg8
(lp1092
S'//130.60.131.134/studi/Filme/mittlere_Filme/1713_Maske_in_Blau_1953\\3372_1_1_RiverOfNoReturn_1954_DVD_ELAN.txt'
p1093
asg10
(lp1094
I3372
aI1
aI1
asg12
S'mittlere_Filme/1713_Maske_in_Blau_1953/'
p1095
sg14
I00
sg15
Nsg16
S'//130.60.131.134/studi/Filme/mittlere_Filme/1713_Maske_in_Blau_1953\\3372_1_1_RiverOfNoReturn_1954_DVD_ELAN.eaf'
p1096
sg18
I00
sba(i__main__
Movie
p1097
(dp1098
g3
Nsg4
S'FrauenSindDochBessereDiplomaten'
p1099
sg6
S'//130.60.131.134/studi/Filme/mittlere_Filme/177_Frauen_sind_doch_bessere_Diplomaten_1941/'
p1100
sg8
(lp1101
S'//130.60.131.134/studi/Filme/mittlere_Filme/177_Frauen_sind_doch_bessere_Diplomaten_1941\\177_1_1_FrauenSindDochBessereDiplomaten_1941_DVD_ELAN.txt'
p1102
asg10
(lp1103
I177
aI1
aI1
asg12
S'mittlere_Filme/177_Frauen_sind_doch_bessere_Diplomaten_1941/'
p1104
sg14
I00
sg15
Nsg16
S'//130.60.131.134/studi/Filme/mittlere_Filme/177_Frauen_sind_doch_bessere_Diplomaten_1941\\ELAN_Projektdatei\\177_1_1_FrauenSindDochBessereDiplomaten_1941_DVD_ELAN.eaf'
p1105
sg18
I00
sba(i__main__
Movie
p1106
(dp1107
g3
Nsg4
S'TheRedShoes'
p1108
sg6
S'//130.60.131.134/studi/Filme/mittlere_Filme/180_The_Red_Shoes_1948/'
p1109
sg8
(lp1110
S'//130.60.131.134/studi/Filme/mittlere_Filme/180_The_Red_Shoes_1948\\180_1_1_TheRedShoes_1948_DVD_ELAN.txt'
p1111
asg10
(lp1112
I180
aI1
aI1
asg12
S'mittlere_Filme/180_The_Red_Shoes_1948/'
p1113
sg14
I00
sg15
Nsg16
S'//130.60.131.134/studi/Filme/mittlere_Filme/180_The_Red_Shoes_1948\\ELAN_Projektdatei\\180_1_1_TheRedShoes_1948_DVD_ELAN.eaf'
p1114
sg18
I00
sba(i__main__
Movie
p1115
(dp1116
g3
Nsg4
S'SheWhoreAYellowRibbon'
p1117
sg6
S'//130.60.131.134/studi/Filme/mittlere_Filme/181_She_Wore_A_Yellow_Ribbon_1949/'
p1118
sg8
(lp1119
sg10
(lp1120
I181
aI1
aI1
asg12
S'mittlere_Filme/181_She_Wore_A_Yellow_Ribbon_1949/'
p1121
sg14
I00
sg15
Nsg16
S'//130.60.131.134/studi/Filme/mittlere_Filme/181_She_Wore_A_Yellow_Ribbon_1949\\181_1_1_SheWhoreAYellowRibbon_1949_DVD_ELAN.eaf'
p1122
sg18
I00
sba(i__main__
Movie
p1123
(dp1124
g3
Nsg4
S'MakingFashion'
p1125
sg6
S'//130.60.131.134/studi/Filme/mittlere_Filme/182_Making_Fashion_1938/'
p1126
sg8
(lp1127
S'//130.60.131.134/studi/Filme/mittlere_Filme/182_Making_Fashion_1938\\182_1_2_MakingFashion_1938_DVD_ELAN.txt'
p1128
asg10
(lp1129
I182
aI1
aI2
asg12
S'mittlere_Filme/182_Making_Fashion_1938/'
p1130
sg14
I00
sg15
Nsg16
S'//130.60.131.134/studi/Filme/mittlere_Filme/182_Making_Fashion_1938\\ELAN_Projektdatei\\182_1_2_MakingFashion_1938_DVD_ELAN.eaf'
p1131
sg18
I00
sba(i__main__
Movie
p1132
(dp1133
g3
Nsg4
S'Kolberg'
p1134
sg6
S'//130.60.131.134/studi/Filme/mittlere_Filme/183_Kolberg_1945/'
p1135
sg8
(lp1136
S'//130.60.131.134/studi/Filme/mittlere_Filme/183_Kolberg_1945\\183_1_3_Kolberg_1945_DVD_ELAN.txt'
p1137
asg10
(lp1138
I183
aI1
aI3
asg12
S'mittlere_Filme/183_Kolberg_1945/'
p1139
sg14
I00
sg15
Nsg16
S'//130.60.131.134/studi/Filme/mittlere_Filme/183_Kolberg_1945\\183_1_3_Kolberg_1945_DVD_ELAN.eaf'
p1140
sg18
I00
sba(i__main__
Movie
p1141
(dp1142
g3
Nsg4
S'BlackNarcissus'
p1143
sg6
S'//130.60.131.134/studi/Filme/mittlere_Filme/184_Black_Narcissus_1947/'
p1144
sg8
(lp1145
S'//130.60.131.134/studi/Filme/mittlere_Filme/184_Black_Narcissus_1947\\184_1_1_BlackNarcissus_1947_DVD_ELAN_BF.txt'
p1146
asg10
(lp1147
I184
aI1
aI1
asg12
S'mittlere_Filme/184_Black_Narcissus_1947/'
p1148
sg14
I00
sg15
Nsg16
S'//130.60.131.134/studi/Filme/mittlere_Filme/184_Black_Narcissus_1947\\184_1_1_BlackNarcissus_1947_DVD_ELAN_BF.eaf'
p1149
sg18
I00
sba(i__main__
Movie
p1150
(dp1151
g3
Nsg4
S'TheAdventuresOfRobinHood'
p1152
sg6
S'//130.60.131.134/studi/Filme/mittlere_Filme/185_The_Adventures_of_Robin_Hood_1938/'
p1153
sg8
(lp1154
S'//130.60.131.134/studi/Filme/mittlere_Filme/185_The_Adventures_of_Robin_Hood_1938\\185_1_1_TheAdventuresOfRobinHood_1938_DVD_ELAN.txt'
p1155
asg10
(lp1156
I185
aI1
aI1
asg12
S'mittlere_Filme/185_The_Adventures_of_Robin_Hood_1938/'
p1157
sg14
I00
sg15
Nsg16
S'//130.60.131.134/studi/Filme/mittlere_Filme/185_The_Adventures_of_Robin_Hood_1938\\ELAN_Projektdatei\\185_1_1_TheAdventuresOfRobinHood_1938_DVD_ELAN.eaf'
p1158
sg18
I00
sba(i__main__
Movie
p1159
(dp1160
g3
Nsg4
S'TheLongLongTrailer'
p1161
sg6
S'//130.60.131.134/studi/Filme/mittlere_Filme/1866_The_Long_Long_Trailer_1953/'
p1162
sg8
(lp1163
S'//130.60.131.134/studi/Filme/mittlere_Filme/1866_The_Long_Long_Trailer_1953\\1866_1_1_TheLongLongTrailer_1953_DVD_ELAN.txt'
p1164
asg10
(lp1165
I1866
aI1
aI1
asg12
S'mittlere_Filme/1866_The_Long_Long_Trailer_1953/'
p1166
sg14
I00
sg15
Nsg16
S'//130.60.131.134/studi/Filme/mittlere_Filme/1866_The_Long_Long_Trailer_1953\\1866_1_1_TheLongLongTrailer_1953_DVD_ELAN.eaf'
p1167
sg18
I00
sba(i__main__
Movie
p1168
(dp1169
g3
Nsg4
S'Muenchhausen'
p1170
sg6
S'//130.60.131.134/studi/Filme/mittlere_Filme/186_Muenchhausen_1943/'
p1171
sg8
(lp1172
S'//130.60.131.134/studi/Filme/mittlere_Filme/186_Muenchhausen_1943\\186_1_1_Muenchhausen_1943_DVD_ELAN.txt'
p1173
asg10
(lp1174
I186
aI1
aI1
asg12
S'mittlere_Filme/186_Muenchhausen_1943/'
p1175
sg14
I00
sg15
Nsg16
S'//130.60.131.134/studi/Filme/mittlere_Filme/186_Muenchhausen_1943\\ELAN_Projektdatei\\186_1_1_Muenchhausen_1943_DVD_ELAN.eaf'
p1176
sg18
I00
sba(i__main__
Movie
p1177
(dp1178
g3
Nsg4
S'BloodAndSand'
p1179
sg6
S'//130.60.131.134/studi/Filme/mittlere_Filme/18_Blood_and_Sand_1941/'
p1180
sg8
(lp1181
S'//130.60.131.134/studi/Filme/mittlere_Filme/18_Blood_and_Sand_1941\\18_1_1_BloodAndSand_1941_DVD_ELAN.txt'
p1182
asg10
(lp1183
I18
aI1
aI1
asg12
S'mittlere_Filme/18_Blood_and_Sand_1941/'
p1184
sg14
I00
sg15
Nsg16
S'//130.60.131.134/studi/Filme/mittlere_Filme/18_Blood_and_Sand_1941\\ELAN Projektdatei\\18_1_1_BloodAndSand_1941_DVD_ELAN_VR.eaf'
p1185
sg18
I00
sba(i__main__
Movie
p1186
(dp1187
g3
Nsg4
S'Immensee'
p1188
sg6
S'//130.60.131.134/studi/Filme/mittlere_Filme/223_Immensee_1943/'
p1189
sg8
(lp1190
S'//130.60.131.134/studi/Filme/mittlere_Filme/223_Immensee_1943\\223_1_1_Immensee_1943_DVD_ELAN.txt'
p1191
asg10
(lp1192
I223
aI1
aI1
asg12
S'mittlere_Filme/223_Immensee_1943/'
p1193
sg14
I00
sg15
Nsg16
S'//130.60.131.134/studi/Filme/mittlere_Filme/223_Immensee_1943\\ELAN_Projektdatei\\223_1_1_Immensee_1943_DVD_ELAN.eaf'
p1194
sg18
I00
sba(i__main__
Movie
p1195
(dp1196
g3
Nsg4
S'Opfergang'
p1197
sg6
S'//130.60.131.134/studi/Filme/mittlere_Filme/224_Opfergang_1944/'
p1198
sg8
(lp1199
S'//130.60.131.134/studi/Filme/mittlere_Filme/224_Opfergang_1944\\224_1_1_Opfergang_1944_DVD_ELAN.txt'
p1200
asg10
(lp1201
I224
aI1
aI1
asg12
S'mittlere_Filme/224_Opfergang_1944/'
p1202
sg14
I00
sg15
Nsg16
S'//130.60.131.134/studi/Filme/mittlere_Filme/224_Opfergang_1944\\224_1_1_ELAN_Projektdatei\\224_1_1_Opfergang_1944_DVD_ELAN.eaf'
p1203
sg18
I00
sba(i__main__
Movie
p1204
(dp1205
g3
Nsg4
S'NewYork'
p1206
sg6
S'//130.60.131.134/studi/Filme/mittlere_Filme/225_New_York_1938/'
p1207
sg8
(lp1208
S'//130.60.131.134/studi/Filme/mittlere_Filme/225_New_York_1938\\225_1_1_NewYork_1938_DVD_ELAN.txt'
p1209
asg10
(lp1210
I225
aI1
aI1
asg12
S'mittlere_Filme/225_New_York_1938/'
p1211
sg14
I00
sg15
Nsg16
S'//130.60.131.134/studi/Filme/mittlere_Filme/225_New_York_1938\\225_1_1_NewYork_1938_DVD_ELAN.eaf'
p1212
sg18
I00
sba(i__main__
Movie
p1213
(dp1214
g3
Nsg4
S'JeunesFemmesPrenantLeThe'
p1215
sg6
S'//130.60.131.134/studi/Filme/mittlere_Filme/226_Jeunes_femmes_prenant_le_the_1937/'
p1216
sg8
(lp1217
S'//130.60.131.134/studi/Filme/mittlere_Filme/226_Jeunes_femmes_prenant_le_the_1937\\226_1_1_JeunesFemmesPrenantLeThe_1937_DVD_ELAN.txt'
p1218
asg10
(lp1219
I226
aI1
aI1
asg12
S'mittlere_Filme/226_Jeunes_femmes_prenant_le_the_1937/'
p1220
sg14
I00
sg15
Nsg16
S'//130.60.131.134/studi/Filme/mittlere_Filme/226_Jeunes_femmes_prenant_le_the_1937\\ELAN_Projektdatei\\226_1_1_JeunesFemmesPrenantLeThe_1937_DVD_ELAN.eaf'
p1221
sg18
I00
sba(i__main__
Movie
p1222
(dp1223
g3
Nsg4
S'SnowWhiteAndTheSevenDwarfs'
p1224
sg6
S'//130.60.131.134/studi/Filme/mittlere_Filme/228_Snow_White_And_The_Seven_Dwarfs_1937/'
p1225
sg8
(lp1226
sg10
(lp1227
I228
aI1
aI1
asg12
S'mittlere_Filme/228_Snow_White_And_The_Seven_Dwarfs_1937/'
p1228
sg14
I00
sg15
Nsg16
S'//130.60.131.134/studi/Filme/mittlere_Filme/228_Snow_White_And_The_Seven_Dwarfs_1937\\228_1_1_SnowWhiteAndTheSevenDwarfs_1937_DVD_ELAN.eaf'
p1229
sg18
I00
sba(i__main__
Movie
p1230
(dp1231
g3
Nsg4
S'MeetMeinStLouis'
p1232
sg6
S'//130.60.131.134/studi/Filme/mittlere_Filme/230_Meet_Me_in_St_Louis_1944/'
p1233
sg8
(lp1234
S'//130.60.131.134/studi/Filme/mittlere_Filme/230_Meet_Me_in_St_Louis_1944\\230_1_1_MeetMeinStLouis_1944_DVD_exp.txt'
p1235
asg10
(lp1236
I230
aI1
aI1
asg12
S'mittlere_Filme/230_Meet_Me_in_St_Louis_1944/'
p1237
sg14
I00
sg15
Nsg16
S'//130.60.131.134/studi/Filme/mittlere_Filme/230_Meet_Me_in_St_Louis_1944\\230_1_1_MeetMeinStLouis_1944_DVD_ELAN_BF.eaf'
p1238
sg18
I00
sba(i__main__
Movie
p1239
(dp1240
g3
Nsg4
S'TheTrailOfTheLonesomePine'
p1241
sg6
S'//130.60.131.134/studi/Filme/mittlere_Filme/231_The_Trail_of_the_Lonesome_Pine_1936/'
p1242
sg8
(lp1243
S'//130.60.131.134/studi/Filme/mittlere_Filme/231_The_Trail_of_the_Lonesome_Pine_1936\\231_1_1_TheTrailOfTheLonesomePine_1936_DVD_ELAN.txt'
p1244
asg10
(lp1245
I231
aI1
aI1
asg12
S'mittlere_Filme/231_The_Trail_of_the_Lonesome_Pine_1936/'
p1246
sg14
I00
sg15
Nsg16
S'//130.60.131.134/studi/Filme/mittlere_Filme/231_The_Trail_of_the_Lonesome_Pine_1936\\231_1_1_TheTrailOfTheLonesomePine_1936_DVD_ELAN.eaf'
p1247
sg18
I00
sba(i__main__
Movie
p1248
(dp1249
g3
Nsg4
S'TheTalesOfHoffmann'
p1250
sg6
S'//130.60.131.134/studi/Filme/mittlere_Filme/237_The_Tales_of_Hoffmann_1951/'
p1251
sg8
(lp1252
S'//130.60.131.134/studi/Filme/mittlere_Filme/237_The_Tales_of_Hoffmann_1951\\237_1_2_TheTalesOfHoffmann_1951_DVD_ELAN_BF.txt'
p1253
asg10
(lp1254
I237
aI1
aI2
asg12
S'mittlere_Filme/237_The_Tales_of_Hoffmann_1951/'
p1255
sg14
I00
sg15
Nsg16
S'//130.60.131.134/studi/Filme/mittlere_Filme/237_The_Tales_of_Hoffmann_1951\\237_1_2_TheTalesOfHoffmann_1951_DVD_ELAN_BF.eaf'
p1256
sg18
I00
sba(i__main__
Movie
p1257
(dp1258
g3
Nsg4
S'AnAmericanInParis'
p1259
sg6
S'//130.60.131.134/studi/Filme/mittlere_Filme/249_An_American_in_Paris_1951/'
p1260
sg8
(lp1261
S'//130.60.131.134/studi/Filme/mittlere_Filme/249_An_American_in_Paris_1951\\249_1_1_AnAmericanInParis_1951_DVD_ELAN.txt'
p1262
asg10
(lp1263
I249
aI1
aI1
asg12
S'mittlere_Filme/249_An_American_in_Paris_1951/'
p1264
sg14
I00
sg15
Nsg16
S'//130.60.131.134/studi/Filme/mittlere_Filme/249_An_American_in_Paris_1951\\249_1_1_AnAmericanInParis_1951_DVD_ELAN.eaf'
p1265
sg18
I00
sba(i__main__
Movie
p1266
(dp1267
g3
Nsg4
S'ImWeissenRoessl'
p1268
sg6
S'//130.60.131.134/studi/Filme/mittlere_Filme/2564_Im_Weissen_Roessl_1952/'
p1269
sg8
(lp1270
S'//130.60.131.134/studi/Filme/mittlere_Filme/2564_Im_Weissen_Roessl_1952\\2564_1_1_ImWeissenRoessl_1952_DVD_ELAN.txt'
p1271
asg10
(lp1272
I2564
aI1
aI1
asg12
S'mittlere_Filme/2564_Im_Weissen_Roessl_1952/'
p1273
sg14
I00
sg15
Nsg16
S'//130.60.131.134/studi/Filme/mittlere_Filme/2564_Im_Weissen_Roessl_1952\\2564_1_1_ImWeissenRoessl_1952_DVD_ELAN.eaf'
p1274
sg18
I00
sba(i__main__
Movie
p1275
(dp1276
g3
Nsg4
S'GentlemenPreferBlondes'
p1277
sg6
S'//130.60.131.134/studi/Filme/mittlere_Filme/256_Gentlemen_Prefer_Blondes_1953/'
p1278
sg8
(lp1279
sg10
(lp1280
I256
aI1
aI1
asg12
S'mittlere_Filme/256_Gentlemen_Prefer_Blondes_1953/'
p1281
sg14
I00
sg15
Nsg16
S'//130.60.131.134/studi/Filme/mittlere_Filme/256_Gentlemen_Prefer_Blondes_1953\\256_1_1GentlemenPreferBlondes_1953_DVD.eaf'
p1282
sg18
I00
sba(i__main__
Movie
p1283
(dp1284
g3
Nsg4
S'JohnnyGuitar'
p1285
sg6
S'//130.60.131.134/studi/Filme/mittlere_Filme/258_Johnny_Guitar_1954/'
p1286
sg8
(lp1287
S'//130.60.131.134/studi/Filme/mittlere_Filme/258_Johnny_Guitar_1954\\258_1_1_JohnnyGuitar_1954_DVD_ELAN.txt'
p1288
asg10
(lp1289
I258
aI1
aI1
asg12
S'mittlere_Filme/258_Johnny_Guitar_1954/'
p1290
sg14
I00
sg15
Nsg16
S'//130.60.131.134/studi/Filme/mittlere_Filme/258_Johnny_Guitar_1954\\ELAN_Projektdatei\\258_1_1_JohnnyGuitar_1954_DVD_ELAN.eaf'
p1291
sg18
I00
sba(i__main__
Movie
p1292
(dp1293
g3
Nsg4
S'JourDeFete'
p1294
sg6
S'//130.60.131.134/studi/Filme/mittlere_Filme/25_Jour_de_fete_1949/'
p1295
sg8
(lp1296
S'//130.60.131.134/studi/Filme/mittlere_Filme/25_Jour_de_fete_1949\\25_1_1_JourDeFete_1949_DVD_ELAN.txt'
p1297
asg10
(lp1298
I25
aI1
aI1
asg12
S'mittlere_Filme/25_Jour_de_fete_1949/'
p1299
sg14
I00
sg15
Nsg16
S'//130.60.131.134/studi/Filme/mittlere_Filme/25_Jour_de_fete_1949\\ELAN_Projektdatei\\25_1_1_JourDeFete_1949_DVD_ELAN.eaf'
p1300
sg18
I00
sba(i__main__
Movie
p1301
(dp1302
g3
Nsg4
S'TheGardenOfAllah'
p1303
sg6
S'//130.60.131.134/studi/Filme/mittlere_Filme/266_The_Garden_of_Allah_1936/'
p1304
sg8
(lp1305
S'//130.60.131.134/studi/Filme/mittlere_Filme/266_The_Garden_of_Allah_1936\\266_1_2_TheGardenOfAllah_1936_DVD_ELAN.txt'
p1306
asg10
(lp1307
I266
aI1
aI2
asg12
S'mittlere_Filme/266_The_Garden_of_Allah_1936/'
p1308
sg14
I00
sg15
Nsg16
S'//130.60.131.134/studi/Filme/mittlere_Filme/266_The_Garden_of_Allah_1936\\266_1_2_TheGardenOfAllah_1936_DVD_ELAN.eaf'
p1309
sg18
I00
sba(i__main__
Movie
p1310
(dp1311
g3
Nsg4
S'Senso'
p1312
sg6
S'//130.60.131.134/studi/Filme/mittlere_Filme/268_Senso_1954/'
p1313
sg8
(lp1314
sg10
(lp1315
I268
aI1
aI1
asg12
S'mittlere_Filme/268_Senso_1954/'
p1316
sg14
I00
sg15
Nsg16
S'//130.60.131.134/studi/Filme/mittlere_Filme/268_Senso_1954\\268_1_1_Senso_1954_DVD_ELAN.eaf'
p1317
sg18
I00
sba(i__main__
Movie
p1318
(dp1319
g3
Nsg4
S'MoulinRouge'
p1320
sg6
S'//130.60.131.134/studi/Filme/mittlere_Filme/27_Moulin_Rouge_1952/'
p1321
sg8
(lp1322
sg10
(lp1323
I27
aI1
aI1
asg12
S'mittlere_Filme/27_Moulin_Rouge_1952/'
p1324
sg14
I00
sg15
Nsg16
S'//130.60.131.134/studi/Filme/mittlere_Filme/27_Moulin_Rouge_1952\\27_1_1_MoulinRouge_1952_DVD.eaf'
p1325
sg18
I00
sba(i__main__
Movie
p1326
(dp1327
g3
Nsg4
S'HeavenCanWait'
p1328
sg6
S'//130.60.131.134/studi/Filme/mittlere_Filme/289_Heaven_Can_Wait_1943/'
p1329
sg8
(lp1330
S'//130.60.131.134/studi/Filme/mittlere_Filme/289_Heaven_Can_Wait_1943\\289_1_1_HeavenCanWait_1943_DVD_ELAN.txt'
p1331
asg10
(lp1332
I289
aI1
aI1
asg12
S'mittlere_Filme/289_Heaven_Can_Wait_1943/'
p1333
sg14
I00
sg15
Nsg16
S'//130.60.131.134/studi/Filme/mittlere_Filme/289_Heaven_Can_Wait_1943\\289_1_1_ELAN_Projektdatei\\289_1_1_HeavenCanWait_1943_DVD_ELAN.eaf'
p1334
sg18
I00
sba(i__main__
Movie
p1335
(dp1336
g3
Nsg4
S'DasKalteHerz'
p1337
sg6
S'//130.60.131.134/studi/Filme/mittlere_Filme/293_Das_kalte_Herz_1950/'
p1338
sg8
(lp1339
S'//130.60.131.134/studi/Filme/mittlere_Filme/293_Das_kalte_Herz_1950\\ELAN_Projektdatei\\293_1_1_DasKalteHerz_1950_DVD_ELAN.txt'
p1340
asg10
(lp1341
I293
aI1
aI1
asg12
S'mittlere_Filme/293_Das_kalte_Herz_1950/'
p1342
sg14
I00
sg15
Nsg16
S'//130.60.131.134/studi/Filme/mittlere_Filme/293_Das_kalte_Herz_1950\\ELAN_Projektdatei\\293_1_1_DasKalteHerz_1950_DVD_ELAN.eaf'
p1343
sg18
I00
sba(i__main__
Movie
p1344
(dp1345
g3
Nsg4
S'TheBlackSwan'
p1346
sg6
S'//130.60.131.134/studi/Filme/mittlere_Filme/299_The_Black_Swan_1942/'
p1347
sg8
(lp1348
sg10
(lp1349
I299
aI1
aI1
asg12
S'mittlere_Filme/299_The_Black_Swan_1942/'
p1350
sg14
I00
sg15
Nsg16
S'//130.60.131.134/studi/Filme/mittlere_Filme/299_The_Black_Swan_1942\\299_1_1_TheBlackSwan_1942_DVD_ELAN.eaf'
p1351
sg18
I00
sba(i__main__
Movie
p1352
(dp1353
g3
Nsg4
S'FlightToMars'
p1354
sg6
S'//130.60.131.134/studi/Filme/mittlere_Filme/2_Flight_to_Mars_1951/'
p1355
sg8
(lp1356
sg10
(lp1357
I2
aI1
aI1
asg12
S'mittlere_Filme/2_Flight_to_Mars_1951/'
p1358
sg14
I00
sg15
Nsg16
S'//130.60.131.134/studi/Filme/mittlere_Filme/2_Flight_to_Mars_1951\\2_1_1_FlightToMars_1951_DVD_ELAN.eaf'
p1359
sg18
I00
sba(i__main__
Movie
p1360
(dp1361
g3
Nsg4
S'Steel'
p1362
sg6
S'//130.60.131.134/studi/Filme/mittlere_Filme/300_Steel_1945/'
p1363
sg8
(lp1364
S'//130.60.131.134/studi/Filme/mittlere_Filme/300_Steel_1945\\300_1_2_Steel_1945_DVD_ELAN.txt'
p1365
asg10
(lp1366
I300
aI1
aI2
asg12
S'mittlere_Filme/300_Steel_1945/'
p1367
sg14
I00
sg15
Nsg16
S'//130.60.131.134/studi/Filme/mittlere_Filme/300_Steel_1945\\300_1_2_Steel_1945_DVD_ELAN.eaf'
p1368
sg18
I00
sba(i__main__
Movie
p1369
(dp1370
g3
Nsg4
S'Rope'
p1371
sg6
S'//130.60.131.134/studi/Filme/mittlere_Filme/301_Rope_1948/'
p1372
sg8
(lp1373
S'//130.60.131.134/studi/Filme/mittlere_Filme/301_Rope_1948\\301_1_2_Rope_1948_DVD_ELAN.txt'
p1374
asg10
(lp1375
I301
aI1
aI2
asg12
S'mittlere_Filme/301_Rope_1948/'
p1376
sg14
I00
sg15
Nsg16
S'//130.60.131.134/studi/Filme/mittlere_Filme/301_Rope_1948\\301_1_2_ELAN_Projektdatei\\301_1_2_Rope_1948_DVD_ELAN.eaf'
p1377
sg18
I00
sba(i__main__
Movie
p1378
(dp1379
g3
Nsg4
S'TroopingTheColour'
p1380
sg6
S'//130.60.131.134/studi/Filme/mittlere_Filme/3133_Trooping_the_Colour_1937/'
p1381
sg8
(lp1382
S'//130.60.131.134/studi/Filme/mittlere_Filme/3133_Trooping_the_Colour_1937\\3133_1_1_TroopingTheColour_1937_DVD_ELAN.txt'
p1383
asg10
(lp1384
I3133
aI1
aI1
asg12
S'mittlere_Filme/3133_Trooping_the_Colour_1937/'
p1385
sg14
I00
sg15
Nsg16
S'//130.60.131.134/studi/Filme/mittlere_Filme/3133_Trooping_the_Colour_1937\\3133_1_1_TroopingTheColour_1937_DVD_ELAN.eaf'
p1386
sg18
I00
sba(i__main__
Movie
p1387
(dp1388
g3
Nsg4
S'TheRoyalOccasion'
p1389
sg6
S'//130.60.131.134/studi/Filme/mittlere_Filme/3139_The_Royal_Occasion_1953/'
p1390
sg8
(lp1391
S'//130.60.131.134/studi/Filme/mittlere_Filme/3139_The_Royal_Occasion_1953\\3139_1_1_TheRoyalOccasion_1953_DVD_ELAN.txt'
p1392
asg10
(lp1393
I3139
aI1
aI1
asg12
S'mittlere_Filme/3139_The_Royal_Occasion_1953/'
p1394
sg14
I00
sg15
Nsg16
S'//130.60.131.134/studi/Filme/mittlere_Filme/3139_The_Royal_Occasion_1953\\3139_1_1_TheRoyalOccasion_1953_DVD_ELAN.eaf'
p1395
sg18
I00
sba(i__main__
Movie
p1396
(dp1397
g3
Nsg4
S'BrokenArrow'
p1398
sg6
S'//130.60.131.134/studi/Filme/mittlere_Filme/314_Broken_Arrow_1950/'
p1399
sg8
(lp1400
sg10
(lp1401
I314
aI1
aI1
asg12
S'mittlere_Filme/314_Broken_Arrow_1950/'
p1402
sg14
I00
sg15
Nsg16
S'//130.60.131.134/studi/Filme/mittlere_Filme/314_Broken_Arrow_1950\\314_1_1_BrokenArrow_1950_DVD_ELAN.eaf'
p1403
sg18
I00
sba(i__main__
Movie
p1404
(dp1405
g3
Nsg4
S'ThePirate'
p1406
sg6
S'//130.60.131.134/studi/Filme/mittlere_Filme/3151_The_Pirate_1949/'
p1407
sg8
(lp1408
sg10
(lp1409
I3151
aI1
aI1
asg12
S'mittlere_Filme/3151_The_Pirate_1949/'
p1410
sg14
I00
sg15
Nsg16
S'//130.60.131.134/studi/Filme/mittlere_Filme/3151_The_Pirate_1949\\3151_1_1_ThePirate_1949_DVD_ELAN.eaf'
p1411
sg18
I00
sba(i__main__
Movie
p1412
(dp1413
g3
Nsg4
S'WesternUnion'
p1414
sg6
S'//130.60.131.134/studi/Filme/mittlere_Filme/3170_Western_Union_1941/'
p1415
sg8
(lp1416
S'//130.60.131.134/studi/Filme/mittlere_Filme/3170_Western_Union_1941\\3170_1_1_WesternUnion_1941_DVD_ELAN.txt'
p1417
asg10
(lp1418
I3170
aI1
aI1
asg12
S'mittlere_Filme/3170_Western_Union_1941/'
p1419
sg14
I00
sg15
Nsg16
S'//130.60.131.134/studi/Filme/mittlere_Filme/3170_Western_Union_1941\\3170_1_1_WesternUnion_1941_DVD_ELAN.eaf'
p1420
sg18
I00
sba(i__main__
Movie
p1421
(dp1422
g3
Nsg4
S'LaFiestaDeSantaBarbara'
p1423
sg6
S'//130.60.131.134/studi/Filme/mittlere_Filme/3172_La_Fiesta_de_Santa_Barbara_1935/'
p1424
sg8
(lp1425
S'//130.60.131.134/studi/Filme/mittlere_Filme/3172_La_Fiesta_de_Santa_Barbara_1935\\3172_1_1_LaFiestaDeSantaBarbara_1935_DVD_ELAN.txt'
p1426
asg10
(lp1427
I3172
aI1
aI1
asg12
S'mittlere_Filme/3172_La_Fiesta_de_Santa_Barbara_1935/'
p1428
sg14
I00
sg15
Nsg16
S'//130.60.131.134/studi/Filme/mittlere_Filme/3172_La_Fiesta_de_Santa_Barbara_1935\\3172_1_1_LaFiestaDeSantaBarbara_1935_DVD_ELAN.eaf'
p1429
sg18
I00
sba(i__main__
Movie
p1430
(dp1431
g3
Nsg4
S'FarewellTopsails'
p1432
sg6
S'//130.60.131.134/studi/Filme/mittlere_Filme/323_Farewell_Topsails_1937/'
p1433
sg8
(lp1434
S'//130.60.131.134/studi/Filme/mittlere_Filme/323_Farewell_Topsails_1937\\323_1_1_FarewellTopsails_1937_DVD_ELAN.txt'
p1435
asg10
(lp1436
I323
aI1
aI1
asg12
S'mittlere_Filme/323_Farewell_Topsails_1937/'
p1437
sg14
I00
sg15
Nsg16
S'//130.60.131.134/studi/Filme/mittlere_Filme/323_Farewell_Topsails_1937\\ELAN_Projektdatei\\323_1_1_FarewellTopsails_1937_DVD_ELAN.eaf'
p1438
sg18
I00
sba(i__main__
Movie
p1439
(dp1440
g3
Nsg4
S'DiveBomber'
p1441
sg6
S'//130.60.131.134/studi/Filme/mittlere_Filme/324_Dive_Bomber_1941/'
p1442
sg8
(lp1443
S'//130.60.131.134/studi/Filme/mittlere_Filme/324_Dive_Bomber_1941\\324_1_1_DiveBomber_1941_DVD_ELAN.txt'
p1444
asg10
(lp1445
I324
aI1
aI1
asg12
S'mittlere_Filme/324_Dive_Bomber_1941/'
p1446
sg14
I00
sg15
Nsg16
S'//130.60.131.134/studi/Filme/mittlere_Filme/324_Dive_Bomber_1941\\324_1_1_DiveBomber_1941_DVD_ELAN.eaf'
p1447
sg18
I00
sba(i__main__
Movie
p1448
(dp1449
g3
Nsg4
S'RiverOfNoReturn'
p1450
sg6
S'//130.60.131.134/studi/Filme/mittlere_Filme/3372_River_of_No_Return_1954/'
p1451
sg8
(lp1452
S'//130.60.131.134/studi/Filme/mittlere_Filme/3372_River_of_No_Return_1954\\3372_1_1_RiverOfNoReturn_1954_DVD_ELAN.txt'
p1453
asg10
(lp1454
I3372
aI1
aI1
asg12
S'mittlere_Filme/3372_River_of_No_Return_1954/'
p1455
sg14
I00
sg15
Nsg16
S'//130.60.131.134/studi/Filme/mittlere_Filme/3372_River_of_No_Return_1954\\3372_1_1_RiverOfNoReturn_1954_DVD_ELAN.eaf'
p1456
sg18
I00
sba(i__main__
Movie
p1457
(dp1458
g3
Nsg4
S'DrCyclops'
p1459
sg6
S'//130.60.131.134/studi/Filme/mittlere_Filme/3377_Dr_Cyclops_1940/'
p1460
sg8
(lp1461
S'//130.60.131.134/studi/Filme/mittlere_Filme/3377_Dr_Cyclops_1940\\3377_1_1_DrCyclops_1940_DVD_ELAN.txt'
p1462
asg10
(lp1463
I3377
aI1
aI1
asg12
S'mittlere_Filme/3377_Dr_Cyclops_1940/'
p1464
sg14
I00
sg15
Nsg16
S'//130.60.131.134/studi/Filme/mittlere_Filme/3377_Dr_Cyclops_1940\\3377_1_1_DrCyclops_1940_DVD_ELAN.eaf'
p1465
sg18
I00
sba(i__main__
Movie
p1466
(dp1467
g3
Nsg4
S'DesertFury'
p1468
sg6
S'//130.60.131.134/studi/Filme/mittlere_Filme/3378_Desert_Fury_1947/'
p1469
sg8
(lp1470
sg10
(lp1471
I3378
aI1
aI1
asg12
S'mittlere_Filme/3378_Desert_Fury_1947/'
p1472
sg14
I00
sg15
Nsg16
S'//130.60.131.134/studi/Filme/mittlere_Filme/3378_Desert_Fury_1947\\3378_1_1_DesertFury_1947_DVD_ELAN.eaf'
p1473
sg18
I00
sba(i__main__
Movie
p1474
(dp1475
g3
Nsg4
S'Fantasia '
p1476
sg6
S'//130.60.131.134/studi/Filme/mittlere_Filme/343_Fantasia _1940/'
p1477
sg8
(lp1478
sg10
(lp1479
I343
aI1
aI1
asg12
S'mittlere_Filme/343_Fantasia _1940/'
p1480
sg14
I00
sg15
Nsg16
S'//130.60.131.134/studi/Filme/mittlere_Filme/343_Fantasia _1940\\343_1_1_Fantasia _1940_DVD_ELAN.eaf'
p1481
sg18
I00
sba(i__main__
Movie
p1482
(dp1483
g3
Nsg4
S'TheLifeAndDeathOfColonelBlimp'
p1484
sg6
S'//130.60.131.134/studi/Filme/mittlere_Filme/344_The_Life_and_Death_of_Colonel_Blimp_1943/'
p1485
sg8
(lp1486
sg10
(lp1487
I344
aI1
aI1
asg12
S'mittlere_Filme/344_The_Life_and_Death_of_Colonel_Blimp_1943/'
p1488
sg14
I00
sg15
Nsg16
S'//130.60.131.134/studi/Filme/mittlere_Filme/344_The_Life_and_Death_of_Colonel_Blimp_1943\\344_1_1_TheLifeAndDeathOfColonelBlimp_1943_DVD_ELAN.eaf'
p1489
sg18
I00
sba(i__main__
Movie
p1490
(dp1491
g3
Nsg4
S'OnTheTown'
p1492
sg6
S'//130.60.131.134/studi/Filme/mittlere_Filme/3458_On_the_Town_1949/'
p1493
sg8
(lp1494
S'//130.60.131.134/studi/Filme/mittlere_Filme/3458_On_the_Town_1949\\3458_1_1_OnTheTown_1949_DVD_ELAN.txt'
p1495
asg10
(lp1496
I3458
aI1
aI1
asg12
S'mittlere_Filme/3458_On_the_Town_1949/'
p1497
sg14
I00
sg15
Nsg16
S'//130.60.131.134/studi/Filme/mittlere_Filme/3458_On_the_Town_1949\\3458_1_1_OnTheTown_1949_DVD_ELAN.eaf'
p1498
sg18
I00
sba(i__main__
Movie
p1499
(dp1500
g3
Nsg4
S'TheFarm'
p1501
sg6
S'//130.60.131.134/studi/Filme/mittlere_Filme/345_The_Farm_1938/'
p1502
sg8
(lp1503
S'//130.60.131.134/studi/Filme/mittlere_Filme/345_The_Farm_1938\\345_1_1_TheFarm_1938_DVD_ELAN.txt'
p1504
asg10
(lp1505
I345
aI1
aI1
asg12
S'mittlere_Filme/345_The_Farm_1938/'
p1506
sg14
I00
sg15
Nsg16
S'//130.60.131.134/studi/Filme/mittlere_Filme/345_The_Farm_1938\\ELAN_Projektdatei\\345_1_1_TheFarm_1938_DVD_ELAN.eaf'
p1507
sg18
I00
sba(i__main__
Movie
p1508
(dp1509
g3
Nsg4
S'UnderCapricorn'
p1510
sg6
S'//130.60.131.134/studi/Filme/mittlere_Filme/353_Under_Capricorn_1949/'
p1511
sg8
(lp1512
sg10
(lp1513
I353
aI1
aI1
asg12
S'mittlere_Filme/353_Under_Capricorn_1949/'
p1514
sg14
I00
sg15
Nsg16
S'//130.60.131.134/studi/Filme/mittlere_Filme/353_Under_Capricorn_1949\\353_1_1_UnderCapricorn_1949_DVD_ELAN.eaf'
p1515
sg18
I00
sba(i__main__
Movie
p1516
(dp1517
g3
Nsg4
S'LassieComeHome'
p1518
sg6
S'//130.60.131.134/studi/Filme/mittlere_Filme/369_Lassie_Come_Home_1943/'
p1519
sg8
(lp1520
sg10
(lp1521
I369
aI1
aI1
asg12
S'mittlere_Filme/369_Lassie_Come_Home_1943/'
p1522
sg14
I00
sg15
Nsg16
S'//130.60.131.134/studi/Filme/mittlere_Filme/369_Lassie_Come_Home_1943\\369_1_1_LassieComeHome_1943_DVD_ELAN.eaf'
p1523
sg18
I00
sba(i__main__
Movie
p1524
(dp1525
g3
Nsg4
S'TheGangSAllHere'
p1526
sg6
S'//130.60.131.134/studi/Filme/mittlere_Filme/371_The_Gang_S_All_Here_1943/'
p1527
sg8
(lp1528
S'//130.60.131.134/studi/Filme/mittlere_Filme/371_The_Gang_S_All_Here_1943\\371_1_1_TheGangSAllHere_1943_Bluray_ELAN_BF.txt'
p1529
asg10
(lp1530
I371
aI1
aI1
asg12
S'mittlere_Filme/371_The_Gang_S_All_Here_1943/'
p1531
sg14
I00
sg15
Nsg16
S'//130.60.131.134/studi/Filme/mittlere_Filme/371_The_Gang_S_All_Here_1943\\371_1_1_TheGangSAllHere_1943_Bluray_ELAN_BF.eaf'
p1532
sg18
I00
sba(i__main__
Movie
p1533
(dp1534
g3
Nsg4
S'TheMikado'
p1535
sg6
S'//130.60.131.134/studi/Filme/mittlere_Filme/377_The_Mikado_1939/'
p1536
sg8
(lp1537
S'//130.60.131.134/studi/Filme/mittlere_Filme/377_The_Mikado_1939\\377_1_1_TheMikado_1939_DVD_ELAN.txt'
p1538
asg10
(lp1539
I377
aI1
aI1
asg12
S'mittlere_Filme/377_The_Mikado_1939/'
p1540
sg14
I00
sg15
Nsg16
S'//130.60.131.134/studi/Filme/mittlere_Filme/377_The_Mikado_1939\\ELAN_Projektdatei\\377_1_1_TheMikado_1939_DVD_ELAN.eaf'
p1541
sg18
I00
sba(i__main__
Movie
p1542
(dp1543
g3
Nsg4
S'WesternApproaches'
p1544
sg6
S'//130.60.131.134/studi/Filme/mittlere_Filme/382_Western_Approaches_1944/'
p1545
sg8
(lp1546
S'//130.60.131.134/studi/Filme/mittlere_Filme/382_Western_Approaches_1944\\382_1_1_WesternApproaches_1944_DVD_ELAN.txt'
p1547
asg10
(lp1548
I382
aI1
aI1
asg12
S'mittlere_Filme/382_Western_Approaches_1944/'
p1549
sg14
I00
sg15
Nsg16
S'//130.60.131.134/studi/Filme/mittlere_Filme/382_Western_Approaches_1944\\382_1_1_WesternApproaches_1944_DVD_ELAN.eaf'
p1550
sg18
I00
sba(i__main__
Movie
p1551
(dp1552
g3
Nsg4
S'BlitheSpirit'
p1553
sg6
S'//130.60.131.134/studi/Filme/mittlere_Filme/383_Blithe_Spirit_1945/'
p1554
sg8
(lp1555
S'//130.60.131.134/studi/Filme/mittlere_Filme/383_Blithe_Spirit_1945\\383_1_1_BlitheSpirit_1945_DVD_ELAN.txt'
p1556
asg10
(lp1557
I383
aI1
aI1
asg12
S'mittlere_Filme/383_Blithe_Spirit_1945/'
p1558
sg14
I00
sg15
Nsg16
S'//130.60.131.134/studi/Filme/mittlere_Filme/383_Blithe_Spirit_1945\\ELAN_Projektdatei\\383_1_1_BlitheSpirit_1945_DVD_ELAN.eaf'
p1559
sg18
I00
sba(i__main__
Movie
p1560
(dp1561
g3
Nsg4
S'AMatterOfLifeAndDeath'
p1562
sg6
S'//130.60.131.134/studi/Filme/mittlere_Filme/386_A_Matter_of_Life_and_Death_1946/'
p1563
sg8
(lp1564
S'//130.60.131.134/studi/Filme/mittlere_Filme/386_A_Matter_of_Life_and_Death_1946\\386_1_1_AMatterOfLifeAndDeath_1946_DVD_ELAN.txt'
p1565
asg10
(lp1566
I386
aI1
aI1
asg12
S'mittlere_Filme/386_A_Matter_of_Life_and_Death_1946/'
p1567
sg14
I00
sg15
Nsg16
S'//130.60.131.134/studi/Filme/mittlere_Filme/386_A_Matter_of_Life_and_Death_1946\\386_1_1_AMatterOfLifeAndDeath_1946_DVD_ELAN.eaf'
p1568
sg18
I00
sba(i__main__
Movie
p1569
(dp1570
g3
Nsg4
S'DrumsAlongTheMohawk'
p1571
sg6
S'//130.60.131.134/studi/Filme/mittlere_Filme/391_Drums_along_the_Mohawk_1939/'
p1572
sg8
(lp1573
S'//130.60.131.134/studi/Filme/mittlere_Filme/391_Drums_along_the_Mohawk_1939\\391_1_1_DrumsAlongTheMohawk_1939_DVD_ELAN.txt'
p1574
asg10
(lp1575
I391
aI1
aI1
asg12
S'mittlere_Filme/391_Drums_along_the_Mohawk_1939/'
p1576
sg14
I00
sg15
Nsg16
S'//130.60.131.134/studi/Filme/mittlere_Filme/391_Drums_along_the_Mohawk_1939\\391_1_1_DrumsAlongTheMohawk_1939_DVD_ELAN.eaf'
p1577
sg18
I00
sba(i__main__
Movie
p1578
(dp1579
g3
Nsg4
S'ThePrivateLivesOfElizabethAndEssex'
p1580
sg6
S'//130.60.131.134/studi/Filme/mittlere_Filme/392_The_Private_Lives_of_Elizabeth_and_Essex_1939/'
p1581
sg8
(lp1582
S'//130.60.131.134/studi/Filme/mittlere_Filme/392_The_Private_Lives_of_Elizabeth_and_Essex_1939\\329_1_1_ThePrivateLivesOfElizabethAndEssex_1939_DVD_ELAN_BF.txt'
p1583
asg10
(lp1584
I329
aI1
aI1
asg12
S'mittlere_Filme/392_The_Private_Lives_of_Elizabeth_and_Essex_1939/'
p1585
sg14
I00
sg15
Nsg16
S'//130.60.131.134/studi/Filme/mittlere_Filme/392_The_Private_Lives_of_Elizabeth_and_Essex_1939\\329_1_1_ThePrivateLivesOfElizabethAndEssex_1939_DVD_ELAN_BF.eaf'
p1586
sg18
I00
sba(i__main__
Movie
p1587
(dp1588
g3
Nsg4
S'Wilson'
p1589
sg6
S'//130.60.131.134/studi/Filme/mittlere_Filme/394_Wilson_1944/'
p1590
sg8
(lp1591
sg10
(lp1592
I394
aI1
aI1
asg12
S'mittlere_Filme/394_Wilson_1944/'
p1593
sg14
I00
sg15
Nsg16
S'//130.60.131.134/studi/Filme/mittlere_Filme/394_Wilson_1944\\394_1_1_Wilson_1944_DVD_ELAN.eaf'
p1594
sg18
I00
sba(i__main__
Movie
p1595
(dp1596
g3
Nsg4
S'TheQuietMan'
p1597
sg6
S'//130.60.131.134/studi/Filme/mittlere_Filme/399_The_Quiet_Man_1952/'
p1598
sg8
(lp1599
S'//130.60.131.134/studi/Filme/mittlere_Filme/399_The_Quiet_Man_1952\\399_1_1_TheQuietMan_1992_DVD_ELAN_BF_exp.txt'
p1600
asg10
(lp1601
I399
aI1
aI1
asg12
S'mittlere_Filme/399_The_Quiet_Man_1952/'
p1602
sg14
I00
sg15
Nsg16
S'//130.60.131.134/studi/Filme/mittlere_Filme/399_The_Quiet_Man_1952\\399_1_1_TheQuietMan_1992_DVD_ELAN_BF.eaf'
p1603
sg18
I00
sba(i__main__
Movie
p1604
(dp1605
g3
Nsg4
S'Shane'
p1606
sg6
S'//130.60.131.134/studi/Filme/mittlere_Filme/400_Shane_1953/'
p1607
sg8
(lp1608
S'//130.60.131.134/studi/Filme/mittlere_Filme/400_Shane_1953\\400_1_1_Shane_1953_DVD_ELAN.txt'
p1609
asg10
(lp1610
I400
aI1
aI1
asg12
S'mittlere_Filme/400_Shane_1953/'
p1611
sg14
I00
sg15
Nsg16
S'//130.60.131.134/studi/Filme/mittlere_Filme/400_Shane_1953\\400_1_1_Shane_1953_DVD_ELAN.eaf'
p1612
sg18
I00
sba(i__main__
Movie
p1613
(dp1614
g3
Nsg4
S'DieGoldeneStadt'
p1615
sg6
S'//130.60.131.134/studi/Filme/mittlere_Filme/417_Die_goldene_Stadt_1942/'
p1616
sg8
(lp1617
S'//130.60.131.134/studi/Filme/mittlere_Filme/417_Die_goldene_Stadt_1942\\417_1_1_DieGoldeneStadt_1942_DVD_ELAN.txt'
p1618
asg10
(lp1619
I417
aI1
aI1
asg12
S'mittlere_Filme/417_Die_goldene_Stadt_1942/'
p1620
sg14
I00
sg15
Nsg16
S'//130.60.131.134/studi/Filme/mittlere_Filme/417_Die_goldene_Stadt_1942\\417_1_1_DieGoldeneStadt_1942_DVD_ELAN.eaf'
p1621
sg18
I00
sba(i__main__
Movie
p1622
(dp1623
g3
Nsg4
S'GrosseFreiheitNr7'
p1624
sg6
S'//130.60.131.134/studi/Filme/mittlere_Filme/429_Grosse_Freiheit_Nr_7_1944/'
p1625
sg8
(lp1626
sg10
(lp1627
I429
aI1
aI1
asg12
S'mittlere_Filme/429_Grosse_Freiheit_Nr_7_1944/'
p1628
sg14
I00
sg15
Nsg16
S'//130.60.131.134/studi/Filme/mittlere_Filme/429_Grosse_Freiheit_Nr_7_1944\\429_1_1_GrosseFreiheitNr7_1944_DVD_ELAN.eaf'
p1629
sg18
I00
sba(i__main__
Movie
p1630
(dp1631
g3
Nsg4
S'AStarIsBorn'
p1632
sg6
S'//130.60.131.134/studi/Filme/mittlere_Filme/434_A_Star_Is_Born_1954/'
p1633
sg8
(lp1634
sg10
(lp1635
I434
aI1
aI1
asg12
S'mittlere_Filme/434_A_Star_Is_Born_1954/'
p1636
sg14
I00
sg15
Nsg16
S'//130.60.131.134/studi/Filme/mittlere_Filme/434_A_Star_Is_Born_1954\\434_1_1_AStarIsBorn_1954_DVD_ELAN.eaf'
p1637
sg18
I00
sba(i__main__
Movie
p1638
(dp1639
g3
Nsg4
S'DieFrauMeinerTraeume'
p1640
sg6
S'//130.60.131.134/studi/Filme/mittlere_Filme/435_Die_Frau_meiner_Traeume_1944/'
p1641
sg8
(lp1642
S'//130.60.131.134/studi/Filme/mittlere_Filme/435_Die_Frau_meiner_Traeume_1944\\435_1_1_DieFrauMeinerTraeume_1944_DVD_ELAN.txt'
p1643
asg10
(lp1644
I435
aI1
aI1
asg12
S'mittlere_Filme/435_Die_Frau_meiner_Traeume_1944/'
p1645
sg14
I00
sg15
Nsg16
S'//130.60.131.134/studi/Filme/mittlere_Filme/435_Die_Frau_meiner_Traeume_1944\\435_1_1_DieFrauMeinerTraeume_1944_DVD_ELAN.eaf'
p1646
sg18
I00
sba(i__main__
Movie
p1647
(dp1648
g3
Nsg4
S'AStarIsBorn'
p1649
sg6
S'//130.60.131.134/studi/Filme/mittlere_Filme/43_A_Star_Is_Born_1937/'
p1650
sg8
(lp1651
sg10
(lp1652
I43
aI1
aI1
asg12
S'mittlere_Filme/43_A_Star_Is_Born_1937/'
p1653
sg14
I00
sg15
Nsg16
S'//130.60.131.134/studi/Filme/mittlere_Filme/43_A_Star_Is_Born_1937\\43_1_1_AStarIsBorn_1937_DVD_ELAN.eaf'
p1654
sg18
I00
sba(i__main__
Movie
p1655
(dp1656
g3
Nsg4
S'DownArgentineWay'
p1657
sg6
S'//130.60.131.134/studi/Filme/mittlere_Filme/442_Down_Argentine_Way_1940/'
p1658
sg8
(lp1659
sg10
(lp1660
I442
aI1
aI1
asg12
S'mittlere_Filme/442_Down_Argentine_Way_1940/'
p1661
sg14
I00
sg15
Nsg16
S'//130.60.131.134/studi/Filme/mittlere_Filme/442_Down_Argentine_Way_1940\\442_1_1_DownArgentineWay_1940_DVD_ELAN.eaf'
p1662
sg18
I00
sba(i__main__
Movie
p1663
(dp1664
g3
Nsg4
S'AnnieGetYourGun'
p1665
sg6
S'//130.60.131.134/studi/Filme/mittlere_Filme/474_Annie_Get_Your_Gun_1950/'
p1666
sg8
(lp1667
S'//130.60.131.134/studi/Filme/mittlere_Filme/474_Annie_Get_Your_Gun_1950\\474_1_1_AnnieGetYourGun_1950_DVD_ELAN.txt'
p1668
asg10
(lp1669
I474
aI1
aI1
asg12
S'mittlere_Filme/474_Annie_Get_Your_Gun_1950/'
p1670
sg14
I00
sg15
Nsg16
S'//130.60.131.134/studi/Filme/mittlere_Filme/474_Annie_Get_Your_Gun_1950\\474_1_1_AnnieGetYourGun_1950_DVD_ELAN.eaf'
p1671
sg18
I00
sba(i__main__
Movie
p1672
(dp1673
g3
Nsg4
S'MillionDollarMermaid'
p1674
sg6
S'//130.60.131.134/studi/Filme/mittlere_Filme/483_Million_Dollar_Mermaid_1952/'
p1675
sg8
(lp1676
S'//130.60.131.134/studi/Filme/mittlere_Filme/483_Million_Dollar_Mermaid_1952\\483_1_1_MillionDollarMermaid_1952_DVD_ELAN_BF_exp.txt'
p1677
asg10
(lp1678
I483
aI1
aI1
asg12
S'mittlere_Filme/483_Million_Dollar_Mermaid_1952/'
p1679
sg14
I00
sg15
Nsg16
S'//130.60.131.134/studi/Filme/mittlere_Filme/483_Million_Dollar_Mermaid_1952\\483_1_1_MillionDollarMermaid_1952_DVD_ELAN_BF.eaf'
p1680
sg18
I00
sba(i__main__
Movie
p1681
(dp1682
g3
Nsg4
S'TheRobe'
p1683
sg6
S'//130.60.131.134/studi/Filme/mittlere_Filme/488_The_Robe_1953/'
p1684
sg8
(lp1685
S'//130.60.131.134/studi/Filme/mittlere_Filme/488_The_Robe_1953\\488_1_1_TheRobe_1953_DVD_ELAN.txt'
p1686
asg10
(lp1687
I488
aI1
aI1
asg12
S'mittlere_Filme/488_The_Robe_1953/'
p1688
sg14
I00
sg15
Nsg16
S'//130.60.131.134/studi/Filme/mittlere_Filme/488_The_Robe_1953\\488_1_1_TheRobe_1953_DVD_ELAN.eaf'
p1689
sg18
I00
sba(i__main__
Movie
p1690
(dp1691
g3
Nsg4
S'LaCucaracha'
p1692
sg6
S'//130.60.131.134/studi/Filme/mittlere_Filme/48_La_Cucaracha_1934/'
p1693
sg8
(lp1694
sg10
(lp1695
I48
aI1
aI1
asg12
S'mittlere_Filme/48_La_Cucaracha_1934/'
p1696
sg14
I00
sg15
Nsg16
S'//130.60.131.134/studi/Filme/mittlere_Filme/48_La_Cucaracha_1934\\ELAN_Projektdatei\\48_1_1_LaCucaracha_1934_DVD_ELAN.eaf'
p1697
sg18
I00
sba(i__main__
Movie
p1698
(dp1699
g3
Nsg4
S'RearWindow'
p1700
sg6
S'//130.60.131.134/studi/Filme/mittlere_Filme/490_Rear_Window_1954/'
p1701
sg8
(lp1702
sg10
(lp1703
I490
aI1
aI1
asg12
S'mittlere_Filme/490_Rear_Window_1954/'
p1704
sg14
I00
sg15
Nsg16
S'//130.60.131.134/studi/Filme/mittlere_Filme/490_Rear_Window_1954\\490_1_1_RearWindow_1954_DVD_ELAN.eaf'
p1705
sg18
I00
sba(i__main__
Movie
p1706
(dp1707
g3
Nsg4
S'SevenBridesForSevenBrothers'
p1708
sg6
S'//130.60.131.134/studi/Filme/mittlere_Filme/491_Seven_Brides_for_Seven_Brothers_1954/'
p1709
sg8
(lp1710
S'//130.60.131.134/studi/Filme/mittlere_Filme/491_Seven_Brides_for_Seven_Brothers_1954\\491_1_1_SevenBridesForSevenBrothers_1954_DVD_ELAN.txt'
p1711
asg10
(lp1712
I491
aI1
aI1
asg12
S'mittlere_Filme/491_Seven_Brides_for_Seven_Brothers_1954/'
p1713
sg14
I00
sg15
Nsg16
S'//130.60.131.134/studi/Filme/mittlere_Filme/491_Seven_Brides_for_Seven_Brothers_1954\\491_1_1_SevenBridesForSevenBrothers_1954_DVD_ELAN.eaf'
p1714
sg18
I00
sba(i__main__
Movie
p1715
(dp1716
g3
Nsg4
S'SinginInTheRain'
p1717
sg6
S'//130.60.131.134/studi/Filme/mittlere_Filme/546_Singin_in_the_Rain_1952/'
p1718
sg8
(lp1719
S'//130.60.131.134/studi/Filme/mittlere_Filme/546_Singin_in_the_Rain_1952\\546_1_1_SinginInTheRain_1952_DVD_ELAN.txt'
p1720
asg10
(lp1721
I546
aI1
aI1
asg12
S'mittlere_Filme/546_Singin_in_the_Rain_1952/'
p1722
sg14
I00
sg15
Nsg16
S'//130.60.131.134/studi/Filme/mittlere_Filme/546_Singin_in_the_Rain_1952\\546_1_1_SinginInTheRain_1952_DVD_ELAN.eaf'
p1723
sg18
I00
sba(i__main__
Movie
p1724
(dp1725
g3
Nsg4
S'TheBoldCaballero'
p1726
sg6
S'//130.60.131.134/studi/Filme/mittlere_Filme/548_The_Bold_Caballero_1936/'
p1727
sg8
(lp1728
S'//130.60.131.134/studi/Filme/mittlere_Filme/548_The_Bold_Caballero_1936\\548_1_1_TheBoldCaballero_1936_DVD_ELAN.txt'
p1729
asg10
(lp1730
I548
aI1
aI1
asg12
S'mittlere_Filme/548_The_Bold_Caballero_1936/'
p1731
sg14
I00
sg15
Nsg16
S'//130.60.131.134/studi/Filme/mittlere_Filme/548_The_Bold_Caballero_1936\\548_1_1_TheBoldCaballero_1936_DVD_ELAN.eaf'
p1732
sg18
I00
sba(i__main__
Movie
p1733
(dp1734
g3
Nsg4
S'OutCaliforniaWay'
p1735
sg6
S'//130.60.131.134/studi/Filme/mittlere_Filme/550_Out_California_Way_1946/'
p1736
sg8
(lp1737
S'//130.60.131.134/studi/Filme/mittlere_Filme/550_Out_California_Way_1946\\550_1_1_OutCaliforniaWay_1946_DVD_ELAN.txt'
p1738
asg10
(lp1739
I550
aI1
aI1
asg12
S'mittlere_Filme/550_Out_California_Way_1946/'
p1740
sg14
I00
sg15
Nsg16
S'//130.60.131.134/studi/Filme/mittlere_Filme/550_Out_California_Way_1946\\550_1_1_OutCaliforniaWay_1946_DVD_ELAN.eaf'
p1741
sg18
I00
sba(i__main__
Movie
p1742
(dp1743
g3
Nsg4
S'TheGoldwynFollies'
p1744
sg6
S'//130.60.131.134/studi/Filme/mittlere_Filme/553_The_Goldwyn_Follies_1938/'
p1745
sg8
(lp1746
sg10
(lp1747
I553
aI1
aI1
asg12
S'mittlere_Filme/553_The_Goldwyn_Follies_1938/'
p1748
sg14
I00
sg15
Nsg16
S'//130.60.131.134/studi/Filme/mittlere_Filme/553_The_Goldwyn_Follies_1938\\553_1_1_TheGoldwynFollies_1938_DVD_ELAN.eaf'
p1749
sg18
I00
sba(i__main__
Movie
p1750
(dp1751
g3
Nsg4
S'NothingSacred'
p1752
sg6
S'//130.60.131.134/studi/Filme/mittlere_Filme/561_Nothing_Sacred_1937/'
p1753
sg8
(lp1754
S'//130.60.131.134/studi/Filme/mittlere_Filme/561_Nothing_Sacred_1937\\561_1_1_NothingSacred_1937_DVD_ELAN.txt'
p1755
asg10
(lp1756
I561
aI1
aI1
asg12
S'mittlere_Filme/561_Nothing_Sacred_1937/'
p1757
sg14
I00
sg15
Nsg16
S'//130.60.131.134/studi/Filme/mittlere_Filme/561_Nothing_Sacred_1937\\561_1_1_NothingSacred_1937_DVD_ELAN.eaf'
p1758
sg18
I00
sba(i__main__
Movie
p1759
(dp1760
g3
Nsg4
S'InvadersFromMars'
p1761
sg6
S'//130.60.131.134/studi/Filme/mittlere_Filme/620_Invaders_from_Mars_1953/'
p1762
sg8
(lp1763
S'//130.60.131.134/studi/Filme/mittlere_Filme/620_Invaders_from_Mars_1953\\620_1_1_InvadersFromMars_1953_DVD_ELAN.txt'
p1764
asg10
(lp1765
I620
aI1
aI1
asg12
S'mittlere_Filme/620_Invaders_from_Mars_1953/'
p1766
sg14
I00
sg15
Nsg16
S'//130.60.131.134/studi/Filme/mittlere_Filme/620_Invaders_from_Mars_1953\\620_1_1_InvadersFromMars_1953_DVD_ELAN.eaf'
p1767
sg18
I00
sba(i__main__
Movie
p1768
(dp1769
g3
Nsg4
S'DestinationMoon'
p1770
sg6
S'//130.60.131.134/studi/Filme/mittlere_Filme/622_Destination_Moon_1950/'
p1771
sg8
(lp1772
sg10
(lp1773
I622
aI1
aI1
asg12
S'mittlere_Filme/622_Destination_Moon_1950/'
p1774
sg14
I00
sg15
Nsg16
S'//130.60.131.134/studi/Filme/mittlere_Filme/622_Destination_Moon_1950\\622_1_1_DestinationMoon_1950_DVD_ELAN.eaf'
p1775
sg18
I00
sba(i__main__
Movie
p1776
(dp1777
g3
Nsg4
S'HenryV'
p1778
sg6
S'//130.60.131.134/studi/Filme/mittlere_Filme/62_Henry_V_1944/'
p1779
sg8
(lp1780
sg10
(lp1781
I62
aI1
aI1
asg12
S'mittlere_Filme/62_Henry_V_1944/'
p1782
sg14
I00
sg15
Nsg16
S'//130.60.131.134/studi/Filme/mittlere_Filme/62_Henry_V_1944\\62_1_1_HenryV_1944_DVD_ELAN.eaf'
p1783
sg18
I00
sba(i__main__
Movie
p1784
(dp1785
g3
Nsg4
S'BeckySharp'
p1786
sg6
S'//130.60.131.134/studi/Filme/mittlere_Filme/63_Becky_Sharp_1935/'
p1787
sg8
(lp1788
sg10
(lp1789
I63
aI1
aI2
asg12
S'mittlere_Filme/63_Becky_Sharp_1935/'
p1790
sg14
I00
sg15
Nsg16
S'//130.60.131.134/studi/Filme/mittlere_Filme/63_Becky_Sharp_1935\\63_1_2_BeckySharp_1935_DVD_ELAN.eaf'
p1791
sg18
I00
sba(i__main__
Movie
p1792
(dp1793
g3
Nsg4
S'FlowersAndTrees'
p1794
sg6
S'//130.60.131.134/studi/Filme/mittlere_Filme/81_Flowers_and_Trees_1932/'
p1795
sg8
(lp1796
sg10
(lp1797
I81
aI1
aI1
asg12
S'mittlere_Filme/81_Flowers_and_Trees_1932/'
p1798
sg14
I00
sg15
Nsg16
S'//130.60.131.134/studi/Filme/mittlere_Filme/81_Flowers_and_Trees_1932\\81_1_1_FlowersAndTrees_1932_DVD_ELAN.eaf'
p1799
sg18
I00
sba(i__main__
Movie
p1800
(dp1801
g3
Nsg4
S'Schwarzwaldmaedel'
p1802
sg6
S'//130.60.131.134/studi/Filme/mittlere_Filme/821_Schwarzwaldmaedel_1950/'
p1803
sg8
(lp1804
S'//130.60.131.134/studi/Filme/mittlere_Filme/821_Schwarzwaldmaedel_1950\\821_1_2_Schwarzwaldmaedel_1950_DVD_ELAN.txt'
p1805
asg10
(lp1806
I821
aI1
aI2
asg12
S'mittlere_Filme/821_Schwarzwaldmaedel_1950/'
p1807
sg14
I00
sg15
Nsg16
S'//130.60.131.134/studi/Filme/mittlere_Filme/821_Schwarzwaldmaedel_1950\\821_1_2_Schwarzwaldmaedel_1950_DVD_ELAN.eaf'
p1808
sg18
I00
sba(i__main__
Movie
p1809
(dp1810
g3
Nsg4
S'Frauenschicksale'
p1811
sg6
S'//130.60.131.134/studi/Filme/mittlere_Filme/840_Frauenschicksale_1952/'
p1812
sg8
(lp1813
S'//130.60.131.134/studi/Filme/mittlere_Filme/840_Frauenschicksale_1952\\840_1_1_Frauenschicksale_1952_DVD_ELAN.txt'
p1814
asg10
(lp1815
I840
aI1
aI1
asg12
S'mittlere_Filme/840_Frauenschicksale_1952/'
p1816
sg14
I00
sg15
Nsg16
S'//130.60.131.134/studi/Filme/mittlere_Filme/840_Frauenschicksale_1952\\840_1_1_Frauenschicksale_1952_DVD_ELAN.eaf'
p1817
sg18
I00
sba(i__main__
Movie
p1818
(dp1819
g3
Nsg4
S'FrenchCancan'
p1820
sg6
S'//130.60.131.134/studi/Filme/mittlere_Filme/864_French_Cancan_1954/'
p1821
sg8
(lp1822
sg10
(lp1823
I864
aI1
aI1
asg12
S'mittlere_Filme/864_French_Cancan_1954/'
p1824
sg14
I00
sg15
Nsg16
S'//130.60.131.134/studi/Filme/mittlere_Filme/864_French_Cancan_1954\\864_1_1_FrenchCancan_1954_DVD.eaf'
p1825
sg18
I00
sba(i__main__
Movie
p1826
(dp1827
g3
Nsg4
S'TheWizardOfOz'
p1828
sg6
S'//130.60.131.134/studi/Filme/mittlere_Filme/87_The_Wizard_of_Oz_1939/'
p1829
sg8
(lp1830
sg10
(lp1831
I87
aI1
aI1
asg12
S'mittlere_Filme/87_The_Wizard_of_Oz_1939/'
p1832
sg14
I00
sg15
Nsg16
S'//130.60.131.134/studi/Filme/mittlere_Filme/87_The_Wizard_of_Oz_1939\\87_1_1_TheWizardOfOz_1939_DVD_ELAN.eaf'
p1833
sg18
I00
sba(i__main__
Movie
p1834
(dp1835
g3
Nsg4
S'MaerkischeFahrt'
p1836
sg6
S'//130.60.131.134/studi/Filme/mittlere_Filme/891_Maerkische_Fahrt_1942/'
p1837
sg8
(lp1838
S'//130.60.131.134/studi/Filme/mittlere_Filme/891_Maerkische_Fahrt_1942\\891_1_3_MaerkischeFahrt_1942_DVD_ELAN.txt'
p1839
asg10
(lp1840
I891
aI1
aI3
asg12
S'mittlere_Filme/891_Maerkische_Fahrt_1942/'
p1841
sg14
I00
sg15
Nsg16
S'//130.60.131.134/studi/Filme/mittlere_Filme/891_Maerkische_Fahrt_1942\\891_1_3_MaerkischeFahrt_1942_DVD_ELAN.eaf'
p1842
sg18
I00
sba(i__main__
Movie
p1843
(dp1844
g3
Nsg4
S'GoneWithTheWind'
p1845
sg6
S'//130.60.131.134/studi/Filme/mittlere_Filme/8_Gone_With_The_Wind_1940/8_1_1_Gone with the Wind_1940_DVD/'
p1846
sg8
(lp1847
sg10
(lp1848
I8
aI1
aI1
asg12
S'mittlere_Filme/8_Gone_With_The_Wind_1940/8_1_1_Gone with the Wind_1940_DVD/'
p1849
sg14
I00
sg15
Nsg16
S'//130.60.131.134/studi/Filme/mittlere_Filme/8_Gone_With_The_Wind_1940/8_1_1_Gone with the Wind_1940_DVD\\8_1_1_GoneWithTheWind_Part1_1940_DVD_ELAN.eaf'
p1850
sg18
I00
sba(i__main__
Movie
p1851
(dp1852
g3
Nsg4
S'GoneWithTheWind'
p1853
sg6
S'//130.60.131.134/studi/Filme/mittlere_Filme/8_Gone_With_The_Wind_1940/8_1_2_Gone with the Wind_1940_DVD/'
p1854
sg8
(lp1855
sg10
(lp1856
I8
aI1
aI2
asg12
S'mittlere_Filme/8_Gone_With_The_Wind_1940/8_1_2_Gone with the Wind_1940_DVD/'
p1857
sg14
I00
sg15
Nsg16
S'//130.60.131.134/studi/Filme/mittlere_Filme/8_Gone_With_The_Wind_1940/8_1_2_Gone with the Wind_1940_DVD\\8_1_2_GoneWithTheWind_Part2_1940_DVD_ELAN.eaf'
p1858
sg18
I00
sba(i__main__
Movie
p1859
(dp1860
g3
Nsg4
S'DodgeCity'
p1861
sg6
S'//130.60.131.134/studi/Filme/mittlere_Filme/948_Dodge_City_1939/'
p1862
sg8
(lp1863
sg10
(lp1864
I948
aI1
aI1
asg12
S'mittlere_Filme/948_Dodge_City_1939/'
p1865
sg14
I00
sg15
Nsg16
S'//130.60.131.134/studi/Filme/mittlere_Filme/948_Dodge_City_1939\\948_1_1_DodgeCity_1939_DVD_ELAN.eaf'
p1866
sg18
I00
sba(i__main__
Movie
p1867
(dp1868
g3
Nsg4
S'ParisOnParade'
p1869
sg6
S'//130.60.131.134/studi/Filme/mittlere_Filme/959_Paris_on_Parade_1938/'
p1870
sg8
(lp1871
S'//130.60.131.134/studi/Filme/mittlere_Filme/959_Paris_on_Parade_1938\\959_1_1_ParisOnParade_1938_DVD_ELAN.txt'
p1872
asg10
(lp1873
I959
aI1
aI1
asg12
S'mittlere_Filme/959_Paris_on_Parade_1938/'
p1874
sg14
I00
sg15
Nsg16
S'//130.60.131.134/studi/Filme/mittlere_Filme/959_Paris_on_Parade_1938\\959_1_1_ParisOnParade_1938_DVD_ELAN.eaf'
p1875
sg18
I00
sba(i__main__
Movie
p1876
(dp1877
g3
Nsg4
S'DeuxOuTroisChosesQueJeSaisDElle'
p1878
sg6
S'//130.60.131.134/studi/Filme/spaete_Filme/102_Deux_ou_trois_choses_que_je_sais_d_elle_1966/'
p1879
sg8
(lp1880
S'//130.60.131.134/studi/Filme/spaete_Filme/102_Deux_ou_trois_choses_que_je_sais_d_elle_1966\\102_1_1_DeuxOuTroisChosesQueJeSaisDElle_1966_DVD_ELAN.txt'
p1881
asg10
(lp1882
I102
aI1
aI1
asg12
S'spaete_Filme/102_Deux_ou_trois_choses_que_je_sais_d_elle_1966/'
p1883
sg14
I00
sg15
Nsg16
S'//130.60.131.134/studi/Filme/spaete_Filme/102_Deux_ou_trois_choses_que_je_sais_d_elle_1966\\ELAN Projektdatei\\102_1_1_DeuxOuTroisChosesQueJeSaisDElle_1966_DVD_ELAN.eaf'
p1884
sg18
I00
sba(i__main__
Movie
p1885
(dp1886
g3
Nsg4
S'Marnie'
p1887
sg6
S'//130.60.131.134/studi/Filme/spaete_Filme/103_Marnie_1964/'
p1888
sg8
(lp1889
S'//130.60.131.134/studi/Filme/spaete_Filme/103_Marnie_1964\\103_Marnie_1964_DVD_ELAN_Export.txt'
p1890
asg10
(lp1891
I103
aI1
aI1
asg12
S'spaete_Filme/103_Marnie_1964/'
p1892
sg14
I00
sg15
Nsg16
S'//130.60.131.134/studi/Filme/spaete_Filme/103_Marnie_1964\\103_1_1_Marnie_1964_DVD_ELAN.eaf'
p1893
sg18
I00
sba(i__main__
Movie
p1894
(dp1895
g3
Nsg4
S'PalJoey'
p1896
sg6
S'//130.60.131.134/studi/Filme/spaete_Filme/104_Pal_Joey_1957/'
p1897
sg8
(lp1898
S'//130.60.131.134/studi/Filme/spaete_Filme/104_Pal_Joey_1957\\104_1_1_PalJoey_1957_DVD_ELAN.txt'
p1899
asg10
(lp1900
I104
aI1
aI1
asg12
S'spaete_Filme/104_Pal_Joey_1957/'
p1901
sg14
I00
sg15
Nsg16
S'//130.60.131.134/studi/Filme/spaete_Filme/104_Pal_Joey_1957\\ELAN Projektdatei\\104_1_1_PalJoey_1957_DVD_ELAN.eaf'
p1902
sg18
I00
sba(i__main__
Movie
p1903
(dp1904
g3
Nsg4
S'LeMepris'
p1905
sg6
S'//130.60.131.134/studi/Filme/spaete_Filme/108_Le_Mepris_1964/'
p1906
sg8
(lp1907
S'//130.60.131.134/studi/Filme/spaete_Filme/108_Le_Mepris_1964\\108_1_1_LeMepris_DVD_ELAN_BF.txt'
p1908
asg10
(lp1909
I108
aI1
aI1
asg12
S'spaete_Filme/108_Le_Mepris_1964/'
p1910
sg14
I00
sg15
Nsg16
S'//130.60.131.134/studi/Filme/spaete_Filme/108_Le_Mepris_1964\\108_1_1_LeMepris_DVD_ELAN_BF.eaf'
p1911
sg18
I00
sba(i__main__
Movie
p1912
(dp1913
g3
Nsg4
S'ThePiano'
p1914
sg6
S'//130.60.131.134/studi/Filme/spaete_Filme/1142_The_Piano_1993/'
p1915
sg8
(lp1916
sg10
(lp1917
I1142
aI1
aI1
asg12
S'spaete_Filme/1142_The_Piano_1993/'
p1918
sg14
I00
sg15
Nsg16
S'//130.60.131.134/studi/Filme/spaete_Filme/1142_The_Piano_1993\\1142_1_1_ThePiano_1993_DVD_ELAN.eaf'
p1919
sg18
I00
sba(i__main__
Movie
p1920
(dp1921
g3
Nsg4
S'HallucinationsImagesduMondeVisionnaire'
p1922
sg6
S'//130.60.131.134/studi/Filme/spaete_Filme/116_HallucinationsImagesduMondeVisionnaire_1963/'
p1923
sg8
(lp1924
sg10
(lp1925
I116
aI1
aI1
asg12
S'spaete_Filme/116_HallucinationsImagesduMondeVisionnaire_1963/'
p1926
sg14
I00
sg15
Nsg16
S'//130.60.131.134/studi/Filme/spaete_Filme/116_HallucinationsImagesduMondeVisionnaire_1963\\116_1_1_HallucinationsImagesduMondeVisionnaire_1963_Medfilm_ELAN.eaf'
p1927
sg18
I00
sba(i__main__
Movie
p1928
(dp1929
g3
Nsg4
S'TheGodfather'
p1930
sg6
S'//130.60.131.134/studi/Filme/spaete_Filme/1242_The_Godfather_1972/'
p1931
sg8
(lp1932
S'//130.60.131.134/studi/Filme/spaete_Filme/1242_The_Godfather_1972\\1242_1_1_TheGodfather_1972_DVD_ELAN.txt'
p1933
asg10
(lp1934
I1242
aI1
aI1
asg12
S'spaete_Filme/1242_The_Godfather_1972/'
p1935
sg14
I00
sg15
Nsg16
S'//130.60.131.134/studi/Filme/spaete_Filme/1242_The_Godfather_1972\\ELAN Projektdatei\\1242_1_1_TheGodfather_1972_DVD_ELAN.eaf'
p1936
sg18
I00
sba(i__main__
Movie
p1937
(dp1938
g3
Nsg4
S'DontLookNow'
p1939
sg6
S'//130.60.131.134/studi/Filme/spaete_Filme/124_Dont_Look_Now_1974/'
p1940
sg8
(lp1941
S'//130.60.131.134/studi/Filme/spaete_Filme/124_Dont_Look_Now_1974\\124_DontLookNow_1974_DVD_ELAN_Export_2.txt'
p1942
asg10
(lp1943
I124
aI1
aI1
asg12
S'spaete_Filme/124_Dont_Look_Now_1974/'
p1944
sg14
I00
sg15
Nsg16
S'//130.60.131.134/studi/Filme/spaete_Filme/124_Dont_Look_Now_1974\\124_1_1_DontLookNow_1973_DVD_ELAN.eaf'
p1945
sg18
I00
sba(i__main__
Movie
p1946
(dp1947
g3
Nsg4
S'HallucinationsLaPerceptionetlImaginaire'
p1948
sg6
S'//130.60.131.134/studi/Filme/spaete_Filme/128_HallucinationsLaPerceptionetlImaginaire_1964/'
p1949
sg8
(lp1950
sg10
(lp1951
I128
aI1
aI1
asg12
S'spaete_Filme/128_HallucinationsLaPerceptionetlImaginaire_1964/'
p1952
sg14
I00
sg15
Nsg16
S'//130.60.131.134/studi/Filme/spaete_Filme/128_HallucinationsLaPerceptionetlImaginaire_1964\\128_1_1_HallucinationsLaPerceptionetlImaginaire_1964_Medfilm_ELAN.eaf'
p1953
sg18
I00
sba(i__main__
Movie
p1954
(dp1955
g3
Nsg4
S'TheLivingDaylights'
p1956
sg6
S'//130.60.131.134/studi/Filme/spaete_Filme/1296_The_Living_Daylights_1987/'
p1957
sg8
(lp1958
S'//130.60.131.134/studi/Filme/spaete_Filme/1296_The_Living_Daylights_1987\\1296_1_1_TheLivingDaylights_1987_DVD_ELAN.txt'
p1959
asg10
(lp1960
I1296
aI1
aI1
asg12
S'spaete_Filme/1296_The_Living_Daylights_1987/'
p1961
sg14
I00
sg15
Nsg16
S'//130.60.131.134/studi/Filme/spaete_Filme/1296_The_Living_Daylights_1987\\ELAN Projektdatei\\1296_1_1_TheLivingDaylights_1987_DVD_ELAN.eaf'
p1962
sg18
I00
sba(i__main__
Movie
p1963
(dp1964
g3
Nsg4
S'Aliens'
p1965
sg6
S'//130.60.131.134/studi/Filme/spaete_Filme/1307_Aliens_1986/'
p1966
sg8
(lp1967
S'//130.60.131.134/studi/Filme/spaete_Filme/1307_Aliens_1986\\1307_1_1_Aliens_1986_DVD_ELAN.txt'
p1968
asg10
(lp1969
I1307
aI1
aI1
asg12
S'spaete_Filme/1307_Aliens_1986/'
p1970
sg14
I00
sg15
Nsg16
S'//130.60.131.134/studi/Filme/spaete_Filme/1307_Aliens_1986\\ELAN Projektdatei\\1307_1_1_Aliens_1986_DVD_ELAN.eaf'
p1971
sg18
I00
sba(i__main__
Movie
p1972
(dp1973
g3
Nsg4
S'Batman'
p1974
sg6
S'//130.60.131.134/studi/Filme/spaete_Filme/1318_Batman_1989/'
p1975
sg8
(lp1976
S'//130.60.131.134/studi/Filme/spaete_Filme/1318_Batman_1989\\1318_1_1_Batman_1989_DVD_ELAN.txt'
p1977
asg10
(lp1978
I1318
aI1
aI1
asg12
S'spaete_Filme/1318_Batman_1989/'
p1979
sg14
I00
sg15
Nsg16
S'//130.60.131.134/studi/Filme/spaete_Filme/1318_Batman_1989\\ELAN Projektdatei\\1318_1_1_Batman_1989_DVD_ELAN.eaf'
p1980
sg18
I00
sba(i__main__
Movie
p1981
(dp1982
g3
Nsg4
S'OutOfAfrica'
p1983
sg6
S'//130.60.131.134/studi/Filme/spaete_Filme/1381_Out_Of_Africa_1985/'
p1984
sg8
(lp1985
S'//130.60.131.134/studi/Filme/spaete_Filme/1381_Out_Of_Africa_1985\\1381_1_1_OutOfAfrica_1985_DVD_ELAN.txt'
p1986
asg10
(lp1987
I1381
aI1
aI1
asg12
S'spaete_Filme/1381_Out_Of_Africa_1985/'
p1988
sg14
I00
sg15
Nsg16
S'//130.60.131.134/studi/Filme/spaete_Filme/1381_Out_Of_Africa_1985\\ELAN Projektdatei\\1381_1_1_OutOfAfrica_1985_DVD_ELAN.eaf'
p1989
sg18
I00
sba(i__main__
Movie
p1990
(dp1991
g3
Nsg4
S'StarWarsV'
p1992
sg6
S'//130.60.131.134/studi/Filme/spaete_Filme/1400_Star_Wars_V_1980/'
p1993
sg8
(lp1994
sg10
(lp1995
I1400
aI1
aI1
asg12
S'spaete_Filme/1400_Star_Wars_V_1980/'
p1996
sg14
I00
sg15
Nsg16
S'//130.60.131.134/studi/Filme/spaete_Filme/1400_Star_Wars_V_1980\\1400_1_1_StarWarsV_1980_DVD_ELAN.eaf'
p1997
sg18
I00
sba(i__main__
Movie
p1998
(dp1999
g3
Nsg4
S'TheFrenchConnection'
p2000
sg6
S'//130.60.131.134/studi/Filme/spaete_Filme/1408_The_French_Connection_1971/'
p2001
sg8
(lp2002
S'//130.60.131.134/studi/Filme/spaete_Filme/1408_The_French_Connection_1971\\1408_1_1_TheFrenchConnection_1971_DVD_ELAN_export.txt'
p2003
aS'//130.60.131.134/studi/Filme/spaete_Filme/1408_The_French_Connection_1971\\1510_1_1_DasBoot_1981_DVD_ELAN_export.txt'
p2004
asg10
(lp2005
I1408
aI1
aI1
asg12
S'spaete_Filme/1408_The_French_Connection_1971/'
p2006
sg14
I00
sg15
Nsg16
S'//130.60.131.134/studi/Filme/spaete_Filme/1408_The_French_Connection_1971\\1408_1_1_TheFrenchConnection_1971_DVD_ELAN.eaf'
p2007
sg18
I00
sba(i__main__
Movie
p2008
(dp2009
g3
Nsg4
S'CloseEncountersoftheThirdKind'
p2010
sg6
S'//130.60.131.134/studi/Filme/spaete_Filme/149_Close_Encounters_of_the_Third_Kind_1977/'
p2011
sg8
(lp2012
sg10
(lp2013
I149
aI1
aI1
asg12
S'spaete_Filme/149_Close_Encounters_of_the_Third_Kind_1977/'
p2014
sg14
I00
sg15
Nsg16
S'//130.60.131.134/studi/Filme/spaete_Filme/149_Close_Encounters_of_the_Third_Kind_1977\\149_1_1_CloseEncountersoftheThirdKind_1977_DVD_ELAN.eaf'
p2015
sg18
I00
sba(i__main__
Movie
p2016
(dp2017
g3
Nsg4
S'UneFemmeEstUneFemme'
p2018
sg6
S'//130.60.131.134/studi/Filme/spaete_Filme/14_Une_Femme_est_une_Femme_1961/'
p2019
sg8
(lp2020
S'//130.60.131.134/studi/Filme/spaete_Filme/14_Une_Femme_est_une_Femme_1961\\14_1_1_UneFemmeEstUneFemme_1961_DVD_ELAN_BF.txt'
p2021
asg10
(lp2022
I14
aI1
aI1
asg12
S'spaete_Filme/14_Une_Femme_est_une_Femme_1961/'
p2023
sg14
I00
sg15
Nsg16
S'//130.60.131.134/studi/Filme/spaete_Filme/14_Une_Femme_est_une_Femme_1961\\14_1_1_UneFemmeEstUneFemme_1961_DVD_ELAN_BF.eaf'
p2024
sg18
I00
sba(i__main__
Movie
p2025
(dp2026
g3
Nsg4
S'DasBoot'
p2027
sg6
S'//130.60.131.134/studi/Filme/spaete_Filme/1510_Das_Boot_1981/'
p2028
sg8
(lp2029
S'//130.60.131.134/studi/Filme/spaete_Filme/1510_Das_Boot_1981\\1510_1_1_DasBoot_1981_DVD_ELAN_export.txt'
p2030
aS'//130.60.131.134/studi/Filme/spaete_Filme/1510_Das_Boot_1981\\1510_1_1_DasBoot_1981_DVD_ELAN_export.csv'
p2031
aS'//130.60.131.134/studi/Filme/spaete_Filme/1510_Das_Boot_1981\\1510_1_1_DasBoot_1981_DVD_FCT_snapchots.csv'
p2032
aS'//130.60.131.134/studi/Filme/spaete_Filme/1510_Das_Boot_1981\\1510_1_1_DasBoot_1981_DVD_FCT_temp.csv'
p2033
asg10
(lp2034
I1510
aI1
aI1
asg12
S'spaete_Filme/1510_Das_Boot_1981/'
p2035
sg14
I00
sg15
Nsg16
S'//130.60.131.134/studi/Filme/spaete_Filme/1510_Das_Boot_1981\\1510_1_1_DasBoot_1981_DVD_ELAN.eaf'
p2036
sg18
I00
sba(i__main__
Movie
p2037
(dp2038
g3
Nsg4
S'DaysOfHeaven'
p2039
sg6
S'//130.60.131.134/studi/Filme/spaete_Filme/1517_Days_of_Heaven_1978/'
p2040
sg8
(lp2041
S'//130.60.131.134/studi/Filme/spaete_Filme/1517_Days_of_Heaven_1978\\1517_1_1_DaysOfHeaven_1978_DVD_ELAN.txt'
p2042
asg10
(lp2043
I1517
aI1
aI1
asg12
S'spaete_Filme/1517_Days_of_Heaven_1978/'
p2044
sg14
I00
sg15
Nsg16
S'//130.60.131.134/studi/Filme/spaete_Filme/1517_Days_of_Heaven_1978\\ELAN Projektdatei\\1517_1_1_DaysOfHeaven_1978_DVD_ELAN.eaf'
p2045
sg18
I00
sba(i__main__
Movie
p2046
(dp2047
g3
Nsg4
S'DickTracy'
p2048
sg6
S'//130.60.131.134/studi/Filme/spaete_Filme/1535_Dick_Tracy_1990/'
p2049
sg8
(lp2050
S'//130.60.131.134/studi/Filme/spaete_Filme/1535_Dick_Tracy_1990\\1535_1_1_DickTracy_1990_DVD_ELAN_2.txt'
p2051
asg10
(lp2052
I1535
aI1
aI1
asg12
S'spaete_Filme/1535_Dick_Tracy_1990/'
p2053
sg14
I00
sg15
Nsg16
S'//130.60.131.134/studi/Filme/spaete_Filme/1535_Dick_Tracy_1990\\1535_1_1_DickTracy_1990_DVD_ELAN.eaf'
p2054
sg18
I00
sba(i__main__
Movie
p2055
(dp2056
g3
Nsg4
S'DieEheDerMariaBraun'
p2057
sg6
S'//130.60.131.134/studi/Filme/spaete_Filme/1537_Die_Ehe_Der_Maria_Braun_1979/'
p2058
sg8
(lp2059
S'//130.60.131.134/studi/Filme/spaete_Filme/1537_Die_Ehe_Der_Maria_Braun_1979\\1537_1_1_DieEheDerMariaBraun_1979_DVD_ELAN_export.txt'
p2060
asg10
(lp2061
I1537
aI1
aI1
asg12
S'spaete_Filme/1537_Die_Ehe_Der_Maria_Braun_1979/'
p2062
sg14
I00
sg15
Nsg16
S'//130.60.131.134/studi/Filme/spaete_Filme/1537_Die_Ehe_Der_Maria_Braun_1979\\1537_1_1_DieEheDerMariaBraun_1979_DVD_ELAN.eaf'
p2063
sg18
I00
sba(i__main__
Movie
p2064
(dp2065
g3
Nsg4
S'Eolomea'
p2066
sg6
S'//130.60.131.134/studi/Filme/spaete_Filme/1563_Eolomea_1972/'
p2067
sg8
(lp2068
S'//130.60.131.134/studi/Filme/spaete_Filme/1563_Eolomea_1972\\1563_1_1_Eolomea_1972_DVD_ELAN.txt'
p2069
asg10
(lp2070
I1563
aI1
aI1
asg12
S'spaete_Filme/1563_Eolomea_1972/'
p2071
sg14
I00
sg15
Nsg16
S'//130.60.131.134/studi/Filme/spaete_Filme/1563_Eolomea_1972\\ELAN Projektdatei\\1563_1_1_Eolomea_1972_DVD_ELAN.eaf'
p2072
sg18
I00
sba(i__main__
Movie
p2073
(dp2074
g3
Nsg4
S'Flashdance'
p2075
sg6
S'//130.60.131.134/studi/Filme/spaete_Filme/1574_Flashdance_1983/'
p2076
sg8
(lp2077
S'//130.60.131.134/studi/Filme/spaete_Filme/1574_Flashdance_1983\\1574_1_1_Flashdance_1983_DVD_ELAN.txt'
p2078
asg10
(lp2079
I1574
aI1
aI1
asg12
S'spaete_Filme/1574_Flashdance_1983/'
p2080
sg14
I00
sg15
Nsg16
S'//130.60.131.134/studi/Filme/spaete_Filme/1574_Flashdance_1983\\ELAN Projektdatei\\1574_1_1_Flashdance_1983_DVD_ELAN.eaf'
p2081
sg18
I00
sba(i__main__
Movie
p2082
(dp2083
g3
Nsg4
S'TroisCouleursBlue'
p2084
sg6
S'//130.60.131.134/studi/Filme/spaete_Filme/15_Trois_couleurs_Blue_1993/'
p2085
sg8
(lp2086
S'//130.60.131.134/studi/Filme/spaete_Filme/15_Trois_couleurs_Blue_1993\\15_1_1_TroisCouleursBlue_1993_DVD_ELAN_2_Export_ELAN.txt'
p2087
asg10
(lp2088
I15
aI1
aI1
asg12
S'spaete_Filme/15_Trois_couleurs_Blue_1993/'
p2089
sg14
I00
sg15
Nsg16
S'//130.60.131.134/studi/Filme/spaete_Filme/15_Trois_couleurs_Blue_1993\\15_1_1_TroisCouleursBlue_1993_DVD_ELAN_2_JK.eaf'
p2090
sg18
I00
sba(i__main__
Movie
p2091
(dp2092
g3
Nsg4
S'LaDoubleVieDeVeronique'
p2093
sg6
S'//130.60.131.134/studi/Filme/spaete_Filme/1654_La_double_vie_de_Veronique_1991/'
p2094
sg8
(lp2095
S'//130.60.131.134/studi/Filme/spaete_Filme/1654_La_double_vie_de_Veronique_1991\\1654_1_1_LaDoubleVieDeVeronique_1991_DVD_ELAN.txt'
p2096
asg10
(lp2097
I1654
aI1
aI1
asg12
S'spaete_Filme/1654_La_double_vie_de_Veronique_1991/'
p2098
sg14
I00
sg15
Nsg16
S'//130.60.131.134/studi/Filme/spaete_Filme/1654_La_double_vie_de_Veronique_1991\\ELAN Projektdatei\\1654_1_1_LaDoubleVieDeVeronique_1991_DVD_ELAN.eaf'
p2099
sg18
I00
sba(i__main__
Movie
p2100
(dp2101
g3
Nsg4
S'LeDernierMetro'
p2102
sg6
S'//130.60.131.134/studi/Filme/spaete_Filme/1669_Le_Dernier_Metro_1980/'
p2103
sg8
(lp2104
S'//130.60.131.134/studi/Filme/spaete_Filme/1669_Le_Dernier_Metro_1980\\1669_1_1_LeDernierMetro_1980_DVD_ELAN_export.txt'
p2105
asg10
(lp2106
I1669
aI1
aI1
asg12
S'spaete_Filme/1669_Le_Dernier_Metro_1980/'
p2107
sg14
I00
sg15
Nsg16
S'//130.60.131.134/studi/Filme/spaete_Filme/1669_Le_Dernier_Metro_1980\\1669_1_1_LeDernierMetro_1980_DVD_ELAN.eaf'
p2108
sg18
I00
sba(i__main__
Movie
p2109
(dp2110
g3
Nsg4
S'AgeofInnocence'
p2111
sg6
S'//130.60.131.134/studi/Filme/spaete_Filme/16_Age_of_Innocence_1993/'
p2112
sg8
(lp2113
sg10
(lp2114
I16
aI1
aI1
asg12
S'spaete_Filme/16_Age_of_Innocence_1993/'
p2115
sg14
I00
sg15
Nsg16
S'//130.60.131.134/studi/Filme/spaete_Filme/16_Age_of_Innocence_1993\\16_1_1_AgeofInnocence_1993_DVD_ELAN.eaf'
p2116
sg18
I00
sba(i__main__
Movie
p2117
(dp2118
g3
Nsg4
S'CeraUnaVoltaIlWest'
p2119
sg6
S'//130.60.131.134/studi/Filme/spaete_Filme/1746_Cera_Una_Volta_Il_West_1968/'
p2120
sg8
(lp2121
S'//130.60.131.134/studi/Filme/spaete_Filme/1746_Cera_Una_Volta_Il_West_1968\\1746_1_1_CeraUnaVoltaIlWest_1968_DVD_ELAN_export.txt'
p2122
asg10
(lp2123
I1746
aI1
aI1
asg12
S'spaete_Filme/1746_Cera_Una_Volta_Il_West_1968/'
p2124
sg14
I00
sg15
Nsg16
S'//130.60.131.134/studi/Filme/spaete_Filme/1746_Cera_Una_Volta_Il_West_1968\\1746_1_1_CeraUnaVoltaIlWest_1968_DVD_ELAN.eaf'
p2125
sg18
I00
sba(i__main__
Movie
p2126
(dp2127
g3
Nsg4
S'Ran'
p2128
sg6
S'//130.60.131.134/studi/Filme/spaete_Filme/1774_Ran_1985/'
p2129
sg8
(lp2130
S'//130.60.131.134/studi/Filme/spaete_Filme/1774_Ran_1985\\1774_1_1_Ran_1985_DVD_ELAN_export.txt'
p2131
asg10
(lp2132
I1774
aI1
aI1
asg12
S'spaete_Filme/1774_Ran_1985/'
p2133
sg14
I00
sg15
Nsg16
S'//130.60.131.134/studi/Filme/spaete_Filme/1774_Ran_1985\\1774_1_1_Ran_1985_DVD_ELAN.eaf'
p2134
sg18
I00
sba(i__main__
Movie
p2135
(dp2136
g3
Nsg4
S'TheLastEmperor'
p2137
sg6
S'//130.60.131.134/studi/Filme/spaete_Filme/1860_The_Last_Emperor_1987/'
p2138
sg8
(lp2139
S'//130.60.131.134/studi/Filme/spaete_Filme/1860_The_Last_Emperor_1987\\1860_1_1_TheLastEmperor_1987_BluRay_ELAN.txt'
p2140
asg10
(lp2141
I1860
aI1
aI1
asg12
S'spaete_Filme/1860_The_Last_Emperor_1987/'
p2142
sg14
I00
sg15
Nsg16
S'//130.60.131.134/studi/Filme/spaete_Filme/1860_The_Last_Emperor_1987\\ELAN Projektdatei\\1860_1_1_TheLastEmperor_1987_BluRay_ELAN.eaf'
p2143
sg18
I00
sba(i__main__
Movie
p2144
(dp2145
g3
Nsg4
S'TheManWhoFellToEarth'
p2146
sg6
S'//130.60.131.134/studi/Filme/spaete_Filme/1868_The_Man_Who_Fell_To_Earth_1976/'
p2147
sg8
(lp2148
S'//130.60.131.134/studi/Filme/spaete_Filme/1868_The_Man_Who_Fell_To_Earth_1976\\1868_1_1_TheManWhoFellToEarth_1976_DVD_ELAN_export.txt'
p2149
asg10
(lp2150
I1868
aI1
aI1
asg12
S'spaete_Filme/1868_The_Man_Who_Fell_To_Earth_1976/'
p2151
sg14
I00
sg15
Nsg16
S'//130.60.131.134/studi/Filme/spaete_Filme/1868_The_Man_Who_Fell_To_Earth_1976\\1868_1_1_TheManWhoFellToEarth_1976_DVD_ELAN.eaf'
p2152
sg18
I00
sba(i__main__
Movie
p2153
(dp2154
g3
Nsg4
S'SilenceLambs'
p2155
sg6
S'//130.60.131.134/studi/Filme/spaete_Filme/1880_SilenceLambs_1991/'
p2156
sg8
(lp2157
sg10
(lp2158
I1880
aI1
aI1
asg12
S'spaete_Filme/1880_SilenceLambs_1991/'
p2159
sg14
I00
sg15
Nsg16
S'//130.60.131.134/studi/Filme/spaete_Filme/1880_SilenceLambs_1991\\1880_1_1_SilenceLambs_1991_DVD_ELAN.eaf'
p2160
sg18
I00
sba(i__main__
Movie
p2161
(dp2162
g3
Nsg4
S'UnaGiornataParticolare'
p2163
sg6
S'//130.60.131.134/studi/Filme/spaete_Filme/1908_UnaGiornataParticolare_1977/'
p2164
sg8
(lp2165
sg10
(lp2166
I1908
aI1
aI1
asg12
S'spaete_Filme/1908_UnaGiornataParticolare_1977/'
p2167
sg14
I00
sg15
Nsg16
S'//130.60.131.134/studi/Filme/spaete_Filme/1908_UnaGiornataParticolare_1977\\1908_1_1_UnaGiornataParticolare_1977.eaf'
p2168
sg18
I00
sba(i__main__
Movie
p2169
(dp2170
g3
Nsg4
S'THX1138'
p2171
sg6
S'//130.60.131.134/studi/Filme/spaete_Filme/1976_THX_1138_1971/'
p2172
sg8
(lp2173
S'//130.60.131.134/studi/Filme/spaete_Filme/1976_THX_1138_1971\\1976_1_1_THX1138_1971_DVD_ELAN_export.txt'
p2174
asg10
(lp2175
I1976
aI1
aI1
asg12
S'spaete_Filme/1976_THX_1138_1971/'
p2176
sg14
I00
sg15
Nsg16
S'//130.60.131.134/studi/Filme/spaete_Filme/1976_THX_1138_1971\\1976_1_1_THX1138_1971_DVD_ELAN.eaf'
p2177
sg18
I00
sba(i__main__
Movie
p2178
(dp2179
g3
Nsg4
S'IlDesertoRosso'
p2180
sg6
S'//130.60.131.134/studi/Filme/spaete_Filme/203_Il_Deserto_Rosso_1964/'
p2181
sg8
(lp2182
sg10
(lp2183
I203
aI1
aI1
asg12
S'spaete_Filme/203_Il_Deserto_Rosso_1964/'
p2184
sg14
I00
sg15
Nsg16
S'//130.60.131.134/studi/Filme/spaete_Filme/203_Il_Deserto_Rosso_1964\\203_1_1_IlDesertoRosso_1964_DVD_ELAN.eaf'
p2185
sg18
I00
sba(i__main__
Movie
p2186
(dp2187
g3
Nsg4
S'Vertigo'
p2188
sg6
S'//130.60.131.134/studi/Filme/spaete_Filme/205_Vertigo_1958/'
p2189
sg8
(lp2190
S'//130.60.131.134/studi/Filme/spaete_Filme/205_Vertigo_1958\\205_1_1_Vertigo_1958_DVD_ELAN_Export.txt'
p2191
asg10
(lp2192
I205
aI1
aI1
asg12
S'spaete_Filme/205_Vertigo_1958/'
p2193
sg14
I00
sg15
Nsg16
S'//130.60.131.134/studi/Filme/spaete_Filme/205_Vertigo_1958\\205_1_1_Vertigo_1958_DVD_ELAN.eaf'
p2194
sg18
I00
sba(i__main__
Movie
p2195
(dp2196
g3
Nsg4
S'IWantYou'
p2197
sg6
S'//130.60.131.134/studi/Filme/spaete_Filme/207_I_Want_You_1998/'
p2198
sg8
(lp2199
S'//130.60.131.134/studi/Filme/spaete_Filme/207_I_Want_You_1998\\207_1_1_IWantYou_1998_DVD_ELAN.txt'
p2200
asg10
(lp2201
I207
aI1
aI1
asg12
S'spaete_Filme/207_I_Want_You_1998/'
p2202
sg14
I00
sg15
Nsg16
S'//130.60.131.134/studi/Filme/spaete_Filme/207_I_Want_You_1998\\ELAN Projektdatei\\207_1_1_IWantYou_1998_DVD_ELAN.eaf'
p2203
sg18
I00
sba(i__main__
Movie
p2204
(dp2205
g3
Nsg4
S'Suspiria'
p2206
sg6
S'//130.60.131.134/studi/Filme/spaete_Filme/209_Suspiria_1977/'
p2207
sg8
(lp2208
S'//130.60.131.134/studi/Filme/spaete_Filme/209_Suspiria_1977\\209_1_1_Suspiria_1977_DVD_ELAN.txt'
p2209
asg10
(lp2210
I209
aI1
aI1
asg12
S'spaete_Filme/209_Suspiria_1977/'
p2211
sg14
I00
sg15
Nsg16
S'//130.60.131.134/studi/Filme/spaete_Filme/209_Suspiria_1977\\ELAN Projektdatei\\209_1_1_Suspiria_1977_DVD_ELAN.eaf'
p2212
sg18
I00
sba(i__main__
Movie
p2213
(dp2214
g3
Nsg4
S'ChungHingSamIam'
p2215
sg6
S'//130.60.131.134/studi/Filme/spaete_Filme/210_Chung_Hing_sam_Iam_1996/'
p2216
sg8
(lp2217
S'//130.60.131.134/studi/Filme/spaete_Filme/210_Chung_Hing_sam_Iam_1996\\210_1_1_ChungHingSamIam_1996_DVD_ELAN_Export.txt'
p2218
asg10
(lp2219
I210
aI1
aI1
asg12
S'spaete_Filme/210_Chung_Hing_sam_Iam_1996/'
p2220
sg14
I00
sg15
Nsg16
S'//130.60.131.134/studi/Filme/spaete_Filme/210_Chung_Hing_sam_Iam_1996\\210_1_1_ChungHingSamIam_1996_DVD_ELAN.eaf'
p2221
sg18
I00
sba(i__main__
Movie
p2222
(dp2223
g3
Nsg4
S'SoloSunny'
p2224
sg6
S'//130.60.131.134/studi/Filme/spaete_Filme/212_Solo_Sunny_1980/'
p2225
sg8
(lp2226
S'//130.60.131.134/studi/Filme/spaete_Filme/212_Solo_Sunny_1980\\212_SoloSunny_1980_DVD_ELAN_Export.txt'
p2227
asg10
(lp2228
I212
aI1
aI1
asg12
S'spaete_Filme/212_Solo_Sunny_1980/'
p2229
sg14
I00
sg15
Nsg16
S'//130.60.131.134/studi/Filme/spaete_Filme/212_Solo_Sunny_1980\\212_1_1_SoloSunny_1980_DVD_ELAN.eaf'
p2230
sg18
I00
sba(i__main__
Movie
p2231
(dp2232
g3
Nsg4
S'TheCookTheThiefHisWifeAndHerLover'
p2233
sg6
S'//130.60.131.134/studi/Filme/spaete_Filme/215_The_Cook_the_Thief_His_Wife_and_Her_Lover_1990/'
p2234
sg8
(lp2235
S'//130.60.131.134/studi/Filme/spaete_Filme/215_The_Cook_the_Thief_His_Wife_and_Her_Lover_1990\\215_1_1_TheCookTheThiefHisWifeAndHerLover_1990_DVD_ELAN_Export2.txt'
p2236
asg10
(lp2237
I215
aI1
aI1
asg12
S'spaete_Filme/215_The_Cook_the_Thief_His_Wife_and_Her_Lover_1990/'
p2238
sg14
I00
sg15
Nsg16
S'//130.60.131.134/studi/Filme/spaete_Filme/215_The_Cook_the_Thief_His_Wife_and_Her_Lover_1990\\215_1_1_TheCookTheThiefHisWifeAndHerLover_1990_DVD_ELAN.eaf'
p2239
sg18
I00
sba(i__main__
Movie
p2240
(dp2241
g3
Nsg4
S'LesParapuiesDeCherbourg'
p2242
sg6
S'//130.60.131.134/studi/Filme/spaete_Filme/216_Les_parapluies_de_Cherbourg_1964/'
p2243
sg8
(lp2244
sg10
(lp2245
I216
aI1
aI1
asg12
S'spaete_Filme/216_Les_parapluies_de_Cherbourg_1964/'
p2246
sg14
I00
sg15
Nsg16
S'//130.60.131.134/studi/Filme/spaete_Filme/216_Les_parapluies_de_Cherbourg_1964\\216_1_1_LesParapuiesDeCherbourg_1964_DVD.eaf'
p2247
sg18
I00
sba(i__main__
Movie
p2248
(dp2249
g3
Nsg4
S'ApocalypseNow'
p2250
sg6
S'//130.60.131.134/studi/Filme/spaete_Filme/218_Apocalypse_Now_1979/'
p2251
sg8
(lp2252
S'//130.60.131.134/studi/Filme/spaete_Filme/218_Apocalypse_Now_1979\\218_1_1_ApocalypseNow_1979_DVD_ELAN_2-export.txt'
p2253
aS'//130.60.131.134/studi/Filme/spaete_Filme/218_Apocalypse_Now_1979\\218_1_1_ApocalypseNow_1979_DVD_ELAN_2-export.csv'
p2254
aS'//130.60.131.134/studi/Filme/spaete_Filme/218_Apocalypse_Now_1979\\218_1_1_ApocalypseNow_1979_DVD_FCT_snapchots.csv'
p2255
aS'//130.60.131.134/studi/Filme/spaete_Filme/218_Apocalypse_Now_1979\\218_1_1_ApocalypseNow_1979_DVD_FCT_temp.csv'
p2256
asg10
(lp2257
I218
aI1
aI1
asg12
S'spaete_Filme/218_Apocalypse_Now_1979/'
p2258
sg14
I00
sg15
Nsg16
S'//130.60.131.134/studi/Filme/spaete_Filme/218_Apocalypse_Now_1979\\218_1_1_ApocalypseNow_1979_DVD_ELAN_2.eaf'
p2259
sg18
I00
sba(i__main__
Movie
p2260
(dp2261
g3
Nsg4
S'ImitationOfLife'
p2262
sg6
S'//130.60.131.134/studi/Filme/spaete_Filme/21_Imitation_of_Life_1959/'
p2263
sg8
(lp2264
sg10
(lp2265
I21
aI1
aI1
asg12
S'spaete_Filme/21_Imitation_of_Life_1959/'
p2266
sg14
I00
sg15
Nsg16
S'//130.60.131.134/studi/Filme/spaete_Filme/21_Imitation_of_Life_1959\\21_1_1_ImitationOfLife_15072016_BF.eaf'
p2267
sg18
I00
sba(i__main__
Movie
p2268
(dp2269
g3
Nsg4
S'NarayamaBushiko'
p2270
sg6
S'//130.60.131.134/studi/Filme/spaete_Filme/227_NarayamaBushiko_1958/'
p2271
sg8
(lp2272
S'//130.60.131.134/studi/Filme/spaete_Filme/227_NarayamaBushiko_1958\\227_1_1_NarayamaBushiko_1958_DVD_ELAN_Export.txt'
p2273
asg10
(lp2274
I227
aI1
aI1
asg12
S'spaete_Filme/227_NarayamaBushiko_1958/'
p2275
sg14
I00
sg15
Nsg16
S'//130.60.131.134/studi/Filme/spaete_Filme/227_NarayamaBushiko_1958\\227_1_1_NarayamaBushiko_1958_DVD_ELAN.eaf'
p2276
sg18
I00
sba(i__main__
Movie
p2277
(dp2278
g3
Nsg4
S'Jigokumon'
p2279
sg6
S'//130.60.131.134/studi/Filme/spaete_Filme/229_Jigokumon_1953/'
p2280
sg8
(lp2281
sg10
(lp2282
I229
aI1
aI1
asg12
S'spaete_Filme/229_Jigokumon_1953/'
p2283
sg14
I00
sg15
Nsg16
S'//130.60.131.134/studi/Filme/spaete_Filme/229_Jigokumon_1953\\229_1_1_Jigokumon_1953_BF.eaf'
p2284
sg18
I00
sba(i__main__
Movie
p2285
(dp2286
g3
Nsg4
S'Stalker'
p2287
sg6
S'//130.60.131.134/studi/Filme/spaete_Filme/23_Stalker_1980/'
p2288
sg8
(lp2289
S'//130.60.131.134/studi/Filme/spaete_Filme/23_Stalker_1980\\023_1_1_Stalker_1980_DVD_ELAN_Export.txt'
p2290
asg10
(lp2291
I23
aI1
aI1
asg12
S'spaete_Filme/23_Stalker_1980/'
p2292
sg14
I00
sg15
Nsg16
S'//130.60.131.134/studi/Filme/spaete_Filme/23_Stalker_1980\\023_1_1_Stalker_1980_DVD_ELAN.eaf'
p2293
sg18
I00
sba(i__main__
Movie
p2294
(dp2295
g3
Nsg4
S'IntheMoodforLove'
p2296
sg6
S'//130.60.131.134/studi/Filme/spaete_Filme/240_In_the_Mood_for_Love_2000/'
p2297
sg8
(lp2298
sg10
(lp2299
I240
aI1
aI1
asg12
S'spaete_Filme/240_In_the_Mood_for_Love_2000/'
p2300
sg14
I00
sg15
Nsg16
S'//130.60.131.134/studi/Filme/spaete_Filme/240_In_the_Mood_for_Love_2000\\240_1_1_IntheMoodforLove_2000_ELAN.eaf'
p2301
sg18
I00
sba(i__main__
Movie
p2302
(dp2303
g3
Nsg4
S'AllThatHeavenAllows'
p2304
sg6
S'//130.60.131.134/studi/Filme/spaete_Filme/241_All_That_Heaven_Allows_1955/'
p2305
sg8
(lp2306
sg10
(lp2307
I241
aI1
aI1
asg12
S'spaete_Filme/241_All_That_Heaven_Allows_1955/'
p2308
sg14
I00
sg15
Nsg16
S'//130.60.131.134/studi/Filme/spaete_Filme/241_All_That_Heaven_Allows_1955\\241_1_1_AllThatHeavenAllows_1955_DVD_ELAN_BF.eaf'
p2309
sg18
I00
sba(i__main__
Movie
p2310
(dp2311
g3
Nsg4
S'BlueVelvet'
p2312
sg6
S'//130.60.131.134/studi/Filme/spaete_Filme/244_Blue_Velvet_1986/'
p2313
sg8
(lp2314
sg10
(lp2315
I244
aI1
aI1
asg12
S'spaete_Filme/244_Blue_Velvet_1986/'
p2316
sg14
I00
sg15
Nsg16
S'//130.60.131.134/studi/Filme/spaete_Filme/244_Blue_Velvet_1986\\244_1_1_BlueVelvet_1986_DVD_ELAN.eaf'
p2317
sg18
I00
sba(i__main__
Movie
p2318
(dp2319
g3
Nsg4
S'SayatNova'
p2320
sg6
S'//130.60.131.134/studi/Filme/spaete_Filme/246_Sayat_Nova_1969/'
p2321
sg8
(lp2322
sg10
(lp2323
I246
aI1
aI1
asg12
S'spaete_Filme/246_Sayat_Nova_1969/'
p2324
sg14
I00
sg15
Nsg16
S'//130.60.131.134/studi/Filme/spaete_Filme/246_Sayat_Nova_1969\\246_1_1_SayatNova_1969_DVD_ELAN.eaf'
p2325
sg18
I00
sba(i__main__
Movie
p2326
(dp2327
g3
Nsg4
S'MonOncle'
p2328
sg6
S'//130.60.131.134/studi/Filme/spaete_Filme/254_MonOncle_1958/'
p2329
sg8
(lp2330
S'//130.60.131.134/studi/Filme/spaete_Filme/254_MonOncle_1958\\254_1_1_MonOncle_1958_DVD_ELAN_Export.txt'
p2331
asg10
(lp2332
I254
aI1
aI1
asg12
S'spaete_Filme/254_MonOncle_1958/'
p2333
sg14
I00
sg15
Nsg16
S'//130.60.131.134/studi/Filme/spaete_Filme/254_MonOncle_1958\\254_1_1_MonOncle_1958_DVD_ELAN.eaf'
p2334
sg18
I00
sba(i__main__
Movie
p2335
(dp2336
g3
Nsg4
S'Lola'
p2337
sg6
S'//130.60.131.134/studi/Filme/spaete_Filme/255_Lola_1981/'
p2338
sg8
(lp2339
sg10
(lp2340
I255
aI1
aI1
asg12
S'spaete_Filme/255_Lola_1981/'
p2341
sg14
I00
sg15
Nsg16
S'//130.60.131.134/studi/Filme/spaete_Filme/255_Lola_1981\\255_1_1_Lola_1981_DVD_ELAN.eaf'
p2342
sg18
I00
sba(i__main__
Movie
p2343
(dp2344
g3
Nsg4
S'Viskningarochrop'
p2345
sg6
S'//130.60.131.134/studi/Filme/spaete_Filme/259_Viskningar_och_rop_1972/'
p2346
sg8
(lp2347
S'//130.60.131.134/studi/Filme/spaete_Filme/259_Viskningar_och_rop_1972\\259_1_1_Viskningarochrop_1972_DVD_ELAN_Export2.txt'
p2348
asg10
(lp2349
I259
aI1
aI1
asg12
S'spaete_Filme/259_Viskningar_och_rop_1972/'
p2350
sg14
I00
sg15
Nsg16
S'//130.60.131.134/studi/Filme/spaete_Filme/259_Viskningar_och_rop_1972\\259_1_1_Viskningarochrop_1972_DVD_ELAN.eaf'
p2351
sg18
I00
sba(i__main__
Movie
p2352
(dp2353
g3
Nsg4
S'FunnyFace'
p2354
sg6
S'//130.60.131.134/studi/Filme/spaete_Filme/260_FunnyFace_1957/'
p2355
sg8
(lp2356
sg10
(lp2357
I260
aI1
aI1
asg12
S'spaete_Filme/260_FunnyFace_1957/'
p2358
sg14
I00
sg15
Nsg16
S'//130.60.131.134/studi/Filme/spaete_Filme/260_FunnyFace_1957\\260_1_1_FunnyFace_1957.eaf'
p2359
sg18
I00
sba(i__main__
Movie
p2360
(dp2361
g3
Nsg4
S'SeiDonnePerLAssassino'
p2362
sg6
S'//130.60.131.134/studi/Filme/spaete_Filme/261_SeiDonnePerLAssassino_1964/'
p2363
sg8
(lp2364
S'//130.60.131.134/studi/Filme/spaete_Filme/261_SeiDonnePerLAssassino_1964\\261_1_1_SeiDonnePerLAssassino_1964_DVD_ELAN_BF.txt'
p2365
aS'//130.60.131.134/studi/Filme/spaete_Filme/261_SeiDonnePerLAssassino_1964\\261_1_1_SeiDonnePerLAssassino_1964_DVD_ELAN_BF_korr2.txt'
p2366
asg10
(lp2367
I261
aI1
aI1
asg12
S'spaete_Filme/261_SeiDonnePerLAssassino_1964/'
p2368
sg14
I00
sg15
Nsg16
S'//130.60.131.134/studi/Filme/spaete_Filme/261_SeiDonnePerLAssassino_1964\\261_1_1_SeiDonnePerLAssassino_1964_DVD_ELAN_BF_korr2.eaf'
p2369
sg18
I00
sba(i__main__
Movie
p2370
(dp2371
g3
Nsg4
S'IlMisteroDiOberwald'
p2372
sg6
S'//130.60.131.134/studi/Filme/spaete_Filme/277_Il_mistero_di_Oberwald_1981/'
p2373
sg8
(lp2374
S'//130.60.131.134/studi/Filme/spaete_Filme/277_Il_mistero_di_Oberwald_1981\\277_1_1_IlMisteroDiOberwald_1981_DVD.txt'
p2375
asg10
(lp2376
I277
aI1
aI1
asg12
S'spaete_Filme/277_Il_mistero_di_Oberwald_1981/'
p2377
sg14
I00
sg15
Nsg16
S'//130.60.131.134/studi/Filme/spaete_Filme/277_Il_mistero_di_Oberwald_1981\\277_1_1_IlMisteroDiOberwald_1981_DVD.eaf'
p2378
sg18
I00
sba(i__main__
Movie
p2379
(dp2380
g3
Nsg4
S'Possession'
p2381
sg6
S'//130.60.131.134/studi/Filme/spaete_Filme/278_Possession_1981/'
p2382
sg8
(lp2383
sg10
(lp2384
I278
aI1
aI1
asg12
S'spaete_Filme/278_Possession_1981/'
p2385
sg14
I00
sg15
Nsg16
S'//130.60.131.134/studi/Filme/spaete_Filme/278_Possession_1981\\278_1_1_Possession_1981_DVD_ELAN.eaf'
p2386
sg18
I00
sba(i__main__
Movie
p2387
(dp2388
g3
Nsg4
S'Kika'
p2389
sg6
S'//130.60.131.134/studi/Filme/spaete_Filme/280_Kika_1990/'
p2390
sg8
(lp2391
S'//130.60.131.134/studi/Filme/spaete_Filme/280_Kika_1990\\280_1_1_Kika_1993_DVD_ELAN_export.txt'
p2392
asg10
(lp2393
I280
aI1
aI1
asg12
S'spaete_Filme/280_Kika_1990/'
p2394
sg14
I00
sg15
Nsg16
S'//130.60.131.134/studi/Filme/spaete_Filme/280_Kika_1990\\280_1_1_Kika_1993_DVD_ELAN.eaf'
p2395
sg18
I00
sba(i__main__
Movie
p2396
(dp2397
g3
Nsg4
S'NorthByNorthwest'
p2398
sg6
S'//130.60.131.134/studi/Filme/spaete_Filme/282_NorthByNorthwest_1959/'
p2399
sg8
(lp2400
S'//130.60.131.134/studi/Filme/spaete_Filme/282_NorthByNorthwest_1959\\282_1_3_NorthByNorthwest_1959_BD_ELAN_BF.txt'
p2401
asg10
(lp2402
I282
aI1
aI3
asg12
S'spaete_Filme/282_NorthByNorthwest_1959/'
p2403
sg14
I00
sg15
Nsg16
S'//130.60.131.134/studi/Filme/spaete_Filme/282_NorthByNorthwest_1959\\282_1_3_NorthByNorthwest_1959_BD_ELAN_BF.eaf'
p2404
sg18
I00
sba(i__main__
Movie
p2405
(dp2406
g3
Nsg4
S'ToCatchAThief'
p2407
sg6
S'//130.60.131.134/studi/Filme/spaete_Filme/287_To_Catch_A_Thief_1955/'
p2408
sg8
(lp2409
S'//130.60.131.134/studi/Filme/spaete_Filme/287_To_Catch_A_Thief_1955\\287_1_1_ToCatchAThief_1955_Bluray_ELAN_BF.txt'
p2410
asg10
(lp2411
I287
aI1
aI1
asg12
S'spaete_Filme/287_To_Catch_A_Thief_1955/'
p2412
sg14
I00
sg15
Nsg16
S'//130.60.131.134/studi/Filme/spaete_Filme/287_To_Catch_A_Thief_1955\\287_1_1_ToCatchAThief_1955_Bluray_ELAN_BF.eaf'
p2413
sg18
I00
sba(i__main__
Movie
p2414
(dp2415
g3
Nsg4
S'SignaleEinWeltraumabenteuer'
p2416
sg6
S'//130.60.131.134/studi/Filme/spaete_Filme/2887_Signale_Ein_Weltraumabenteuer_1970/'
p2417
sg8
(lp2418
S'//130.60.131.134/studi/Filme/spaete_Filme/2887_Signale_Ein_Weltraumabenteuer_1970\\2887_1_1_SignaleEinWeltraumabenteuer_1970_DVD_ELAN_export.txt'
p2419
asg10
(lp2420
I2887
aI1
aI1
asg12
S'spaete_Filme/2887_Signale_Ein_Weltraumabenteuer_1970/'
p2421
sg14
I00
sg15
Nsg16
S'//130.60.131.134/studi/Filme/spaete_Filme/2887_Signale_Ein_Weltraumabenteuer_1970\\2887_1_1_SignaleEinWeltraumabenteuer_1970_DVD_ELAN.eaf'
p2422
sg18
I00
sba(i__main__
Movie
p2423
(dp2424
g3
Nsg4
S'Spartacus'
p2425
sg6
S'//130.60.131.134/studi/Filme/spaete_Filme/291_Spartacus_1960/'
p2426
sg8
(lp2427
sg10
(lp2428
I291
aI1
aI1
asg12
S'spaete_Filme/291_Spartacus_1960/'
p2429
sg14
I00
sg15
Nsg16
S'//130.60.131.134/studi/Filme/spaete_Filme/291_Spartacus_1960\\291_1_1_Spartacus_1960_DVD_ELAN.eaf'
p2430
sg18
I00
sba(i__main__
Movie
p2431
(dp2432
g3
Nsg4
S'ModestyBlaise'
p2433
sg6
S'//130.60.131.134/studi/Filme/spaete_Filme/3085_Modesty_Blaise_1965/'
p2434
sg8
(lp2435
S'//130.60.131.134/studi/Filme/spaete_Filme/3085_Modesty_Blaise_1965\\3085_1_1_ModestyBlaise_1965_DVD_ELAN_BF.txt'
p2436
asg10
(lp2437
I3085
aI1
aI1
asg12
S'spaete_Filme/3085_Modesty_Blaise_1965/'
p2438
sg14
I00
sg15
Nsg16
S'//130.60.131.134/studi/Filme/spaete_Filme/3085_Modesty_Blaise_1965\\3085_1_1_ModestyBlaise_1965_DVD_ELAN_BF.eaf'
p2439
sg18
I00
sba(i__main__
Movie
p2440
(dp2441
g3
Nsg4
S'Frenzy'
p2442
sg6
S'//130.60.131.134/studi/Filme/spaete_Filme/3093_Frenzy_1972/'
p2443
sg8
(lp2444
sg10
(lp2445
I3093
aI1
aI1
asg12
S'spaete_Filme/3093_Frenzy_1972/'
p2446
sg14
I00
sg15
Nsg16
S'//130.60.131.134/studi/Filme/spaete_Filme/3093_Frenzy_1972\\3093_1_1_Frenzy_1972_DVD_ELAN.eaf'
p2447
sg18
I00
sba(i__main__
Movie
p2448
(dp2449
g3
Nsg4
S'KyuketsukiGokemidoro'
p2450
sg6
S'//130.60.131.134/studi/Filme/spaete_Filme/3100_Kyuketsuki_Gokemidoro_1968/'
p2451
sg8
(lp2452
S'//130.60.131.134/studi/Filme/spaete_Filme/3100_Kyuketsuki_Gokemidoro_1968\\3100_1_1_KyuketsukiGokemidoro_1968_DVD_ELAN_export.txt'
p2453
asg10
(lp2454
I3100
aI1
aI1
asg12
S'spaete_Filme/3100_Kyuketsuki_Gokemidoro_1968/'
p2455
sg14
I00
sg15
Nsg16
S'//130.60.131.134/studi/Filme/spaete_Filme/3100_Kyuketsuki_Gokemidoro_1968\\3100_1_1_KyuketsukiGokemidoro_1968_DVD_ELAN.eaf'
p2456
sg18
I00
sba(i__main__
Movie
p2457
(dp2458
g3
Nsg4
S'KnochuDaisenso'
p2459
sg6
S'//130.60.131.134/studi/Filme/spaete_Filme/3101_Knochu_daisenso_1968/'
p2460
sg8
(lp2461
S'//130.60.131.134/studi/Filme/spaete_Filme/3101_Knochu_daisenso_1968\\3101_1_1_KnochuDaisenso_1968_DVD_ELAN_export.txt'
p2462
asg10
(lp2463
I3101
aI1
aI1
asg12
S'spaete_Filme/3101_Knochu_daisenso_1968/'
p2464
sg14
I00
sg15
Nsg16
S'//130.60.131.134/studi/Filme/spaete_Filme/3101_Knochu_daisenso_1968\\3101_1_1_KnochuDaisenso_1968_DVD_ELAN.eaf'
p2465
sg18
I00
sba(i__main__
Movie
p2466
(dp2467
g3
Nsg4
S'DerWegzudenSternen'
p2468
sg6
S'//130.60.131.134/studi/Filme/spaete_Filme/3102_DerWegzudenSternen_1957/'
p2469
sg8
(lp2470
S'//130.60.131.134/studi/Filme/spaete_Filme/3102_DerWegzudenSternen_1957\\3102_1_1_DerWegzudenSternen_1957_DVD_ELAN_export.txt'
p2471
asg10
(lp2472
I3102
aI1
aI1
asg12
S'spaete_Filme/3102_DerWegzudenSternen_1957/'
p2473
sg14
I00
sg15
Nsg16
S'//130.60.131.134/studi/Filme/spaete_Filme/3102_DerWegzudenSternen_1957\\3102_1_1_DerWegzudenSternen_1957_DVD_ELAN.eaf'
p2474
sg18
I00
sba(i__main__
Movie
p2475
(dp2476
g3
Nsg4
S'OtrokiVoVselennoy'
p2477
sg6
S'//130.60.131.134/studi/Filme/spaete_Filme/3137_Otroki_Vo_Vselennoy_1975/'
p2478
sg8
(lp2479
S'//130.60.131.134/studi/Filme/spaete_Filme/3137_Otroki_Vo_Vselennoy_1975\\3137_1_1_OtrokiVoVselennoy_1975_DVD_ELAN.txt'
p2480
asg10
(lp2481
I3137
aI1
aI1
asg12
S'spaete_Filme/3137_Otroki_Vo_Vselennoy_1975/'
p2482
sg14
I00
sg15
Nsg16
S'//130.60.131.134/studi/Filme/spaete_Filme/3137_Otroki_Vo_Vselennoy_1975\\ELAN Projektdatei\\3137_1_1_OtrokiVoVselennoy_1975_DVD_ELAN.eaf'
p2483
sg18
I00
sba(i__main__
Movie
p2484
(dp2485
g3
Nsg4
S'TheShelteringSky'
p2486
sg6
S'//130.60.131.134/studi/Filme/spaete_Filme/3144_The_Sheltering_Sky_1990/'
p2487
sg8
(lp2488
S'//130.60.131.134/studi/Filme/spaete_Filme/3144_The_Sheltering_Sky_1990\\3144_1_1_TheShelteringSky_1990_DVD_ELAN_export.txt'
p2489
asg10
(lp2490
I3144
aI1
aI1
asg12
S'spaete_Filme/3144_The_Sheltering_Sky_1990/'
p2491
sg14
I00
sg15
Nsg16
S'//130.60.131.134/studi/Filme/spaete_Filme/3144_The_Sheltering_Sky_1990\\3144_1_1_TheShelteringSky_1990_DVD_ELAN.eaf'
p2492
sg18
I00
sba(i__main__
Movie
p2493
(dp2494
g3
Nsg4
S'TheExorcist'
p2495
sg6
S'//130.60.131.134/studi/Filme/spaete_Filme/3145_TheExorcist_1973/'
p2496
sg8
(lp2497
S'//130.60.131.134/studi/Filme/spaete_Filme/3145_TheExorcist_1973\\3145_1_1_TheExorcist_1973_DVD_ELAN.txt'
p2498
asg10
(lp2499
I3145
aI1
aI1
asg12
S'spaete_Filme/3145_TheExorcist_1973/'
p2500
sg14
I00
sg15
Nsg16
S'//130.60.131.134/studi/Filme/spaete_Filme/3145_TheExorcist_1973\\3145_1_1_TheExorcist_1973_DVD_ELAN.eaf'
p2501
sg18
I00
sba(i__main__
Movie
p2502
(dp2503
g3
Nsg4
S'TheBlueLagoon'
p2504
sg6
S'//130.60.131.134/studi/Filme/spaete_Filme/3153_TheBlueLagoon_1980/'
p2505
sg8
(lp2506
S'//130.60.131.134/studi/Filme/spaete_Filme/3153_TheBlueLagoon_1980\\3153_1_1_TheBlueLagoon_1980_DVD_ELAN.txt'
p2507
asg10
(lp2508
I3153
aI1
aI1
asg12
S'spaete_Filme/3153_TheBlueLagoon_1980/'
p2509
sg14
I00
sg15
Nsg16
S'//130.60.131.134/studi/Filme/spaete_Filme/3153_TheBlueLagoon_1980\\3153_1_1_TheBlueLagoon_1980_DVD_ELAN.eaf'
p2510
sg18
I00
sba(i__main__
Movie
p2511
(dp2512
g3
Nsg4
S'TopGun'
p2513
sg6
S'//130.60.131.134/studi/Filme/spaete_Filme/3154_TopGun_1986/'
p2514
sg8
(lp2515
sg10
(lp2516
I3154
aI1
aI1
asg12
S'spaete_Filme/3154_TopGun_1986/'
p2517
sg14
I00
sg15
Nsg16
S'//130.60.131.134/studi/Filme/spaete_Filme/3154_TopGun_1986\\3154_1_1_TopGun_1986.eaf'
p2518
sg18
I00
sba(i__main__
Movie
p2519
(dp2520
g3
Nsg4
S'PlayTime'
p2521
sg6
S'//130.60.131.134/studi/Filme/spaete_Filme/315_Playtime_1967/'
p2522
sg8
(lp2523
sg10
(lp2524
I315
aI1
aI1
asg12
S'spaete_Filme/315_Playtime_1967/'
p2525
sg14
I00
sg15
Nsg16
S'//130.60.131.134/studi/Filme/spaete_Filme/315_Playtime_1967\\315_1_1_PlayTime_1967_DVD_ELAN.eaf'
p2526
sg18
I00
sba(i__main__
Movie
p2527
(dp2528
g3
Nsg4
S'TheShining'
p2529
sg6
S'//130.60.131.134/studi/Filme/spaete_Filme/316_TheShining_1980/'
p2530
sg8
(lp2531
sg10
(lp2532
I316
aI1
aI1
asg12
S'spaete_Filme/316_TheShining_1980/'
p2533
sg14
I00
sg15
Nsg16
S'//130.60.131.134/studi/Filme/spaete_Filme/316_TheShining_1980\\316_1_1_TheShining_1980_DVD_ELAN.eaf'
p2534
sg18
I00
sba(i__main__
Movie
p2535
(dp2536
g3
Nsg4
S'Hoehenfeuer'
p2537
sg6
S'//130.60.131.134/studi/Filme/spaete_Filme/3185_Hoehenfeuer_1985/'
p2538
sg8
(lp2539
S'//130.60.131.134/studi/Filme/spaete_Filme/3185_Hoehenfeuer_1985\\3185_1_1_Hoehenfeuer_1985_DVD_ELAN_export.txt'
p2540
asg10
(lp2541
I3185
aI1
aI1
asg12
S'spaete_Filme/3185_Hoehenfeuer_1985/'
p2542
sg14
I00
sg15
Nsg16
S'//130.60.131.134/studi/Filme/spaete_Filme/3185_Hoehenfeuer_1985\\3185_1_1_Hoehenfeuer_1985_DVD_ELAN.eaf'
p2543
sg18
I00
sba(i__main__
Movie
p2544
(dp2545
g3
Nsg4
S'Bilitis'
p2546
sg6
S'//130.60.131.134/studi/Filme/spaete_Filme/3231_Bilitis_1977/'
p2547
sg8
(lp2548
S'//130.60.131.134/studi/Filme/spaete_Filme/3231_Bilitis_1977\\3231_1_1_Bilitis_1977_DVD_ELAN_export.txt'
p2549
asg10
(lp2550
I3231
aI1
aI1
asg12
S'spaete_Filme/3231_Bilitis_1977/'
p2551
sg14
I00
sg15
Nsg16
S'//130.60.131.134/studi/Filme/spaete_Filme/3231_Bilitis_1977\\3231_1_1_Bilitis_1977_DVD_ELAN.eaf'
p2552
sg18
I00
sba(i__main__
Movie
p2553
(dp2554
g3
Nsg4
S'StarTrekVITheUndiscoveredCountry'
p2555
sg6
S'//130.60.131.134/studi/Filme/spaete_Filme/3243_Star_Trek_VI_The_Undiscovered_Country_1991/'
p2556
sg8
(lp2557
S'//130.60.131.134/studi/Filme/spaete_Filme/3243_Star_Trek_VI_The_Undiscovered_Country_1991\\3243_1_1_StarTrekVITheUndiscoveredCountry_1991_DVD_ELAN_export.txt'
p2558
asg10
(lp2559
I3243
aI1
aI1
asg12
S'spaete_Filme/3243_Star_Trek_VI_The_Undiscovered_Country_1991/'
p2560
sg14
I00
sg15
Nsg16
S'//130.60.131.134/studi/Filme/spaete_Filme/3243_Star_Trek_VI_The_Undiscovered_Country_1991\\3243_1_1_StarTrekVITheUndiscoveredCountry_1991_DVD_ELAN.eaf'
p2561
sg18
I00
sba(i__main__
Movie
p2562
(dp2563
g3
Nsg4
S'TschelowekAmfibija'
p2564
sg6
S'//130.60.131.134/studi/Filme/spaete_Filme/3244_Tschelowek_Amfibija_1963/'
p2565
sg8
(lp2566
S'//130.60.131.134/studi/Filme/spaete_Filme/3244_Tschelowek_Amfibija_1963\\3244_1_1_TschelowekAmfibija_1963_DVD_ELAN_export.txt'
p2567
asg10
(lp2568
I3244
aI1
aI1
asg12
S'spaete_Filme/3244_Tschelowek_Amfibija_1963/'
p2569
sg14
I00
sg15
Nsg16
S'//130.60.131.134/studi/Filme/spaete_Filme/3244_Tschelowek_Amfibija_1963\\3244_1_1_TschelowekAmfibija_1963_DVD_ELAN.eaf'
p2570
sg18
I00
sba(i__main__
Movie
p2571
(dp2572
g3
Nsg4
S'TotalRecall'
p2573
sg6
S'//130.60.131.134/studi/Filme/spaete_Filme/328_TotalRecall_1990_DVD/'
p2574
sg8
(lp2575
sg10
(lp2576
I328
aI1
aI1
asg12
S'spaete_Filme/328_TotalRecall_1990_DVD/'
p2577
sg14
I00
sg15
Nsg16
S'//130.60.131.134/studi/Filme/spaete_Filme/328_TotalRecall_1990_DVD\\328_1_1_TotalRecall_1990_DVD_ELAN.eaf'
p2578
sg18
I00
sba(i__main__
Movie
p2579
(dp2580
g3
Nsg4
S'BladeRunner'
p2581
sg6
S'//130.60.131.134/studi/Filme/spaete_Filme/329_Blade_Runner_1982/'
p2582
sg8
(lp2583
S'//130.60.131.134/studi/Filme/spaete_Filme/329_Blade_Runner_1982\\329_1_1_BladeRunner_1982_DVD_ELAN_export2.txt'
p2584
asg10
(lp2585
I329
aI1
aI1
asg12
S'spaete_Filme/329_Blade_Runner_1982/'
p2586
sg14
I00
sg15
Nsg16
S'//130.60.131.134/studi/Filme/spaete_Filme/329_Blade_Runner_1982\\329_1_1_BladeRunner_1982_DVD_ELAN.eaf'
p2587
sg18
I00
sba(i__main__
Movie
p2588
(dp2589
g3
Nsg4
S'CriaCuervos'
p2590
sg6
S'//130.60.131.134/studi/Filme/spaete_Filme/335_Cria_Cuervos_1976/'
p2591
sg8
(lp2592
sg10
(lp2593
I335
aI1
aI1
asg12
S'spaete_Filme/335_Cria_Cuervos_1976/'
p2594
sg14
I00
sg15
Nsg16
S'//130.60.131.134/studi/Filme/spaete_Filme/335_Cria_Cuervos_1976\\335_1_1_CriaCuervos_1976_DVD.eaf'
p2595
sg18
I00
sba(i__main__
Movie
p2596
(dp2597
g3
Nsg4
S"L'uccelloDallePiumeDiCristallo"
p2598
sg6
S"//130.60.131.134/studi/Filme/spaete_Filme/3369_L'uccello_Dalle_Piume_Di_Cristallo_1970/"
p2599
sg8
(lp2600
S"//130.60.131.134/studi/Filme/spaete_Filme/3369_L'uccello_Dalle_Piume_Di_Cristallo_1970\\3369_1_1_L'uccelloDallePiumeDiCristallo_1970_DVD_ELAN_export.txt"
p2601
asg10
(lp2602
I3369
aI1
aI1
asg12
S"spaete_Filme/3369_L'uccello_Dalle_Piume_Di_Cristallo_1970/"
p2603
sg14
I00
sg15
Nsg16
S"//130.60.131.134/studi/Filme/spaete_Filme/3369_L'uccello_Dalle_Piume_Di_Cristallo_1970\\3369_1_1_L'uccelloDallePiumeDiCristallo_1970_DVD_ELAN.eaf"
p2604
sg18
I00
sba(i__main__
Movie
p2605
(dp2606
g3
Nsg4
S'Matador'
p2607
sg6
S'//130.60.131.134/studi/Filme/spaete_Filme/336_Matador_1986/'
p2608
sg8
(lp2609
S'//130.60.131.134/studi/Filme/spaete_Filme/336_Matador_1986\\336_1_1_Matador_1986_ELAN.txt'
p2610
asg10
(lp2611
I336
aI1
aI1
asg12
S'spaete_Filme/336_Matador_1986/'
p2612
sg14
I00
sg15
Nsg16
S'//130.60.131.134/studi/Filme/spaete_Filme/336_Matador_1986\\ELAN Projektdatei\\336_1_1_Matador_1986_ELAN.eaf'
p2613
sg18
I00
sba(i__main__
Movie
p2614
(dp2615
g3
Nsg4
S'IFidanzatiDellaMorte'
p2616
sg6
S'//130.60.131.134/studi/Filme/spaete_Filme/3374_I_fidanzati_della_morte_1957/'
p2617
sg8
(lp2618
sg10
(lp2619
I3374
aI1
aI1
asg12
S'spaete_Filme/3374_I_fidanzati_della_morte_1957/'
p2620
sg14
I00
sg15
Nsg16
S'//130.60.131.134/studi/Filme/spaete_Filme/3374_I_fidanzati_della_morte_1957\\ELAN Projektdatei\\3374_1_1_IFidanzatiDellaMorte_1957_DVD_ELAN.eaf'
p2621
sg18
I00
sba(i__main__
Movie
p2622
(dp2623
g3
Nsg4
S'MujeresAlBorde'
p2624
sg6
S'//130.60.131.134/studi/Filme/spaete_Filme/337_Mujeres_Al_Borde_De_Un_Ataque_De_Nervios_1988/'
p2625
sg8
(lp2626
sg10
(lp2627
I337
aI1
aI1
asg12
S'spaete_Filme/337_Mujeres_Al_Borde_De_Un_Ataque_De_Nervios_1988/'
p2628
sg14
I00
sg15
Nsg16
S'//130.60.131.134/studi/Filme/spaete_Filme/337_Mujeres_Al_Borde_De_Un_Ataque_De_Nervios_1988\\337_1_1_MujeresAlBorde_1988_DVD_ELAN.eaf'
p2629
sg18
I00
sba(i__main__
Movie
p2630
(dp2631
g3
Nsg4
S'Hecate'
p2632
sg6
S'//130.60.131.134/studi/Filme/spaete_Filme/3387_Hecate_1982/'
p2633
sg8
(lp2634
S'//130.60.131.134/studi/Filme/spaete_Filme/3387_Hecate_1982\\3387_1_1_Hecate_1982_DVD_ELAN_export.txt'
p2635
asg10
(lp2636
I3387
aI1
aI1
asg12
S'spaete_Filme/3387_Hecate_1982/'
p2637
sg14
I00
sg15
Nsg16
S'//130.60.131.134/studi/Filme/spaete_Filme/3387_Hecate_1982\\3387_1_1_Hecate_1982_DVD_ELAN.eaf'
p2638
sg18
I00
sba(i__main__
Movie
p2639
(dp2640
g3
Nsg4
S'TaxiDriver'
p2641
sg6
S'//130.60.131.134/studi/Filme/spaete_Filme/338_TaxiDriver_1978/'
p2642
sg8
(lp2643
S'//130.60.131.134/studi/Filme/spaete_Filme/338_TaxiDriver_1978\\338_1_1_TaxiDriver_1976_DVD_ELAN.txt'
p2644
asg10
(lp2645
I338
aI1
aI1
asg12
S'spaete_Filme/338_TaxiDriver_1978/'
p2646
sg14
I00
sg15
Nsg16
S'//130.60.131.134/studi/Filme/spaete_Filme/338_TaxiDriver_1978\\338_1_1_TaxiDriver_1976_DVD_ELAN.eaf'
p2647
sg18
I00
sba(i__main__
Movie
p2648
(dp2649
g3
Nsg4
S'DoTheRightThing'
p2650
sg6
S'//130.60.131.134/studi/Filme/spaete_Filme/3460_Do_The_Right_Thing_1989/'
p2651
sg8
(lp2652
S'//130.60.131.134/studi/Filme/spaete_Filme/3460_Do_The_Right_Thing_1989\\3460_1_1_DoTheRightThing_1989_DVD_ELAN_BF.txt'
p2653
asg10
(lp2654
I3460
aI1
aI1
asg12
S'spaete_Filme/3460_Do_The_Right_Thing_1989/'
p2655
sg14
I00
sg15
Nsg16
S'//130.60.131.134/studi/Filme/spaete_Filme/3460_Do_The_Right_Thing_1989\\3460_1_1_DoTheRightThing_1989_DVD_ELAN_BF.eaf'
p2656
sg18
I00
sba(i__main__
Movie
p2657
(dp2658
g3
Nsg4
S'Shurayukihime'
p2659
sg6
S'//130.60.131.134/studi/Filme/spaete_Filme/3478_Shurayukihime_1973/'
p2660
sg8
(lp2661
S'//130.60.131.134/studi/Filme/spaete_Filme/3478_Shurayukihime_1973\\3478_1_1_Shurayukihime_1973_DVD_ELAN_export.txt'
p2662
asg10
(lp2663
I3478
aI1
aI1
asg12
S'spaete_Filme/3478_Shurayukihime_1973/'
p2664
sg14
I00
sg15
Nsg16
S'//130.60.131.134/studi/Filme/spaete_Filme/3478_Shurayukihime_1973\\3478_1_1_Shurayukihime_1973_DVD_ELAN.eaf'
p2665
sg18
I00
sba(i__main__
Movie
p2666
(dp2667
g3
Nsg4
S'DaHongDengLongGaoGaoGua'
p2668
sg6
S'//130.60.131.134/studi/Filme/spaete_Filme/3480_Da_HongDengLong_GaoGao_Gua_1991/'
p2669
sg8
(lp2670
S'//130.60.131.134/studi/Filme/spaete_Filme/3480_Da_HongDengLong_GaoGao_Gua_1991\\3480_1_1_DaHongDengLongGaoGaoGua_1991_DVD_ELAN_export.txt'
p2671
asg10
(lp2672
I3480
aI1
aI1
asg12
S'spaete_Filme/3480_Da_HongDengLong_GaoGao_Gua_1991/'
p2673
sg14
I00
sg15
Nsg16
S'//130.60.131.134/studi/Filme/spaete_Filme/3480_Da_HongDengLong_GaoGao_Gua_1991\\3480_1_1_DaHongDengLongGaoGaoGua_1991_DVD_ELAN.eaf'
p2674
sg18
I00
sba(i__main__
Movie
p2675
(dp2676
g3
Nsg4
S'Dyrygent'
p2677
sg6
S'//130.60.131.134/studi/Filme/spaete_Filme/3484_Dyrygent_1979/'
p2678
sg8
(lp2679
S'//130.60.131.134/studi/Filme/spaete_Filme/3484_Dyrygent_1979\\3484_1_1_Dyrygent_1980_DVD_ELAN_export.txt'
p2680
aS'//130.60.131.134/studi/Filme/spaete_Filme/3484_Dyrygent_1979\\3484_1_1_Dyrygent_1980_DVD_ELAN_export.csv'
p2681
aS'//130.60.131.134/studi/Filme/spaete_Filme/3484_Dyrygent_1979\\3484_1_1_Dyrygent_1980_DVD_FCT_snapchots.csv'
p2682
aS'//130.60.131.134/studi/Filme/spaete_Filme/3484_Dyrygent_1979\\3484_1_1_Dyrygent_1980_DVD_FCT_temp.csv'
p2683
asg10
(lp2684
I3484
aI1
aI1
asg12
S'spaete_Filme/3484_Dyrygent_1979/'
p2685
sg14
I00
sg15
Nsg16
S'//130.60.131.134/studi/Filme/spaete_Filme/3484_Dyrygent_1979\\3484_1_1_Dyrygent_1980_DVD_ELAN.eaf'
p2686
sg18
I00
sba(i__main__
Movie
p2687
(dp2688
g3
Nsg4
S'HongGaoliang'
p2689
sg6
S'//130.60.131.134/studi/Filme/spaete_Filme/3488_Hong_Gaoliang_1987/'
p2690
sg8
(lp2691
S'//130.60.131.134/studi/Filme/spaete_Filme/3488_Hong_Gaoliang_1987\\3488_1_1_HongGaoliang_1987_DVD_ELAN.txt'
p2692
asg10
(lp2693
I3488
aI1
aI1
asg12
S'spaete_Filme/3488_Hong_Gaoliang_1987/'
p2694
sg14
I00
sg15
Nsg16
S'//130.60.131.134/studi/Filme/spaete_Filme/3488_Hong_Gaoliang_1987\\ELAN Projektdatei\\3488_1_1_HongGaoliang_1987_DVD_ELAN.eaf'
p2695
sg18
I00
sba(i__main__
Movie
p2696
(dp2697
g3
Nsg4
S'RosemarysBaby'
p2698
sg6
S'//130.60.131.134/studi/Filme/spaete_Filme/348_Rosemarys_Baby_1968/'
p2699
sg8
(lp2700
S'//130.60.131.134/studi/Filme/spaete_Filme/348_Rosemarys_Baby_1968\\348_1_1_RosemarysBaby_1968_DVD_ELAN_Export1.txt'
p2701
asg10
(lp2702
I348
aI1
aI1
asg12
S'spaete_Filme/348_Rosemarys_Baby_1968/'
p2703
sg14
I00
sg15
Nsg16
S'//130.60.131.134/studi/Filme/spaete_Filme/348_Rosemarys_Baby_1968\\348_1_1_RosemarysBaby_1968_DVD_ELAN.eaf'
p2704
sg18
I00
sba(i__main__
Movie
p2705
(dp2706
g3
Nsg4
S'Indiscreet'
p2707
sg6
S'//130.60.131.134/studi/Filme/spaete_Filme/3491_Indiscreet_1957/'
p2708
sg8
(lp2709
S'//130.60.131.134/studi/Filme/spaete_Filme/3491_Indiscreet_1957\\3491_1_1_Indiscreet_1957_DVD_ELAN_export.txt'
p2710
asg10
(lp2711
I3491
aI1
aI1
asg12
S'spaete_Filme/3491_Indiscreet_1957/'
p2712
sg14
I00
sg15
Nsg16
S'//130.60.131.134/studi/Filme/spaete_Filme/3491_Indiscreet_1957\\3491_1_1_Indiscreet_1957_DVD_ELAN.eaf'
p2713
sg18
I00
sba(i__main__
Movie
p2714
(dp2715
g3
Nsg4
S'Wojna'
p2716
sg6
S'//130.60.131.134/studi/Filme/spaete_Filme/3492_Wojna_Swjatow_1981/'
p2717
sg8
(lp2718
S'//130.60.131.134/studi/Filme/spaete_Filme/3492_Wojna_Swjatow_1981\\3492_1_1_Wojna_Swjatow_1981_DVD_ELAN_export.txt'
p2719
asg10
(lp2720
I3492
aI1
aI1
asg12
S'spaete_Filme/3492_Wojna_Swjatow_1981/'
p2721
sg14
I00
sg15
Nsg16
S'//130.60.131.134/studi/Filme/spaete_Filme/3492_Wojna_Swjatow_1981\\3492_1_1_Wojna_Swjatow_1981_DVD_ELAN.eaf'
p2722
sg18
I00
sba(i__main__
Movie
p2723
(dp2724
g3
Nsg4
S'LaDecimaVittima'
p2725
sg6
S'//130.60.131.134/studi/Filme/spaete_Filme/3493_La_Decima_Vittima_1965/'
p2726
sg8
(lp2727
S'//130.60.131.134/studi/Filme/spaete_Filme/3493_La_Decima_Vittima_1965\\3493_1_1_LaDecimaVittima_1965_DVD_ELAN_export.txt'
p2728
asg10
(lp2729
I3493
aI1
aI1
asg12
S'spaete_Filme/3493_La_Decima_Vittima_1965/'
p2730
sg14
I00
sg15
Nsg16
S'//130.60.131.134/studi/Filme/spaete_Filme/3493_La_Decima_Vittima_1965\\3493_1_1_LaDecimaVittima_1965_DVD_ELAN.eaf'
p2731
sg18
I00
sba(i__main__
Movie
p2732
(dp2733
g3
Nsg4
S'Cyclo'
p2734
sg6
S'//130.60.131.134/studi/Filme/spaete_Filme/365_Cyclo_1995/'
p2735
sg8
(lp2736
S'//130.60.131.134/studi/Filme/spaete_Filme/365_Cyclo_1995\\365_1_1_Cyclo_1995_DVD_ELAN.txt'
p2737
asg10
(lp2738
I365
aI1
aI1
asg12
S'spaete_Filme/365_Cyclo_1995/'
p2739
sg14
I00
sg15
Nsg16
S'//130.60.131.134/studi/Filme/spaete_Filme/365_Cyclo_1995\\ELAN Projektdatei\\365_1_1_Cyclo_1995_DVD_ELAN.eaf'
p2740
sg18
I00
sba(i__main__
Movie
p2741
(dp2742
g3
Nsg4
S'Solayaris'
p2743
sg6
S'//130.60.131.134/studi/Filme/spaete_Filme/366_Solayaris_1972/'
p2744
sg8
(lp2745
S'//130.60.131.134/studi/Filme/spaete_Filme/366_Solayaris_1972\\366_1_1_Solayaris_1972_DVD_ELAN_export.txt'
p2746
asg10
(lp2747
I366
aI1
aI1
asg12
S'spaete_Filme/366_Solayaris_1972/'
p2748
sg14
I00
sg15
Nsg16
S'//130.60.131.134/studi/Filme/spaete_Filme/366_Solayaris_1972\\366_1_1_Solayaris_1972_DVD_ELAN.eaf'
p2749
sg18
I00
sba(i__main__
Movie
p2750
(dp2751
g3
Nsg4
S'DeepEnd'
p2752
sg6
S'//130.60.131.134/studi/Filme/spaete_Filme/367_Deep_End_1970/'
p2753
sg8
(lp2754
S'//130.60.131.134/studi/Filme/spaete_Filme/367_Deep_End_1970\\367_1_1_DeepEnd_1970_DVD_ELAN_Export.txt'
p2755
asg10
(lp2756
I367
aI1
aI1
asg12
S'spaete_Filme/367_Deep_End_1970/'
p2757
sg14
I00
sg15
Nsg16
S'//130.60.131.134/studi/Filme/spaete_Filme/367_Deep_End_1970\\367_1_1_DeepEnd_1970_DVD_ELAN.eaf'
p2758
sg18
I00
sba(i__main__
Movie
p2759
(dp2760
g3
Nsg4
S'TheTrip'
p2761
sg6
S'//130.60.131.134/studi/Filme/spaete_Filme/373_TheTrip_1967/'
p2762
sg8
(lp2763
sg10
(lp2764
I373
aI1
aI1
asg12
S'spaete_Filme/373_TheTrip_1967/'
p2765
sg14
I00
sg15
Nsg16
S'//130.60.131.134/studi/Filme/spaete_Filme/373_TheTrip_1967\\373_1_1_TheTrip_1967_ELAN.eaf'
p2766
sg18
I00
sba(i__main__
Movie
p2767
(dp2768
g3
Nsg4
S'Fahrenheit451'
p2769
sg6
S'//130.60.131.134/studi/Filme/spaete_Filme/374_Fahrenheit_451_1966/'
p2770
sg8
(lp2771
S'//130.60.131.134/studi/Filme/spaete_Filme/374_Fahrenheit_451_1966\\374_1_1_Fahrenheit451_1966_DVD_ELAN_Export.txt'
p2772
asg10
(lp2773
I374
aI1
aI1
asg12
S'spaete_Filme/374_Fahrenheit_451_1966/'
p2774
sg14
I00
sg15
Nsg16
S'//130.60.131.134/studi/Filme/spaete_Filme/374_Fahrenheit_451_1966\\374_1_1_Fahrenheit451_1966_DVD_ELAN.eaf'
p2775
sg18
I00
sba(i__main__
Movie
p2776
(dp2777
g3
Nsg4
S'IlConformista'
p2778
sg6
S'//130.60.131.134/studi/Filme/spaete_Filme/403_Il_Conformista_1970/'
p2779
sg8
(lp2780
S'//130.60.131.134/studi/Filme/spaete_Filme/403_Il_Conformista_1970\\403_1_1_IlConformista_1970_DVD_ELAN_Export.txt'
p2781
asg10
(lp2782
I403
aI1
aI1
asg12
S'spaete_Filme/403_Il_Conformista_1970/'
p2783
sg14
I00
sg15
Nsg16
S'//130.60.131.134/studi/Filme/spaete_Filme/403_Il_Conformista_1970\\403_1_1_IlConformista_1970_DVD_ELAN.eaf'
p2784
sg18
I00
sba(i__main__
Movie
p2785
(dp2786
g3
Nsg4
S'HalluciantionsConcertoMecaniquepourlaFolie'
p2787
sg6
S'//130.60.131.134/studi/Filme/spaete_Filme/415_HallucinationsConcerto_1963/'
p2788
sg8
(lp2789
sg10
(lp2790
I415
aI1
aI1
asg12
S'spaete_Filme/415_HallucinationsConcerto_1963/'
p2791
sg14
I00
sg15
Nsg16
S'//130.60.131.134/studi/Filme/spaete_Filme/415_HallucinationsConcerto_1963\\415_1_1_HalluciantionsConcertoMecaniquepourlaFolie_1963_Medfilm_ELAN.eaf'
p2792
sg18
I00
sba(i__main__
Movie
p2793
(dp2794
g3
Nsg4
S'ErnstThaelmannSohnSeinerKlasse'
p2795
sg6
S'//130.60.131.134/studi/Filme/spaete_Filme/418_Ernst_Thaelmann_Sohn_seiner_Klasse_1954/'
p2796
sg8
(lp2797
sg10
(lp2798
I418
aI1
aI1
asg12
S'spaete_Filme/418_Ernst_Thaelmann_Sohn_seiner_Klasse_1954/'
p2799
sg14
I00
sg15
Nsg16
S'//130.60.131.134/studi/Filme/spaete_Filme/418_Ernst_Thaelmann_Sohn_seiner_Klasse_1954\\418_1_1_ErnstThaelmannSohnSeinerKlasse_1954_DVD_ELAN.eaf'
p2800
sg18
I00
sba(i__main__
Movie
p2801
(dp2802
g3
Nsg4
S'BlowUp'
p2803
sg6
S'//130.60.131.134/studi/Filme/spaete_Filme/432_Blow_Up_1966/'
p2804
sg8
(lp2805
S'//130.60.131.134/studi/Filme/spaete_Filme/432_Blow_Up_1966\\432_1_1_BlowUp_1966_DVD_ELAN_Export2.txt'
p2806
asg10
(lp2807
I432
aI1
aI1
asg12
S'spaete_Filme/432_Blow_Up_1966/'
p2808
sg14
I00
sg15
Nsg16
S'//130.60.131.134/studi/Filme/spaete_Filme/432_Blow_Up_1966\\432_1_1_BlowUp_1966_DVD_ELAN.eaf'
p2809
sg18
I00
sba(i__main__
Movie
p2810
(dp2811
g3
Nsg4
S'Alien'
p2812
sg6
S'//130.60.131.134/studi/Filme/spaete_Filme/436_Alien_1979/'
p2813
sg8
(lp2814
S'//130.60.131.134/studi/Filme/spaete_Filme/436_Alien_1979\\436_1_1_Alien_1979_DVD_ELAN_Export.txt'
p2815
asg10
(lp2816
I436
aI1
aI1
asg12
S'spaete_Filme/436_Alien_1979/'
p2817
sg14
I00
sg15
Nsg16
S'//130.60.131.134/studi/Filme/spaete_Filme/436_Alien_1979\\436_1_1_Alien_1979_DVD_ELAN.eaf'
p2818
sg18
I00
sba(i__main__
Movie
p2819
(dp2820
g3
Nsg4
S'RebelWithoutACause'
p2821
sg6
S'//130.60.131.134/studi/Filme/spaete_Filme/437_Rebel_Without_A_Cause_1955/'
p2822
sg8
(lp2823
S'//130.60.131.134/studi/Filme/spaete_Filme/437_Rebel_Without_A_Cause_1955\\437_1_1_RebelWithoutACause_1955_DVD_ELAN_2_export.txt'
p2824
asg10
(lp2825
I437
aI1
aI1
asg12
S'spaete_Filme/437_Rebel_Without_A_Cause_1955/'
p2826
sg14
I00
sg15
Nsg16
S'//130.60.131.134/studi/Filme/spaete_Filme/437_Rebel_Without_A_Cause_1955\\437_1_1_RebelWithoutACause_1955_DVD_ELAN_2.eaf'
p2827
sg18
I00
sba(i__main__
Movie
p2828
(dp2829
g3
Nsg4
S'LoverComeBack'
p2830
sg6
S'//130.60.131.134/studi/Filme/spaete_Filme/4_Lover_Come_Back_1961/'
p2831
sg8
(lp2832
S'//130.60.131.134/studi/Filme/spaete_Filme/4_Lover_Come_Back_1961\\4_1_1_Lover_Come_Back_1961_DVD_ELAN_export.txt'
p2833
asg10
(lp2834
I4
aI1
aI1
asg12
S'spaete_Filme/4_Lover_Come_Back_1961/'
p2835
sg14
I00
sg15
Nsg16
S'//130.60.131.134/studi/Filme/spaete_Filme/4_Lover_Come_Back_1961\\4_1_1_LoverComeBack_1961_DVD_ELAN.eaf'
p2836
sg18
I00
sba(i__main__
Movie
p2837
(dp2838
g3
Nsg4
S'Gigi'
p2839
sg6
S'//130.60.131.134/studi/Filme/spaete_Filme/504_Gigi_1958/'
p2840
sg8
(lp2841
S'//130.60.131.134/studi/Filme/spaete_Filme/504_Gigi_1958\\504_1_1_Gigi_1958_DVD_ELAN.txt'
p2842
asg10
(lp2843
I504
aI1
aI1
asg12
S'spaete_Filme/504_Gigi_1958/'
p2844
sg14
I00
sg15
Nsg16
S'//130.60.131.134/studi/Filme/spaete_Filme/504_Gigi_1958\\ELAN Projektdatei\\504_1_1_Gigi_1958_DVD_ELAN.eaf'
p2845
sg18
I00
sba(i__main__
Movie
p2846
(dp2847
g3
Nsg4
S'WestSideStory'
p2848
sg6
S'//130.60.131.134/studi/Filme/spaete_Filme/520_West_Side_Story_1961/'
p2849
sg8
(lp2850
S'//130.60.131.134/studi/Filme/spaete_Filme/520_West_Side_Story_1961\\520_1_1_WestSideStory_1961_ELAN.txt'
p2851
asg10
(lp2852
I520
aI1
aI1
asg12
S'spaete_Filme/520_West_Side_Story_1961/'
p2853
sg14
I00
sg15
Nsg16
S'//130.60.131.134/studi/Filme/spaete_Filme/520_West_Side_Story_1961\\ELAN Projektdatei\\520_1_1_WestSideStory_1961_DVD_ELAN.eaf'
p2854
sg18
I00
sba(i__main__
Movie
p2855
(dp2856
g3
Nsg4
S'LawrenceOfArabia'
p2857
sg6
S'//130.60.131.134/studi/Filme/spaete_Filme/523_Lawrence_of_Arabia_1962/'
p2858
sg8
(lp2859
S'//130.60.131.134/studi/Filme/spaete_Filme/523_Lawrence_of_Arabia_1962\\523_1_1_LawrenceOfArabia_1962_Bluray_ELAN_export.txt'
p2860
asg10
(lp2861
I523
aI1
aI1
asg12
S'spaete_Filme/523_Lawrence_of_Arabia_1962/'
p2862
sg14
I00
sg15
Nsg16
S'//130.60.131.134/studi/Filme/spaete_Filme/523_Lawrence_of_Arabia_1962\\523_1_1_LawrenceOfArabia_1962_Bluray_ELAN.eaf'
p2863
sg18
I00
sba(i__main__
Movie
p2864
(dp2865
g3
Nsg4
S'MaryPoppins'
p2866
sg6
S'//130.60.131.134/studi/Filme/spaete_Filme/533_Mary_Poppins_1964/'
p2867
sg8
(lp2868
S'//130.60.131.134/studi/Filme/spaete_Filme/533_Mary_Poppins_1964\\533_1_1_MaryPoppins_1964_DVD_ELAN.txt'
p2869
asg10
(lp2870
I533
aI1
aI1
asg12
S'spaete_Filme/533_Mary_Poppins_1964/'
p2871
sg14
I00
sg15
Nsg16
S'//130.60.131.134/studi/Filme/spaete_Filme/533_Mary_Poppins_1964\\ELAN Projektdatei\\533_1_1_MaryPoppins_1964_DVD_ELAN.eaf'
p2872
sg18
I00
sba(i__main__
Movie
p2873
(dp2874
g3
Nsg4
S'FantasticVoyage'
p2875
sg6
S'//130.60.131.134/studi/Filme/spaete_Filme/541_Fantastic_Voyage_1966/'
p2876
sg8
(lp2877
S'//130.60.131.134/studi/Filme/spaete_Filme/541_Fantastic_Voyage_1966\\541_1_1_FantasticVoyage_1966_DVD_ELAN_export.txt'
p2878
asg10
(lp2879
I541
aI1
aI1
asg12
S'spaete_Filme/541_Fantastic_Voyage_1966/'
p2880
sg14
I00
sg15
Nsg16
S'//130.60.131.134/studi/Filme/spaete_Filme/541_Fantastic_Voyage_1966\\541_1_1_FantasticVoyage_1966_DVD_ELAN.eaf'
p2881
sg18
I00
sba(i__main__
Movie
p2882
(dp2883
g3
Nsg4
S'Goldfinger'
p2884
sg6
S'//130.60.131.134/studi/Filme/spaete_Filme/629_Goldfinger_1964/'
p2885
sg8
(lp2886
S'//130.60.131.134/studi/Filme/spaete_Filme/629_Goldfinger_1964\\629_Goldfinger_1964_DVD_ELAN_Export.txt'
p2887
asg10
(lp2888
I629
aI1
aI1
asg12
S'spaete_Filme/629_Goldfinger_1964/'
p2889
sg14
I00
sg15
Nsg16
S'//130.60.131.134/studi/Filme/spaete_Filme/629_Goldfinger_1964\\629_1_1_Goldfinger_1964_DVD_ELAN.eaf'
p2890
sg18
I00
sba(i__main__
Movie
p2891
(dp2892
g3
Nsg4
S'PierrotLeFou'
p2893
sg6
S'//130.60.131.134/studi/Filme/spaete_Filme/69_Pierrot_le_Fou_1965/'
p2894
sg8
(lp2895
S'//130.60.131.134/studi/Filme/spaete_Filme/69_Pierrot_le_Fou_1965\\69_PierrotLeFou_1965_DVD_ELAN_BF.txt'
p2896
asg10
(lp2897
I69
aI1
aI1
asg12
S'spaete_Filme/69_Pierrot_le_Fou_1965/'
p2898
sg14
I00
sg15
Nsg16
S'//130.60.131.134/studi/Filme/spaete_Filme/69_Pierrot_le_Fou_1965\\69_1_1_PierrotLeFou_1965_DVD_ELAN_BF_korr.eaf'
p2899
sg18
I00
sba(i__main__
Movie
p2900
(dp2901
g3
Nsg4
S'LolaMontes'
p2902
sg6
S'//130.60.131.134/studi/Filme/spaete_Filme/70_Lola_Montes_1955/'
p2903
sg8
(lp2904
S'//130.60.131.134/studi/Filme/spaete_Filme/70_Lola_Montes_1955\\70_1_1_LolaMontes_1955_DVD_ELAN_Export.txt'
p2905
asg10
(lp2906
I70
aI1
aI1
asg12
S'spaete_Filme/70_Lola_Montes_1955/'
p2907
sg14
I00
sg15
Nsg16
S'//130.60.131.134/studi/Filme/spaete_Filme/70_Lola_Montes_1955\\70_1_1_LolaMontes_1955_DVD_ELAN.eaf'
p2908
sg18
I00
sba(i__main__
Movie
p2909
(dp2910
g3
Nsg4
S'Higanbana'
p2911
sg6
S'//130.60.131.134/studi/Filme/spaete_Filme/73_Higanbana_1958/'
p2912
sg8
(lp2913
S'//130.60.131.134/studi/Filme/spaete_Filme/73_Higanbana_1958\\73_1_1_Higanbana_1958_DVD_ELAN.txt'
p2914
asg10
(lp2915
I73
aI1
aI1
asg12
S'spaete_Filme/73_Higanbana_1958/'
p2916
sg14
I00
sg15
Nsg16
S'//130.60.131.134/studi/Filme/spaete_Filme/73_Higanbana_1958\\ELAN Projektdatei\\73_1_1_Higanbana_1958_DVD_ELAN.eaf'
p2917
sg18
I00
sba(i__main__
Movie
p2918
(dp2919
g3
Nsg4
S'Jaws'
p2920
sg6
S'//130.60.131.134/studi/Filme/spaete_Filme/750_Jaws_1975/'
p2921
sg8
(lp2922
S'//130.60.131.134/studi/Filme/spaete_Filme/750_Jaws_1975\\750_1_1_Jaws_1975_DVD_ELAN_export.txt'
p2923
asg10
(lp2924
I750
aI1
aI1
asg12
S'spaete_Filme/750_Jaws_1975/'
p2925
sg14
I00
sg15
Nsg16
S'//130.60.131.134/studi/Filme/spaete_Filme/750_Jaws_1975\\750_1_1_Jaws_1975_DVD_ELAN.eaf'
p2926
sg18
I00
sba(i__main__
Movie
p2927
(dp2928
g3
Nsg4
S'DasParfum'
p2929
sg6
S'//130.60.131.134/studi/Filme/spaete_Filme/766_DasParfum_2006/'
p2930
sg8
(lp2931
sg10
(lp2932
I766
aI1
aI1
asg12
S'spaete_Filme/766_DasParfum_2006/'
p2933
sg14
I00
sg15
Nsg16
S'//130.60.131.134/studi/Filme/spaete_Filme/766_DasParfum_2006\\766_1_1_DasParfum_2006_DVD_ELAN.eaf'
p2934
sg18
I00
sba(i__main__
Movie
p2935
(dp2936
g3
Nsg4
S'TheBoyWhoTurnedYellow'
p2937
sg6
S'//130.60.131.134/studi/Filme/spaete_Filme/811_TheBoyWhoTurnedYellow_1972/'
p2938
sg8
(lp2939
sg10
(lp2940
I811
aI1
aI1
asg12
S'spaete_Filme/811_TheBoyWhoTurnedYellow_1972/'
p2941
sg14
I00
sg15
Nsg16
S'//130.60.131.134/studi/Filme/spaete_Filme/811_TheBoyWhoTurnedYellow_1972\\811_1_1_TheBoyWhoTurnedYellow_1972_DVD_ELAN.eaf'
p2942
sg18
I00
sba(i__main__
Movie
p2943
(dp2944
g3
Nsg4
S'DieGeschichteVomKleinenMuck'
p2945
sg6
S'//130.60.131.134/studi/Filme/spaete_Filme/817_Die_Geschichte_vom_kleinen_Muck_1953/'
p2946
sg8
(lp2947
S'//130.60.131.134/studi/Filme/spaete_Filme/817_Die_Geschichte_vom_kleinen_Muck_1953\\ELAN_Projektdatei\\817_1_1_DieGeschichteVomKleinenMuck_1953_DVD_ELAN.txt'
p2948
aS'//130.60.131.134/studi/Filme/spaete_Filme/817_Die_Geschichte_vom_kleinen_Muck_1953\\ELAN_Projektdatei\\817_1_1_DieGeschichteVomKleinenMuck_1953_DVD_ELAN.csv'
p2949
asg10
(lp2950
I817
aI1
aI1
asg12
S'spaete_Filme/817_Die_Geschichte_vom_kleinen_Muck_1953/'
p2951
sg14
I00
sg15
Nsg16
S'//130.60.131.134/studi/Filme/spaete_Filme/817_Die_Geschichte_vom_kleinen_Muck_1953\\ELAN_Projektdatei\\817_1_1_DieGeschichteVomKleinenMuck_1953_DVD_ELAN.eaf'
p2952
sg18
I00
sba(i__main__
Movie
p2953
(dp2954
g3
Nsg4
S'DasWirtshausImSpessart'
p2955
sg6
S'//130.60.131.134/studi/Filme/spaete_Filme/820_Das_Wirtshaus_im_Spessart_1957/'
p2956
sg8
(lp2957
S'//130.60.131.134/studi/Filme/spaete_Filme/820_Das_Wirtshaus_im_Spessart_1957\\820_1_2_DasWirtshausImSpessart_1957_DVD_ELAN_export.txt'
p2958
asg10
(lp2959
I820
aI1
aI2
asg12
S'spaete_Filme/820_Das_Wirtshaus_im_Spessart_1957/'
p2960
sg14
I00
sg15
Nsg16
S'//130.60.131.134/studi/Filme/spaete_Filme/820_Das_Wirtshaus_im_Spessart_1957\\820_1_2_DasWirtshausImSpessart_1957_DVD_ELAN.eaf'
p2961
sg18
I00
sba(i__main__
Movie
p2962
(dp2963
g3
Nsg4
S'ITreVoltiDellaPaura'
p2964
sg6
S'//130.60.131.134/studi/Filme/spaete_Filme/825_I_tre_volti_della_paura_1963/'
p2965
sg8
(lp2966
S'//130.60.131.134/studi/Filme/spaete_Filme/825_I_tre_volti_della_paura_1963\\825_1_1_ITreVoltiDellaPaura_DVD_ELAN_BF.txt'
p2967
asg10
(lp2968
I825
aI1
aI1
asg12
S'spaete_Filme/825_I_tre_volti_della_paura_1963/'
p2969
sg14
I00
sg15
Nsg16
S'//130.60.131.134/studi/Filme/spaete_Filme/825_I_tre_volti_della_paura_1963\\825_1_1_ITreVoltiDellaPaura_DVD_ELAN_BF_Kopie.eaf'
p2970
sg18
I00
sba(i__main__
Movie
p2971
(dp2972
g3
Nsg4
S'IlBuonoIlBruttoIlCattivo'
p2973
sg6
S'//130.60.131.134/studi/Filme/spaete_Filme/826_Il_Buono_il_brutto_il_cattivo_1966/'
p2974
sg8
(lp2975
sg10
(lp2976
I826
aI1
aI1
asg12
S'spaete_Filme/826_Il_Buono_il_brutto_il_cattivo_1966/'
p2977
sg14
I00
sg15
Nsg16
S'//130.60.131.134/studi/Filme/spaete_Filme/826_Il_Buono_il_brutto_il_cattivo_1966\\826_1_1_IlBuonoIlBruttoIlCattivo_1966_DVD_ELAN.eaf'
p2978
sg18
I00
sba(i__main__
Movie
p2979
(dp2980
g3
Nsg4
S'DraughtmansContract'
p2981
sg6
S'//130.60.131.134/studi/Filme/spaete_Filme/831_Draughtmans_Contract_1982/'
p2982
sg8
(lp2983
S'//130.60.131.134/studi/Filme/spaete_Filme/831_Draughtmans_Contract_1982\\831_1_1_DraughtmansContract_1982_DVD_ELAN_export.txt'
p2984
asg10
(lp2985
I831
aI1
aI1
asg12
S'spaete_Filme/831_Draughtmans_Contract_1982/'
p2986
sg14
I00
sg15
Nsg16
S'//130.60.131.134/studi/Filme/spaete_Filme/831_Draughtmans_Contract_1982\\831_1_1_DraughtmansContract_1982_DVD_ELAN.eaf'
p2987
sg18
I00
sba(i__main__
Movie
p2988
(dp2989
g3
Nsg4
S'DerSchweigendeStern'
p2990
sg6
S'//130.60.131.134/studi/Filme/spaete_Filme/838_Der_schweigende_Stern_1960/'
p2991
sg8
(lp2992
sg10
(lp2993
I838
aI1
aI1
asg12
S'spaete_Filme/838_Der_schweigende_Stern_1960/'
p2994
sg14
I00
sg15
Nsg16
S'//130.60.131.134/studi/Filme/spaete_Filme/838_Der_schweigende_Stern_1960\\838_1_1_DerSchweigendeStern_1960_DVD_ELAN_Projektdatei\\838_1_1_DerSchweigendeStern_1960_ELAN.eaf'
p2995
sg18
I00
sba(i__main__
Movie
p2996
(dp2997
g3
Nsg4
S'ParisTexas'
p2998
sg6
S'//130.60.131.134/studi/Filme/spaete_Filme/852_Paris_Texas_1984/'
p2999
sg8
(lp3000
sg10
(lp3001
I852
aI1
aI1
asg12
S'spaete_Filme/852_Paris_Texas_1984/'
p3002
sg14
I00
sg15
Nsg16
S'//130.60.131.134/studi/Filme/spaete_Filme/852_Paris_Texas_1984\\852_1_1_ParisTexas_1984_DVD_ELAN_BF.eaf'
p3003
sg18
I00
sba(i__main__
Movie
p3004
(dp3005
g3
Nsg4
S'DieBlechtrommel'
p3006
sg6
S'//130.60.131.134/studi/Filme/spaete_Filme/876_Die_Blechtrommel_1979/'
p3007
sg8
(lp3008
S'//130.60.131.134/studi/Filme/spaete_Filme/876_Die_Blechtrommel_1979\\876_1_1_DieBlechtrommel_1979_DVD_ELAN.txt'
p3009
asg10
(lp3010
I876
aI1
aI1
asg12
S'spaete_Filme/876_Die_Blechtrommel_1979/'
p3011
sg14
I00
sg15
Nsg16
S'//130.60.131.134/studi/Filme/spaete_Filme/876_Die_Blechtrommel_1979\\ELAN Projektdatei\\876_1_1_DieBlechtrommel_1979_DVD_ELAN.eaf'
p3012
sg18
I00
sba(i__main__
Movie
p3013
(dp3014
g3
Nsg4
S'HaroldAndMaude'
p3015
sg6
S'//130.60.131.134/studi/Filme/spaete_Filme/879_Harold_and_Maude_1971/'
p3016
sg8
(lp3017
S'//130.60.131.134/studi/Filme/spaete_Filme/879_Harold_and_Maude_1971\\879_1_1_HaroldAndMaude_1971_DVD_ELAN_export.txt'
p3018
asg10
(lp3019
I879
aI1
aI1
asg12
S'spaete_Filme/879_Harold_and_Maude_1971/'
p3020
sg14
I00
sg15
Nsg16
S'//130.60.131.134/studi/Filme/spaete_Filme/879_Harold_and_Maude_1971\\879_1_1_HaroldAndMaude_1971_DVD_ELAN.eaf'
p3021
sg18
I00
sba(i__main__
Movie
p3022
(dp3023
g3
Nsg4
S'LaGrandeBouffe'
p3024
sg6
S'//130.60.131.134/studi/Filme/spaete_Filme/897_La_Grande_Bouffe_1973/'
p3025
sg8
(lp3026
sg10
(lp3027
I897
aI1
aI2
asg12
S'spaete_Filme/897_La_Grande_Bouffe_1973/'
p3028
sg14
I00
sg15
Nsg16
S'//130.60.131.134/studi/Filme/spaete_Filme/897_La_Grande_Bouffe_1973\\897_1_2_LaGrandeBouffe_1973_DVD_ELAN.eaf'
p3029
sg18
I00
sba(i__main__
Movie
p3030
(dp3031
g3
Nsg4
S'MorteAVenezia'
p3032
sg6
S'//130.60.131.134/studi/Filme/spaete_Filme/902_MorteAVenezia_1971/'
p3033
sg8
(lp3034
S'//130.60.131.134/studi/Filme/spaete_Filme/902_MorteAVenezia_1971\\902_1_1_MorteAVenezia_1971_DVD_ELAN_BF.txt'
p3035
asg10
(lp3036
I902
aI1
aI1
asg12
S'spaete_Filme/902_MorteAVenezia_1971/'
p3037
sg14
I00
sg15
Nsg16
S'//130.60.131.134/studi/Filme/spaete_Filme/902_MorteAVenezia_1971\\902_1_1_MorteAVenezia_1971_DVD_ELAN_BF.eaf'
p3038
sg18
I00
sba(i__main__
Movie
p3039
(dp3040
g3
Nsg4
S'TulitikkutehtaanTytto'
p3041
sg6
S'//130.60.131.134/studi/Filme/spaete_Filme/931_Tulitikkutehtaan_Tytto_1990/'
p3042
sg8
(lp3043
S'//130.60.131.134/studi/Filme/spaete_Filme/931_Tulitikkutehtaan_Tytto_1990\\1400_1_1_StarWarsV_1980_DVD_ELAN_export.txt'
p3044
aS'//130.60.131.134/studi/Filme/spaete_Filme/931_Tulitikkutehtaan_Tytto_1990\\931_1_1_TulitikkutehtaanTytto_1990_DVD_ELAN_export2.txt'
p3045
asg10
(lp3046
I931
aI1
aI1
asg12
S'spaete_Filme/931_Tulitikkutehtaan_Tytto_1990/'
p3047
sg14
I00
sg15
Nsg16
S'//130.60.131.134/studi/Filme/spaete_Filme/931_Tulitikkutehtaan_Tytto_1990\\931_1_1_TulitikkutehtaanTytto_1990_DVD_ELAN.eaf'
p3048
sg18
I00
sba(i__main__
Movie
p3049
(dp3050
g3
Nsg4
S'2001ASpaceOdyssey'
p3051
sg6
S'//130.60.131.134/studi/Filme/spaete_Filme/96_2001_A_Space_Odyssey_1968/'
p3052
sg8
(lp3053
S'//130.60.131.134/studi/Filme/spaete_Filme/96_2001_A_Space_Odyssey_1968\\96_1_1_2001ASpaceOdyssey_1968_DVD_ELAN_Export1.txt'
p3054
asg10
(lp3055
I96
aI1
aI1
asg12
S'spaete_Filme/96_2001_A_Space_Odyssey_1968/'
p3056
sg14
I00
sg15
Nsg16
S'//130.60.131.134/studi/Filme/spaete_Filme/96_2001_A_Space_Odyssey_1968\\96_1_1_2001ASpaceOdyssey_1968_DVD_ELAN.eaf'
p3057
sg18
I00
sba(i__main__
Movie
p3058
(dp3059
g3
Nsg4
S'Indiscreet'
p3060
sg6
S'//130.60.131.134/studi/Filme/spaete_Filme/spaete_Filme/'
p3061
sg8
(lp3062
S'//130.60.131.134/studi/Filme/spaete_Filme/spaete_Filme\\3491_1_1_Indiscreet_1957_DVD_ELAN_export.txt'
p3063
asg10
(lp3064
I3491
aI1
aI1
asg12
S'spaete_Filme/spaete_Filme/'
p3065
sg14
I00
sg15
Nsg16
S'//130.60.131.134/studi/Filme/spaete_Filme/spaete_Filme\\3491_1_1_Indiscreet_1957_DVD_ELAN.eaf'
p3066
sg18
I00
sba.