(lp0
(i__main__
Movie
p1
(dp2
S'movie_name'
p3
S'FlightToMars'
p4
sS'folder_path'
p5
S'//130.60.131.134/studi/Filme/mittlere_Filme/2_Flight_to_Mars_1951/'
p6
sS'segmentation_path'
p7
(lp8
sS'filemaker_ID'
p9
(lp10
I2
aI1
aI1
asS'relative_path'
p11
S'mittlere_Filme/2_Flight_to_Mars_1951/'
p12
sS'has_sub_segmentation'
p13
I01
sS'shots'
p14
NsS'elan_path'
p15
S'//130.60.131.134/studi/Filme/mittlere_Filme/2_Flight_to_Mars_1951\\2_1_1_FlightToMars_1951_DVD_ELAN.eaf'
p16
sS'needs_segmentation'
p17
I00
sba(i__main__
Movie
p18
(dp19
g3
S'LoverComeBack'
p20
sg5
S'//130.60.131.134/studi/Filme/spaete_Filme/4_Lover_Come_Back_1961/'
p21
sg7
(lp22
S'//130.60.131.134/studi/Filme/spaete_Filme/4_Lover_Come_Back_1961\\4_1_1_Lover_Come_Back_1961_DVD_ELAN_export.txt'
p23
asg9
(lp24
I4
aI1
aI1
asg11
S'spaete_Filme/4_Lover_Come_Back_1961/'
p25
sg13
I01
sg14
Nsg15
S'//130.60.131.134/studi/Filme/spaete_Filme/4_Lover_Come_Back_1961\\4_1_1_LoverComeBack_1961_DVD_ELAN.eaf'
p26
sg17
I00
sba(i__main__
Movie
p27
(dp28
g3
S'GoneWithTheWind'
p29
sg5
S'//130.60.131.134/studi/Filme/mittlere_Filme/8_Gone_With_The_Wind_1940/8_1_1_Gone with the Wind_1940_DVD/'
p30
sg7
(lp31
sg9
(lp32
I8
aI1
aI1
asg11
S'mittlere_Filme/8_Gone_With_The_Wind_1940/8_1_1_Gone with the Wind_1940_DVD/'
p33
sg13
I00
sg14
Nsg15
S'//130.60.131.134/studi/Filme/mittlere_Filme/8_Gone_With_The_Wind_1940/8_1_1_Gone with the Wind_1940_DVD\\8_1_1_GoneWithTheWind_Part1_1940_DVD_ELAN.eaf'
p34
sg17
I00
sba(i__main__
Movie
p35
(dp36
g3
S'GoneWithTheWind'
p37
sg5
S'//130.60.131.134/studi/Filme/mittlere_Filme/8_Gone_With_The_Wind_1940/8_1_2_Gone with the Wind_1940_DVD/'
p38
sg7
(lp39
sg9
(lp40
I8
aI1
aI2
asg11
S'mittlere_Filme/8_Gone_With_The_Wind_1940/8_1_2_Gone with the Wind_1940_DVD/'
p41
sg13
I00
sg14
Nsg15
S'//130.60.131.134/studi/Filme/mittlere_Filme/8_Gone_With_The_Wind_1940/8_1_2_Gone with the Wind_1940_DVD\\8_1_2_GoneWithTheWind_Part2_1940_DVD_ELAN.eaf'
p42
sg17
I00
sba(i__main__
Movie
p43
(dp44
g3
S'WingsOfTheMorning'
p45
sg5
S'//130.60.131.134/studi/Filme/mittlere_Filme/13_Wings_of_the_Morning_1937/'
p46
sg7
(lp47
S'//130.60.131.134/studi/Filme/mittlere_Filme/13_Wings_of_the_Morning_1937\\13_1_2_WingsOfTheMorning_1937_DVD_ELAN.txt'
p48
asg9
(lp49
I13
aI1
aI2
asg11
S'mittlere_Filme/13_Wings_of_the_Morning_1937/'
p50
sg13
I01
sg14
Nsg15
S'//130.60.131.134/studi/Filme/mittlere_Filme/13_Wings_of_the_Morning_1937\\13_1_2_WingsOfTheMorning_1937_DVD_ELAN.eaf'
p51
sg17
I00
sba(i__main__
Movie
p52
(dp53
g3
S'UneFemmeEstUneFemme'
p54
sg5
S'//130.60.131.134/studi/Filme/spaete_Filme/14_Une_Femme_est_une_Femme_1961/'
p55
sg7
(lp56
S'//130.60.131.134/studi/Filme/spaete_Filme/14_Une_Femme_est_une_Femme_1961\\14_1_1_UneFemmeEstUneFemme_1961_DVD_ELAN_BF.txt'
p57
asg9
(lp58
I14
aI1
aI1
asg11
S'spaete_Filme/14_Une_Femme_est_une_Femme_1961/'
p59
sg13
I00
sg14
Nsg15
S'//130.60.131.134/studi/Filme/spaete_Filme/14_Une_Femme_est_une_Femme_1961\\14_1_1_UneFemmeEstUneFemme_1961_DVD_ELAN_BF.eaf'
p60
sg17
I00
sba(i__main__
Movie
p61
(dp62
g3
S'TroisCouleursBlue'
p63
sg5
S'//130.60.131.134/studi/Filme/spaete_Filme/15_Trois_couleurs_Blue_1993/'
p64
sg7
(lp65
S'//130.60.131.134/studi/Filme/spaete_Filme/15_Trois_couleurs_Blue_1993\\15_1_1_TroisCouleursBlue_1993_DVD_ELAN_2_Export_ELAN.txt'
p66
asg9
(lp67
I15
aI1
aI1
asg11
S'spaete_Filme/15_Trois_couleurs_Blue_1993/'
p68
sg13
I01
sg14
Nsg15
S'//130.60.131.134/studi/Filme/spaete_Filme/15_Trois_couleurs_Blue_1993\\15_1_1_TroisCouleursBlue_1993_DVD_ELAN_2_JK.eaf'
p69
sg17
I00
sba(i__main__
Movie
p70
(dp71
g3
S'AgeofInnocence'
p72
sg5
S'//130.60.131.134/studi/Filme/spaete_Filme/16_Age_of_Innocence_1993/'
p73
sg7
(lp74
sg9
(lp75
I16
aI1
aI1
asg11
S'spaete_Filme/16_Age_of_Innocence_1993/'
p76
sg13
I00
sg14
Nsg15
S'//130.60.131.134/studi/Filme/spaete_Filme/16_Age_of_Innocence_1993\\16_1_1_AgeofInnocence_1993_DVD_ELAN.eaf'
p77
sg17
I00
sba(i__main__
Movie
p78
(dp79
g3
S'BloodAndSand'
p80
sg5
S'//130.60.131.134/studi/Filme/mittlere_Filme/18_Blood_and_Sand_1941/'
p81
sg7
(lp82
S'//130.60.131.134/studi/Filme/mittlere_Filme/18_Blood_and_Sand_1941\\18_1_1_BloodAndSand_1941_DVD_ELAN.txt'
p83
asg9
(lp84
I18
aI1
aI1
asg11
S'mittlere_Filme/18_Blood_and_Sand_1941/'
p85
sg13
I00
sg14
Nsg15
S'//130.60.131.134/studi/Filme/mittlere_Filme/18_Blood_and_Sand_1941\\ELAN Projektdatei\\18_1_1_BloodAndSand_1941_DVD_ELAN_VR.eaf'
p86
sg17
I00
sba(i__main__
Movie
p87
(dp88
g3
S'ImitationOfLife'
p89
sg5
S'//130.60.131.134/studi/Filme/spaete_Filme/21_Imitation_of_Life_1959/'
p90
sg7
(lp91
sg9
(lp92
I21
aI1
aI1
asg11
S'spaete_Filme/21_Imitation_of_Life_1959/'
p93
sg13
I00
sg14
Nsg15
S'//130.60.131.134/studi/Filme/spaete_Filme/21_Imitation_of_Life_1959\\21_1_1_ImitationOfLife_15072016_BF.eaf'
p94
sg17
I00
sba(i__main__
Movie
p95
(dp96
g3
S'Stalker'
p97
sg5
S'//130.60.131.134/studi/Filme/spaete_Filme/23_Stalker_1980/'
p98
sg7
(lp99
S'//130.60.131.134/studi/Filme/spaete_Filme/23_Stalker_1980\\023_1_1_Stalker_1980_DVD_ELAN_Export.txt'
p100
asg9
(lp101
I23
aI1
aI1
asg11
S'spaete_Filme/23_Stalker_1980/'
p102
sg13
I01
sg14
Nsg15
S'//130.60.131.134/studi/Filme/spaete_Filme/23_Stalker_1980\\023_1_1_Stalker_1980_DVD_ELAN.eaf'
p103
sg17
I00
sba(i__main__
Movie
p104
(dp105
g3
S'JourDeFete'
p106
sg5
S'//130.60.131.134/studi/Filme/mittlere_Filme/25_Jour_de_fete_1949/'
p107
sg7
(lp108
S'//130.60.131.134/studi/Filme/mittlere_Filme/25_Jour_de_fete_1949\\25_1_1_JourDeFete_1949_DVD_ELAN.txt'
p109
asg9
(lp110
I25
aI1
aI1
asg11
S'mittlere_Filme/25_Jour_de_fete_1949/'
p111
sg13
I00
sg14
Nsg15
S'//130.60.131.134/studi/Filme/mittlere_Filme/25_Jour_de_fete_1949\\ELAN_Projektdatei\\25_1_1_JourDeFete_1949_DVD_ELAN.eaf'
p112
sg17
I00
sba(i__main__
Movie
p113
(dp114
g3
S'JoanTheWoman'
p115
sg5
S'//130.60.131.134/studi/Filme/frueher_Film/26_Joan_the_Woman_1916/'
p116
sg7
(lp117
sg9
(lp118
I26
aI1
aI1
asg11
S'frueher_Film/26_Joan_the_Woman_1916/'
p119
sg13
I01
sg14
Nsg15
S'//130.60.131.134/studi/Filme/frueher_Film/26_Joan_the_Woman_1916\\26_1_1_JoanTheWoman_1916_DVD_ELAN.eaf'
p120
sg17
I00
sba(i__main__
Movie
p121
(dp122
g3
S'MoulinRouge'
p123
sg5
S'//130.60.131.134/studi/Filme/mittlere_Filme/27_Moulin_Rouge_1952/'
p124
sg7
(lp125
sg9
(lp126
I27
aI1
aI1
asg11
S'mittlere_Filme/27_Moulin_Rouge_1952/'
p127
sg13
I01
sg14
Nsg15
S'//130.60.131.134/studi/Filme/mittlere_Filme/27_Moulin_Rouge_1952\\27_1_1_MoulinRouge_1952_DVD.eaf'
p128
sg17
I00
sba(i__main__
Movie
p129
(dp130
g3
S'LaPouleAuxOeufsDor'
p131
sg5
S'//130.60.131.134/studi/Filme/frueher_Film/31_La_Poule_Aux_Oeufs_Dor_1905/'
p132
sg7
(lp133
sg9
(lp134
I31
aI1
aI2
asg11
S'frueher_Film/31_La_Poule_Aux_Oeufs_Dor_1905/'
p135
sg13
I00
sg14
Nsg15
S'//130.60.131.134/studi/Filme/frueher_Film/31_La_Poule_Aux_Oeufs_Dor_1905\\31_1_2_LaPouleAuxOeufsDor_1905_ELAN.eaf'
p136
sg17
I00
sba(i__main__
Movie
p137
(dp138
g3
S'LePalaisDesMilleEtUneNuits'
p139
sg5
S'//130.60.131.134/studi/Filme/frueher_Film/37_Le_Palais_Des_Mille_Et_Une_Nuits_1905/'
p140
sg7
(lp141
sg9
(lp142
I37
aI1
aI1
asg11
S'frueher_Film/37_Le_Palais_Des_Mille_Et_Une_Nuits_1905/'
p143
sg13
I00
sg14
Nsg15
S'//130.60.131.134/studi/Filme/frueher_Film/37_Le_Palais_Des_Mille_Et_Une_Nuits_1905\\37_1_1_LePalaisDesMilleEtUneNuits_1905_DVD_ELAN.eaf'
p144
sg17
I00
sba(i__main__
Movie
p145
(dp146
g3
S'Redskin'
p147
sg5
S'//130.60.131.134/studi/Filme/frueher_Film/39_Redskin_1929/'
p148
sg7
(lp149
sg9
(lp150
I39
aI1
aI2
asg11
S'frueher_Film/39_Redskin_1929/'
p151
sg13
I00
sg14
Nsg15
S'//130.60.131.134/studi/Filme/frueher_Film/39_Redskin_1929\\39_1_2_Redskin_1929_DVD_ELAN.eaf'
p152
sg17
I00
sba(i__main__
Movie
p153
(dp154
g3
S'AStarIsBorn'
p155
sg5
S'//130.60.131.134/studi/Filme/mittlere_Filme/43_A_Star_Is_Born_1937/'
p156
sg7
(lp157
sg9
(lp158
I43
aI1
aI1
asg11
S'mittlere_Filme/43_A_Star_Is_Born_1937/'
p159
sg13
I01
sg14
Nsg15
S'//130.60.131.134/studi/Filme/mittlere_Filme/43_A_Star_Is_Born_1937\\43_1_1_AStarIsBorn_1937_DVD_ELAN.eaf'
p160
sg17
I00
sba(i__main__
Movie
p161
(dp162
g3
S'TheRedLantern'
p163
sg5
S'//130.60.131.134/studi/Filme/frueher_Film/47_The_Red_Lantern_1919/'
p164
sg7
(lp165
sg9
(lp166
I47
aI1
aI1
asg11
S'frueher_Film/47_The_Red_Lantern_1919/'
p167
sg13
I01
sg14
Nsg15
S'//130.60.131.134/studi/Filme/frueher_Film/47_The_Red_Lantern_1919\\47_1_1_TheRedLantern_1919_DVD_ELAN.eaf'
p168
sg17
I00
sba(i__main__
Movie
p169
(dp170
g3
S'LaCucaracha'
p171
sg5
S'//130.60.131.134/studi/Filme/mittlere_Filme/48_La_Cucaracha_1934/'
p172
sg7
(lp173
sg9
(lp174
I48
aI1
aI1
asg11
S'mittlere_Filme/48_La_Cucaracha_1934/'
p175
sg13
I00
sg14
Nsg15
S'//130.60.131.134/studi/Filme/mittlere_Filme/48_La_Cucaracha_1934\\ELAN_Projektdatei\\48_1_1_LaCucaracha_1934_DVD_ELAN.eaf'
p176
sg17
I00
sba(i__main__
Movie
p177
(dp178
g3
S'TheTollOfTheSea'
p179
sg5
S'//130.60.131.134/studi/Filme/frueher_Film/51_The_Toll_of_the_Sea_1922/'
p180
sg7
(lp181
sg9
(lp182
I51
aI1
aI1
asg11
S'frueher_Film/51_The_Toll_of_the_Sea_1922/'
p183
sg13
I00
sg14
Nsg15
S'//130.60.131.134/studi/Filme/frueher_Film/51_The_Toll_of_the_Sea_1922\\51_1_1_TheTollOfTheSea_1922_DVD_ELAN.eaf'
p184
sg17
I00
sba(i__main__
Movie
p185
(dp186
g3
S'ThePhantomoftheOpera'
p187
sg5
S'//130.60.131.134/studi/Filme/frueher_Film/52_The_Phantom_of_the_Opera_1925/'
p188
sg7
(lp189
sg9
(lp190
I52
aI1
aI1
asg11
S'frueher_Film/52_The_Phantom_of_the_Opera_1925/'
p191
sg13
I01
sg14
Nsg15
S'//130.60.131.134/studi/Filme/frueher_Film/52_The_Phantom_of_the_Opera_1925\\52_1_1_ThePhantomoftheOpera_1925_DVD_Elan.eaf'
p192
sg17
I00
sba(i__main__
Movie
p193
(dp194
g3
S'TheBlackPirate'
p195
sg5
S'//130.60.131.134/studi/Filme/frueher_Film/53_The_Black_Pirate_1926/'
p196
sg7
(lp197
sg9
(lp198
I53
aI1
aI1
asg11
S'frueher_Film/53_The_Black_Pirate_1926/'
p199
sg13
I01
sg14
Nsg15
S'//130.60.131.134/studi/Filme/frueher_Film/53_The_Black_Pirate_1926\\53_1_1_TheBlackPirate_1926_DVD_Elan.eaf'
p200
sg17
I00
sba(i__main__
Movie
p201
(dp202
g3
S'HenryV'
p203
sg5
S'//130.60.131.134/studi/Filme/mittlere_Filme/62_Henry_V_1944/'
p204
sg7
(lp205
sg9
(lp206
I62
aI1
aI1
asg11
S'mittlere_Filme/62_Henry_V_1944/'
p207
sg13
I01
sg14
Nsg15
S'//130.60.131.134/studi/Filme/mittlere_Filme/62_Henry_V_1944\\62_1_1_HenryV_1944_DVD_ELAN.eaf'
p208
sg17
I00
sba(i__main__
Movie
p209
(dp210
g3
S'BeckySharp'
p211
sg5
S'//130.60.131.134/studi/Filme/mittlere_Filme/63_Becky_Sharp_1935/'
p212
sg7
(lp213
sg9
(lp214
I63
aI1
aI2
asg11
S'mittlere_Filme/63_Becky_Sharp_1935/'
p215
sg13
I01
sg14
Nsg15
S'//130.60.131.134/studi/Filme/mittlere_Filme/63_Becky_Sharp_1935\\63_1_2_BeckySharp_1935_DVD_ELAN.eaf'
p216
sg17
I00
sba(i__main__
Movie
p217
(dp218
g3
S'PierrotLeFou'
p219
sg5
S'//130.60.131.134/studi/Filme/spaete_Filme/69_Pierrot_le_Fou_1965/'
p220
sg7
(lp221
S'//130.60.131.134/studi/Filme/spaete_Filme/69_Pierrot_le_Fou_1965\\69_PierrotLeFou_1965_DVD_ELAN_BF.txt'
p222
asg9
(lp223
I69
aI1
aI1
asg11
S'spaete_Filme/69_Pierrot_le_Fou_1965/'
p224
sg13
I00
sg14
Nsg15
S'//130.60.131.134/studi/Filme/spaete_Filme/69_Pierrot_le_Fou_1965\\69_1_1_PierrotLeFou_1965_DVD_ELAN_BF_korr.eaf'
p225
sg17
I00
sba(i__main__
Movie
p226
(dp227
g3
S'LolaMontes'
p228
sg5
S'//130.60.131.134/studi/Filme/spaete_Filme/70_Lola_Montes_1955/'
p229
sg7
(lp230
S'//130.60.131.134/studi/Filme/spaete_Filme/70_Lola_Montes_1955\\70_1_1_LolaMontes_1955_DVD_ELAN_Export.txt'
p231
asg9
(lp232
I70
aI1
aI1
asg11
S'spaete_Filme/70_Lola_Montes_1955/'
p233
sg13
I01
sg14
Nsg15
S'//130.60.131.134/studi/Filme/spaete_Filme/70_Lola_Montes_1955\\70_1_1_LolaMontes_1955_DVD_ELAN.eaf'
p234
sg17
I00
sba(i__main__
Movie
p235
(dp236
g3
S'Higanbana'
p237
sg5
S'//130.60.131.134/studi/Filme/spaete_Filme/73_Higanbana_1958/'
p238
sg7
(lp239
S'//130.60.131.134/studi/Filme/spaete_Filme/73_Higanbana_1958\\73_1_1_Higanbana_1958_DVD_ELAN.txt'
p240
asg9
(lp241
I73
aI1
aI1
asg11
S'spaete_Filme/73_Higanbana_1958/'
p242
sg13
I00
sg14
Nsg15
S'//130.60.131.134/studi/Filme/spaete_Filme/73_Higanbana_1958\\ELAN Projektdatei\\73_1_1_Higanbana_1958_DVD_ELAN.eaf'
p243
sg17
I00
sba(i__main__
Movie
p244
(dp245
g3
S'FlowersAndTrees'
p246
sg5
S'//130.60.131.134/studi/Filme/mittlere_Filme/81_Flowers_and_Trees_1932/'
p247
sg7
(lp248
sg9
(lp249
I81
aI1
aI1
asg11
S'mittlere_Filme/81_Flowers_and_Trees_1932/'
p250
sg13
I00
sg14
Nsg15
S'//130.60.131.134/studi/Filme/mittlere_Filme/81_Flowers_and_Trees_1932\\81_1_1_FlowersAndTrees_1932_DVD_ELAN.eaf'
p251
sg17
I00
sba(i__main__
Movie
p252
(dp253
g3
S'TheWizardOfOz'
p254
sg5
S'//130.60.131.134/studi/Filme/mittlere_Filme/87_The_Wizard_of_Oz_1939/'
p255
sg7
(lp256
sg9
(lp257
I87
aI1
aI1
asg11
S'mittlere_Filme/87_The_Wizard_of_Oz_1939/'
p258
sg13
I01
sg14
Nsg15
S'//130.60.131.134/studi/Filme/mittlere_Filme/87_The_Wizard_of_Oz_1939\\87_1_1_TheWizardOfOz_1939_DVD_ELAN.eaf'
p259
sg17
I00
sba(i__main__
Movie
p260
(dp261
g3
S'2001ASpaceOdyssey'
p262
sg5
S'//130.60.131.134/studi/Filme/spaete_Filme/96_2001_A_Space_Odyssey_1968/'
p263
sg7
(lp264
S'//130.60.131.134/studi/Filme/spaete_Filme/96_2001_A_Space_Odyssey_1968\\96_1_1_2001ASpaceOdyssey_1968_DVD_ELAN_Export1.txt'
p265
asg9
(lp266
I96
aI1
aI1
asg11
S'spaete_Filme/96_2001_A_Space_Odyssey_1968/'
p267
sg13
I01
sg14
Nsg15
S'//130.60.131.134/studi/Filme/spaete_Filme/96_2001_A_Space_Odyssey_1968\\96_1_1_2001ASpaceOdyssey_1968_DVD_ELAN.eaf'
p268
sg17
I00
sba(i__main__
Movie
p269
(dp270
g3
S'DeuxOuTroisChosesQueJeSaisDElle'
p271
sg5
S'//130.60.131.134/studi/Filme/spaete_Filme/102_Deux_ou_trois_choses_que_je_sais_d_elle_1966/'
p272
sg7
(lp273
S'//130.60.131.134/studi/Filme/spaete_Filme/102_Deux_ou_trois_choses_que_je_sais_d_elle_1966\\102_1_1_DeuxOuTroisChosesQueJeSaisDElle_1966_DVD_ELAN.txt'
p274
asg9
(lp275
I102
aI1
aI1
asg11
S'spaete_Filme/102_Deux_ou_trois_choses_que_je_sais_d_elle_1966/'
p276
sg13
I01
sg14
Nsg15
S'//130.60.131.134/studi/Filme/spaete_Filme/102_Deux_ou_trois_choses_que_je_sais_d_elle_1966\\ELAN Projektdatei\\102_1_1_DeuxOuTroisChosesQueJeSaisDElle_1966_DVD_ELAN.eaf'
p277
sg17
I00
sba(i__main__
Movie
p278
(dp279
g3
S'Marnie'
p280
sg5
S'//130.60.131.134/studi/Filme/spaete_Filme/103_Marnie_1964/'
p281
sg7
(lp282
S'//130.60.131.134/studi/Filme/spaete_Filme/103_Marnie_1964\\103_Marnie_1964_DVD_ELAN_Export.txt'
p283
asg9
(lp284
I103
aI1
aI1
asg11
S'spaete_Filme/103_Marnie_1964/'
p285
sg13
I01
sg14
Nsg15
S'//130.60.131.134/studi/Filme/spaete_Filme/103_Marnie_1964\\103_1_1_Marnie_1964_DVD_ELAN.eaf'
p286
sg17
I00
sba(i__main__
Movie
p287
(dp288
g3
S'PalJoey'
p289
sg5
S'//130.60.131.134/studi/Filme/spaete_Filme/104_Pal_Joey_1957/'
p290
sg7
(lp291
S'//130.60.131.134/studi/Filme/spaete_Filme/104_Pal_Joey_1957\\104_1_1_PalJoey_1957_DVD_ELAN.txt'
p292
asg9
(lp293
I104
aI1
aI1
asg11
S'spaete_Filme/104_Pal_Joey_1957/'
p294
sg13
I00
sg14
Nsg15
S'//130.60.131.134/studi/Filme/spaete_Filme/104_Pal_Joey_1957\\ELAN Projektdatei\\104_1_1_PalJoey_1957_DVD_ELAN.eaf'
p295
sg17
I00
sba(i__main__
Movie
p296
(dp297
g3
S'BlancheFury'
p298
sg5
S'//130.60.131.134/studi/Filme/mittlere_Filme/105_Blanche_Fury_1948/'
p299
sg7
(lp300
sg9
(lp301
I105
aI1
aI1
asg11
S'mittlere_Filme/105_Blanche_Fury_1948/'
p302
sg13
I00
sg14
Nsg15
S'//130.60.131.134/studi/Filme/mittlere_Filme/105_Blanche_Fury_1948\\105_1_1_BlancheFury_1948_DVD_ELAN.eaf'
p303
sg17
I00
sba(i__main__
Movie
p304
(dp305
g3
S'LeaveHerToHeaven'
p306
sg5
S'//130.60.131.134/studi/Filme/mittlere_Filme/107_Leave_Her_to_Heaven_1945/'
p307
sg7
(lp308
sg9
(lp309
I107
aI1
aI1
asg11
S'mittlere_Filme/107_Leave_Her_to_Heaven_1945/'
p310
sg13
I01
sg14
Nsg15
S'//130.60.131.134/studi/Filme/mittlere_Filme/107_Leave_Her_to_Heaven_1945\\107_1_1_LeaveHerToHeaven_1945_DVD_ELAN_BF.eaf'
p311
sg17
I00
sba(i__main__
Movie
p312
(dp313
g3
S'LeMepris'
p314
sg5
S'//130.60.131.134/studi/Filme/spaete_Filme/108_Le_Mepris_1964/'
p315
sg7
(lp316
S'//130.60.131.134/studi/Filme/spaete_Filme/108_Le_Mepris_1964\\108_1_1_LeMepris_DVD_ELAN_BF.txt'
p317
asg9
(lp318
I108
aI1
aI1
asg11
S'spaete_Filme/108_Le_Mepris_1964/'
p319
sg13
I00
sg14
Nsg15
S'//130.60.131.134/studi/Filme/spaete_Filme/108_Le_Mepris_1964\\108_1_1_LeMepris_DVD_ELAN_BF.eaf'
p320
sg17
I00
sba(i__main__
Movie
p321
(dp322
g3
S'HallucinationsImagesduMondeVisionnaire'
p323
sg5
S'//130.60.131.134/studi/Filme/spaete_Filme/116_HallucinationsImagesduMondeVisionnaire_1963/'
p324
sg7
(lp325
sg9
(lp326
I116
aI1
aI1
asg11
S'spaete_Filme/116_HallucinationsImagesduMondeVisionnaire_1963/'
p327
sg13
I01
sg14
Nsg15
S'//130.60.131.134/studi/Filme/spaete_Filme/116_HallucinationsImagesduMondeVisionnaire_1963\\116_1_1_HallucinationsImagesduMondeVisionnaire_1963_Medfilm_ELAN.eaf'
p328
sg17
I00
sba(i__main__
Movie
p329
(dp330
g3
S'TheThiefOfBagdad'
p331
sg5
S'//130.60.131.134/studi/Filme/mittlere_Filme/122_The_Thief_of_Bagdad_1940/'
p332
sg7
(lp333
S'//130.60.131.134/studi/Filme/mittlere_Filme/122_The_Thief_of_Bagdad_1940\\122_1_1_TheThiefOfBagdad_1940_DVD_ELAN.txt'
p334
asg9
(lp335
I122
aI1
aI1
asg11
S'mittlere_Filme/122_The_Thief_of_Bagdad_1940/'
p336
sg13
I01
sg14
Nsg15
S'//130.60.131.134/studi/Filme/mittlere_Filme/122_The_Thief_of_Bagdad_1940\\122_1_1_ELAN_Projektdatei\\122_1_1_TheThiefOfBagdad_1940_DVD_ELAN.eaf'
p337
sg17
I00
sba(i__main__
Movie
p338
(dp339
g3
S'DontLookNow'
p340
sg5
S'//130.60.131.134/studi/Filme/spaete_Filme/124_Dont_Look_Now_1974/'
p341
sg7
(lp342
S'//130.60.131.134/studi/Filme/spaete_Filme/124_Dont_Look_Now_1974\\124_DontLookNow_1974_DVD_ELAN_Export_2.txt'
p343
asg9
(lp344
I124
aI1
aI1
asg11
S'spaete_Filme/124_Dont_Look_Now_1974/'
p345
sg13
I01
sg14
Nsg15
S'//130.60.131.134/studi/Filme/spaete_Filme/124_Dont_Look_Now_1974\\124_1_1_DontLookNow_1973_DVD_ELAN.eaf'
p346
sg17
I00
sba(i__main__
Movie
p347
(dp348
g3
S'TheFourFeathers'
p349
sg5
S'//130.60.131.134/studi/Filme/mittlere_Filme/127_The_Four_Feathers_1939/'
p350
sg7
(lp351
sg9
(lp352
I127
aI1
aI1
asg11
S'mittlere_Filme/127_The_Four_Feathers_1939/'
p353
sg13
I01
sg14
Nsg15
S'//130.60.131.134/studi/Filme/mittlere_Filme/127_The_Four_Feathers_1939\\127_1_1_TheFourFeathers_1939_DVD_ELAN.eaf'
p354
sg17
I00
sba(i__main__
Movie
p355
(dp356
g3
S'HallucinationsLaPerceptionetlImaginaire'
p357
sg5
S'//130.60.131.134/studi/Filme/spaete_Filme/128_HallucinationsLaPerceptionetlImaginaire_1964/'
p358
sg7
(lp359
sg9
(lp360
I128
aI1
aI1
asg11
S'spaete_Filme/128_HallucinationsLaPerceptionetlImaginaire_1964/'
p361
sg13
I00
sg14
Nsg15
S'//130.60.131.134/studi/Filme/spaete_Filme/128_HallucinationsLaPerceptionetlImaginaire_1964\\128_1_1_HallucinationsLaPerceptionetlImaginaire_1964_Medfilm_ELAN.eaf'
p362
sg17
I00
sba(i__main__
Movie
p363
(dp364
g3
S'GoldDiggersOfBroadway'
p365
sg5
S'//130.60.131.134/studi/Filme/frueher_Film/142_Gold_Diggers_of_Broadway_1929/'
p366
sg7
(lp367
sg9
(lp368
I142
aI1
aI1
asg11
S'frueher_Film/142_Gold_Diggers_of_Broadway_1929/'
p369
sg13
I00
sg14
Nsg15
S'//130.60.131.134/studi/Filme/frueher_Film/142_Gold_Diggers_of_Broadway_1929\\142_1_1_GoldDiggersOfBroadway_1929_DVD_ELAN.eaf'
p370
sg17
I00
sba(i__main__
Movie
p371
(dp372
g3
S'TheWaroftheWorlds'
p373
sg5
S'//130.60.131.134/studi/Filme/mittlere_Filme/143_The_War_of_the_Worlds_1953/'
p374
sg7
(lp375
sg9
(lp376
I143
aI1
aI1
asg11
S'mittlere_Filme/143_The_War_of_the_Worlds_1953/'
p377
sg13
I01
sg14
Nsg15
S'//130.60.131.134/studi/Filme/mittlere_Filme/143_The_War_of_the_Worlds_1953\\143_1_1_TheWaroftheWorlds_1953_DVD_ELAN.eaf'
p378
sg17
I00
sba(i__main__
Movie
p379
(dp380
g3
S'CloseEncountersoftheThirdKind'
p381
sg5
S'//130.60.131.134/studi/Filme/spaete_Filme/149_Close_Encounters_of_the_Third_Kind_1977/'
p382
sg7
(lp383
sg9
(lp384
I149
aI1
aI1
asg11
S'spaete_Filme/149_Close_Encounters_of_the_Third_Kind_1977/'
p385
sg13
I01
sg14
Nsg15
S'//130.60.131.134/studi/Filme/spaete_Filme/149_Close_Encounters_of_the_Third_Kind_1977\\149_1_1_CloseEncountersoftheThirdKind_1977_DVD_ELAN.eaf'
p386
sg17
I00
sba(i__main__
Movie
p387
(dp388
g3
S'CosmopolitanLondon'
p389
sg5
S'//130.60.131.134/studi/Filme/frueher_Film/158_Cosmopolitan_London_1924/'
p390
sg7
(lp391
sg9
(lp392
I158
aI1
aI1
asg11
S'frueher_Film/158_Cosmopolitan_London_1924/'
p393
sg13
I00
sg14
Nsg15
S'//130.60.131.134/studi/Filme/frueher_Film/158_Cosmopolitan_London_1924\\CosmopolitanLondon.eaf'
p394
sg17
I00
sba(i__main__
Movie
p395
(dp396
g3
S'Gribiche'
p397
sg5
S'//130.60.131.134/studi/Filme/frueher_Film/161_Gribiche_1926/'
p398
sg7
(lp399
S'//130.60.131.134/studi/Filme/frueher_Film/161_Gribiche_1926\\161_1_1_Gribiche_1926_DVD_ELAN.txt'
p400
asg9
(lp401
I161
aI1
aI1
asg11
S'frueher_Film/161_Gribiche_1926/'
p402
sg13
I01
sg14
Nsg15
S'//130.60.131.134/studi/Filme/frueher_Film/161_Gribiche_1926\\161_1_1_Gribiche_1926_DVD_ELAN.eaf'
p403
sg17
I00
sba(i__main__
Movie
p404
(dp405
g3
S'BrasierArdent'
p406
sg5
S'//130.60.131.134/studi/Filme/frueher_Film/163_Brasier_Ardent_1923/'
p407
sg7
(lp408
sg9
(lp409
I163
aI1
aI1
asg11
S'frueher_Film/163_Brasier_Ardent_1923/'
p410
sg13
I01
sg14
Nsg15
S'//130.60.131.134/studi/Filme/frueher_Film/163_Brasier_Ardent_1923\\163_1_1_BrasierArdent_1923_DVD_ELAN.eaf'
p411
sg17
I00
sba(i__main__
Movie
p412
(dp413
g3
S'Mauprat'
p414
sg5
S'//130.60.131.134/studi/Filme/frueher_Film/164_Mauprat_1926/'
p415
sg7
(lp416
sg9
(lp417
I164
aI1
aI1
asg11
S'frueher_Film/164_Mauprat_1926/'
p418
sg13
I00
sg14
Nsg15
S'//130.60.131.134/studi/Filme/frueher_Film/164_Mauprat_1926\\164_1_1_Mauprat_1926_DVD_Elan.eaf'
p419
sg17
I00
sba(i__main__
Movie
p420
(dp421
g3
S'LeVoyageDansLaLune'
p422
sg5
S'//130.60.131.134/studi/Filme/frueher_Film/166_Le_Voyage_Dans_La_Lune_1902/'
p423
sg7
(lp424
sg9
(lp425
I166
aI1
aI1
asg11
S'frueher_Film/166_Le_Voyage_Dans_La_Lune_1902/'
p426
sg13
I00
sg14
Nsg15
S'//130.60.131.134/studi/Filme/frueher_Film/166_Le_Voyage_Dans_La_Lune_1902\\166_1_1_LeVoyageDansLaLune_1902_DVD_ELAN_UF.eaf'
p427
sg17
I00
sba(i__main__
Movie
p428
(dp429
g3
S'LaRoue'
p430
sg5
S'//130.60.131.134/studi/Filme/frueher_Film/167_La_Roue_1923/167_1_1_LaRoue_1923_DVD/'
p431
sg7
(lp432
sg9
(lp433
I167
aI1
aI1
asg11
S'frueher_Film/167_La_Roue_1923/167_1_1_LaRoue_1923_DVD/'
p434
sg13
I01
sg14
Nsg15
S'//130.60.131.134/studi/Filme/frueher_Film/167_La_Roue_1923/167_1_1_LaRoue_1923_DVD\\167_1_1_LaRoue_1923_DVD_ELAN.eaf'
p435
sg17
I00
sba(i__main__
Movie
p436
(dp437
g3
S'LaRoue'
p438
sg5
S'//130.60.131.134/studi/Filme/frueher_Film/167_La_Roue_1923/167_1_2_LaRoue_1923_DVD/'
p439
sg7
(lp440
sg9
(lp441
I167
aI1
aI2
asg11
S'frueher_Film/167_La_Roue_1923/167_1_2_LaRoue_1923_DVD/'
p442
sg13
I01
sg14
Nsg15
S'//130.60.131.134/studi/Filme/frueher_Film/167_La_Roue_1923/167_1_2_LaRoue_1923_DVD\\167_1_2_LaRoue_1923_DVD_ELAN.eaf'
p443
sg17
I00
sba(i__main__
Movie
p444
(dp445
g3
S'DieFinanzenDesGrossherzogs'
p446
sg5
S'//130.60.131.134/studi/Filme/frueher_Film/169_Die_Finanzen_des_Grossherzogs_1924/'
p447
sg7
(lp448
sg9
(lp449
I169
aI1
aI1
asg11
S'frueher_Film/169_Die_Finanzen_des_Grossherzogs_1924/'
p450
sg13
I01
sg14
Nsg15
S'//130.60.131.134/studi/Filme/frueher_Film/169_Die_Finanzen_des_Grossherzogs_1924\\169_1_1_DieFinanzenDesGrossherzogs_1924_DVD_ELAN.eaf'
p451
sg17
I00
sba(i__main__
Movie
p452
(dp453
g3
S'FlowersofLondon'
p454
sg5
S'//130.60.131.134/studi/Filme/frueher_Film/171_Flowers_of_London_1924/'
p455
sg7
(lp456
sg9
(lp457
I171
aI1
aI1
asg11
S'frueher_Film/171_Flowers_of_London_1924/'
p458
sg13
I01
sg14
Nsg15
S'//130.60.131.134/studi/Filme/frueher_Film/171_Flowers_of_London_1924\\171_1_1_FlowersofLondon_1924_DVD_Elan.eaf'
p459
sg17
I00
sba(i__main__
Movie
p460
(dp461
g3
S'LondonsFreeShows'
p462
sg5
S'//130.60.131.134/studi/Filme/frueher_Film/174_Londons_Sunday_1924/'
p463
sg7
(lp464
sg9
(lp465
I172
aI1
aI1
asg11
S'frueher_Film/174_Londons_Sunday_1924/'
p466
sg13
I00
sg14
Nsg15
S'//130.60.131.134/studi/Filme/frueher_Film/174_Londons_Sunday_1924\\172_1_1_LondonsFreeShows_1924_DVD_Elan.eaf'
p467
sg17
I00
sba(i__main__
Movie
p468
(dp469
g3
S'BargingThroughLondon'
p470
sg5
S'//130.60.131.134/studi/Filme/frueher_Film/173_Barging_Through_London_1924/'
p471
sg7
(lp472
sg9
(lp473
I173
aI1
aI1
asg11
S'frueher_Film/173_Barging_Through_London_1924/'
p474
sg13
I01
sg14
Nsg15
S'//130.60.131.134/studi/Filme/frueher_Film/173_Barging_Through_London_1924\\173_1_1_BargingThroughLondon_1924_DVD_ELAN.eaf'
p475
sg17
I00
sba(i__main__
Movie
p476
(dp477
g3
S'LondonoftheTrack'
p478
sg5
S'//130.60.131.134/studi/Filme/frueher_Film/175_London_Off_the_Track_1924/'
p479
sg7
(lp480
sg9
(lp481
I175
aI1
aI1
asg11
S'frueher_Film/175_London_Off_the_Track_1924/'
p482
sg13
I00
sg14
Nsg15
S'//130.60.131.134/studi/Filme/frueher_Film/175_London_Off_the_Track_1924\\175_1_1_LondonoftheTrack_1924_DVD_Elan.eaf'
p483
sg17
I00
sba(i__main__
Movie
p484
(dp485
g3
S'Phantom'
p486
sg5
S'//130.60.131.134/studi/Filme/frueher_Film/176_Phantom_1922/'
p487
sg7
(lp488
sg9
(lp489
I176
aI1
aI1
asg11
S'frueher_Film/176_Phantom_1922/'
p490
sg13
I00
sg14
Nsg15
S'//130.60.131.134/studi/Filme/frueher_Film/176_Phantom_1922\\176_1_1_Phantom_1922_DVD_ELAN.eaf'
p491
sg17
I00
sba(i__main__
Movie
p492
(dp493
g3
S'FrauenSindDochBessereDiplomaten'
p494
sg5
S'//130.60.131.134/studi/Filme/mittlere_Filme/177_Frauen_sind_doch_bessere_Diplomaten_1941/'
p495
sg7
(lp496
S'//130.60.131.134/studi/Filme/mittlere_Filme/177_Frauen_sind_doch_bessere_Diplomaten_1941\\177_1_1_FrauenSindDochBessereDiplomaten_1941_DVD_ELAN.txt'
p497
asg9
(lp498
I177
aI1
aI1
asg11
S'mittlere_Filme/177_Frauen_sind_doch_bessere_Diplomaten_1941/'
p499
sg13
I01
sg14
Nsg15
S'//130.60.131.134/studi/Filme/mittlere_Filme/177_Frauen_sind_doch_bessere_Diplomaten_1941\\ELAN_Projektdatei\\177_1_1_FrauenSindDochBessereDiplomaten_1941_DVD_ELAN.eaf'
p500
sg17
I00
sba(i__main__
Movie
p501
(dp502
g3
S'TheRedShoes'
p503
sg5
S'//130.60.131.134/studi/Filme/mittlere_Filme/180_The_Red_Shoes_1948/'
p504
sg7
(lp505
S'//130.60.131.134/studi/Filme/mittlere_Filme/180_The_Red_Shoes_1948\\180_1_1_TheRedShoes_1948_DVD_ELAN.txt'
p506
asg9
(lp507
I180
aI1
aI1
asg11
S'mittlere_Filme/180_The_Red_Shoes_1948/'
p508
sg13
I00
sg14
Nsg15
S'//130.60.131.134/studi/Filme/mittlere_Filme/180_The_Red_Shoes_1948\\ELAN_Projektdatei\\180_1_1_TheRedShoes_1948_DVD_ELAN.eaf'
p509
sg17
I00
sba(i__main__
Movie
p510
(dp511
g3
S'SheWhoreAYellowRibbon'
p512
sg5
S'//130.60.131.134/studi/Filme/mittlere_Filme/181_She_Wore_A_Yellow_Ribbon_1949/'
p513
sg7
(lp514
sg9
(lp515
I181
aI1
aI1
asg11
S'mittlere_Filme/181_She_Wore_A_Yellow_Ribbon_1949/'
p516
sg13
I00
sg14
Nsg15
S'//130.60.131.134/studi/Filme/mittlere_Filme/181_She_Wore_A_Yellow_Ribbon_1949\\181_1_1_SheWhoreAYellowRibbon_1949_DVD_ELAN.eaf'
p517
sg17
I00
sba(i__main__
Movie
p518
(dp519
g3
S'MakingFashion'
p520
sg5
S'//130.60.131.134/studi/Filme/mittlere_Filme/182_Making_Fashion_1938/'
p521
sg7
(lp522
S'//130.60.131.134/studi/Filme/mittlere_Filme/182_Making_Fashion_1938\\182_1_2_MakingFashion_1938_DVD_ELAN.txt'
p523
asg9
(lp524
I182
aI1
aI1
asg11
S'mittlere_Filme/182_Making_Fashion_1938/'
p525
sg13
I00
sg14
Nsg15
S'//130.60.131.134/studi/Filme/mittlere_Filme/182_Making_Fashion_1938\\ELAN_Projektdatei\\182_1_2_MakingFashion_1938_DVD_ELAN.eaf'
p526
sg17
I00
sba(i__main__
Movie
p527
(dp528
g3
S'Kolberg'
p529
sg5
S'//130.60.131.134/studi/Filme/mittlere_Filme/183_Kolberg_1945/'
p530
sg7
(lp531
S'//130.60.131.134/studi/Filme/mittlere_Filme/183_Kolberg_1945\\183_1_3_Kolberg_1945_DVD_ELAN.txt'
p532
asg9
(lp533
I183
aI1
aI3
asg11
S'mittlere_Filme/183_Kolberg_1945/'
p534
sg13
I00
sg14
Nsg15
S'//130.60.131.134/studi/Filme/mittlere_Filme/183_Kolberg_1945\\183_1_3_Kolberg_1945_DVD_ELAN.eaf'
p535
sg17
I00
sba(i__main__
Movie
p536
(dp537
g3
S'BlackNarcissus'
p538
sg5
S'//130.60.131.134/studi/Filme/mittlere_Filme/184_Black_Narcissus_1947/'
p539
sg7
(lp540
S'//130.60.131.134/studi/Filme/mittlere_Filme/184_Black_Narcissus_1947\\184_1_1_BlackNarcissus_1947_DVD_ELAN_BF.txt'
p541
asg9
(lp542
I184
aI1
aI1
asg11
S'mittlere_Filme/184_Black_Narcissus_1947/'
p543
sg13
I00
sg14
Nsg15
S'//130.60.131.134/studi/Filme/mittlere_Filme/184_Black_Narcissus_1947\\184_1_1_BlackNarcissus_1947_DVD_ELAN_BF.eaf'
p544
sg17
I00
sba(i__main__
Movie
p545
(dp546
g3
S'TheAdventuresOfRobinHood'
p547
sg5
S'//130.60.131.134/studi/Filme/mittlere_Filme/185_The_Adventures_of_Robin_Hood_1938/'
p548
sg7
(lp549
S'//130.60.131.134/studi/Filme/mittlere_Filme/185_The_Adventures_of_Robin_Hood_1938\\185_1_1_TheAdventuresOfRobinHood_1938_DVD_ELAN.txt'
p550
asg9
(lp551
I185
aI1
aI1
asg11
S'mittlere_Filme/185_The_Adventures_of_Robin_Hood_1938/'
p552
sg13
I00
sg14
Nsg15
S'//130.60.131.134/studi/Filme/mittlere_Filme/185_The_Adventures_of_Robin_Hood_1938\\ELAN_Projektdatei\\185_1_1_TheAdventuresOfRobinHood_1938_DVD_ELAN.eaf'
p553
sg17
I00
sba(i__main__
Movie
p554
(dp555
g3
S'Muenchhausen'
p556
sg5
S'//130.60.131.134/studi/Filme/mittlere_Filme/186_Muenchhausen_1943/'
p557
sg7
(lp558
S'//130.60.131.134/studi/Filme/mittlere_Filme/186_Muenchhausen_1943\\186_1_1_Muenchhausen_1943_DVD_ELAN.txt'
p559
asg9
(lp560
I186
aI1
aI1
asg11
S'mittlere_Filme/186_Muenchhausen_1943/'
p561
sg13
I00
sg14
Nsg15
S'//130.60.131.134/studi/Filme/mittlere_Filme/186_Muenchhausen_1943\\ELAN_Projektdatei\\186_1_1_Muenchhausen_1943_DVD_ELAN.eaf'
p562
sg17
I00
sba(i__main__
Movie
p563
(dp564
g3
S'Der'
p565
sg5
S'//130.60.131.134/studi/Filme/frueher_Film/188_Der_m\xfcde_Tod_1921/'
p566
sg7
(lp567
sg9
(lp568
I188
aI1
aI1
asg11
S'frueher_Film/188_Der_m\xfcde_Tod_1921/'
p569
sg13
I00
sg14
Nsg15
S'//130.60.131.134/studi/Filme/frueher_Film/188_Der_m\xfcde_Tod_1921\\188_1_1_Der_Muede_Tod_1921_ELAN.eaf'
p570
sg17
I00
sba(i__main__
Movie
p571
(dp572
g3
S'VoyageSurJupiter'
p573
sg5
S'//130.60.131.134/studi/Filme/frueher_Film/189_Voyage_sur_Jupiter_1909/'
p574
sg7
(lp575
sg9
(lp576
I189
aI1
aI1
asg11
S'frueher_Film/189_Voyage_sur_Jupiter_1909/'
p577
sg13
I00
sg14
Nsg15
S'//130.60.131.134/studi/Filme/frueher_Film/189_Voyage_sur_Jupiter_1909\\189_1_1_VoyageSurJupiter_1909_DVD_ELAN.eaf'
p578
sg17
I00
sba(i__main__
Movie
p579
(dp580
g3
S'ModeDeParis'
p581
sg5
S'//130.60.131.134/studi/Filme/frueher_Film/190_Mode_de_Paris_1926/'
p582
sg7
(lp583
sg9
(lp584
I190
aI1
aI1
asg11
S'frueher_Film/190_Mode_de_Paris_1926/'
p585
sg13
I00
sg14
Nsg15
S'//130.60.131.134/studi/Filme/frueher_Film/190_Mode_de_Paris_1926\\190_1_1_ModeDeParis_1926_DVD_ELAN.eaf'
p586
sg17
I00
sba(i__main__
Movie
p587
(dp588
g3
S'LesRosesMagiques'
p589
sg5
S'//130.60.131.134/studi/Filme/frueher_Film/191_Les_Roses_Magiques_1906/'
p590
sg7
(lp591
sg9
(lp592
I191
aI1
aI1
asg11
S'frueher_Film/191_Les_Roses_Magiques_1906/'
p593
sg13
I00
sg14
Nsg15
S'//130.60.131.134/studi/Filme/frueher_Film/191_Les_Roses_Magiques_1906\\191_1_1_LesRosesMagiques_DVD_ELAN.eaf'
p594
sg17
I00
sba(i__main__
Movie
p595
(dp596
g3
S'SchattenEineNaechtlicheHalluzination'
p597
sg5
S'//130.60.131.134/studi/Filme/frueher_Film/192_Schatten_Eine_naechtliche_Halluzination_1923/'
p598
sg7
(lp599
sg9
(lp600
I192
aI1
aI1
asg11
S'frueher_Film/192_Schatten_Eine_naechtliche_Halluzination_1923/'
p601
sg13
I01
sg14
Nsg15
S'//130.60.131.134/studi/Filme/frueher_Film/192_Schatten_Eine_naechtliche_Halluzination_1923\\192_1_1_SchattenEineNaechtlicheHalluzination_1923_ELAN.eaf'
p602
sg17
I00
sba(i__main__
Movie
p603
(dp604
g3
S'LaVieEtLaPassionDeJesusChrist'
p605
sg5
S'//130.60.131.134/studi/Filme/frueher_Film/194_La_Vie_et_la_Passion_de_Jesus_Christ_1903/'
p606
sg7
(lp607
sg9
(lp608
I194
aI1
aI1
asg11
S'frueher_Film/194_La_Vie_et_la_Passion_de_Jesus_Christ_1903/'
p609
sg13
I00
sg14
Nsg15
S'//130.60.131.134/studi/Filme/frueher_Film/194_La_Vie_et_la_Passion_de_Jesus_Christ_1903\\194_1_1_LaVieEtLaPassionDeJesusChrist_1903_DVD_Elan.eaf'
p610
sg17
I00
sba(i__main__
Movie
p611
(dp612
g3
S'Linhumaine'
p613
sg5
S'//130.60.131.134/studi/Filme/frueher_Film/197_Linhumaine_1923/'
p614
sg7
(lp615
sg9
(lp616
I197
aI1
aI1
asg11
S'frueher_Film/197_Linhumaine_1923/'
p617
sg13
I01
sg14
Nsg15
S'//130.60.131.134/studi/Filme/frueher_Film/197_Linhumaine_1923\\197_1_1_Linhumaine_1923_DVD_Elan.eaf'
p618
sg17
I00
sba(i__main__
Movie
p619
(dp620
g3
S'MortDeMarat'
p621
sg5
S'//130.60.131.134/studi/Filme/frueher_Film/198_Mort_de_Marat_1897/'
p622
sg7
(lp623
sg9
(lp624
I198
aI1
aI1
asg11
S'frueher_Film/198_Mort_de_Marat_1897/'
p625
sg13
I00
sg14
Nsg15
S'//130.60.131.134/studi/Filme/frueher_Film/198_Mort_de_Marat_1897\\198_1_1_MortDeMarat_DVD_ELAN.eaf'
p626
sg17
I00
sba(i__main__
Movie
p627
(dp628
g3
S'RapsodiaSatanica'
p629
sg5
S'//130.60.131.134/studi/Filme/frueher_Film/199_Rapsodia_Satanica_1917/'
p630
sg7
(lp631
sg9
(lp632
I199
aI1
aI1
asg11
S'frueher_Film/199_Rapsodia_Satanica_1917/'
p633
sg13
I01
sg14
Nsg15
S'//130.60.131.134/studi/Filme/frueher_Film/199_Rapsodia_Satanica_1917\\199_1_1_RapsodiaSatanica_1917_ELAN.eaf'
p634
sg17
I00
sba(i__main__
Movie
p635
(dp636
g3
S'Nosferatu'
p637
sg5
S'//130.60.131.134/studi/Filme/frueher_Film/200_Nosferatu_Eine_Symphonie_des_Grauens_1922/'
p638
sg7
(lp639
sg9
(lp640
I200
aI1
aI1
asg11
S'frueher_Film/200_Nosferatu_Eine_Symphonie_des_Grauens_1922/'
p641
sg13
I01
sg14
Nsg15
S'//130.60.131.134/studi/Filme/frueher_Film/200_Nosferatu_Eine_Symphonie_des_Grauens_1922\\200_1_1_Nosferatu_1922_DVD_ELAN.eaf'
p642
sg17
I00
sba(i__main__
Movie
p643
(dp644
g3
S'BenHurATaleOfChrist'
p645
sg5
S'//130.60.131.134/studi/Filme/frueher_Film/201_Ben_Hur_A_Tale_of_Christ_1925/'
p646
sg7
(lp647
sg9
(lp648
I201
aI1
aI1
asg11
S'frueher_Film/201_Ben_Hur_A_Tale_of_Christ_1925/'
p649
sg13
I00
sg14
Nsg15
S'//130.60.131.134/studi/Filme/frueher_Film/201_Ben_Hur_A_Tale_of_Christ_1925\\201_1_1_BenHurATaleOfChrist_1925_DVD_ELAN_UF.eaf'
p650
sg17
I00
sba(i__main__
Movie
p651
(dp652
g3
S'LesPapillonsJaponais'
p653
sg5
S'//130.60.131.134/studi/Filme/frueher_Film/202_Les_papillons_japonais_1908/'
p654
sg7
(lp655
sg9
(lp656
I202
aI1
aI1
asg11
S'frueher_Film/202_Les_papillons_japonais_1908/'
p657
sg13
I00
sg14
Nsg15
S'//130.60.131.134/studi/Filme/frueher_Film/202_Les_papillons_japonais_1908\\202_1_1_LesPapillonsJaponais_1908_ELAN.eaf'
p658
sg17
I00
sba(i__main__
Movie
p659
(dp660
g3
S'IlDesertoRosso'
p661
sg5
S'//130.60.131.134/studi/Filme/spaete_Filme/203_Il_Deserto_Rosso_1964/'
p662
sg7
(lp663
sg9
(lp664
I203
aI1
aI1
asg11
S'spaete_Filme/203_Il_Deserto_Rosso_1964/'
p665
sg13
I00
sg14
Nsg15
S'//130.60.131.134/studi/Filme/spaete_Filme/203_Il_Deserto_Rosso_1964\\203_1_1_IlDesertoRosso_1964_DVD_ELAN.eaf'
p666
sg17
I00
sba(i__main__
Movie
p667
(dp668
g3
S'DieAbenteuerDesPrinzenAchmed'
p669
sg5
S'//130.60.131.134/studi/Filme/frueher_Film/204_Die_Abenteuer_des_Prinzen_Achmed_1925/'
p670
sg7
(lp671
sg9
(lp672
I204
aI1
aI1
asg11
S'frueher_Film/204_Die_Abenteuer_des_Prinzen_Achmed_1925/'
p673
sg13
I01
sg14
Nsg15
S'//130.60.131.134/studi/Filme/frueher_Film/204_Die_Abenteuer_des_Prinzen_Achmed_1925\\204_1_1_DieAbenteuerDesPrinzenAchmed_1925_DVD_ELAN_UF.eaf'
p674
sg17
I00
sba(i__main__
Movie
p675
(dp676
g3
S'Vertigo'
p677
sg5
S'//130.60.131.134/studi/Filme/spaete_Filme/205_Vertigo_1958/'
p678
sg7
(lp679
S'//130.60.131.134/studi/Filme/spaete_Filme/205_Vertigo_1958\\205_1_1_Vertigo_1958_DVD_ELAN_Export.txt'
p680
asg9
(lp681
I205
aI1
aI1
asg11
S'spaete_Filme/205_Vertigo_1958/'
p682
sg13
I01
sg14
Nsg15
S'//130.60.131.134/studi/Filme/spaete_Filme/205_Vertigo_1958\\205_1_1_Vertigo_1958_DVD_ELAN.eaf'
p683
sg17
I00
sba(i__main__
Movie
p684
(dp685
g3
S'AladinOuLLampeMerveilleuse'
p686
sg5
S'//130.60.131.134/studi/Filme/frueher_Film/206_Aladin_Ou_La_Lampe_Merveilleuse_1906/'
p687
sg7
(lp688
sg9
(lp689
I206
aI1
aI1
asg11
S'frueher_Film/206_Aladin_Ou_La_Lampe_Merveilleuse_1906/'
p690
sg13
I01
sg14
Nsg15
S'//130.60.131.134/studi/Filme/frueher_Film/206_Aladin_Ou_La_Lampe_Merveilleuse_1906\\206_1_1_AladinOuLLampeMerveilleuse_1906_DVD_ELAN.eaf'
p691
sg17
I00
sba(i__main__
Movie
p692
(dp693
g3
S'IWantYou'
p694
sg5
S'//130.60.131.134/studi/Filme/spaete_Filme/207_I_Want_You_1998/'
p695
sg7
(lp696
S'//130.60.131.134/studi/Filme/spaete_Filme/207_I_Want_You_1998\\207_1_1_IWantYou_1998_DVD_ELAN.txt'
p697
asg9
(lp698
I207
aI1
aI1
asg11
S'spaete_Filme/207_I_Want_You_1998/'
p699
sg13
I01
sg14
Nsg15
S'//130.60.131.134/studi/Filme/spaete_Filme/207_I_Want_You_1998\\ELAN Projektdatei\\207_1_1_IWantYou_1998_DVD_ELAN.eaf'
p700
sg17
I00
sba(i__main__
Movie
p701
(dp702
g3
S'DasCabinetDesDrCaligari'
p703
sg5
S'//130.60.131.134/studi/Filme/frueher_Film/208_Das_Cabinet_des_Dr_Caligari_1919/'
p704
sg7
(lp705
sg9
(lp706
I208
aI1
aI1
asg11
S'frueher_Film/208_Das_Cabinet_des_Dr_Caligari_1919/'
p707
sg13
I00
sg14
Nsg15
S'//130.60.131.134/studi/Filme/frueher_Film/208_Das_Cabinet_des_Dr_Caligari_1919\\208_1_1_DasCabinetDesDrCaligari_1919_DVD_ELAN.eaf'
p708
sg17
I00
sba(i__main__
Movie
p709
(dp710
g3
S'Suspiria'
p711
sg5
S'//130.60.131.134/studi/Filme/spaete_Filme/209_Suspiria_1977/'
p712
sg7
(lp713
S'//130.60.131.134/studi/Filme/spaete_Filme/209_Suspiria_1977\\209_1_1_Suspiria_1977_DVD_ELAN.txt'
p714
asg9
(lp715
I209
aI1
aI1
asg11
S'spaete_Filme/209_Suspiria_1977/'
p716
sg13
I01
sg14
Nsg15
S'//130.60.131.134/studi/Filme/spaete_Filme/209_Suspiria_1977\\ELAN Projektdatei\\209_1_1_Suspiria_1977_DVD_ELAN.eaf'
p717
sg17
I00
sba(i__main__
Movie
p718
(dp719
g3
S'ChungHingSamIam'
p720
sg5
S'//130.60.131.134/studi/Filme/spaete_Filme/210_Chung_Hing_sam_Iam_1996/'
p721
sg7
(lp722
S'//130.60.131.134/studi/Filme/spaete_Filme/210_Chung_Hing_sam_Iam_1996\\210_1_1_ChungHingSamIam_1996_DVD_ELAN_Export.txt'
p723
asg9
(lp724
I210
aI1
aI1
asg11
S'spaete_Filme/210_Chung_Hing_sam_Iam_1996/'
p725
sg13
I01
sg14
Nsg15
S'//130.60.131.134/studi/Filme/spaete_Filme/210_Chung_Hing_sam_Iam_1996\\210_1_1_ChungHingSamIam_1996_DVD_ELAN.eaf'
p726
sg17
I00
sba(i__main__
Movie
p727
(dp728
g3
S'DerStudentvonPrag'
p729
sg5
S'//130.60.131.134/studi/Filme/frueher_Film/211_Der_Student_von_Prag_1913/'
p730
sg7
(lp731
sg9
(lp732
I211
aI1
aI1
asg11
S'frueher_Film/211_Der_Student_von_Prag_1913/'
p733
sg13
I01
sg14
Nsg15
S'//130.60.131.134/studi/Filme/frueher_Film/211_Der_Student_von_Prag_1913\\211_1_1_DerStudentvonPrag_1913_DVD_Elan.eaf'
p734
sg17
I00
sba(i__main__
Movie
p735
(dp736
g3
S'SoloSunny'
p737
sg5
S'//130.60.131.134/studi/Filme/spaete_Filme/212_Solo_Sunny_1980/'
p738
sg7
(lp739
S'//130.60.131.134/studi/Filme/spaete_Filme/212_Solo_Sunny_1980\\212_SoloSunny_1980_DVD_ELAN_Export.txt'
p740
asg9
(lp741
I212
aI1
aI1
asg11
S'spaete_Filme/212_Solo_Sunny_1980/'
p742
sg13
I01
sg14
Nsg15
S'//130.60.131.134/studi/Filme/spaete_Filme/212_Solo_Sunny_1980\\212_1_1_SoloSunny_1980_DVD_ELAN.eaf'
p743
sg17
I00
sba(i__main__
Movie
p744
(dp745
g3
S'TheCookTheThiefHisWifeAndHerLover'
p746
sg5
S'//130.60.131.134/studi/Filme/spaete_Filme/215_The_Cook_the_Thief_His_Wife_and_Her_Lover_1990/'
p747
sg7
(lp748
S'//130.60.131.134/studi/Filme/spaete_Filme/215_The_Cook_the_Thief_His_Wife_and_Her_Lover_1990\\215_1_1_TheCookTheThiefHisWifeAndHerLover_1990_DVD_ELAN_Export2.txt'
p749
asg9
(lp750
I215
aI1
aI1
asg11
S'spaete_Filme/215_The_Cook_the_Thief_His_Wife_and_Her_Lover_1990/'
p751
sg13
I01
sg14
Nsg15
S'//130.60.131.134/studi/Filme/spaete_Filme/215_The_Cook_the_Thief_His_Wife_and_Her_Lover_1990\\215_1_1_TheCookTheThiefHisWifeAndHerLover_1990_DVD_ELAN.eaf'
p752
sg17
I00
sba(i__main__
Movie
p753
(dp754
g3
S'LesParapuiesDeCherbourg'
p755
sg5
S'//130.60.131.134/studi/Filme/spaete_Filme/216_Les_parapluies_de_Cherbourg_1964/'
p756
sg7
(lp757
sg9
(lp758
I216
aI1
aI1
asg11
S'spaete_Filme/216_Les_parapluies_de_Cherbourg_1964/'
p759
sg13
I00
sg14
Nsg15
S'//130.60.131.134/studi/Filme/spaete_Filme/216_Les_parapluies_de_Cherbourg_1964\\216_1_1_LesParapuiesDeCherbourg_1964_DVD.eaf'
p760
sg17
I00
sba(i__main__
Movie
p761
(dp762
g3
S'H\xe4xan'
p763
sg5
S'//130.60.131.134/studi/Filme/frueher_Film/217_Haxan_1922/'
p764
sg7
(lp765
sg9
(lp766
I217
aI1
aI1
asg11
S'frueher_Film/217_Haxan_1922/'
p767
sg13
I00
sg14
Nsg15
S'//130.60.131.134/studi/Filme/frueher_Film/217_Haxan_1922\\217_H\xe4xan_1922_DVD_ELAN.eaf'
p768
sg17
I00
sba(i__main__
Movie
p769
(dp770
g3
S'ApocalypseNow'
p771
sg5
S'//130.60.131.134/studi/Filme/spaete_Filme/218_Apocalypse_Now_1979/'
p772
sg7
(lp773
S'//130.60.131.134/studi/Filme/spaete_Filme/218_Apocalypse_Now_1979\\218_1_1_ApocalypseNow_1979_DVD_ELAN_2-export.txt'
p774
aS'//130.60.131.134/studi/Filme/spaete_Filme/218_Apocalypse_Now_1979\\218_1_1_ApocalypseNow_1979_DVD_ELAN_2-export.csv'
p775
aS'//130.60.131.134/studi/Filme/spaete_Filme/218_Apocalypse_Now_1979\\218_1_1_ApocalypseNow_1979_DVD_FCT_snapchots.csv'
p776
aS'//130.60.131.134/studi/Filme/spaete_Filme/218_Apocalypse_Now_1979\\218_1_1_ApocalypseNow_1979_DVD_FCT_temp.csv'
p777
asg9
(lp778
I218
aI1
aI1
asg11
S'spaete_Filme/218_Apocalypse_Now_1979/'
p779
sg13
I01
sg14
Nsg15
S'//130.60.131.134/studi/Filme/spaete_Filme/218_Apocalypse_Now_1979\\218_1_1_ApocalypseNow_1979_DVD_ELAN_2.eaf'
p780
sg17
I00
sba(i__main__
Movie
p781
(dp782
g3
S'LaRevueDesRevues'
p783
sg5
S'//130.60.131.134/studi/Filme/frueher_Film/219_La_revue_des_revues_1927/'
p784
sg7
(lp785
sg9
(lp786
I219
aI1
aI1
asg11
S'frueher_Film/219_La_revue_des_revues_1927/'
p787
sg13
I00
sg14
Nsg15
S'//130.60.131.134/studi/Filme/frueher_Film/219_La_revue_des_revues_1927\\219_1_1_LaRevueDesRevues_1927_DVD_ELAN.eaf'
p788
sg17
I00
sba(i__main__
Movie
p789
(dp790
g3
S'TheLodger'
p791
sg5
S'//130.60.131.134/studi/Filme/frueher_Film/222_The_Lodger_1926/'
p792
sg7
(lp793
sg9
(lp794
I222
aI1
aI1
asg11
S'frueher_Film/222_The_Lodger_1926/'
p795
sg13
I01
sg14
Nsg15
S'//130.60.131.134/studi/Filme/frueher_Film/222_The_Lodger_1926\\222_1_1_TheLodger_1926_DVD_Elan.eaf'
p796
sg17
I00
sba(i__main__
Movie
p797
(dp798
g3
S'Immensee'
p799
sg5
S'//130.60.131.134/studi/Filme/mittlere_Filme/223_Immensee_1943/'
p800
sg7
(lp801
S'//130.60.131.134/studi/Filme/mittlere_Filme/223_Immensee_1943\\223_1_1_Immensee_1943_DVD_ELAN.txt'
p802
asg9
(lp803
I223
aI1
aI1
asg11
S'mittlere_Filme/223_Immensee_1943/'
p804
sg13
I01
sg14
Nsg15
S'//130.60.131.134/studi/Filme/mittlere_Filme/223_Immensee_1943\\ELAN_Projektdatei\\223_1_1_Immensee_1943_DVD_ELAN.eaf'
p805
sg17
I00
sba(i__main__
Movie
p806
(dp807
g3
S'Opfergang'
p808
sg5
S'//130.60.131.134/studi/Filme/mittlere_Filme/224_Opfergang_1944/'
p809
sg7
(lp810
S'//130.60.131.134/studi/Filme/mittlere_Filme/224_Opfergang_1944\\224_1_1_Opfergang_1944_DVD_ELAN.txt'
p811
asg9
(lp812
I224
aI1
aI1
asg11
S'mittlere_Filme/224_Opfergang_1944/'
p813
sg13
I01
sg14
Nsg15
S'//130.60.131.134/studi/Filme/mittlere_Filme/224_Opfergang_1944\\224_1_1_ELAN_Projektdatei\\224_1_1_Opfergang_1944_DVD_ELAN.eaf'
p814
sg17
I00
sba(i__main__
Movie
p815
(dp816
g3
S'NewYork'
p817
sg5
S'//130.60.131.134/studi/Filme/mittlere_Filme/225_New_York_1938/'
p818
sg7
(lp819
S'//130.60.131.134/studi/Filme/mittlere_Filme/225_New_York_1938\\225_1_1_NewYork_1938_DVD_ELAN.txt'
p820
asg9
(lp821
I225
aI1
aI1
asg11
S'mittlere_Filme/225_New_York_1938/'
p822
sg13
I00
sg14
Nsg15
S'//130.60.131.134/studi/Filme/mittlere_Filme/225_New_York_1938\\225_1_1_NewYork_1938_DVD_ELAN.eaf'
p823
sg17
I00
sba(i__main__
Movie
p824
(dp825
g3
S'JeunesFemmesPrenantLeThe'
p826
sg5
S'//130.60.131.134/studi/Filme/mittlere_Filme/226_Jeunes_femmes_prenant_le_the_1937/'
p827
sg7
(lp828
S'//130.60.131.134/studi/Filme/mittlere_Filme/226_Jeunes_femmes_prenant_le_the_1937\\226_1_1_JeunesFemmesPrenantLeThe_1937_DVD_ELAN.txt'
p829
asg9
(lp830
I226
aI1
aI1
asg11
S'mittlere_Filme/226_Jeunes_femmes_prenant_le_the_1937/'
p831
sg13
I00
sg14
Nsg15
S'//130.60.131.134/studi/Filme/mittlere_Filme/226_Jeunes_femmes_prenant_le_the_1937\\ELAN_Projektdatei\\226_1_1_JeunesFemmesPrenantLeThe_1937_DVD_ELAN.eaf'
p832
sg17
I00
sba(i__main__
Movie
p833
(dp834
g3
S'NarayamaBushiko'
p835
sg5
S'//130.60.131.134/studi/Filme/spaete_Filme/227_NarayamaBushiko_1958/'
p836
sg7
(lp837
S'//130.60.131.134/studi/Filme/spaete_Filme/227_NarayamaBushiko_1958\\227_1_1_NarayamaBushiko_1958_DVD_ELAN_Export.txt'
p838
asg9
(lp839
I227
aI1
aI1
asg11
S'spaete_Filme/227_NarayamaBushiko_1958/'
p840
sg13
I01
sg14
Nsg15
S'//130.60.131.134/studi/Filme/spaete_Filme/227_NarayamaBushiko_1958\\227_1_1_NarayamaBushiko_1958_DVD_ELAN.eaf'
p841
sg17
I00
sba(i__main__
Movie
p842
(dp843
g3
S'SnowWhiteAndTheSevenDwarfs'
p844
sg5
S'//130.60.131.134/studi/Filme/mittlere_Filme/228_Snow_White_And_The_Seven_Dwarfs_1937/'
p845
sg7
(lp846
sg9
(lp847
I228
aI1
aI1
asg11
S'mittlere_Filme/228_Snow_White_And_The_Seven_Dwarfs_1937/'
p848
sg13
I01
sg14
Nsg15
S'//130.60.131.134/studi/Filme/mittlere_Filme/228_Snow_White_And_The_Seven_Dwarfs_1937\\228_1_1_SnowWhiteAndTheSevenDwarfs_1937_DVD_ELAN.eaf'
p849
sg17
I00
sba(i__main__
Movie
p850
(dp851
g3
S'Jigokumon'
p852
sg5
S'//130.60.131.134/studi/Filme/spaete_Filme/229_Jigokumon_1953/'
p853
sg7
(lp854
sg9
(lp855
I229
aI1
aI1
asg11
S'spaete_Filme/229_Jigokumon_1953/'
p856
sg13
I01
sg14
Nsg15
S'//130.60.131.134/studi/Filme/spaete_Filme/229_Jigokumon_1953\\229_1_1_Jigokumon_1953_BF.eaf'
p857
sg17
I00
sba(i__main__
Movie
p858
(dp859
g3
S'MeetMeinStLouis'
p860
sg5
S'//130.60.131.134/studi/Filme/mittlere_Filme/230_Meet_Me_in_St_Louis_1944/'
p861
sg7
(lp862
S'//130.60.131.134/studi/Filme/mittlere_Filme/230_Meet_Me_in_St_Louis_1944\\230_1_1_MeetMeinStLouis_1944_DVD_exp.txt'
p863
asg9
(lp864
I230
aI1
aI1
asg11
S'mittlere_Filme/230_Meet_Me_in_St_Louis_1944/'
p865
sg13
I00
sg14
Nsg15
S'//130.60.131.134/studi/Filme/mittlere_Filme/230_Meet_Me_in_St_Louis_1944\\230_1_1_MeetMeinStLouis_1944_DVD_ELAN_BF.eaf'
p866
sg17
I00
sba(i__main__
Movie
p867
(dp868
g3
S'TheTrailOfTheLonesomePine'
p869
sg5
S'//130.60.131.134/studi/Filme/mittlere_Filme/231_The_Trail_of_the_Lonesome_Pine_1936/'
p870
sg7
(lp871
S'//130.60.131.134/studi/Filme/mittlere_Filme/231_The_Trail_of_the_Lonesome_Pine_1936\\231_1_1_TheTrailOfTheLonesomePine_1936_DVD_ELAN.txt'
p872
asg9
(lp873
I231
aI1
aI1
asg11
S'mittlere_Filme/231_The_Trail_of_the_Lonesome_Pine_1936/'
p874
sg13
I01
sg14
Nsg15
S'//130.60.131.134/studi/Filme/mittlere_Filme/231_The_Trail_of_the_Lonesome_Pine_1936\\231_1_1_TheTrailOfTheLonesomePine_1936_DVD_ELAN.eaf'
p875
sg17
I00
sba(i__main__
Movie
p876
(dp877
g3
S'TheTalesOfHoffmann'
p878
sg5
S'//130.60.131.134/studi/Filme/mittlere_Filme/237_The_Tales_of_Hoffmann_1951/'
p879
sg7
(lp880
S'//130.60.131.134/studi/Filme/mittlere_Filme/237_The_Tales_of_Hoffmann_1951\\237_1_2_TheTalesOfHoffmann_1951_DVD_ELAN_BF.txt'
p881
asg9
(lp882
I237
aI1
aI2
asg11
S'mittlere_Filme/237_The_Tales_of_Hoffmann_1951/'
p883
sg13
I00
sg14
Nsg15
S'//130.60.131.134/studi/Filme/mittlere_Filme/237_The_Tales_of_Hoffmann_1951\\237_1_2_TheTalesOfHoffmann_1951_DVD_ELAN_BF.eaf'
p884
sg17
I00
sba(i__main__
Movie
p885
(dp886
g3
S'IntheMoodforLove'
p887
sg5
S'//130.60.131.134/studi/Filme/spaete_Filme/240_In_the_Mood_for_Love_2000/'
p888
sg7
(lp889
sg9
(lp890
I240
aI1
aI1
asg11
S'spaete_Filme/240_In_the_Mood_for_Love_2000/'
p891
sg13
I01
sg14
Nsg15
S'//130.60.131.134/studi/Filme/spaete_Filme/240_In_the_Mood_for_Love_2000\\240_1_1_IntheMoodforLove_2000_ELAN.eaf'
p892
sg17
I00
sba(i__main__
Movie
p893
(dp894
g3
S'AllThatHeavenAllows'
p895
sg5
S'//130.60.131.134/studi/Filme/spaete_Filme/241_All_That_Heaven_Allows_1955/'
p896
sg7
(lp897
sg9
(lp898
I241
aI1
aI1
asg11
S'spaete_Filme/241_All_That_Heaven_Allows_1955/'
p899
sg13
I00
sg14
Nsg15
S'//130.60.131.134/studi/Filme/spaete_Filme/241_All_That_Heaven_Allows_1955\\241_1_1_AllThatHeavenAllows_1955_DVD_ELAN_BF.eaf'
p900
sg17
I00
sba(i__main__
Movie
p901
(dp902
g3
S'BlueVelvet'
p903
sg5
S'//130.60.131.134/studi/Filme/spaete_Filme/244_Blue_Velvet_1986/'
p904
sg7
(lp905
sg9
(lp906
I244
aI1
aI1
asg11
S'spaete_Filme/244_Blue_Velvet_1986/'
p907
sg13
I01
sg14
Nsg15
S'//130.60.131.134/studi/Filme/spaete_Filme/244_Blue_Velvet_1986\\244_1_1_BlueVelvet_1986_DVD_ELAN.eaf'
p908
sg17
I00
sba(i__main__
Movie
p909
(dp910
g3
S'SayatNova'
p911
sg5
S'//130.60.131.134/studi/Filme/spaete_Filme/246_Sayat_Nova_1969/'
p912
sg7
(lp913
sg9
(lp914
I246
aI1
aI1
asg11
S'spaete_Filme/246_Sayat_Nova_1969/'
p915
sg13
I00
sg14
Nsg15
S'//130.60.131.134/studi/Filme/spaete_Filme/246_Sayat_Nova_1969\\246_1_1_SayatNova_1969_DVD_ELAN.eaf'
p916
sg17
I00
sba(i__main__
Movie
p917
(dp918
g3
S'AnAmericanInParis'
p919
sg5
S'//130.60.131.134/studi/Filme/mittlere_Filme/249_An_American_in_Paris_1951/'
p920
sg7
(lp921
S'//130.60.131.134/studi/Filme/mittlere_Filme/249_An_American_in_Paris_1951\\249_1_1_AnAmericanInParis_1951_DVD_ELAN.txt'
p922
asg9
(lp923
I249
aI1
aI1
asg11
S'mittlere_Filme/249_An_American_in_Paris_1951/'
p924
sg13
I00
sg14
Nsg15
S'//130.60.131.134/studi/Filme/mittlere_Filme/249_An_American_in_Paris_1951\\249_1_1_AnAmericanInParis_1951_DVD_ELAN.eaf'
p925
sg17
I00
sba(i__main__
Movie
p926
(dp927
g3
S'MonOncle'
p928
sg5
S'//130.60.131.134/studi/Filme/spaete_Filme/254_MonOncle_1958/'
p929
sg7
(lp930
S'//130.60.131.134/studi/Filme/spaete_Filme/254_MonOncle_1958\\254_1_1_MonOncle_1958_DVD_ELAN_Export.txt'
p931
asg9
(lp932
I254
aI1
aI1
asg11
S'spaete_Filme/254_MonOncle_1958/'
p933
sg13
I01
sg14
Nsg15
S'//130.60.131.134/studi/Filme/spaete_Filme/254_MonOncle_1958\\254_1_1_MonOncle_1958_DVD_ELAN.eaf'
p934
sg17
I00
sba(i__main__
Movie
p935
(dp936
g3
S'Lola'
p937
sg5
S'//130.60.131.134/studi/Filme/spaete_Filme/255_Lola_1981/'
p938
sg7
(lp939
sg9
(lp940
I255
aI1
aI1
asg11
S'spaete_Filme/255_Lola_1981/'
p941
sg13
I01
sg14
Nsg15
S'//130.60.131.134/studi/Filme/spaete_Filme/255_Lola_1981\\255_1_1_Lola_1981_DVD_ELAN.eaf'
p942
sg17
I00
sba(i__main__
Movie
p943
(dp944
g3
S'GentlemenPreferBlondes'
p945
sg5
S'//130.60.131.134/studi/Filme/mittlere_Filme/256_Gentlemen_Prefer_Blondes_1953/'
p946
sg7
(lp947
sg9
(lp948
I256
aI1
aI1
asg11
S'mittlere_Filme/256_Gentlemen_Prefer_Blondes_1953/'
p949
sg13
I00
sg14
Nsg15
S'//130.60.131.134/studi/Filme/mittlere_Filme/256_Gentlemen_Prefer_Blondes_1953\\256_1_1GentlemenPreferBlondes_1953_DVD.eaf'
p950
sg17
I00
sba(i__main__
Movie
p951
(dp952
g3
S'JohnnyGuitar'
p953
sg5
S'//130.60.131.134/studi/Filme/mittlere_Filme/258_Johnny_Guitar_1954/'
p954
sg7
(lp955
S'//130.60.131.134/studi/Filme/mittlere_Filme/258_Johnny_Guitar_1954\\258_1_1_JohnnyGuitar_1954_DVD_ELAN.txt'
p956
asg9
(lp957
I258
aI1
aI1
asg11
S'mittlere_Filme/258_Johnny_Guitar_1954/'
p958
sg13
I01
sg14
Nsg15
S'//130.60.131.134/studi/Filme/mittlere_Filme/258_Johnny_Guitar_1954\\ELAN_Projektdatei\\258_1_1_JohnnyGuitar_1954_DVD_ELAN.eaf'
p959
sg17
I00
sba(i__main__
Movie
p960
(dp961
g3
S'Viskningarochrop'
p962
sg5
S'//130.60.131.134/studi/Filme/spaete_Filme/259_Viskningar_och_rop_1972/'
p963
sg7
(lp964
S'//130.60.131.134/studi/Filme/spaete_Filme/259_Viskningar_och_rop_1972\\259_1_1_Viskningarochrop_1972_DVD_ELAN_Export2.txt'
p965
asg9
(lp966
I259
aI1
aI1
asg11
S'spaete_Filme/259_Viskningar_och_rop_1972/'
p967
sg13
I00
sg14
Nsg15
S'//130.60.131.134/studi/Filme/spaete_Filme/259_Viskningar_och_rop_1972\\259_1_1_Viskningarochrop_1972_DVD_ELAN.eaf'
p968
sg17
I00
sba(i__main__
Movie
p969
(dp970
g3
S'FunnyFace'
p971
sg5
S'//130.60.131.134/studi/Filme/spaete_Filme/260_FunnyFace_1957/'
p972
sg7
(lp973
sg9
(lp974
I260
aI1
aI1
asg11
S'spaete_Filme/260_FunnyFace_1957/'
p975
sg13
I00
sg14
Nsg15
S'//130.60.131.134/studi/Filme/spaete_Filme/260_FunnyFace_1957\\260_1_1_FunnyFace_1957.eaf'
p976
sg17
I00
sba(i__main__
Movie
p977
(dp978
g3
S'SeiDonnePerLAssassino'
p979
sg5
S'//130.60.131.134/studi/Filme/spaete_Filme/261_SeiDonnePerLAssassino_1964/'
p980
sg7
(lp981
S'//130.60.131.134/studi/Filme/spaete_Filme/261_SeiDonnePerLAssassino_1964\\261_1_1_SeiDonnePerLAssassino_1964_DVD_ELAN_BF.txt'
p982
aS'//130.60.131.134/studi/Filme/spaete_Filme/261_SeiDonnePerLAssassino_1964\\261_1_1_SeiDonnePerLAssassino_1964_DVD_ELAN_BF_korr2.txt'
p983
asg9
(lp984
I261
aI1
aI1
asg11
S'spaete_Filme/261_SeiDonnePerLAssassino_1964/'
p985
sg13
I00
sg14
Nsg15
S'//130.60.131.134/studi/Filme/spaete_Filme/261_SeiDonnePerLAssassino_1964\\261_1_1_SeiDonnePerLAssassino_1964_DVD_ELAN_BF_korr2.eaf'
p986
sg17
I00
sba(i__main__
Movie
p987
(dp988
g3
S'TheGardenOfAllah'
p989
sg5
S'//130.60.131.134/studi/Filme/mittlere_Filme/266_The_Garden_of_Allah_1936/'
p990
sg7
(lp991
S'//130.60.131.134/studi/Filme/mittlere_Filme/266_The_Garden_of_Allah_1936\\266_1_2_TheGardenOfAllah_1936_DVD_ELAN.txt'
p992
asg9
(lp993
I266
aI1
aI1
asg11
S'mittlere_Filme/266_The_Garden_of_Allah_1936/'
p994
sg13
I00
sg14
Nsg15
S'//130.60.131.134/studi/Filme/mittlere_Filme/266_The_Garden_of_Allah_1936\\266_1_2_TheGardenOfAllah_1936_DVD_ELAN.eaf'
p995
sg17
I00
sba(i__main__
Movie
p996
(dp997
g3
S'Senso'
p998
sg5
S'//130.60.131.134/studi/Filme/mittlere_Filme/268_Senso_1954/'
p999
sg7
(lp1000
sg9
(lp1001
I268
aI1
aI1
asg11
S'mittlere_Filme/268_Senso_1954/'
p1002
sg13
I01
sg14
Nsg15
S'//130.60.131.134/studi/Filme/mittlere_Filme/268_Senso_1954\\268_1_1_Senso_1954_DVD_ELAN.eaf'
p1003
sg17
I00
sba(i__main__
Movie
p1004
(dp1005
g3
S'TheFluteOfKrishna'
p1006
sg5
S'//130.60.131.134/studi/Filme/frueher_Film/269_The_Flute_Of_Krishna_1926/'
p1007
sg7
(lp1008
sg9
(lp1009
I269
aI1
aI2
asg11
S'frueher_Film/269_The_Flute_Of_Krishna_1926/'
p1010
sg13
I00
sg14
Nsg15
S'//130.60.131.134/studi/Filme/frueher_Film/269_The_Flute_Of_Krishna_1926\\269_1_2_TheFluteOfKrishna_1926_DVD_Elan.eaf'
p1011
sg17
I00
sba(i__main__
Movie
p1012
(dp1013
g3
S'IlMisteroDiOberwald'
p1014
sg5
S'//130.60.131.134/studi/Filme/spaete_Filme/277_Il_mistero_di_Oberwald_1981/'
p1015
sg7
(lp1016
S'//130.60.131.134/studi/Filme/spaete_Filme/277_Il_mistero_di_Oberwald_1981\\277_1_1_IlMisteroDiOberwald_1981_DVD.txt'
p1017
asg9
(lp1018
I277
aI1
aI1
asg11
S'spaete_Filme/277_Il_mistero_di_Oberwald_1981/'
p1019
sg13
I00
sg14
Nsg15
S'//130.60.131.134/studi/Filme/spaete_Filme/277_Il_mistero_di_Oberwald_1981\\277_1_1_IlMisteroDiOberwald_1981_DVD.eaf'
p1020
sg17
I00
sba(i__main__
Movie
p1021
(dp1022
g3
S'Possession'
p1023
sg5
S'//130.60.131.134/studi/Filme/spaete_Filme/278_Possession_1981/'
p1024
sg7
(lp1025
sg9
(lp1026
I278
aI1
aI1
asg11
S'spaete_Filme/278_Possession_1981/'
p1027
sg13
I01
sg14
Nsg15
S'//130.60.131.134/studi/Filme/spaete_Filme/278_Possession_1981\\278_1_1_Possession_1981_DVD_ELAN.eaf'
p1028
sg17
I00
sba(i__main__
Movie
p1029
(dp1030
g3
S'Kika'
p1031
sg5
S'//130.60.131.134/studi/Filme/spaete_Filme/280_Kika_1990/'
p1032
sg7
(lp1033
S'//130.60.131.134/studi/Filme/spaete_Filme/280_Kika_1990\\280_1_1_Kika_1993_DVD_ELAN_export.txt'
p1034
asg9
(lp1035
I280
aI1
aI1
asg11
S'spaete_Filme/280_Kika_1990/'
p1036
sg13
I01
sg14
Nsg15
S'//130.60.131.134/studi/Filme/spaete_Filme/280_Kika_1990\\280_1_1_Kika_1993_DVD_ELAN.eaf'
p1037
sg17
I00
sba(i__main__
Movie
p1038
(dp1039
g3
S'NorthByNorthwest'
p1040
sg5
S'//130.60.131.134/studi/Filme/spaete_Filme/282_NorthByNorthwest_1959/'
p1041
sg7
(lp1042
S'//130.60.131.134/studi/Filme/spaete_Filme/282_NorthByNorthwest_1959\\282_1_3_NorthByNorthwest_1959_BD_ELAN_BF.txt'
p1043
asg9
(lp1044
I282
aI1
aI3
asg11
S'spaete_Filme/282_NorthByNorthwest_1959/'
p1045
sg13
I00
sg14
Nsg15
S'//130.60.131.134/studi/Filme/spaete_Filme/282_NorthByNorthwest_1959\\282_1_3_NorthByNorthwest_1959_BD_ELAN_BF.eaf'
p1046
sg17
I00
sba(i__main__
Movie
p1047
(dp1048
g3
S'ToCatchAThief'
p1049
sg5
S'//130.60.131.134/studi/Filme/spaete_Filme/287_To_Catch_A_Thief_1955/'
p1050
sg7
(lp1051
S'//130.60.131.134/studi/Filme/spaete_Filme/287_To_Catch_A_Thief_1955\\287_1_1_ToCatchAThief_1955_Bluray_ELAN_BF.txt'
p1052
asg9
(lp1053
I287
aI1
aI1
asg11
S'spaete_Filme/287_To_Catch_A_Thief_1955/'
p1054
sg13
I00
sg14
Nsg15
S'//130.60.131.134/studi/Filme/spaete_Filme/287_To_Catch_A_Thief_1955\\287_1_1_ToCatchAThief_1955_Bluray_ELAN_BF.eaf'
p1055
sg17
I00
sba(i__main__
Movie
p1056
(dp1057
g3
S'HeavenCanWait'
p1058
sg5
S'//130.60.131.134/studi/Filme/mittlere_Filme/289_Heaven_Can_Wait_1943/'
p1059
sg7
(lp1060
S'//130.60.131.134/studi/Filme/mittlere_Filme/289_Heaven_Can_Wait_1943\\289_1_1_HeavenCanWait_1943_DVD_ELAN.txt'
p1061
asg9
(lp1062
I289
aI1
aI1
asg11
S'mittlere_Filme/289_Heaven_Can_Wait_1943/'
p1063
sg13
I00
sg14
Nsg15
S'//130.60.131.134/studi/Filme/mittlere_Filme/289_Heaven_Can_Wait_1943\\289_1_1_ELAN_Projektdatei\\289_1_1_HeavenCanWait_1943_DVD_ELAN.eaf'
p1064
sg17
I00
sba(i__main__
Movie
p1065
(dp1066
g3
S'Spartacus'
p1067
sg5
S'//130.60.131.134/studi/Filme/spaete_Filme/291_Spartacus_1960/'
p1068
sg7
(lp1069
sg9
(lp1070
I291
aI1
aI1
asg11
S'spaete_Filme/291_Spartacus_1960/'
p1071
sg13
I00
sg14
Nsg15
S'//130.60.131.134/studi/Filme/spaete_Filme/291_Spartacus_1960\\291_1_1_Spartacus_1960_DVD_ELAN.eaf'
p1072
sg17
I00
sba(i__main__
Movie
p1073
(dp1074
g3
S'DasKalteHerz'
p1075
sg5
S'//130.60.131.134/studi/Filme/mittlere_Filme/293_Das_kalte_Herz_1950/'
p1076
sg7
(lp1077
S'//130.60.131.134/studi/Filme/mittlere_Filme/293_Das_kalte_Herz_1950\\ELAN_Projektdatei\\293_1_1_DasKalteHerz_1950_DVD_ELAN.txt'
p1078
asg9
(lp1079
I293
aI1
aI1
asg11
S'mittlere_Filme/293_Das_kalte_Herz_1950/'
p1080
sg13
I01
sg14
Nsg15
S'//130.60.131.134/studi/Filme/mittlere_Filme/293_Das_kalte_Herz_1950\\ELAN_Projektdatei\\293_1_1_DasKalteHerz_1950_DVD_ELAN.eaf'
p1081
sg17
I00
sba(i__main__
Movie
p1082
(dp1083
g3
S'TheBlackSwan'
p1084
sg5
S'//130.60.131.134/studi/Filme/mittlere_Filme/299_The_Black_Swan_1942/'
p1085
sg7
(lp1086
sg9
(lp1087
I299
aI1
aI1
asg11
S'mittlere_Filme/299_The_Black_Swan_1942/'
p1088
sg13
I00
sg14
Nsg15
S'//130.60.131.134/studi/Filme/mittlere_Filme/299_The_Black_Swan_1942\\299_1_1_TheBlackSwan_1942_DVD_ELAN.eaf'
p1089
sg17
I00
sba(i__main__
Movie
p1090
(dp1091
g3
S'Steel'
p1092
sg5
S'//130.60.131.134/studi/Filme/mittlere_Filme/300_Steel_1945/'
p1093
sg7
(lp1094
S'//130.60.131.134/studi/Filme/mittlere_Filme/300_Steel_1945\\300_1_2_Steel_1945_DVD_ELAN.txt'
p1095
asg9
(lp1096
I300
aI1
aI2
asg11
S'mittlere_Filme/300_Steel_1945/'
p1097
sg13
I00
sg14
Nsg15
S'//130.60.131.134/studi/Filme/mittlere_Filme/300_Steel_1945\\300_1_2_Steel_1945_DVD_ELAN.eaf'
p1098
sg17
I00
sba(i__main__
Movie
p1099
(dp1100
g3
S'Rope'
p1101
sg5
S'//130.60.131.134/studi/Filme/mittlere_Filme/301_Rope_1948/'
p1102
sg7
(lp1103
S'//130.60.131.134/studi/Filme/mittlere_Filme/301_Rope_1948\\301_1_2_Rope_1948_DVD_ELAN.txt'
p1104
asg9
(lp1105
I301
aI1
aI2
asg11
S'mittlere_Filme/301_Rope_1948/'
p1106
sg13
I01
sg14
Nsg15
S'//130.60.131.134/studi/Filme/mittlere_Filme/301_Rope_1948\\301_1_2_ELAN_Projektdatei\\301_1_2_Rope_1948_DVD_ELAN.eaf'
p1107
sg17
I00
sba(i__main__
Movie
p1108
(dp1109
g3
S'Doctor'
p1110
sg5
S'//130.60.131.134/studi/Filme/frueher_Film/306_Doctor_X_1932/'
p1111
sg7
(lp1112
sg9
(lp1113
I306
aI1
aI2
asg11
S'frueher_Film/306_Doctor_X_1932/'
p1114
sg13
I00
sg14
Nsg15
S'//130.60.131.134/studi/Filme/frueher_Film/306_Doctor_X_1932\\306_1_2_Doctor_X_1932_DVD_ELAN.eaf'
p1115
sg17
I00
sba(i__main__
Movie
p1116
(dp1117
g3
S'BrokenArrow'
p1118
sg5
S'//130.60.131.134/studi/Filme/mittlere_Filme/314_Broken_Arrow_1950/'
p1119
sg7
(lp1120
sg9
(lp1121
I314
aI1
aI1
asg11
S'mittlere_Filme/314_Broken_Arrow_1950/'
p1122
sg13
I00
sg14
Nsg15
S'//130.60.131.134/studi/Filme/mittlere_Filme/314_Broken_Arrow_1950\\314_1_1_BrokenArrow_1950_DVD_ELAN.eaf'
p1123
sg17
I00
sba(i__main__
Movie
p1124
(dp1125
g3
S'PlayTime'
p1126
sg5
S'//130.60.131.134/studi/Filme/spaete_Filme/315_Playtime_1967/'
p1127
sg7
(lp1128
sg9
(lp1129
I315
aI1
aI1
asg11
S'spaete_Filme/315_Playtime_1967/'
p1130
sg13
I01
sg14
Nsg15
S'//130.60.131.134/studi/Filme/spaete_Filme/315_Playtime_1967\\315_1_1_PlayTime_1967_DVD_ELAN.eaf'
p1131
sg17
I00
sba(i__main__
Movie
p1132
(dp1133
g3
S'TheShining'
p1134
sg5
S'//130.60.131.134/studi/Filme/spaete_Filme/316_TheShining_1980/'
p1135
sg7
(lp1136
sg9
(lp1137
I316
aI1
aI1
asg11
S'spaete_Filme/316_TheShining_1980/'
p1138
sg13
I01
sg14
Nsg15
S'//130.60.131.134/studi/Filme/spaete_Filme/316_TheShining_1980\\316_1_1_TheShining_1980_DVD_ELAN.eaf'
p1139
sg17
I00
sba(i__main__
Movie
p1140
(dp1141
g3
S'FarewellTopsails'
p1142
sg5
S'//130.60.131.134/studi/Filme/mittlere_Filme/323_Farewell_Topsails_1937/'
p1143
sg7
(lp1144
S'//130.60.131.134/studi/Filme/mittlere_Filme/323_Farewell_Topsails_1937\\323_1_1_FarewellTopsails_1937_DVD_ELAN.txt'
p1145
asg9
(lp1146
I323
aI1
aI1
asg11
S'mittlere_Filme/323_Farewell_Topsails_1937/'
p1147
sg13
I00
sg14
Nsg15
S'//130.60.131.134/studi/Filme/mittlere_Filme/323_Farewell_Topsails_1937\\ELAN_Projektdatei\\323_1_1_FarewellTopsails_1937_DVD_ELAN.eaf'
p1148
sg17
I00
sba(i__main__
Movie
p1149
(dp1150
g3
S'DiveBomber'
p1151
sg5
S'//130.60.131.134/studi/Filme/mittlere_Filme/324_Dive_Bomber_1941/'
p1152
sg7
(lp1153
S'//130.60.131.134/studi/Filme/mittlere_Filme/324_Dive_Bomber_1941\\324_1_1_DiveBomber_1941_DVD_ELAN.txt'
p1154
asg9
(lp1155
I324
aI1
aI1
asg11
S'mittlere_Filme/324_Dive_Bomber_1941/'
p1156
sg13
I01
sg14
Nsg15
S'//130.60.131.134/studi/Filme/mittlere_Filme/324_Dive_Bomber_1941\\324_1_1_DiveBomber_1941_DVD_ELAN.eaf'
p1157
sg17
I00
sba(i__main__
Movie
p1158
(dp1159
g3
S'TotalRecall'
p1160
sg5
S'//130.60.131.134/studi/Filme/spaete_Filme/328_TotalRecall_1990_DVD/'
p1161
sg7
(lp1162
sg9
(lp1163
I328
aI1
aI1
asg11
S'spaete_Filme/328_TotalRecall_1990_DVD/'
p1164
sg13
I01
sg14
Nsg15
S'//130.60.131.134/studi/Filme/spaete_Filme/328_TotalRecall_1990_DVD\\328_1_1_TotalRecall_1990_DVD_ELAN.eaf'
p1165
sg17
I00
sba(i__main__
Movie
p1166
(dp1167
g3
S'BladeRunner'
p1168
sg5
S'//130.60.131.134/studi/Filme/spaete_Filme/329_Blade_Runner_1982/'
p1169
sg7
(lp1170
S'//130.60.131.134/studi/Filme/spaete_Filme/329_Blade_Runner_1982\\329_1_1_BladeRunner_1982_DVD_ELAN_export2.txt'
p1171
asg9
(lp1172
I329
aI1
aI1
asg11
S'spaete_Filme/329_Blade_Runner_1982/'
p1173
sg13
I01
sg14
Nsg15
S'//130.60.131.134/studi/Filme/spaete_Filme/329_Blade_Runner_1982\\329_1_1_BladeRunner_1982_DVD_ELAN.eaf'
p1174
sg17
I00
sba(i__main__
Movie
p1175
(dp1176
g3
S'CriaCuervos'
p1177
sg5
S'//130.60.131.134/studi/Filme/spaete_Filme/335_Cria_Cuervos_1976/'
p1178
sg7
(lp1179
sg9
(lp1180
I335
aI1
aI1
asg11
S'spaete_Filme/335_Cria_Cuervos_1976/'
p1181
sg13
I01
sg14
Nsg15
S'//130.60.131.134/studi/Filme/spaete_Filme/335_Cria_Cuervos_1976\\335_1_1_CriaCuervos_1976_DVD.eaf'
p1182
sg17
I00
sba(i__main__
Movie
p1183
(dp1184
g3
S'Matador'
p1185
sg5
S'//130.60.131.134/studi/Filme/spaete_Filme/336_Matador_1986/'
p1186
sg7
(lp1187
S'//130.60.131.134/studi/Filme/spaete_Filme/336_Matador_1986\\336_1_1_Matador_1986_ELAN.txt'
p1188
asg9
(lp1189
I336
aI1
aI1
asg11
S'spaete_Filme/336_Matador_1986/'
p1190
sg13
I01
sg14
Nsg15
S'//130.60.131.134/studi/Filme/spaete_Filme/336_Matador_1986\\ELAN Projektdatei\\336_1_1_Matador_1986_ELAN.eaf'
p1191
sg17
I00
sba(i__main__
Movie
p1192
(dp1193
g3
S'MujeresAlBorde'
p1194
sg5
S'//130.60.131.134/studi/Filme/spaete_Filme/337_Mujeres_Al_Borde_De_Un_Ataque_De_Nervios_1988/'
p1195
sg7
(lp1196
sg9
(lp1197
I337
aI1
aI1
asg11
S'spaete_Filme/337_Mujeres_Al_Borde_De_Un_Ataque_De_Nervios_1988/'
p1198
sg13
I01
sg14
Nsg15
S'//130.60.131.134/studi/Filme/spaete_Filme/337_Mujeres_Al_Borde_De_Un_Ataque_De_Nervios_1988\\337_1_1_MujeresAlBorde_1988_DVD_ELAN.eaf'
p1199
sg17
I00
sba(i__main__
Movie
p1200
(dp1201
g3
S'TaxiDriver'
p1202
sg5
S'//130.60.131.134/studi/Filme/spaete_Filme/338_TaxiDriver_1978/'
p1203
sg7
(lp1204
S'//130.60.131.134/studi/Filme/spaete_Filme/338_TaxiDriver_1978\\338_1_1_TaxiDriver_1976_DVD_ELAN.txt'
p1205
asg9
(lp1206
I338
aI1
aI1
asg11
S'spaete_Filme/338_TaxiDriver_1978/'
p1207
sg13
I00
sg14
Nsg15
S'//130.60.131.134/studi/Filme/spaete_Filme/338_TaxiDriver_1978\\338_1_1_TaxiDriver_1976_DVD_ELAN.eaf'
p1208
sg17
I00
sba(i__main__
Movie
p1209
(dp1210
g3
S'Fantasia '
p1211
sg5
S'//130.60.131.134/studi/Filme/mittlere_Filme/343_Fantasia _1940/'
p1212
sg7
(lp1213
sg9
(lp1214
I343
aI1
aI1
asg11
S'mittlere_Filme/343_Fantasia _1940/'
p1215
sg13
I01
sg14
Nsg15
S'//130.60.131.134/studi/Filme/mittlere_Filme/343_Fantasia _1940\\343_1_1_Fantasia _1940_DVD_ELAN.eaf'
p1216
sg17
I00
sba(i__main__
Movie
p1217
(dp1218
g3
S'TheLifeAndDeathOfColonelBlimp'
p1219
sg5
S'//130.60.131.134/studi/Filme/mittlere_Filme/344_The_Life_and_Death_of_Colonel_Blimp_1943/'
p1220
sg7
(lp1221
sg9
(lp1222
I344
aI1
aI1
asg11
S'mittlere_Filme/344_The_Life_and_Death_of_Colonel_Blimp_1943/'
p1223
sg13
I01
sg14
Nsg15
S'//130.60.131.134/studi/Filme/mittlere_Filme/344_The_Life_and_Death_of_Colonel_Blimp_1943\\344_1_1_TheLifeAndDeathOfColonelBlimp_1943_DVD_ELAN.eaf'
p1224
sg17
I00
sba(i__main__
Movie
p1225
(dp1226
g3
S'TheFarm'
p1227
sg5
S'//130.60.131.134/studi/Filme/mittlere_Filme/345_The_Farm_1938/'
p1228
sg7
(lp1229
S'//130.60.131.134/studi/Filme/mittlere_Filme/345_The_Farm_1938\\345_1_1_TheFarm_1938_DVD_ELAN.txt'
p1230
asg9
(lp1231
I345
aI1
aI1
asg11
S'mittlere_Filme/345_The_Farm_1938/'
p1232
sg13
I00
sg14
Nsg15
S'//130.60.131.134/studi/Filme/mittlere_Filme/345_The_Farm_1938\\ELAN_Projektdatei\\345_1_1_TheFarm_1938_DVD_ELAN.eaf'
p1233
sg17
I00
sba(i__main__
Movie
p1234
(dp1235
g3
S'RosemarysBaby'
p1236
sg5
S'//130.60.131.134/studi/Filme/spaete_Filme/348_Rosemarys_Baby_1968/'
p1237
sg7
(lp1238
S'//130.60.131.134/studi/Filme/spaete_Filme/348_Rosemarys_Baby_1968\\348_1_1_RosemarysBaby_1968_DVD_ELAN_Export1.txt'
p1239
asg9
(lp1240
I348
aI1
aI1
asg11
S'spaete_Filme/348_Rosemarys_Baby_1968/'
p1241
sg13
I01
sg14
Nsg15
S'//130.60.131.134/studi/Filme/spaete_Filme/348_Rosemarys_Baby_1968\\348_1_1_RosemarysBaby_1968_DVD_ELAN.eaf'
p1242
sg17
I00
sba(i__main__
Movie
p1243
(dp1244
g3
S'Nerven'
p1245
sg5
S'//130.60.131.134/studi/Filme/frueher_Film/350_Nerven_1919/'
p1246
sg7
(lp1247
sg9
(lp1248
I350
aI1
aI1
asg11
S'frueher_Film/350_Nerven_1919/'
p1249
sg13
I01
sg14
Nsg15
S'//130.60.131.134/studi/Filme/frueher_Film/350_Nerven_1919\\350_1_1_Nerven_1919_DVD_ELAN.eaf'
p1250
sg17
I00
sba(i__main__
Movie
p1251
(dp1252
g3
S'UnderCapricorn'
p1253
sg5
S'//130.60.131.134/studi/Filme/mittlere_Filme/353_Under_Capricorn_1949/'
p1254
sg7
(lp1255
sg9
(lp1256
I353
aI1
aI1
asg11
S'mittlere_Filme/353_Under_Capricorn_1949/'
p1257
sg13
I00
sg14
Nsg15
S'//130.60.131.134/studi/Filme/mittlere_Filme/353_Under_Capricorn_1949\\353_1_1_UnderCapricorn_1949_DVD_ELAN.eaf'
p1258
sg17
I00
sba(i__main__
Movie
p1259
(dp1260
g3
S'MetamorphoseDuPapillon'
p1261
sg5
S'//130.60.131.134/studi/Filme/frueher_Film/362_Metamorphose_Du_Papillon_1904/'
p1262
sg7
(lp1263
sg9
(lp1264
I362
aI1
aI1
asg11
S'frueher_Film/362_Metamorphose_Du_Papillon_1904/'
p1265
sg13
I00
sg14
Nsg15
S'//130.60.131.134/studi/Filme/frueher_Film/362_Metamorphose_Du_Papillon_1904\\362_1_1_MetamorphoseDuPapillon_1904_DVD_ELAN.eaf'
p1266
sg17
I00
sba(i__main__
Movie
p1267
(dp1268
g3
S'CyranoDeBergerac'
p1269
sg5
S'//130.60.131.134/studi/Filme/frueher_Film/364_Cyrano_De_Bergerac_1923/'
p1270
sg7
(lp1271
sg9
(lp1272
I364
aI1
aI1
asg11
S'frueher_Film/364_Cyrano_De_Bergerac_1923/'
p1273
sg13
I00
sg14
Nsg15
S'//130.60.131.134/studi/Filme/frueher_Film/364_Cyrano_De_Bergerac_1923\\364_1_1_CyranoDeBergerac_1923_DVD_ELAN.eaf'
p1274
sg17
I00
sba(i__main__
Movie
p1275
(dp1276
g3
S'Cyclo'
p1277
sg5
S'//130.60.131.134/studi/Filme/spaete_Filme/365_Cyclo_1995/'
p1278
sg7
(lp1279
S'//130.60.131.134/studi/Filme/spaete_Filme/365_Cyclo_1995\\365_1_1_Cyclo_1995_DVD_ELAN.txt'
p1280
asg9
(lp1281
I365
aI1
aI1
asg11
S'spaete_Filme/365_Cyclo_1995/'
p1282
sg13
I01
sg14
Nsg15
S'//130.60.131.134/studi/Filme/spaete_Filme/365_Cyclo_1995\\ELAN Projektdatei\\365_1_1_Cyclo_1995_DVD_ELAN.eaf'
p1283
sg17
I00
sba(i__main__
Movie
p1284
(dp1285
g3
S'Solayaris'
p1286
sg5
S'//130.60.131.134/studi/Filme/spaete_Filme/366_Solayaris_1972/'
p1287
sg7
(lp1288
S'//130.60.131.134/studi/Filme/spaete_Filme/366_Solayaris_1972\\366_1_1_Solayaris_1972_DVD_ELAN_export.txt'
p1289
asg9
(lp1290
I366
aI1
aI1
asg11
S'spaete_Filme/366_Solayaris_1972/'
p1291
sg13
I01
sg14
Nsg15
S'//130.60.131.134/studi/Filme/spaete_Filme/366_Solayaris_1972\\366_1_1_Solayaris_1972_DVD_ELAN.eaf'
p1292
sg17
I00
sba(i__main__
Movie
p1293
(dp1294
g3
S'DeepEnd'
p1295
sg5
S'//130.60.131.134/studi/Filme/spaete_Filme/367_Deep_End_1970/'
p1296
sg7
(lp1297
S'//130.60.131.134/studi/Filme/spaete_Filme/367_Deep_End_1970\\367_1_1_DeepEnd_1970_DVD_ELAN_Export.txt'
p1298
asg9
(lp1299
I367
aI1
aI1
asg11
S'spaete_Filme/367_Deep_End_1970/'
p1300
sg13
I01
sg14
Nsg15
S'//130.60.131.134/studi/Filme/spaete_Filme/367_Deep_End_1970\\367_1_1_DeepEnd_1970_DVD_ELAN.eaf'
p1301
sg17
I00
sba(i__main__
Movie
p1302
(dp1303
g3
S'LassieComeHome'
p1304
sg5
S'//130.60.131.134/studi/Filme/mittlere_Filme/369_Lassie_Come_Home_1943/'
p1305
sg7
(lp1306
sg9
(lp1307
I369
aI1
aI1
asg11
S'mittlere_Filme/369_Lassie_Come_Home_1943/'
p1308
sg13
I01
sg14
Nsg15
S'//130.60.131.134/studi/Filme/mittlere_Filme/369_Lassie_Come_Home_1943\\369_1_1_LassieComeHome_1943_DVD_ELAN.eaf'
p1309
sg17
I00
sba(i__main__
Movie
p1310
(dp1311
g3
S'TheGangSAllHere'
p1312
sg5
S'//130.60.131.134/studi/Filme/mittlere_Filme/371_The_Gang_S_All_Here_1943/'
p1313
sg7
(lp1314
S'//130.60.131.134/studi/Filme/mittlere_Filme/371_The_Gang_S_All_Here_1943\\371_1_1_TheGangSAllHere_1943_Bluray_ELAN_BF.txt'
p1315
asg9
(lp1316
I371
aI1
aI1
asg11
S'mittlere_Filme/371_The_Gang_S_All_Here_1943/'
p1317
sg13
I00
sg14
Nsg15
S'//130.60.131.134/studi/Filme/mittlere_Filme/371_The_Gang_S_All_Here_1943\\371_1_1_TheGangSAllHere_1943_Bluray_ELAN_BF.eaf'
p1318
sg17
I00
sba(i__main__
Movie
p1319
(dp1320
g3
S'TheTrip'
p1321
sg5
S'//130.60.131.134/studi/Filme/spaete_Filme/373_TheTrip_1967/'
p1322
sg7
(lp1323
sg9
(lp1324
I373
aI1
aI1
asg11
S'spaete_Filme/373_TheTrip_1967/'
p1325
sg13
I01
sg14
Nsg15
S'//130.60.131.134/studi/Filme/spaete_Filme/373_TheTrip_1967\\373_1_1_TheTrip_1967_ELAN.eaf'
p1326
sg17
I00
sba(i__main__
Movie
p1327
(dp1328
g3
S'Fahrenheit451'
p1329
sg5
S'//130.60.131.134/studi/Filme/spaete_Filme/374_Fahrenheit_451_1966/'
p1330
sg7
(lp1331
S'//130.60.131.134/studi/Filme/spaete_Filme/374_Fahrenheit_451_1966\\374_1_1_Fahrenheit451_1966_DVD_ELAN_Export.txt'
p1332
asg9
(lp1333
I374
aI1
aI1
asg11
S'spaete_Filme/374_Fahrenheit_451_1966/'
p1334
sg13
I01
sg14
Nsg15
S'//130.60.131.134/studi/Filme/spaete_Filme/374_Fahrenheit_451_1966\\374_1_1_Fahrenheit451_1966_DVD_ELAN.eaf'
p1335
sg17
I00
sba(i__main__
Movie
p1336
(dp1337
g3
S'TheMikado'
p1338
sg5
S'//130.60.131.134/studi/Filme/mittlere_Filme/377_The_Mikado_1939/'
p1339
sg7
(lp1340
S'//130.60.131.134/studi/Filme/mittlere_Filme/377_The_Mikado_1939\\377_1_1_TheMikado_1939_DVD_ELAN.txt'
p1341
asg9
(lp1342
I377
aI1
aI1
asg11
S'mittlere_Filme/377_The_Mikado_1939/'
p1343
sg13
I00
sg14
Nsg15
S'//130.60.131.134/studi/Filme/mittlere_Filme/377_The_Mikado_1939\\ELAN_Projektdatei\\377_1_1_TheMikado_1939_DVD_ELAN.eaf'
p1344
sg17
I00
sba(i__main__
Movie
p1345
(dp1346
g3
S'WesternApproaches'
p1347
sg5
S'//130.60.131.134/studi/Filme/mittlere_Filme/382_Western_Approaches_1944/'
p1348
sg7
(lp1349
S'//130.60.131.134/studi/Filme/mittlere_Filme/382_Western_Approaches_1944\\382_1_1_WesternApproaches_1944_DVD_ELAN.txt'
p1350
asg9
(lp1351
I382
aI1
aI1
asg11
S'mittlere_Filme/382_Western_Approaches_1944/'
p1352
sg13
I00
sg14
Nsg15
S'//130.60.131.134/studi/Filme/mittlere_Filme/382_Western_Approaches_1944\\382_1_1_WesternApproaches_1944_DVD_ELAN.eaf'
p1353
sg17
I00
sba(i__main__
Movie
p1354
(dp1355
g3
S'BlitheSpirit'
p1356
sg5
S'//130.60.131.134/studi/Filme/mittlere_Filme/383_Blithe_Spirit_1945/'
p1357
sg7
(lp1358
S'//130.60.131.134/studi/Filme/mittlere_Filme/383_Blithe_Spirit_1945\\383_1_1_BlitheSpirit_1945_DVD_ELAN.txt'
p1359
asg9
(lp1360
I383
aI1
aI1
asg11
S'mittlere_Filme/383_Blithe_Spirit_1945/'
p1361
sg13
I01
sg14
Nsg15
S'//130.60.131.134/studi/Filme/mittlere_Filme/383_Blithe_Spirit_1945\\ELAN_Projektdatei\\383_1_1_BlitheSpirit_1945_DVD_ELAN.eaf'
p1362
sg17
I00
sba(i__main__
Movie
p1363
(dp1364
g3
S'AMatterOfLifeAndDeath'
p1365
sg5
S'//130.60.131.134/studi/Filme/mittlere_Filme/386_A_Matter_of_Life_and_Death_1946/'
p1366
sg7
(lp1367
S'//130.60.131.134/studi/Filme/mittlere_Filme/386_A_Matter_of_Life_and_Death_1946\\386_1_1_AMatterOfLifeAndDeath_1946_DVD_ELAN.txt'
p1368
asg9
(lp1369
I386
aI1
aI1
asg11
S'mittlere_Filme/386_A_Matter_of_Life_and_Death_1946/'
p1370
sg13
I00
sg14
Nsg15
S'//130.60.131.134/studi/Filme/mittlere_Filme/386_A_Matter_of_Life_and_Death_1946\\386_1_1_AMatterOfLifeAndDeath_1946_DVD_ELAN.eaf'
p1371
sg17
I00
sba(i__main__
Movie
p1372
(dp1373
g3
S'DrumsAlongTheMohawk'
p1374
sg5
S'//130.60.131.134/studi/Filme/mittlere_Filme/391_Drums_along_the_Mohawk_1939/'
p1375
sg7
(lp1376
S'//130.60.131.134/studi/Filme/mittlere_Filme/391_Drums_along_the_Mohawk_1939\\391_1_1_DrumsAlongTheMohawk_1939_DVD_ELAN.txt'
p1377
asg9
(lp1378
I391
aI1
aI1
asg11
S'mittlere_Filme/391_Drums_along_the_Mohawk_1939/'
p1379
sg13
I00
sg14
Nsg15
S'//130.60.131.134/studi/Filme/mittlere_Filme/391_Drums_along_the_Mohawk_1939\\391_1_1_DrumsAlongTheMohawk_1939_DVD_ELAN.eaf'
p1380
sg17
I00
sba(i__main__
Movie
p1381
(dp1382
g3
S'Wilson'
p1383
sg5
S'//130.60.131.134/studi/Filme/mittlere_Filme/394_Wilson_1944/'
p1384
sg7
(lp1385
sg9
(lp1386
I394
aI1
aI1
asg11
S'mittlere_Filme/394_Wilson_1944/'
p1387
sg13
I01
sg14
Nsg15
S'//130.60.131.134/studi/Filme/mittlere_Filme/394_Wilson_1944\\394_1_1_Wilson_1944_DVD_ELAN.eaf'
p1388
sg17
I00
sba(i__main__
Movie
p1389
(dp1390
g3
S'TheQuietMan'
p1391
sg5
S'//130.60.131.134/studi/Filme/mittlere_Filme/399_The_Quiet_Man_1952/'
p1392
sg7
(lp1393
S'//130.60.131.134/studi/Filme/mittlere_Filme/399_The_Quiet_Man_1952\\399_1_1_TheQuietMan_1992_DVD_ELAN_BF_exp.txt'
p1394
asg9
(lp1395
I399
aI1
aI1
asg11
S'mittlere_Filme/399_The_Quiet_Man_1952/'
p1396
sg13
I00
sg14
Nsg15
S'//130.60.131.134/studi/Filme/mittlere_Filme/399_The_Quiet_Man_1952\\399_1_1_TheQuietMan_1992_DVD_ELAN_BF.eaf'
p1397
sg17
I00
sba(i__main__
Movie
p1398
(dp1399
g3
S'Shane'
p1400
sg5
S'//130.60.131.134/studi/Filme/mittlere_Filme/400_Shane_1953/'
p1401
sg7
(lp1402
S'//130.60.131.134/studi/Filme/mittlere_Filme/400_Shane_1953\\400_1_1_Shane_1953_DVD_ELAN.txt'
p1403
asg9
(lp1404
I400
aI1
aI1
asg11
S'mittlere_Filme/400_Shane_1953/'
p1405
sg13
I00
sg14
Nsg15
S'//130.60.131.134/studi/Filme/mittlere_Filme/400_Shane_1953\\400_1_1_Shane_1953_DVD_ELAN.eaf'
p1406
sg17
I00
sba(i__main__
Movie
p1407
(dp1408
g3
S'IlConformista'
p1409
sg5
S'//130.60.131.134/studi/Filme/spaete_Filme/403_Il_Conformista_1970/'
p1410
sg7
(lp1411
S'//130.60.131.134/studi/Filme/spaete_Filme/403_Il_Conformista_1970\\403_1_1_IlConformista_1970_DVD_ELAN_Export.txt'
p1412
asg9
(lp1413
I403
aI1
aI1
asg11
S'spaete_Filme/403_Il_Conformista_1970/'
p1414
sg13
I01
sg14
Nsg15
S'//130.60.131.134/studi/Filme/spaete_Filme/403_Il_Conformista_1970\\403_1_1_IlConformista_1970_DVD_ELAN.eaf'
p1415
sg17
I00
sba(i__main__
Movie
p1416
(dp1417
g3
S'Maerchenwald'
p1418
sg5
S'//130.60.131.134/studi/Filme/frueher_Film/409_Maerchenwald_1919/'
p1419
sg7
(lp1420
S'//130.60.131.134/studi/Filme/frueher_Film/409_Maerchenwald_1919\\409_1_2_Maerchenwald_1919_ELAN_BF.txt'
p1421
asg9
(lp1422
I409
aI1
aI2
asg11
S'frueher_Film/409_Maerchenwald_1919/'
p1423
sg13
I00
sg14
Nsg15
S'//130.60.131.134/studi/Filme/frueher_Film/409_Maerchenwald_1919\\409_1_2_Maerchenwald_1919_ELAN_BF.eaf'
p1424
sg17
I00
sba(i__main__
Movie
p1425
(dp1426
g3
S'TheEpicOfEverest'
p1427
sg5
S'//130.60.131.134/studi/Filme/frueher_Film/411_The_Epic_of_Everest_1924/'
p1428
sg7
(lp1429
sg9
(lp1430
I411
aI1
aI1
asg11
S'frueher_Film/411_The_Epic_of_Everest_1924/'
p1431
sg13
I00
sg14
Nsg15
S'//130.60.131.134/studi/Filme/frueher_Film/411_The_Epic_of_Everest_1924\\411_1_1_TheEpicOfEverest_1924_DVD_Elan.eaf'
p1432
sg17
I00
sba(i__main__
Movie
p1433
(dp1434
g3
S'TheGreatWhiteSilence'
p1435
sg5
S'//130.60.131.134/studi/Filme/frueher_Film/412_The_Great_White_Silence_1924/'
p1436
sg7
(lp1437
sg9
(lp1438
I412
aI1
aI1
asg11
S'frueher_Film/412_The_Great_White_Silence_1924/'
p1439
sg13
I00
sg14
Nsg15
S'//130.60.131.134/studi/Filme/frueher_Film/412_The_Great_White_Silence_1924\\412_1_1_TheGreatWhiteSilence_1924_DVD_Elan.eaf'
p1440
sg17
I00
sba(i__main__
Movie
p1441
(dp1442
g3
S'HalluciantionsConcertoMecaniquepourlaFolie'
p1443
sg5
S'//130.60.131.134/studi/Filme/spaete_Filme/415_HallucinationsConcerto_1963/'
p1444
sg7
(lp1445
sg9
(lp1446
I415
aI1
aI1
asg11
S'spaete_Filme/415_HallucinationsConcerto_1963/'
p1447
sg13
I00
sg14
Nsg15
S'//130.60.131.134/studi/Filme/spaete_Filme/415_HallucinationsConcerto_1963\\415_1_1_HalluciantionsConcertoMecaniquepourlaFolie_1963_Medfilm_ELAN.eaf'
p1448
sg17
I00
sba(i__main__
Movie
p1449
(dp1450
g3
S'DieGoldeneStadt'
p1451
sg5
S'//130.60.131.134/studi/Filme/mittlere_Filme/417_Die_goldene_Stadt_1942/'
p1452
sg7
(lp1453
S'//130.60.131.134/studi/Filme/mittlere_Filme/417_Die_goldene_Stadt_1942\\417_1_1_DieGoldeneStadt_1942_DVD_ELAN.txt'
p1454
asg9
(lp1455
I417
aI1
aI1
asg11
S'mittlere_Filme/417_Die_goldene_Stadt_1942/'
p1456
sg13
I00
sg14
Nsg15
S'//130.60.131.134/studi/Filme/mittlere_Filme/417_Die_goldene_Stadt_1942\\417_1_1_DieGoldeneStadt_1942_DVD_ELAN.eaf'
p1457
sg17
I00
sba(i__main__
Movie
p1458
(dp1459
g3
S'ErnstThaelmannSohnSeinerKlasse'
p1460
sg5
S'//130.60.131.134/studi/Filme/spaete_Filme/418_Ernst_Thaelmann_Sohn_seiner_Klasse_1954/'
p1461
sg7
(lp1462
sg9
(lp1463
I418
aI1
aI1
asg11
S'spaete_Filme/418_Ernst_Thaelmann_Sohn_seiner_Klasse_1954/'
p1464
sg13
I01
sg14
Nsg15
S'//130.60.131.134/studi/Filme/spaete_Filme/418_Ernst_Thaelmann_Sohn_seiner_Klasse_1954\\418_1_1_ErnstThaelmannSohnSeinerKlasse_1954_DVD_ELAN.eaf'
p1465
sg17
I00
sba(i__main__
Movie
p1466
(dp1467
g3
S'GrosseFreiheitNr7'
p1468
sg5
S'//130.60.131.134/studi/Filme/mittlere_Filme/429_Grosse_Freiheit_Nr_7_1944/'
p1469
sg7
(lp1470
sg9
(lp1471
I429
aI1
aI1
asg11
S'mittlere_Filme/429_Grosse_Freiheit_Nr_7_1944/'
p1472
sg13
I01
sg14
Nsg15
S'//130.60.131.134/studi/Filme/mittlere_Filme/429_Grosse_Freiheit_Nr_7_1944\\429_1_1_GrosseFreiheitNr7_1944_DVD_ELAN.eaf'
p1473
sg17
I00
sba(i__main__
Movie
p1474
(dp1475
g3
S'BlowUp'
p1476
sg5
S'//130.60.131.134/studi/Filme/spaete_Filme/432_Blow_Up_1966/'
p1477
sg7
(lp1478
S'//130.60.131.134/studi/Filme/spaete_Filme/432_Blow_Up_1966\\432_1_1_BlowUp_1966_DVD_ELAN_Export2.txt'
p1479
asg9
(lp1480
I432
aI1
aI1
asg11
S'spaete_Filme/432_Blow_Up_1966/'
p1481
sg13
I01
sg14
Nsg15
S'//130.60.131.134/studi/Filme/spaete_Filme/432_Blow_Up_1966\\432_1_1_BlowUp_1966_DVD_ELAN.eaf'
p1482
sg17
I00
sba(i__main__
Movie
p1483
(dp1484
g3
S'AStarIsBorn'
p1485
sg5
S'//130.60.131.134/studi/Filme/mittlere_Filme/434_A_Star_Is_Born_1954/'
p1486
sg7
(lp1487
sg9
(lp1488
I434
aI1
aI1
asg11
S'mittlere_Filme/434_A_Star_Is_Born_1954/'
p1489
sg13
I01
sg14
Nsg15
S'//130.60.131.134/studi/Filme/mittlere_Filme/434_A_Star_Is_Born_1954\\434_1_1_AStarIsBorn_1954_DVD_ELAN.eaf'
p1490
sg17
I00
sba(i__main__
Movie
p1491
(dp1492
g3
S'DieFrauMeinerTraeume'
p1493
sg5
S'//130.60.131.134/studi/Filme/mittlere_Filme/435_Die_Frau_meiner_Traeume_1944/'
p1494
sg7
(lp1495
S'//130.60.131.134/studi/Filme/mittlere_Filme/435_Die_Frau_meiner_Traeume_1944\\435_1_1_DieFrauMeinerTraeume_1944_DVD_ELAN.txt'
p1496
asg9
(lp1497
I435
aI1
aI1
asg11
S'mittlere_Filme/435_Die_Frau_meiner_Traeume_1944/'
p1498
sg13
I00
sg14
Nsg15
S'//130.60.131.134/studi/Filme/mittlere_Filme/435_Die_Frau_meiner_Traeume_1944\\435_1_1_DieFrauMeinerTraeume_1944_DVD_ELAN.eaf'
p1499
sg17
I00
sba(i__main__
Movie
p1500
(dp1501
g3
S'Alien'
p1502
sg5
S'//130.60.131.134/studi/Filme/spaete_Filme/436_Alien_1979/'
p1503
sg7
(lp1504
S'//130.60.131.134/studi/Filme/spaete_Filme/436_Alien_1979\\436_1_1_Alien_1979_DVD_ELAN_Export.txt'
p1505
asg9
(lp1506
I436
aI1
aI1
asg11
S'spaete_Filme/436_Alien_1979/'
p1507
sg13
I01
sg14
Nsg15
S'//130.60.131.134/studi/Filme/spaete_Filme/436_Alien_1979\\436_1_1_Alien_1979_DVD_ELAN.eaf'
p1508
sg17
I00
sba(i__main__
Movie
p1509
(dp1510
g3
S'RebelWithoutACause'
p1511
sg5
S'//130.60.131.134/studi/Filme/spaete_Filme/437_Rebel_Without_A_Cause_1955/'
p1512
sg7
(lp1513
S'//130.60.131.134/studi/Filme/spaete_Filme/437_Rebel_Without_A_Cause_1955\\437_1_1_RebelWithoutACause_1955_DVD_ELAN_2_export.txt'
p1514
asg9
(lp1515
I437
aI1
aI1
asg11
S'spaete_Filme/437_Rebel_Without_A_Cause_1955/'
p1516
sg13
I01
sg14
Nsg15
S'//130.60.131.134/studi/Filme/spaete_Filme/437_Rebel_Without_A_Cause_1955\\437_1_1_RebelWithoutACause_1955_DVD_ELAN_2.eaf'
p1517
sg17
I00
sba(i__main__
Movie
p1518
(dp1519
g3
S'DownArgentineWay'
p1520
sg5
S'//130.60.131.134/studi/Filme/mittlere_Filme/442_Down_Argentine_Way_1940/'
p1521
sg7
(lp1522
sg9
(lp1523
I442
aI1
aI1
asg11
S'mittlere_Filme/442_Down_Argentine_Way_1940/'
p1524
sg13
I01
sg14
Nsg15
S'//130.60.131.134/studi/Filme/mittlere_Filme/442_Down_Argentine_Way_1940\\442_1_1_DownArgentineWay_1940_DVD_ELAN.eaf'
p1525
sg17
I00
sba(i__main__
Movie
p1526
(dp1527
g3
S'AnnieGetYourGun'
p1528
sg5
S'//130.60.131.134/studi/Filme/mittlere_Filme/474_Annie_Get_Your_Gun_1950/'
p1529
sg7
(lp1530
S'//130.60.131.134/studi/Filme/mittlere_Filme/474_Annie_Get_Your_Gun_1950\\474_1_1_AnnieGetYourGun_1950_DVD_ELAN.txt'
p1531
asg9
(lp1532
I474
aI1
aI1
asg11
S'mittlere_Filme/474_Annie_Get_Your_Gun_1950/'
p1533
sg13
I00
sg14
Nsg15
S'//130.60.131.134/studi/Filme/mittlere_Filme/474_Annie_Get_Your_Gun_1950\\474_1_1_AnnieGetYourGun_1950_DVD_ELAN.eaf'
p1534
sg17
I00
sba(i__main__
Movie
p1535
(dp1536
g3
S'MillionDollarMermaid'
p1537
sg5
S'//130.60.131.134/studi/Filme/mittlere_Filme/483_Million_Dollar_Mermaid_1952/'
p1538
sg7
(lp1539
S'//130.60.131.134/studi/Filme/mittlere_Filme/483_Million_Dollar_Mermaid_1952\\483_1_1_MillionDollarMermaid_1952_DVD_ELAN_BF_exp.txt'
p1540
asg9
(lp1541
I483
aI1
aI1
asg11
S'mittlere_Filme/483_Million_Dollar_Mermaid_1952/'
p1542
sg13
I00
sg14
Nsg15
S'//130.60.131.134/studi/Filme/mittlere_Filme/483_Million_Dollar_Mermaid_1952\\483_1_1_MillionDollarMermaid_1952_DVD_ELAN_BF.eaf'
p1543
sg17
I00
sba(i__main__
Movie
p1544
(dp1545
g3
S'TheRobe'
p1546
sg5
S'//130.60.131.134/studi/Filme/mittlere_Filme/488_The_Robe_1953/'
p1547
sg7
(lp1548
S'//130.60.131.134/studi/Filme/mittlere_Filme/488_The_Robe_1953\\488_1_1_TheRobe_1953_DVD_ELAN.txt'
p1549
asg9
(lp1550
I488
aI1
aI1
asg11
S'mittlere_Filme/488_The_Robe_1953/'
p1551
sg13
I00
sg14
Nsg15
S'//130.60.131.134/studi/Filme/mittlere_Filme/488_The_Robe_1953\\488_1_1_TheRobe_1953_DVD_ELAN.eaf'
p1552
sg17
I00
sba(i__main__
Movie
p1553
(dp1554
g3
S'RearWindow'
p1555
sg5
S'//130.60.131.134/studi/Filme/mittlere_Filme/490_Rear_Window_1954/'
p1556
sg7
(lp1557
sg9
(lp1558
I490
aI1
aI1
asg11
S'mittlere_Filme/490_Rear_Window_1954/'
p1559
sg13
I01
sg14
Nsg15
S'//130.60.131.134/studi/Filme/mittlere_Filme/490_Rear_Window_1954\\490_1_1_RearWindow_1954_DVD_ELAN.eaf'
p1560
sg17
I00
sba(i__main__
Movie
p1561
(dp1562
g3
S'SevenBridesForSevenBrothers'
p1563
sg5
S'//130.60.131.134/studi/Filme/mittlere_Filme/491_Seven_Brides_for_Seven_Brothers_1954/'
p1564
sg7
(lp1565
S'//130.60.131.134/studi/Filme/mittlere_Filme/491_Seven_Brides_for_Seven_Brothers_1954\\491_1_1_SevenBridesForSevenBrothers_1954_DVD_ELAN.txt'
p1566
asg9
(lp1567
I491
aI1
aI1
asg11
S'mittlere_Filme/491_Seven_Brides_for_Seven_Brothers_1954/'
p1568
sg13
I01
sg14
Nsg15
S'//130.60.131.134/studi/Filme/mittlere_Filme/491_Seven_Brides_for_Seven_Brothers_1954\\491_1_1_SevenBridesForSevenBrothers_1954_DVD_ELAN.eaf'
p1569
sg17
I00
sba(i__main__
Movie
p1570
(dp1571
g3
S'Gigi'
p1572
sg5
S'//130.60.131.134/studi/Filme/spaete_Filme/504_Gigi_1958/'
p1573
sg7
(lp1574
S'//130.60.131.134/studi/Filme/spaete_Filme/504_Gigi_1958\\504_1_1_Gigi_1958_DVD_ELAN.txt'
p1575
asg9
(lp1576
I504
aI1
aI1
asg11
S'spaete_Filme/504_Gigi_1958/'
p1577
sg13
I00
sg14
Nsg15
S'//130.60.131.134/studi/Filme/spaete_Filme/504_Gigi_1958\\ELAN Projektdatei\\504_1_1_Gigi_1958_DVD_ELAN.eaf'
p1578
sg17
I00
sba(i__main__
Movie
p1579
(dp1580
g3
S'WestSideStory'
p1581
sg5
S'//130.60.131.134/studi/Filme/spaete_Filme/520_West_Side_Story_1961/'
p1582
sg7
(lp1583
S'//130.60.131.134/studi/Filme/spaete_Filme/520_West_Side_Story_1961\\520_1_1_WestSideStory_1961_ELAN.txt'
p1584
asg9
(lp1585
I520
aI1
aI1
asg11
S'spaete_Filme/520_West_Side_Story_1961/'
p1586
sg13
I01
sg14
Nsg15
S'//130.60.131.134/studi/Filme/spaete_Filme/520_West_Side_Story_1961\\ELAN Projektdatei\\520_1_1_WestSideStory_1961_DVD_ELAN.eaf'
p1587
sg17
I00
sba(i__main__
Movie
p1588
(dp1589
g3
S'LawrenceOfArabia'
p1590
sg5
S'//130.60.131.134/studi/Filme/spaete_Filme/523_Lawrence_of_Arabia_1962/'
p1591
sg7
(lp1592
S'//130.60.131.134/studi/Filme/spaete_Filme/523_Lawrence_of_Arabia_1962\\523_1_1_LawrenceOfArabia_1962_Bluray_ELAN_export.txt'
p1593
asg9
(lp1594
I523
aI1
aI1
asg11
S'spaete_Filme/523_Lawrence_of_Arabia_1962/'
p1595
sg13
I01
sg14
Nsg15
S'//130.60.131.134/studi/Filme/spaete_Filme/523_Lawrence_of_Arabia_1962\\523_1_1_LawrenceOfArabia_1962_Bluray_ELAN.eaf'
p1596
sg17
I00
sba(i__main__
Movie
p1597
(dp1598
g3
S'MaryPoppins'
p1599
sg5
S'//130.60.131.134/studi/Filme/spaete_Filme/533_Mary_Poppins_1964/'
p1600
sg7
(lp1601
S'//130.60.131.134/studi/Filme/spaete_Filme/533_Mary_Poppins_1964\\533_1_1_MaryPoppins_1964_DVD_ELAN.txt'
p1602
asg9
(lp1603
I533
aI1
aI1
asg11
S'spaete_Filme/533_Mary_Poppins_1964/'
p1604
sg13
I00
sg14
Nsg15
S'//130.60.131.134/studi/Filme/spaete_Filme/533_Mary_Poppins_1964\\ELAN Projektdatei\\533_1_1_MaryPoppins_1964_DVD_ELAN.eaf'
p1605
sg17
I00
sba(i__main__
Movie
p1606
(dp1607
g3
S'FantasticVoyage'
p1608
sg5
S'//130.60.131.134/studi/Filme/spaete_Filme/541_Fantastic_Voyage_1966/'
p1609
sg7
(lp1610
S'//130.60.131.134/studi/Filme/spaete_Filme/541_Fantastic_Voyage_1966\\541_1_1_FantasticVoyage_1966_DVD_ELAN_export.txt'
p1611
asg9
(lp1612
I541
aI1
aI1
asg11
S'spaete_Filme/541_Fantastic_Voyage_1966/'
p1613
sg13
I01
sg14
Nsg15
S'//130.60.131.134/studi/Filme/spaete_Filme/541_Fantastic_Voyage_1966\\541_1_1_FantasticVoyage_1966_DVD_ELAN.eaf'
p1614
sg17
I00
sba(i__main__
Movie
p1615
(dp1616
g3
S'SinginInTheRain'
p1617
sg5
S'//130.60.131.134/studi/Filme/mittlere_Filme/546_Singin_in_the_Rain_1952/'
p1618
sg7
(lp1619
S'//130.60.131.134/studi/Filme/mittlere_Filme/546_Singin_in_the_Rain_1952\\546_1_1_SinginInTheRain_1952_DVD_ELAN.txt'
p1620
asg9
(lp1621
I546
aI1
aI1
asg11
S'mittlere_Filme/546_Singin_in_the_Rain_1952/'
p1622
sg13
I00
sg14
Nsg15
S'//130.60.131.134/studi/Filme/mittlere_Filme/546_Singin_in_the_Rain_1952\\546_1_1_SinginInTheRain_1952_DVD_ELAN.eaf'
p1623
sg17
I00
sba(i__main__
Movie
p1624
(dp1625
g3
S'TheBoldCaballero'
p1626
sg5
S'//130.60.131.134/studi/Filme/mittlere_Filme/548_The_Bold_Caballero_1936/'
p1627
sg7
(lp1628
S'//130.60.131.134/studi/Filme/mittlere_Filme/548_The_Bold_Caballero_1936\\548_1_1_TheBoldCaballero_1936_DVD_ELAN.txt'
p1629
asg9
(lp1630
I548
aI1
aI1
asg11
S'mittlere_Filme/548_The_Bold_Caballero_1936/'
p1631
sg13
I00
sg14
Nsg15
S'//130.60.131.134/studi/Filme/mittlere_Filme/548_The_Bold_Caballero_1936\\548_1_1_TheBoldCaballero_1936_DVD_ELAN.eaf'
p1632
sg17
I00
sba(i__main__
Movie
p1633
(dp1634
g3
S'OutCaliforniaWay'
p1635
sg5
S'//130.60.131.134/studi/Filme/mittlere_Filme/550_Out_California_Way_1946/'
p1636
sg7
(lp1637
S'//130.60.131.134/studi/Filme/mittlere_Filme/550_Out_California_Way_1946\\550_1_1_OutCaliforniaWay_1946_DVD_ELAN.txt'
p1638
asg9
(lp1639
I550
aI1
aI1
asg11
S'mittlere_Filme/550_Out_California_Way_1946/'
p1640
sg13
I00
sg14
Nsg15
S'//130.60.131.134/studi/Filme/mittlere_Filme/550_Out_California_Way_1946\\550_1_1_OutCaliforniaWay_1946_DVD_ELAN.eaf'
p1641
sg17
I00
sba(i__main__
Movie
p1642
(dp1643
g3
S'TheGoldwynFollies'
p1644
sg5
S'//130.60.131.134/studi/Filme/mittlere_Filme/553_The_Goldwyn_Follies_1938/'
p1645
sg7
(lp1646
sg9
(lp1647
I553
aI1
aI1
asg11
S'mittlere_Filme/553_The_Goldwyn_Follies_1938/'
p1648
sg13
I01
sg14
Nsg15
S'//130.60.131.134/studi/Filme/mittlere_Filme/553_The_Goldwyn_Follies_1938\\553_1_1_TheGoldwynFollies_1938_DVD_ELAN.eaf'
p1649
sg17
I00
sba(i__main__
Movie
p1650
(dp1651
g3
S'NothingSacred'
p1652
sg5
S'//130.60.131.134/studi/Filme/mittlere_Filme/561_Nothing_Sacred_1937/'
p1653
sg7
(lp1654
S'//130.60.131.134/studi/Filme/mittlere_Filme/561_Nothing_Sacred_1937\\561_1_1_NothingSacred_1937_DVD_ELAN.txt'
p1655
asg9
(lp1656
I561
aI1
aI1
asg11
S'mittlere_Filme/561_Nothing_Sacred_1937/'
p1657
sg13
I00
sg14
Nsg15
S'//130.60.131.134/studi/Filme/mittlere_Filme/561_Nothing_Sacred_1937\\561_1_1_NothingSacred_1937_DVD_ELAN.eaf'
p1658
sg17
I00
sba(i__main__
Movie
p1659
(dp1660
g3
S'Whoopee'
p1661
sg5
S'//130.60.131.134/studi/Filme/frueher_Film/574_Whoopee_1930/'
p1662
sg7
(lp1663
sg9
(lp1664
I574
aI1
aI1
asg11
S'frueher_Film/574_Whoopee_1930/'
p1665
sg13
I00
sg14
Nsg15
S'//130.60.131.134/studi/Filme/frueher_Film/574_Whoopee_1930\\574_1_1_Whoopee_1930_ELAN.eaf'
p1666
sg17
I00
sba(i__main__
Movie
p1667
(dp1668
g3
S'Die'
p1669
sg5
S'//130.60.131.134/studi/Filme/frueher_Film/576_Die_Freudlose_Gasse_1925/'
p1670
sg7
(lp1671
sg9
(lp1672
I576
aI1
aI1
asg11
S'frueher_Film/576_Die_Freudlose_Gasse_1925/'
p1673
sg13
I00
sg14
Nsg15
S'//130.60.131.134/studi/Filme/frueher_Film/576_Die_Freudlose_Gasse_1925\\576_1_1_Die_Freudlose_Gasse_1925_ELAN.eaf'
p1674
sg17
I00
sba(i__main__
Movie
p1675
(dp1676
g3
S'TheThiefOfBagdad'
p1677
sg5
S'//130.60.131.134/studi/Filme/frueher_Film/613_The_Thief_Of_Bagdad_1924/'
p1678
sg7
(lp1679
sg9
(lp1680
I613
aI1
aI1
asg11
S'frueher_Film/613_The_Thief_Of_Bagdad_1924/'
p1681
sg13
I01
sg14
Nsg15
S'//130.60.131.134/studi/Filme/frueher_Film/613_The_Thief_Of_Bagdad_1924\\613_1_1_TheThiefOfBagdad_1924_DVD_ELAN.eaf'
p1682
sg17
I00
sba(i__main__
Movie
p1683
(dp1684
g3
S'Erotikon'
p1685
sg5
S'//130.60.131.134/studi/Filme/frueher_Film/614_Erotikon_1920/'
p1686
sg7
(lp1687
sg9
(lp1688
I614
aI1
aI1
asg11
S'frueher_Film/614_Erotikon_1920/'
p1689
sg13
I01
sg14
Nsg15
S'//130.60.131.134/studi/Filme/frueher_Film/614_Erotikon_1920\\614_1_1_Erotikon_1920_DVD_ELAN.eaf'
p1690
sg17
I00
sba(i__main__
Movie
p1691
(dp1692
g3
S'BehindTheDoor'
p1693
sg5
S'//130.60.131.134/studi/Filme/frueher_Film/616_Behind_The_Door_1919/'
p1694
sg7
(lp1695
sg9
(lp1696
I616
aI1
aI1
asg11
S'frueher_Film/616_Behind_The_Door_1919/'
p1697
sg13
I01
sg14
Nsg15
S'//130.60.131.134/studi/Filme/frueher_Film/616_Behind_The_Door_1919\\616_1_1_BehindTheDoor_1919_DVD_ELAN.eaf'
p1698
sg17
I00
sba(i__main__
Movie
p1699
(dp1700
g3
S'InvadersFromMars'
p1701
sg5
S'//130.60.131.134/studi/Filme/mittlere_Filme/620_Invaders_from_Mars_1953/'
p1702
sg7
(lp1703
S'//130.60.131.134/studi/Filme/mittlere_Filme/620_Invaders_from_Mars_1953\\620_1_1_InvadersFromMars_1953_DVD_ELAN.txt'
p1704
asg9
(lp1705
I620
aI1
aI1
asg11
S'mittlere_Filme/620_Invaders_from_Mars_1953/'
p1706
sg13
I01
sg14
Nsg15
S'//130.60.131.134/studi/Filme/mittlere_Filme/620_Invaders_from_Mars_1953\\620_1_1_InvadersFromMars_1953_DVD_ELAN.eaf'
p1707
sg17
I00
sba(i__main__
Movie
p1708
(dp1709
g3
S'DestinationMoon'
p1710
sg5
S'//130.60.131.134/studi/Filme/mittlere_Filme/622_Destination_Moon_1950/'
p1711
sg7
(lp1712
sg9
(lp1713
I622
aI1
aI1
asg11
S'mittlere_Filme/622_Destination_Moon_1950/'
p1714
sg13
I01
sg14
Nsg15
S'//130.60.131.134/studi/Filme/mittlere_Filme/622_Destination_Moon_1950\\622_1_1_DestinationMoon_1950_DVD_ELAN.eaf'
p1715
sg17
I00
sba(i__main__
Movie
p1716
(dp1717
g3
S'Goldfinger'
p1718
sg5
S'//130.60.131.134/studi/Filme/spaete_Filme/629_Goldfinger_1964/'
p1719
sg7
(lp1720
S'//130.60.131.134/studi/Filme/spaete_Filme/629_Goldfinger_1964\\629_Goldfinger_1964_DVD_ELAN_Export.txt'
p1721
asg9
(lp1722
I629
aI1
aI1
asg11
S'spaete_Filme/629_Goldfinger_1964/'
p1723
sg13
I01
sg14
Nsg15
S'//130.60.131.134/studi/Filme/spaete_Filme/629_Goldfinger_1964\\629_1_1_Goldfinger_1964_DVD_ELAN.eaf'
p1724
sg17
I00
sba(i__main__
Movie
p1725
(dp1726
g3
S'LaDanseDuDiable'
p1727
sg5
S'//130.60.131.134/studi/Filme/frueher_Film/640_La_Danse_Du_Diable_1904/'
p1728
sg7
(lp1729
sg9
(lp1730
I640
aI1
aI1
asg11
S'frueher_Film/640_La_Danse_Du_Diable_1904/'
p1731
sg13
I00
sg14
Nsg15
S'//130.60.131.134/studi/Filme/frueher_Film/640_La_Danse_Du_Diable_1904\\640_1_1_LaDanseDuDiable_1904_DVD_Elan.eaf'
p1732
sg17
I00
sba(i__main__
Movie
p1733
(dp1734
g3
S'LaFeeAuxFleurs'
p1735
sg5
S'//130.60.131.134/studi/Filme/frueher_Film/641_La_Fee_Aux_Fleurs_1905/'
p1736
sg7
(lp1737
sg9
(lp1738
I641
aI1
aI4
asg11
S'frueher_Film/641_La_Fee_Aux_Fleurs_1905/'
p1739
sg13
I00
sg14
Nsg15
S'//130.60.131.134/studi/Filme/frueher_Film/641_La_Fee_Aux_Fleurs_1905\\641_1_4_LaFeeAuxFleurs_1905_DVD_ELAN.eaf'
p1740
sg17
I00
sba(i__main__
Movie
p1741
(dp1742
g3
S'LePiedDeMouton'
p1743
sg5
S'//130.60.131.134/studi/Filme/frueher_Film/642_Le_Pied_De_Mouton_1907/'
p1744
sg7
(lp1745
sg9
(lp1746
I642
aI1
aI1
asg11
S'frueher_Film/642_Le_Pied_De_Mouton_1907/'
p1747
sg13
I00
sg14
Nsg15
S'//130.60.131.134/studi/Filme/frueher_Film/642_Le_Pied_De_Mouton_1907\\642_1_1_LePiedDeMouton_1907_DVD_ELAN.eaf'
p1748
sg17
I00
sba(i__main__
Movie
p1749
(dp1750
g3
S'AssuntaSpina'
p1751
sg5
S'//130.60.131.134/studi/Filme/frueher_Film/699_Assunta_Spina_1915/'
p1752
sg7
(lp1753
sg9
(lp1754
I699
aI1
aI1
asg11
S'frueher_Film/699_Assunta_Spina_1915/'
p1755
sg13
I01
sg14
Nsg15
S'//130.60.131.134/studi/Filme/frueher_Film/699_Assunta_Spina_1915\\699_1_1_AssuntaSpina_1915_DVD_ELAN.eaf'
p1756
sg17
I00
sba(i__main__
Movie
p1757
(dp1758
g3
S'Jaws'
p1759
sg5
S'//130.60.131.134/studi/Filme/spaete_Filme/750_Jaws_1975/'
p1760
sg7
(lp1761
S'//130.60.131.134/studi/Filme/spaete_Filme/750_Jaws_1975\\750_1_1_Jaws_1975_DVD_ELAN_export.txt'
p1762
asg9
(lp1763
I750
aI1
aI1
asg11
S'spaete_Filme/750_Jaws_1975/'
p1764
sg13
I01
sg14
Nsg15
S'//130.60.131.134/studi/Filme/spaete_Filme/750_Jaws_1975\\750_1_1_Jaws_1975_DVD_ELAN.eaf'
p1765
sg17
I00
sba(i__main__
Movie
p1766
(dp1767
g3
S'RobinHood'
p1768
sg5
S'//130.60.131.134/studi/Filme/frueher_Film/751_Robin_Hood_1922/'
p1769
sg7
(lp1770
sg9
(lp1771
I751
aI1
aI1
asg11
S'frueher_Film/751_Robin_Hood_1922/'
p1772
sg13
I01
sg14
Nsg15
S'//130.60.131.134/studi/Filme/frueher_Film/751_Robin_Hood_1922\\751_1_1_RobinHood_1922_DVD_Elan.eaf'
p1773
sg17
I00
sba(i__main__
Movie
p1774
(dp1775
g3
S'DasParfum'
p1776
sg5
S'//130.60.131.134/studi/Filme/spaete_Filme/766_DasParfum_2006/'
p1777
sg7
(lp1778
sg9
(lp1779
I766
aI1
aI1
asg11
S'spaete_Filme/766_DasParfum_2006/'
p1780
sg13
I01
sg14
Nsg15
S'//130.60.131.134/studi/Filme/spaete_Filme/766_DasParfum_2006\\766_1_1_DasParfum_2006_DVD_ELAN.eaf'
p1781
sg17
I00
sba(i__main__
Movie
p1782
(dp1783
g3
S'TheGoldenBeetle'
p1784
sg5
S'//130.60.131.134/studi/Filme/frueher_Film/779_The_Golden_Beetle_1907/'
p1785
sg7
(lp1786
sg9
(lp1787
I779
aI1
aI1
asg11
S'frueher_Film/779_The_Golden_Beetle_1907/'
p1788
sg13
I00
sg14
Nsg15
S'//130.60.131.134/studi/Filme/frueher_Film/779_The_Golden_Beetle_1907\\779_1_1_TheGoldenBeetle_1907_DVD_Elan.eaf'
p1789
sg17
I00
sba(i__main__
Movie
p1790
(dp1791
g3
S'TheGreatTrainRobbery'
p1792
sg5
S'//130.60.131.134/studi/Filme/frueher_Film/788_The_Great_Train_Robbery_1903/'
p1793
sg7
(lp1794
sg9
(lp1795
I788
aI1
aI1
asg11
S'frueher_Film/788_The_Great_Train_Robbery_1903/'
p1796
sg13
I00
sg14
Nsg15
S'//130.60.131.134/studi/Filme/frueher_Film/788_The_Great_Train_Robbery_1903\\788_1_1_TheGreatTrainRobbery_1903_DVD_Elan.eaf'
p1797
sg17
I00
sba(i__main__
Movie
p1798
(dp1799
g3
S'TheBoyWhoTurnedYellow'
p1800
sg5
S'//130.60.131.134/studi/Filme/spaete_Filme/811_TheBoyWhoTurnedYellow_1972/'
p1801
sg7
(lp1802
sg9
(lp1803
I811
aI1
aI1
asg11
S'spaete_Filme/811_TheBoyWhoTurnedYellow_1972/'
p1804
sg13
I01
sg14
Nsg15
S'//130.60.131.134/studi/Filme/spaete_Filme/811_TheBoyWhoTurnedYellow_1972\\811_1_1_TheBoyWhoTurnedYellow_1972_DVD_ELAN.eaf'
p1805
sg17
I00
sba(i__main__
Movie
p1806
(dp1807
g3
S'DieGeschichteVomKleinenMuck'
p1808
sg5
S'//130.60.131.134/studi/Filme/spaete_Filme/817_Die_Geschichte_vom_kleinen_Muck_1953/'
p1809
sg7
(lp1810
S'//130.60.131.134/studi/Filme/spaete_Filme/817_Die_Geschichte_vom_kleinen_Muck_1953\\ELAN_Projektdatei\\817_1_1_DieGeschichteVomKleinenMuck_1953_DVD_ELAN.txt'
p1811
aS'//130.60.131.134/studi/Filme/spaete_Filme/817_Die_Geschichte_vom_kleinen_Muck_1953\\ELAN_Projektdatei\\817_1_1_DieGeschichteVomKleinenMuck_1953_DVD_ELAN.csv'
p1812
asg9
(lp1813
I817
aI1
aI1
asg11
S'spaete_Filme/817_Die_Geschichte_vom_kleinen_Muck_1953/'
p1814
sg13
I01
sg14
Nsg15
S'//130.60.131.134/studi/Filme/spaete_Filme/817_Die_Geschichte_vom_kleinen_Muck_1953\\ELAN_Projektdatei\\817_1_1_DieGeschichteVomKleinenMuck_1953_DVD_ELAN.eaf'
p1815
sg17
I00
sba(i__main__
Movie
p1816
(dp1817
g3
S'DasWirtshausImSpessart'
p1818
sg5
S'//130.60.131.134/studi/Filme/spaete_Filme/820_Das_Wirtshaus_im_Spessart_1957/'
p1819
sg7
(lp1820
S'//130.60.131.134/studi/Filme/spaete_Filme/820_Das_Wirtshaus_im_Spessart_1957\\820_1_2_DasWirtshausImSpessart_1957_DVD_ELAN_export.txt'
p1821
asg9
(lp1822
I820
aI1
aI2
asg11
S'spaete_Filme/820_Das_Wirtshaus_im_Spessart_1957/'
p1823
sg13
I01
sg14
Nsg15
S'//130.60.131.134/studi/Filme/spaete_Filme/820_Das_Wirtshaus_im_Spessart_1957\\820_1_2_DasWirtshausImSpessart_1957_DVD_ELAN.eaf'
p1824
sg17
I00
sba(i__main__
Movie
p1825
(dp1826
g3
S'Schwarzwaldmaedel'
p1827
sg5
S'//130.60.131.134/studi/Filme/mittlere_Filme/821_Schwarzwaldmaedel_1950/'
p1828
sg7
(lp1829
S'//130.60.131.134/studi/Filme/mittlere_Filme/821_Schwarzwaldmaedel_1950\\821_1_2_Schwarzwaldmaedel_1950_DVD_ELAN.txt'
p1830
asg9
(lp1831
I821
aI1
aI2
asg11
S'mittlere_Filme/821_Schwarzwaldmaedel_1950/'
p1832
sg13
I01
sg14
Nsg15
S'//130.60.131.134/studi/Filme/mittlere_Filme/821_Schwarzwaldmaedel_1950\\821_1_2_Schwarzwaldmaedel_1950_DVD_ELAN.eaf'
p1833
sg17
I00
sba(i__main__
Movie
p1834
(dp1835
g3
S'ITreVoltiDellaPaura'
p1836
sg5
S'//130.60.131.134/studi/Filme/spaete_Filme/825_I_tre_volti_della_paura_1963/'
p1837
sg7
(lp1838
S'//130.60.131.134/studi/Filme/spaete_Filme/825_I_tre_volti_della_paura_1963\\825_1_1_ITreVoltiDellaPaura_DVD_ELAN_BF.txt'
p1839
asg9
(lp1840
I825
aI1
aI1
asg11
S'spaete_Filme/825_I_tre_volti_della_paura_1963/'
p1841
sg13
I01
sg14
Nsg15
S'//130.60.131.134/studi/Filme/spaete_Filme/825_I_tre_volti_della_paura_1963\\825_1_1_ITreVoltiDellaPaura_DVD_ELAN_BF_Kopie.eaf'
p1842
sg17
I00
sba(i__main__
Movie
p1843
(dp1844
g3
S'IlBuonoIlBruttoIlCattivo'
p1845
sg5
S'//130.60.131.134/studi/Filme/spaete_Filme/826_Il_Buono_il_brutto_il_cattivo_1966/'
p1846
sg7
(lp1847
sg9
(lp1848
I826
aI1
aI1
asg11
S'spaete_Filme/826_Il_Buono_il_brutto_il_cattivo_1966/'
p1849
sg13
I00
sg14
Nsg15
S'//130.60.131.134/studi/Filme/spaete_Filme/826_Il_Buono_il_brutto_il_cattivo_1966\\826_1_1_IlBuonoIlBruttoIlCattivo_1966_DVD_ELAN.eaf'
p1850
sg17
I00
sba(i__main__
Movie
p1851
(dp1852
g3
S'ElNegro'
p1853
sg5
S'//130.60.131.134/studi/Filme/frueher_Film/830_El_Negro_Que_Tenia_El_Alma_Blanca_1927/'
p1854
sg7
(lp1855
sg9
(lp1856
I830
aI1
aI1
asg11
S'frueher_Film/830_El_Negro_Que_Tenia_El_Alma_Blanca_1927/'
p1857
sg13
I01
sg14
Nsg15
S'//130.60.131.134/studi/Filme/frueher_Film/830_El_Negro_Que_Tenia_El_Alma_Blanca_1927\\830_1_1_ElNegro_1927_DVD_ELAN.eaf'
p1858
sg17
I00
sba(i__main__
Movie
p1859
(dp1860
g3
S'DraughtmansContract'
p1861
sg5
S'//130.60.131.134/studi/Filme/spaete_Filme/831_Draughtmans_Contract_1982/'
p1862
sg7
(lp1863
S'//130.60.131.134/studi/Filme/spaete_Filme/831_Draughtmans_Contract_1982\\831_1_1_DraughtmansContract_1982_DVD_ELAN_export.txt'
p1864
asg9
(lp1865
I831
aI1
aI1
asg11
S'spaete_Filme/831_Draughtmans_Contract_1982/'
p1866
sg13
I01
sg14
Nsg15
S'//130.60.131.134/studi/Filme/spaete_Filme/831_Draughtmans_Contract_1982\\831_1_1_DraughtmansContract_1982_DVD_ELAN.eaf'
p1867
sg17
I00
sba(i__main__
Movie
p1868
(dp1869
g3
S'Intolerance'
p1870
sg5
S'//130.60.131.134/studi/Filme/frueher_Film/832_Intolerance_1916/'
p1871
sg7
(lp1872
sg9
(lp1873
I832
aI1
aI1
asg11
S'frueher_Film/832_Intolerance_1916/'
p1874
sg13
I01
sg14
Nsg15
S'//130.60.131.134/studi/Filme/frueher_Film/832_Intolerance_1916\\832_1_1_Intolerance_1916_DVD_Elan.eaf'
p1875
sg17
I00
sba(i__main__
Movie
p1876
(dp1877
g3
S'DerSchweigendeStern'
p1878
sg5
S'//130.60.131.134/studi/Filme/spaete_Filme/838_Der_schweigende_Stern_1960/'
p1879
sg7
(lp1880
sg9
(lp1881
I838
aI1
aI1
asg11
S'spaete_Filme/838_Der_schweigende_Stern_1960/'
p1882
sg13
I01
sg14
Nsg15
S'//130.60.131.134/studi/Filme/spaete_Filme/838_Der_schweigende_Stern_1960\\838_1_1_DerSchweigendeStern_1960_DVD_ELAN_Projektdatei\\838_1_1_DerSchweigendeStern_1960_ELAN.eaf'
p1883
sg17
I00
sba(i__main__
Movie
p1884
(dp1885
g3
S'Frauenschicksale'
p1886
sg5
S'//130.60.131.134/studi/Filme/mittlere_Filme/840_Frauenschicksale_1952/'
p1887
sg7
(lp1888
S'//130.60.131.134/studi/Filme/mittlere_Filme/840_Frauenschicksale_1952\\840_1_1_Frauenschicksale_1952_DVD_ELAN.txt'
p1889
asg9
(lp1890
I840
aI1
aI1
asg11
S'mittlere_Filme/840_Frauenschicksale_1952/'
p1891
sg13
I00
sg14
Nsg15
S'//130.60.131.134/studi/Filme/mittlere_Filme/840_Frauenschicksale_1952\\840_1_1_Frauenschicksale_1952_DVD_ELAN.eaf'
p1892
sg17
I00
sba(i__main__
Movie
p1893
(dp1894
g3
S'AliceInWonderland'
p1895
sg5
S'//130.60.131.134/studi/Filme/frueher_Film/851_Alice_In_Wonderland_1915/'
p1896
sg7
(lp1897
sg9
(lp1898
I851
aI1
aI1
asg11
S'frueher_Film/851_Alice_In_Wonderland_1915/'
p1899
sg13
I01
sg14
Nsg15
S'//130.60.131.134/studi/Filme/frueher_Film/851_Alice_In_Wonderland_1915\\851_1_1_AliceInWonderland_1915_DVD_ELAN.eaf'
p1900
sg17
I00
sba(i__main__
Movie
p1901
(dp1902
g3
S'ParisTexas'
p1903
sg5
S'//130.60.131.134/studi/Filme/spaete_Filme/852_Paris_Texas_1984/'
p1904
sg7
(lp1905
sg9
(lp1906
I852
aI1
aI1
asg11
S'spaete_Filme/852_Paris_Texas_1984/'
p1907
sg13
I00
sg14
Nsg15
S'//130.60.131.134/studi/Filme/spaete_Filme/852_Paris_Texas_1984\\852_1_1_ParisTexas_1984_DVD_ELAN_BF.eaf'
p1908
sg17
I00
sba(i__main__
Movie
p1909
(dp1910
g3
S'DieNibelungen'
p1911
sg5
S'//130.60.131.134/studi/Filme/frueher_Film/854_Die_Nibelungen_1924/854_1_1_DieNibelungen_1924_DVD/'
p1912
sg7
(lp1913
sg9
(lp1914
I854
aI1
aI1
asg11
S'frueher_Film/854_Die_Nibelungen_1924/854_1_1_DieNibelungen_1924_DVD/'
p1915
sg13
I01
sg14
Nsg15
S'//130.60.131.134/studi/Filme/frueher_Film/854_Die_Nibelungen_1924/854_1_1_DieNibelungen_1924_DVD\\854_1_1_DieNibelungen_1924_DVD_ELAN.eaf'
p1916
sg17
I00
sba(i__main__
Movie
p1917
(dp1918
g3
S'DieNibelungen'
p1919
sg5
S'//130.60.131.134/studi/Filme/frueher_Film/854_Die_Nibelungen_1924/854_2_1_DieNibelungen_1924_DVD/'
p1920
sg7
(lp1921
sg9
(lp1922
I854
aI2
aI1
asg11
S'frueher_Film/854_Die_Nibelungen_1924/854_2_1_DieNibelungen_1924_DVD/'
p1923
sg13
I01
sg14
Nsg15
S'//130.60.131.134/studi/Filme/frueher_Film/854_Die_Nibelungen_1924/854_2_1_DieNibelungen_1924_DVD\\854_2_1_DieNibelungen_1924_DVD_ELAN.eaf'
p1924
sg17
I00
sba(i__main__
Movie
p1925
(dp1926
g3
S'Ildfluen'
p1927
sg5
S'//130.60.131.134/studi/Filme/frueher_Film/855_Ildfluen_1913/'
p1928
sg7
(lp1929
sg9
(lp1930
I855
aI1
aI1
asg11
S'frueher_Film/855_Ildfluen_1913/'
p1931
sg13
I00
sg14
Nsg15
S'//130.60.131.134/studi/Filme/frueher_Film/855_Ildfluen_1913\\855_1_1_Ildfluen_1913_ELAN.eaf'
p1932
sg17
I00
sba(i__main__
Movie
p1933
(dp1934
g3
S'Napoleon'
p1935
sg5
S'//130.60.131.134/studi/Filme/frueher_Film/860_Napoleon_1927/860_1_1_Napoleon_1927/'
p1936
sg7
(lp1937
sg9
(lp1938
I860
aI1
aI1
asg11
S'frueher_Film/860_Napoleon_1927/860_1_1_Napoleon_1927/'
p1939
sg13
I00
sg14
Nsg15
S'//130.60.131.134/studi/Filme/frueher_Film/860_Napoleon_1927/860_1_1_Napoleon_1927\\860_1_1_Napoleon_1927_Disc1_ELAN.eaf'
p1940
sg17
I00
sba(i__main__
Movie
p1941
(dp1942
g3
S'Napoleon'
p1943
sg5
S'//130.60.131.134/studi/Filme/frueher_Film/860_Napoleon_1927/860_1_2_Napoleon_1927/'
p1944
sg7
(lp1945
sg9
(lp1946
I860
aI1
aI2
asg11
S'frueher_Film/860_Napoleon_1927/860_1_2_Napoleon_1927/'
p1947
sg13
I00
sg14
Nsg15
S'//130.60.131.134/studi/Filme/frueher_Film/860_Napoleon_1927/860_1_2_Napoleon_1927\\860_1_2_Napoleon_1927_Disc2_ELAN.eaf'
p1948
sg17
I00
sba(i__main__
Movie
p1949
(dp1950
g3
S'Napoleon'
p1951
sg5
S'//130.60.131.134/studi/Filme/frueher_Film/860_Napoleon_1927/860_1_3_Napoleon_1927/'
p1952
sg7
(lp1953
sg9
(lp1954
I860
aI1
aI3
asg11
S'frueher_Film/860_Napoleon_1927/860_1_3_Napoleon_1927/'
p1955
sg13
I00
sg14
Nsg15
S'//130.60.131.134/studi/Filme/frueher_Film/860_Napoleon_1927/860_1_3_Napoleon_1927\\860_1_3_Napoleon_1927_Disc3_ELAN.eaf'
p1956
sg17
I00
sba(i__main__
Movie
p1957
(dp1958
g3
S'Napoleon'
p1959
sg5
S'//130.60.131.134/studi/Filme/frueher_Film/860_Napoleon_1927/860_1_4_Napoleon_1927/'
p1960
sg7
(lp1961
sg9
(lp1962
I860
aI1
aI4
asg11
S'frueher_Film/860_Napoleon_1927/860_1_4_Napoleon_1927/'
p1963
sg13
I00
sg14
Nsg15
S'//130.60.131.134/studi/Filme/frueher_Film/860_Napoleon_1927/860_1_4_Napoleon_1927\\860_1_4_Napoleon_1927_Disc4_ELAN.eaf'
p1964
sg17
I00
sba(i__main__
Movie
p1965
(dp1966
g3
S'LeFaune'
p1967
sg5
S'//130.60.131.134/studi/Filme/frueher_Film/863_Le_Faune_1908/'
p1968
sg7
(lp1969
sg9
(lp1970
I863
aI1
aI1
asg11
S'frueher_Film/863_Le_Faune_1908/'
p1971
sg13
I00
sg14
Nsg15
S'//130.60.131.134/studi/Filme/frueher_Film/863_Le_Faune_1908\\863_1_1_LeFaune_1908_DVD_Elan.eaf'
p1972
sg17
I00
sba(i__main__
Movie
p1973
(dp1974
g3
S'FrenchCancan'
p1975
sg5
S'//130.60.131.134/studi/Filme/mittlere_Filme/864_French_Cancan_1954/'
p1976
sg7
(lp1977
sg9
(lp1978
I864
aI1
aI1
asg11
S'mittlere_Filme/864_French_Cancan_1954/'
p1979
sg13
I01
sg14
Nsg15
S'//130.60.131.134/studi/Filme/mittlere_Filme/864_French_Cancan_1954\\864_1_1_FrenchCancan_1954_DVD.eaf'
p1980
sg17
I00
sba(i__main__
Movie
p1981
(dp1982
g3
S'DieBlechtrommel'
p1983
sg5
S'//130.60.131.134/studi/Filme/spaete_Filme/876_Die_Blechtrommel_1979/'
p1984
sg7
(lp1985
S'//130.60.131.134/studi/Filme/spaete_Filme/876_Die_Blechtrommel_1979\\876_1_1_DieBlechtrommel_1979_DVD_ELAN.txt'
p1986
asg9
(lp1987
I876
aI1
aI1
asg11
S'spaete_Filme/876_Die_Blechtrommel_1979/'
p1988
sg13
I01
sg14
Nsg15
S'//130.60.131.134/studi/Filme/spaete_Filme/876_Die_Blechtrommel_1979\\ELAN Projektdatei\\876_1_1_DieBlechtrommel_1979_DVD_ELAN.eaf'
p1989
sg17
I00
sba(i__main__
Movie
p1990
(dp1991
g3
S'TheOpenRoad'
p1992
sg5
S'//130.60.131.134/studi/Filme/frueher_Film/878_The_Open_Road_1925/'
p1993
sg7
(lp1994
sg9
(lp1995
I878
aI1
aI1
asg11
S'frueher_Film/878_The_Open_Road_1925/'
p1996
sg13
I00
sg14
Nsg15
S'//130.60.131.134/studi/Filme/frueher_Film/878_The_Open_Road_1925\\878_1_1_TheOpenRoad_1925_DVD_ELAN.eaf'
p1997
sg17
I00
sba(i__main__
Movie
p1998
(dp1999
g3
S'HaroldAndMaude'
p2000
sg5
S'//130.60.131.134/studi/Filme/spaete_Filme/879_Harold_and_Maude_1971/'
p2001
sg7
(lp2002
S'//130.60.131.134/studi/Filme/spaete_Filme/879_Harold_and_Maude_1971\\879_1_1_HaroldAndMaude_1971_DVD_ELAN_export.txt'
p2003
asg9
(lp2004
I879
aI1
aI1
asg11
S'spaete_Filme/879_Harold_and_Maude_1971/'
p2005
sg13
I01
sg14
Nsg15
S'//130.60.131.134/studi/Filme/spaete_Filme/879_Harold_and_Maude_1971\\879_1_1_HaroldAndMaude_1971_DVD_ELAN.eaf'
p2006
sg17
I00
sba(i__main__
Movie
p2007
(dp2008
g3
S'MaerkischeFahrt'
p2009
sg5
S'//130.60.131.134/studi/Filme/mittlere_Filme/891_Maerkische_Fahrt_1942/'
p2010
sg7
(lp2011
S'//130.60.131.134/studi/Filme/mittlere_Filme/891_Maerkische_Fahrt_1942\\891_1_3_MaerkischeFahrt_1942_DVD_ELAN.txt'
p2012
asg9
(lp2013
I891
aI1
aI3
asg11
S'mittlere_Filme/891_Maerkische_Fahrt_1942/'
p2014
sg13
I00
sg14
Nsg15
S'//130.60.131.134/studi/Filme/mittlere_Filme/891_Maerkische_Fahrt_1942\\891_1_3_MaerkischeFahrt_1942_DVD_ELAN.eaf'
p2015
sg17
I00
sba(i__main__
Movie
p2016
(dp2017
g3
S'LaGrandeBouffe'
p2018
sg5
S'//130.60.131.134/studi/Filme/spaete_Filme/897_La_Grande_Bouffe_1973/'
p2019
sg7
(lp2020
sg9
(lp2021
I897
aI1
aI2
asg11
S'spaete_Filme/897_La_Grande_Bouffe_1973/'
p2022
sg13
I00
sg14
Nsg15
S'//130.60.131.134/studi/Filme/spaete_Filme/897_La_Grande_Bouffe_1973\\897_1_2_LaGrandeBouffe_1973_DVD_ELAN.eaf'
p2023
sg17
I00
sba(i__main__
Movie
p2024
(dp2025
g3
S'MorteAVenezia'
p2026
sg5
S'//130.60.131.134/studi/Filme/spaete_Filme/902_MorteAVenezia_1971/'
p2027
sg7
(lp2028
S'//130.60.131.134/studi/Filme/spaete_Filme/902_MorteAVenezia_1971\\902_1_1_MorteAVenezia_1971_DVD_ELAN_BF.txt'
p2029
asg9
(lp2030
I902
aI1
aI1
asg11
S'spaete_Filme/902_MorteAVenezia_1971/'
p2031
sg13
I00
sg14
Nsg15
S'//130.60.131.134/studi/Filme/spaete_Filme/902_MorteAVenezia_1971\\902_1_1_MorteAVenezia_1971_DVD_ELAN_BF.eaf'
p2032
sg17
I00
sba(i__main__
Movie
p2033
(dp2034
g3
S'TulitikkutehtaanTytto'
p2035
sg5
S'//130.60.131.134/studi/Filme/spaete_Filme/931_Tulitikkutehtaan_Tytto_1990/'
p2036
sg7
(lp2037
S'//130.60.131.134/studi/Filme/spaete_Filme/931_Tulitikkutehtaan_Tytto_1990\\1400_1_1_StarWarsV_1980_DVD_ELAN_export.txt'
p2038
aS'//130.60.131.134/studi/Filme/spaete_Filme/931_Tulitikkutehtaan_Tytto_1990\\931_1_1_TulitikkutehtaanTytto_1990_DVD_ELAN_export2.txt'
p2039
asg9
(lp2040
I931
aI1
aI1
asg11
S'spaete_Filme/931_Tulitikkutehtaan_Tytto_1990/'
p2041
sg13
I00
sg14
Nsg15
S'//130.60.131.134/studi/Filme/spaete_Filme/931_Tulitikkutehtaan_Tytto_1990\\931_1_1_TulitikkutehtaanTytto_1990_DVD_ELAN.eaf'
p2042
sg17
I00
sba(i__main__
Movie
p2043
(dp2044
g3
S'DodgeCity'
p2045
sg5
S'//130.60.131.134/studi/Filme/mittlere_Filme/948_Dodge_City_1939/'
p2046
sg7
(lp2047
sg9
(lp2048
I948
aI1
aI1
asg11
S'mittlere_Filme/948_Dodge_City_1939/'
p2049
sg13
I00
sg14
Nsg15
S'//130.60.131.134/studi/Filme/mittlere_Filme/948_Dodge_City_1939\\948_1_1_DodgeCity_1939_DVD_ELAN.eaf'
p2050
sg17
I00
sba(i__main__
Movie
p2051
(dp2052
g3
S'ParisOnParade'
p2053
sg5
S'//130.60.131.134/studi/Filme/mittlere_Filme/959_Paris_on_Parade_1938/'
p2054
sg7
(lp2055
S'//130.60.131.134/studi/Filme/mittlere_Filme/959_Paris_on_Parade_1938\\959_1_1_ParisOnParade_1938_DVD_ELAN.txt'
p2056
asg9
(lp2057
I959
aI1
aI1
asg11
S'mittlere_Filme/959_Paris_on_Parade_1938/'
p2058
sg13
I00
sg14
Nsg15
S'//130.60.131.134/studi/Filme/mittlere_Filme/959_Paris_on_Parade_1938\\959_1_1_ParisOnParade_1938_DVD_ELAN.eaf'
p2059
sg17
I00
sba(i__main__
Movie
p2060
(dp2061
g3
S'MysteryOfTheWaxMuseum'
p2062
sg5
S'//130.60.131.134/studi/Filme/frueher_Film/1018_Mystery_Of_The_Wax_Museum_1933/'
p2063
sg7
(lp2064
sg9
(lp2065
I1018
aI1
aI1
asg11
S'frueher_Film/1018_Mystery_Of_The_Wax_Museum_1933/'
p2066
sg13
I01
sg14
Nsg15
S'//130.60.131.134/studi/Filme/frueher_Film/1018_Mystery_Of_The_Wax_Museum_1933\\1018_1_1_MysteryOfTheWaxMuseum_1933_DVD_Elan.eaf'
p2067
sg17
I00
sba(i__main__
Movie
p2068
(dp2069
g3
S'YolandaAndTheThief'
p2070
sg5
S'//130.60.131.134/studi/Filme/mittlere_Filme/1038_Yolanda_and_the_Thief_1945/'
p2071
sg7
(lp2072
S'//130.60.131.134/studi/Filme/mittlere_Filme/1038_Yolanda_and_the_Thief_1945\\1038_1_1_YolandaAndTheThief_1945_DVD_ELAN.txt'
p2073
asg9
(lp2074
I1038
aI1
aI1
asg11
S'mittlere_Filme/1038_Yolanda_and_the_Thief_1945/'
p2075
sg13
I01
sg14
Nsg15
S'//130.60.131.134/studi/Filme/mittlere_Filme/1038_Yolanda_and_the_Thief_1945\\1038_1_1_YolandaAndTheThief_1945_DVD_ELAN.eaf'
p2076
sg17
I00
sba(i__main__
Movie
p2077
(dp2078
g3
S'HellsAngels'
p2079
sg5
S'//130.60.131.134/studi/Filme/frueher_Film/1062_Hells_Angels_1930/'
p2080
sg7
(lp2081
sg9
(lp2082
I1062
aI1
aI3
asg11
S'frueher_Film/1062_Hells_Angels_1930/'
p2083
sg13
I01
sg14
Nsg15
S'//130.60.131.134/studi/Filme/frueher_Film/1062_Hells_Angels_1930\\1062_1_3_HellsAngels_1930_DVD_ELAN.eaf'
p2084
sg17
I00
sba(i__main__
Movie
p2085
(dp2086
g3
S'K\xf6rkarlen'
p2087
sg5
S'//130.60.131.134/studi/Filme/frueher_Film/1081_K\xf6rkarlen_1921/'
p2088
sg7
(lp2089
sg9
(lp2090
I1081
aI1
aI1
asg11
S'frueher_Film/1081_K\xf6rkarlen_1921/'
p2091
sg13
I01
sg14
Nsg15
S'//130.60.131.134/studi/Filme/frueher_Film/1081_K\xf6rkarlen_1921\\1081_1_1_K\xf6rkarlen_1921_DVD_ELAN.eaf'
p2092
sg17
I00
sba(i__main__
Movie
p2093
(dp2094
g3
S'NightAndDay'
p2095
sg5
S'//130.60.131.134/studi/Filme/mittlere_Filme/1110_Night_and_Day_1946/'
p2096
sg7
(lp2097
sg9
(lp2098
I1110
aI1
aI1
asg11
S'mittlere_Filme/1110_Night_and_Day_1946/'
p2099
sg13
I01
sg14
Nsg15
S'//130.60.131.134/studi/Filme/mittlere_Filme/1110_Night_and_Day_1946\\1110_1_1_NightAndDay_1946_DVD_ELAN.eaf'
p2100
sg17
I00
sba(i__main__
Movie
p2101
(dp2102
g3
S'ThePiano'
p2103
sg5
S'//130.60.131.134/studi/Filme/spaete_Filme/1142_The_Piano_1993/'
p2104
sg7
(lp2105
sg9
(lp2106
I1142
aI1
aI1
asg11
S'spaete_Filme/1142_The_Piano_1993/'
p2107
sg13
I01
sg14
Nsg15
S'//130.60.131.134/studi/Filme/spaete_Filme/1142_The_Piano_1993\\1142_1_1_ThePiano_1993_DVD_ELAN.eaf'
p2108
sg17
I00
sba(i__main__
Movie
p2109
(dp2110
g3
S'ImmerBereit'
p2111
sg5
S'//130.60.131.134/studi/Filme/mittlere_Filme/1169_Immer_bereit_1950/'
p2112
sg7
(lp2113
S'//130.60.131.134/studi/Filme/mittlere_Filme/1169_Immer_bereit_1950\\1169_1_1_ImmerBereit_1950_DVD_ELAN.txt'
p2114
asg9
(lp2115
I1169
aI1
aI1
asg11
S'mittlere_Filme/1169_Immer_bereit_1950/'
p2116
sg13
I00
sg14
Nsg15
S'//130.60.131.134/studi/Filme/mittlere_Filme/1169_Immer_bereit_1950\\1169_1_1_ImmerBereit_1950_DVD_ELAN.eaf'
p2117
sg17
I00
sba(i__main__
Movie
p2118
(dp2119
g3
S'TeethOfSteel'
p2120
sg5
S'//130.60.131.134/studi/Filme/mittlere_Filme/1213_Teeth_of_Steel_1942/'
p2121
sg7
(lp2122
S'//130.60.131.134/studi/Filme/mittlere_Filme/1213_Teeth_of_Steel_1942\\1213_1_1_TeethOfSteel_1942_DVD_ELAN.txt'
p2123
asg9
(lp2124
I1213
aI1
aI1
asg11
S'mittlere_Filme/1213_Teeth_of_Steel_1942/'
p2125
sg13
I00
sg14
Nsg15
S'//130.60.131.134/studi/Filme/mittlere_Filme/1213_Teeth_of_Steel_1942\\1213_1_1_TeethOfSteel_1942_DVD_ELAN.eaf'
p2126
sg17
I00
sba(i__main__
Movie
p2127
(dp2128
g3
S'TheCoronationOfTheirMajestiesKingGeorgeVIAndQueenElizabeth'
p2129
sg5
S'//130.60.131.134/studi/Filme/mittlere_Filme/1230_The_Coronation_of_Their_Majesties_King_George_VI_and_Queen_Elizabeth_1937/'
p2130
sg7
(lp2131
S'//130.60.131.134/studi/Filme/mittlere_Filme/1230_The_Coronation_of_Their_Majesties_King_George_VI_and_Queen_Elizabeth_1937\\1230_1_1_TheCoronationOfTheirMajestiesKingGeorgeVIAndQueenElizabeth_1937_DVD_ELAN.txt'
p2132
asg9
(lp2133
I1230
aI1
aI1
asg11
S'mittlere_Filme/1230_The_Coronation_of_Their_Majesties_King_George_VI_and_Queen_Elizabeth_1937/'
p2134
sg13
I00
sg14
Nsg15
S'//130.60.131.134/studi/Filme/mittlere_Filme/1230_The_Coronation_of_Their_Majesties_King_George_VI_and_Queen_Elizabeth_1937\\1230_1_1_TheCoronationOfTheirMajestiesKingGeorgeVIAndQueenElizabeth_1937_DVD_ELAN.eaf'
p2135
sg17
I00
sba(i__main__
Movie
p2136
(dp2137
g3
S'TheGodfather'
p2138
sg5
S'//130.60.131.134/studi/Filme/spaete_Filme/1242_The_Godfather_1972/'
p2139
sg7
(lp2140
S'//130.60.131.134/studi/Filme/spaete_Filme/1242_The_Godfather_1972\\1242_1_1_TheGodfather_1972_DVD_ELAN.txt'
p2141
asg9
(lp2142
I1242
aI1
aI1
asg11
S'spaete_Filme/1242_The_Godfather_1972/'
p2143
sg13
I01
sg14
Nsg15
S'//130.60.131.134/studi/Filme/spaete_Filme/1242_The_Godfather_1972\\ELAN Projektdatei\\1242_1_1_TheGodfather_1972_DVD_ELAN.eaf'
p2144
sg17
I00
sba(i__main__
Movie
p2145
(dp2146
g3
S'TheRiver'
p2147
sg5
S'//130.60.131.134/studi/Filme/mittlere_Filme/1278_The_River_1951/'
p2148
sg7
(lp2149
S'//130.60.131.134/studi/Filme/mittlere_Filme/1278_The_River_1951\\1278_1_1_TheRiver_1951_DVD_ELAN.txt'
p2150
asg9
(lp2151
I1278
aI1
aI1
asg11
S'mittlere_Filme/1278_The_River_1951/'
p2152
sg13
I00
sg14
Nsg15
S'//130.60.131.134/studi/Filme/mittlere_Filme/1278_The_River_1951\\1278_1_1_TheRiver_1951_DVD_ELAN.eaf'
p2153
sg17
I00
sba(i__main__
Movie
p2154
(dp2155
g3
S'TheLivingDaylights'
p2156
sg5
S'//130.60.131.134/studi/Filme/spaete_Filme/1296_The_Living_Daylights_1987/'
p2157
sg7
(lp2158
S'//130.60.131.134/studi/Filme/spaete_Filme/1296_The_Living_Daylights_1987\\1296_1_1_TheLivingDaylights_1987_DVD_ELAN.txt'
p2159
asg9
(lp2160
I1296
aI1
aI1
asg11
S'spaete_Filme/1296_The_Living_Daylights_1987/'
p2161
sg13
I00
sg14
Nsg15
S'//130.60.131.134/studi/Filme/spaete_Filme/1296_The_Living_Daylights_1987\\ELAN Projektdatei\\1296_1_1_TheLivingDaylights_1987_DVD_ELAN.eaf'
p2162
sg17
I00
sba(i__main__
Movie
p2163
(dp2164
g3
S'Aliens'
p2165
sg5
S'//130.60.131.134/studi/Filme/spaete_Filme/1307_Aliens_1986/'
p2166
sg7
(lp2167
S'//130.60.131.134/studi/Filme/spaete_Filme/1307_Aliens_1986\\1307_1_1_Aliens_1986_DVD_ELAN.txt'
p2168
asg9
(lp2169
I1307
aI1
aI1
asg11
S'spaete_Filme/1307_Aliens_1986/'
p2170
sg13
I00
sg14
Nsg15
S'//130.60.131.134/studi/Filme/spaete_Filme/1307_Aliens_1986\\ELAN Projektdatei\\1307_1_1_Aliens_1986_DVD_ELAN.eaf'
p2171
sg17
I00
sba(i__main__
Movie
p2172
(dp2173
g3
S'Batman'
p2174
sg5
S'//130.60.131.134/studi/Filme/spaete_Filme/1318_Batman_1989/'
p2175
sg7
(lp2176
S'//130.60.131.134/studi/Filme/spaete_Filme/1318_Batman_1989\\1318_1_1_Batman_1989_DVD_ELAN.txt'
p2177
asg9
(lp2178
I1318
aI1
aI1
asg11
S'spaete_Filme/1318_Batman_1989/'
p2179
sg13
I00
sg14
Nsg15
S'//130.60.131.134/studi/Filme/spaete_Filme/1318_Batman_1989\\ELAN Projektdatei\\1318_1_1_Batman_1989_DVD_ELAN.eaf'
p2180
sg17
I00
sba(i__main__
Movie
p2181
(dp2182
g3
S'OutOfAfrica'
p2183
sg5
S'//130.60.131.134/studi/Filme/spaete_Filme/1381_Out_Of_Africa_1985/'
p2184
sg7
(lp2185
S'//130.60.131.134/studi/Filme/spaete_Filme/1381_Out_Of_Africa_1985\\1381_1_1_OutOfAfrica_1985_DVD_ELAN.txt'
p2186
asg9
(lp2187
I1381
aI1
aI1
asg11
S'spaete_Filme/1381_Out_Of_Africa_1985/'
p2188
sg13
I00
sg14
Nsg15
S'//130.60.131.134/studi/Filme/spaete_Filme/1381_Out_Of_Africa_1985\\ELAN Projektdatei\\1381_1_1_OutOfAfrica_1985_DVD_ELAN.eaf'
p2189
sg17
I00
sba(i__main__
Movie
p2190
(dp2191
g3
S'StarWarsV'
p2192
sg5
S'//130.60.131.134/studi/Filme/spaete_Filme/1400_Star_Wars_V_1980/'
p2193
sg7
(lp2194
sg9
(lp2195
I1400
aI1
aI1
asg11
S'spaete_Filme/1400_Star_Wars_V_1980/'
p2196
sg13
I01
sg14
Nsg15
S'//130.60.131.134/studi/Filme/spaete_Filme/1400_Star_Wars_V_1980\\1400_1_1_StarWarsV_1980_DVD_ELAN.eaf'
p2197
sg17
I00
sba(i__main__
Movie
p2198
(dp2199
g3
S'TheFrenchConnection'
p2200
sg5
S'//130.60.131.134/studi/Filme/spaete_Filme/1408_The_French_Connection_1971/'
p2201
sg7
(lp2202
S'//130.60.131.134/studi/Filme/spaete_Filme/1408_The_French_Connection_1971\\1408_1_1_TheFrenchConnection_1971_DVD_ELAN_export.txt'
p2203
aS'//130.60.131.134/studi/Filme/spaete_Filme/1408_The_French_Connection_1971\\1510_1_1_DasBoot_1981_DVD_ELAN_export.txt'
p2204
asg9
(lp2205
I1408
aI1
aI1
asg11
S'spaete_Filme/1408_The_French_Connection_1971/'
p2206
sg13
I01
sg14
Nsg15
S'//130.60.131.134/studi/Filme/spaete_Filme/1408_The_French_Connection_1971\\1408_1_1_TheFrenchConnection_1971_DVD_ELAN.eaf'
p2207
sg17
I00
sba(i__main__
Movie
p2208
(dp2209
g3
S'Brigadoon'
p2210
sg5
S'//130.60.131.134/studi/Filme/mittlere_Filme/1475_Brigadoon_1954/'
p2211
sg7
(lp2212
S'//130.60.131.134/studi/Filme/mittlere_Filme/1475_Brigadoon_1954\\1475_1_1_Brigadoon_1954_DVD_ELAN.txt'
p2213
asg9
(lp2214
I1475
aI1
aI1
asg11
S'mittlere_Filme/1475_Brigadoon_1954/'
p2215
sg13
I00
sg14
Nsg15
S'//130.60.131.134/studi/Filme/mittlere_Filme/1475_Brigadoon_1954\\1475_1_1_Brigadoon_1954_DVD_ELAN.eaf'
p2216
sg17
I00
sba(i__main__
Movie
p2217
(dp2218
g3
S'DasBoot'
p2219
sg5
S'//130.60.131.134/studi/Filme/spaete_Filme/1510_Das_Boot_1981/'
p2220
sg7
(lp2221
S'//130.60.131.134/studi/Filme/spaete_Filme/1510_Das_Boot_1981\\1510_1_1_DasBoot_1981_DVD_ELAN_export.txt'
p2222
aS'//130.60.131.134/studi/Filme/spaete_Filme/1510_Das_Boot_1981\\1510_1_1_DasBoot_1981_DVD_ELAN_export.csv'
p2223
aS'//130.60.131.134/studi/Filme/spaete_Filme/1510_Das_Boot_1981\\1510_1_1_DasBoot_1981_DVD_FCT_snapchots.csv'
p2224
aS'//130.60.131.134/studi/Filme/spaete_Filme/1510_Das_Boot_1981\\1510_1_1_DasBoot_1981_DVD_FCT_temp.csv'
p2225
asg9
(lp2226
I1510
aI1
aI1
asg11
S'spaete_Filme/1510_Das_Boot_1981/'
p2227
sg13
I01
sg14
Nsg15
S'//130.60.131.134/studi/Filme/spaete_Filme/1510_Das_Boot_1981\\1510_1_1_DasBoot_1981_DVD_ELAN.eaf'
p2228
sg17
I00
sba(i__main__
Movie
p2229
(dp2230
g3
S'DaysOfHeaven'
p2231
sg5
S'//130.60.131.134/studi/Filme/spaete_Filme/1517_Days_of_Heaven_1978/'
p2232
sg7
(lp2233
S'//130.60.131.134/studi/Filme/spaete_Filme/1517_Days_of_Heaven_1978\\1517_1_1_DaysOfHeaven_1978_DVD_ELAN.txt'
p2234
asg9
(lp2235
I1517
aI1
aI1
asg11
S'spaete_Filme/1517_Days_of_Heaven_1978/'
p2236
sg13
I00
sg14
Nsg15
S'//130.60.131.134/studi/Filme/spaete_Filme/1517_Days_of_Heaven_1978\\ELAN Projektdatei\\1517_1_1_DaysOfHeaven_1978_DVD_ELAN.eaf'
p2237
sg17
I00
sba(i__main__
Movie
p2238
(dp2239
g3
S'DickTracy'
p2240
sg5
S'//130.60.131.134/studi/Filme/spaete_Filme/1535_Dick_Tracy_1990/'
p2241
sg7
(lp2242
S'//130.60.131.134/studi/Filme/spaete_Filme/1535_Dick_Tracy_1990\\1535_1_1_DickTracy_1990_DVD_ELAN_2.txt'
p2243
asg9
(lp2244
I1535
aI1
aI1
asg11
S'spaete_Filme/1535_Dick_Tracy_1990/'
p2245
sg13
I01
sg14
Nsg15
S'//130.60.131.134/studi/Filme/spaete_Filme/1535_Dick_Tracy_1990\\1535_1_1_DickTracy_1990_DVD_ELAN.eaf'
p2246
sg17
I00
sba(i__main__
Movie
p2247
(dp2248
g3
S'DieEheDerMariaBraun'
p2249
sg5
S'//130.60.131.134/studi/Filme/spaete_Filme/1537_Die_Ehe_Der_Maria_Braun_1979/'
p2250
sg7
(lp2251
S'//130.60.131.134/studi/Filme/spaete_Filme/1537_Die_Ehe_Der_Maria_Braun_1979\\1537_1_1_DieEheDerMariaBraun_1979_DVD_ELAN_export.txt'
p2252
asg9
(lp2253
I1537
aI1
aI1
asg11
S'spaete_Filme/1537_Die_Ehe_Der_Maria_Braun_1979/'
p2254
sg13
I00
sg14
Nsg15
S'//130.60.131.134/studi/Filme/spaete_Filme/1537_Die_Ehe_Der_Maria_Braun_1979\\1537_1_1_DieEheDerMariaBraun_1979_DVD_ELAN.eaf'
p2255
sg17
I00
sba(i__main__
Movie
p2256
(dp2257
g3
S'Eolomea'
p2258
sg5
S'//130.60.131.134/studi/Filme/spaete_Filme/1563_Eolomea_1972/'
p2259
sg7
(lp2260
S'//130.60.131.134/studi/Filme/spaete_Filme/1563_Eolomea_1972\\1563_1_1_Eolomea_1972_DVD_ELAN.txt'
p2261
asg9
(lp2262
I1563
aI1
aI1
asg11
S'spaete_Filme/1563_Eolomea_1972/'
p2263
sg13
I01
sg14
Nsg15
S'//130.60.131.134/studi/Filme/spaete_Filme/1563_Eolomea_1972\\ELAN Projektdatei\\1563_1_1_Eolomea_1972_DVD_ELAN.eaf'
p2264
sg17
I00
sba(i__main__
Movie
p2265
(dp2266
g3
S'Flashdance'
p2267
sg5
S'//130.60.131.134/studi/Filme/spaete_Filme/1574_Flashdance_1983/'
p2268
sg7
(lp2269
S'//130.60.131.134/studi/Filme/spaete_Filme/1574_Flashdance_1983\\1574_1_1_Flashdance_1983_DVD_ELAN.txt'
p2270
asg9
(lp2271
I1574
aI1
aI1
asg11
S'spaete_Filme/1574_Flashdance_1983/'
p2272
sg13
I00
sg14
Nsg15
S'//130.60.131.134/studi/Filme/spaete_Filme/1574_Flashdance_1983\\ELAN Projektdatei\\1574_1_1_Flashdance_1983_DVD_ELAN.eaf'
p2273
sg17
I00
sba(i__main__
Movie
p2274
(dp2275
g3
S'LaDoubleVieDeVeronique'
p2276
sg5
S'//130.60.131.134/studi/Filme/spaete_Filme/1654_La_double_vie_de_Veronique_1991/'
p2277
sg7
(lp2278
S'//130.60.131.134/studi/Filme/spaete_Filme/1654_La_double_vie_de_Veronique_1991\\1654_1_1_LaDoubleVieDeVeronique_1991_DVD_ELAN.txt'
p2279
asg9
(lp2280
I1654
aI1
aI1
asg11
S'spaete_Filme/1654_La_double_vie_de_Veronique_1991/'
p2281
sg13
I00
sg14
Nsg15
S'//130.60.131.134/studi/Filme/spaete_Filme/1654_La_double_vie_de_Veronique_1991\\ELAN Projektdatei\\1654_1_1_LaDoubleVieDeVeronique_1991_DVD_ELAN.eaf'
p2282
sg17
I00
sba(i__main__
Movie
p2283
(dp2284
g3
S'LeDernierMetro'
p2285
sg5
S'//130.60.131.134/studi/Filme/spaete_Filme/1669_Le_Dernier_Metro_1980/'
p2286
sg7
(lp2287
S'//130.60.131.134/studi/Filme/spaete_Filme/1669_Le_Dernier_Metro_1980\\1669_1_1_LeDernierMetro_1980_DVD_ELAN_export.txt'
p2288
asg9
(lp2289
I1669
aI1
aI1
asg11
S'spaete_Filme/1669_Le_Dernier_Metro_1980/'
p2290
sg13
I01
sg14
Nsg15
S'//130.60.131.134/studi/Filme/spaete_Filme/1669_Le_Dernier_Metro_1980\\1669_1_1_LeDernierMetro_1980_DVD_ELAN.eaf'
p2291
sg17
I00
sba(i__main__
Movie
p2292
(dp2293
g3
S'CeraUnaVoltaIlWest'
p2294
sg5
S'//130.60.131.134/studi/Filme/spaete_Filme/1746_Cera_Una_Volta_Il_West_1968/'
p2295
sg7
(lp2296
S'//130.60.131.134/studi/Filme/spaete_Filme/1746_Cera_Una_Volta_Il_West_1968\\1746_1_1_CeraUnaVoltaIlWest_1968_DVD_ELAN_export.txt'
p2297
asg9
(lp2298
I1746
aI1
aI1
asg11
S'spaete_Filme/1746_Cera_Una_Volta_Il_West_1968/'
p2299
sg13
I01
sg14
Nsg15
S'//130.60.131.134/studi/Filme/spaete_Filme/1746_Cera_Una_Volta_Il_West_1968\\1746_1_1_CeraUnaVoltaIlWest_1968_DVD_ELAN.eaf'
p2300
sg17
I00
sba(i__main__
Movie
p2301
(dp2302
g3
S'Ran'
p2303
sg5
S'//130.60.131.134/studi/Filme/spaete_Filme/1774_Ran_1985/'
p2304
sg7
(lp2305
S'//130.60.131.134/studi/Filme/spaete_Filme/1774_Ran_1985\\1774_1_1_Ran_1985_DVD_ELAN_export.txt'
p2306
asg9
(lp2307
I1774
aI1
aI1
asg11
S'spaete_Filme/1774_Ran_1985/'
p2308
sg13
I01
sg14
Nsg15
S'//130.60.131.134/studi/Filme/spaete_Filme/1774_Ran_1985\\1774_1_1_Ran_1985_DVD_ELAN.eaf'
p2309
sg17
I00
sba(i__main__
Movie
p2310
(dp2311
g3
S'TheLastEmperor'
p2312
sg5
S'//130.60.131.134/studi/Filme/spaete_Filme/1860_The_Last_Emperor_1987/'
p2313
sg7
(lp2314
S'//130.60.131.134/studi/Filme/spaete_Filme/1860_The_Last_Emperor_1987\\1860_1_1_TheLastEmperor_1987_BluRay_ELAN.txt'
p2315
asg9
(lp2316
I1860
aI1
aI1
asg11
S'spaete_Filme/1860_The_Last_Emperor_1987/'
p2317
sg13
I01
sg14
Nsg15
S'//130.60.131.134/studi/Filme/spaete_Filme/1860_The_Last_Emperor_1987\\ELAN Projektdatei\\1860_1_1_TheLastEmperor_1987_BluRay_ELAN.eaf'
p2318
sg17
I00
sba(i__main__
Movie
p2319
(dp2320
g3
S'TheLongLongTrailer'
p2321
sg5
S'//130.60.131.134/studi/Filme/mittlere_Filme/1866_The_Long_Long_Trailer_1953/'
p2322
sg7
(lp2323
S'//130.60.131.134/studi/Filme/mittlere_Filme/1866_The_Long_Long_Trailer_1953\\1866_1_1_TheLongLongTrailer_1953_DVD_ELAN.txt'
p2324
asg9
(lp2325
I1866
aI1
aI1
asg11
S'mittlere_Filme/1866_The_Long_Long_Trailer_1953/'
p2326
sg13
I01
sg14
Nsg15
S'//130.60.131.134/studi/Filme/mittlere_Filme/1866_The_Long_Long_Trailer_1953\\1866_1_1_TheLongLongTrailer_1953_DVD_ELAN.eaf'
p2327
sg17
I00
sba(i__main__
Movie
p2328
(dp2329
g3
S'TheManWhoFellToEarth'
p2330
sg5
S'//130.60.131.134/studi/Filme/spaete_Filme/1868_The_Man_Who_Fell_To_Earth_1976/'
p2331
sg7
(lp2332
S'//130.60.131.134/studi/Filme/spaete_Filme/1868_The_Man_Who_Fell_To_Earth_1976\\1868_1_1_TheManWhoFellToEarth_1976_DVD_ELAN_export.txt'
p2333
asg9
(lp2334
I1868
aI1
aI1
asg11
S'spaete_Filme/1868_The_Man_Who_Fell_To_Earth_1976/'
p2335
sg13
I01
sg14
Nsg15
S'//130.60.131.134/studi/Filme/spaete_Filme/1868_The_Man_Who_Fell_To_Earth_1976\\1868_1_1_TheManWhoFellToEarth_1976_DVD_ELAN.eaf'
p2336
sg17
I00
sba(i__main__
Movie
p2337
(dp2338
g3
S'SilenceLambs'
p2339
sg5
S'//130.60.131.134/studi/Filme/spaete_Filme/1880_SilenceLambs_1991/'
p2340
sg7
(lp2341
sg9
(lp2342
I1880
aI1
aI1
asg11
S'spaete_Filme/1880_SilenceLambs_1991/'
p2343
sg13
I01
sg14
Nsg15
S'//130.60.131.134/studi/Filme/spaete_Filme/1880_SilenceLambs_1991\\1880_1_1_SilenceLambs_1991_DVD_ELAN.eaf'
p2344
sg17
I00
sba(i__main__
Movie
p2345
(dp2346
g3
S'UnaGiornataParticolare'
p2347
sg5
S'//130.60.131.134/studi/Filme/spaete_Filme/1908_UnaGiornataParticolare_1977/'
p2348
sg7
(lp2349
sg9
(lp2350
I1908
aI1
aI1
asg11
S'spaete_Filme/1908_UnaGiornataParticolare_1977/'
p2351
sg13
I01
sg14
Nsg15
S'//130.60.131.134/studi/Filme/spaete_Filme/1908_UnaGiornataParticolare_1977\\1908_1_1_UnaGiornataParticolare_1977.eaf'
p2352
sg17
I00
sba(i__main__
Movie
p2353
(dp2354
g3
S'THX1138'
p2355
sg5
S'//130.60.131.134/studi/Filme/spaete_Filme/1976_THX_1138_1971/'
p2356
sg7
(lp2357
S'//130.60.131.134/studi/Filme/spaete_Filme/1976_THX_1138_1971\\1976_1_1_THX1138_1971_DVD_ELAN_export.txt'
p2358
asg9
(lp2359
I1976
aI1
aI1
asg11
S'spaete_Filme/1976_THX_1138_1971/'
p2360
sg13
I01
sg14
Nsg15
S'//130.60.131.134/studi/Filme/spaete_Filme/1976_THX_1138_1971\\1976_1_1_THX1138_1971_DVD_ELAN.eaf'
p2361
sg17
I00
sba(i__main__
Movie
p2362
(dp2363
g3
S'ImBad'
p2364
sg5
S'//130.60.131.134/studi/Filme/frueher_Film/2020_Im_Bad_1917/'
p2365
sg7
(lp2366
S'//130.60.131.134/studi/Filme/frueher_Film/2020_Im_Bad_1917\\2020_1_3_ImBad_1917_ELAN.txt'
p2367
asg9
(lp2368
I2020
aI1
aI3
asg11
S'frueher_Film/2020_Im_Bad_1917/'
p2369
sg13
I00
sg14
Nsg15
S'//130.60.131.134/studi/Filme/frueher_Film/2020_Im_Bad_1917\\2020_1_3_ImBad_1917_ELAN.eaf'
p2370
sg17
I00
sba(i__main__
Movie
p2371
(dp2372
g3
S'ImWeissenRoessl'
p2373
sg5
S'//130.60.131.134/studi/Filme/mittlere_Filme/2564_Im_Weissen_Roessl_1952/'
p2374
sg7
(lp2375
S'//130.60.131.134/studi/Filme/mittlere_Filme/2564_Im_Weissen_Roessl_1952\\2564_1_1_ImWeissenRoessl_1952_DVD_ELAN.txt'
p2376
asg9
(lp2377
I2564
aI1
aI1
asg11
S'mittlere_Filme/2564_Im_Weissen_Roessl_1952/'
p2378
sg13
I01
sg14
Nsg15
S'//130.60.131.134/studi/Filme/mittlere_Filme/2564_Im_Weissen_Roessl_1952\\2564_1_1_ImWeissenRoessl_1952_DVD_ELAN.eaf'
p2379
sg17
I00
sba(i__main__
Movie
p2380
(dp2381
g3
S'SignaleEinWeltraumabenteuer'
p2382
sg5
S'//130.60.131.134/studi/Filme/spaete_Filme/2887_Signale_Ein_Weltraumabenteuer_1970/'
p2383
sg7
(lp2384
S'//130.60.131.134/studi/Filme/spaete_Filme/2887_Signale_Ein_Weltraumabenteuer_1970\\2887_1_1_SignaleEinWeltraumabenteuer_1970_DVD_ELAN_export.txt'
p2385
asg9
(lp2386
I2887
aI1
aI1
asg11
S'spaete_Filme/2887_Signale_Ein_Weltraumabenteuer_1970/'
p2387
sg13
I01
sg14
Nsg15
S'//130.60.131.134/studi/Filme/spaete_Filme/2887_Signale_Ein_Weltraumabenteuer_1970\\2887_1_1_SignaleEinWeltraumabenteuer_1970_DVD_ELAN.eaf'
p2388
sg17
I00
sba(i__main__
Movie
p2389
(dp2390
g3
S'Wagon'
p2391
sg5
S'//130.60.131.134/studi/Filme/frueher_Film/3076_Wagon_Tracks_1919/'
p2392
sg7
(lp2393
sg9
(lp2394
I3076
aI1
aI1
asg11
S'frueher_Film/3076_Wagon_Tracks_1919/'
p2395
sg13
I01
sg14
Nsg15
S'//130.60.131.134/studi/Filme/frueher_Film/3076_Wagon_Tracks_1919\\3076_1_1_Wagon_Tracks_1919_DVD_ELAN.eaf'
p2396
sg17
I00
sba(i__main__
Movie
p2397
(dp2398
g3
S'ModestyBlaise'
p2399
sg5
S'//130.60.131.134/studi/Filme/spaete_Filme/3085_Modesty_Blaise_1965/'
p2400
sg7
(lp2401
S'//130.60.131.134/studi/Filme/spaete_Filme/3085_Modesty_Blaise_1965\\3085_1_1_ModestyBlaise_1965_DVD_ELAN_BF.txt'
p2402
asg9
(lp2403
I3085
aI1
aI1
asg11
S'spaete_Filme/3085_Modesty_Blaise_1965/'
p2404
sg13
I00
sg14
Nsg15
S'//130.60.131.134/studi/Filme/spaete_Filme/3085_Modesty_Blaise_1965\\3085_1_1_ModestyBlaise_1965_DVD_ELAN_BF.eaf'
p2405
sg17
I00
sba(i__main__
Movie
p2406
(dp2407
g3
S'Frenzy'
p2408
sg5
S'//130.60.131.134/studi/Filme/spaete_Filme/3093_Frenzy_1972/'
p2409
sg7
(lp2410
sg9
(lp2411
I3093
aI1
aI1
asg11
S'spaete_Filme/3093_Frenzy_1972/'
p2412
sg13
I01
sg14
Nsg15
S'//130.60.131.134/studi/Filme/spaete_Filme/3093_Frenzy_1972\\3093_1_1_Frenzy_1972_DVD_ELAN.eaf'
p2413
sg17
I00
sba(i__main__
Movie
p2414
(dp2415
g3
S'LaPeineDuTalion'
p2416
sg5
S'//130.60.131.134/studi/Filme/frueher_Film/3099_La_Peine_Du_Talion_1906/'
p2417
sg7
(lp2418
sg9
(lp2419
I3099
aI1
aI1
asg11
S'frueher_Film/3099_La_Peine_Du_Talion_1906/'
p2420
sg13
I01
sg14
Nsg15
S'//130.60.131.134/studi/Filme/frueher_Film/3099_La_Peine_Du_Talion_1906\\3099_1_1_LaPeineDuTalion_1906_DVD_Elan.eaf'
p2421
sg17
I00
sba(i__main__
Movie
p2422
(dp2423
g3
S'KyuketsukiGokemidoro'
p2424
sg5
S'//130.60.131.134/studi/Filme/spaete_Filme/3100_Kyuketsuki_Gokemidoro_1968/'
p2425
sg7
(lp2426
S'//130.60.131.134/studi/Filme/spaete_Filme/3100_Kyuketsuki_Gokemidoro_1968\\3100_1_1_KyuketsukiGokemidoro_1968_DVD_ELAN_export.txt'
p2427
asg9
(lp2428
I3100
aI1
aI1
asg11
S'spaete_Filme/3100_Kyuketsuki_Gokemidoro_1968/'
p2429
sg13
I01
sg14
Nsg15
S'//130.60.131.134/studi/Filme/spaete_Filme/3100_Kyuketsuki_Gokemidoro_1968\\3100_1_1_KyuketsukiGokemidoro_1968_DVD_ELAN.eaf'
p2430
sg17
I00
sba(i__main__
Movie
p2431
(dp2432
g3
S'KnochuDaisenso'
p2433
sg5
S'//130.60.131.134/studi/Filme/spaete_Filme/3101_Knochu_daisenso_1968/'
p2434
sg7
(lp2435
S'//130.60.131.134/studi/Filme/spaete_Filme/3101_Knochu_daisenso_1968\\3101_1_1_KnochuDaisenso_1968_DVD_ELAN_export.txt'
p2436
asg9
(lp2437
I3101
aI1
aI1
asg11
S'spaete_Filme/3101_Knochu_daisenso_1968/'
p2438
sg13
I01
sg14
Nsg15
S'//130.60.131.134/studi/Filme/spaete_Filme/3101_Knochu_daisenso_1968\\3101_1_1_KnochuDaisenso_1968_DVD_ELAN.eaf'
p2439
sg17
I00
sba(i__main__
Movie
p2440
(dp2441
g3
S'DerWegzudenSternen'
p2442
sg5
S'//130.60.131.134/studi/Filme/spaete_Filme/3102_DerWegzudenSternen_1957/'
p2443
sg7
(lp2444
S'//130.60.131.134/studi/Filme/spaete_Filme/3102_DerWegzudenSternen_1957\\3102_1_1_DerWegzudenSternen_1957_DVD_ELAN_export.txt'
p2445
asg9
(lp2446
I3102
aI1
aI1
asg11
S'spaete_Filme/3102_DerWegzudenSternen_1957/'
p2447
sg13
I01
sg14
Nsg15
S'//130.60.131.134/studi/Filme/spaete_Filme/3102_DerWegzudenSternen_1957\\3102_1_1_DerWegzudenSternen_1957_DVD_ELAN.eaf'
p2448
sg17
I00
sba(i__main__
Movie
p2449
(dp2450
g3
S'DasWachsfigurenkabinett'
p2451
sg5
S'//130.60.131.134/studi/Filme/frueher_Film/3104_Das_Wachsfigurenkabinett_1923/'
p2452
sg7
(lp2453
sg9
(lp2454
I3104
aI1
aI1
asg11
S'frueher_Film/3104_Das_Wachsfigurenkabinett_1923/'
p2455
sg13
I01
sg14
Nsg15
S'//130.60.131.134/studi/Filme/frueher_Film/3104_Das_Wachsfigurenkabinett_1923\\3104_1_1_DasWachsfigurenkabinett_1923_DVD_Elan.eaf'
p2456
sg17
I00
sba(i__main__
Movie
p2457
(dp2458
g3
S'PosleSmerti'
p2459
sg5
S'//130.60.131.134/studi/Filme/frueher_Film/3109_Posle_Smerti_1915/'
p2460
sg7
(lp2461
sg9
(lp2462
I3109
aI1
aI1
asg11
S'frueher_Film/3109_Posle_Smerti_1915/'
p2463
sg13
I01
sg14
Nsg15
S'//130.60.131.134/studi/Filme/frueher_Film/3109_Posle_Smerti_1915\\3109_1_1_PosleSmerti_1915_DVD_ELAN.eaf'
p2464
sg17
I00
sba(i__main__
Movie
p2465
(dp2466
g3
S'AliBabaEtLesQuaranteVoleurs'
p2467
sg5
S'//130.60.131.134/studi/Filme/frueher_Film/3112_Ali_Baba_et_les_Quarante_Voleurs_1902/'
p2468
sg7
(lp2469
sg9
(lp2470
I3112
aI1
aI1
asg11
S'frueher_Film/3112_Ali_Baba_et_les_Quarante_Voleurs_1902/'
p2471
sg13
I00
sg14
Nsg15
S'//130.60.131.134/studi/Filme/frueher_Film/3112_Ali_Baba_et_les_Quarante_Voleurs_1902\\3112_1_1_AliBabaEtLesQuaranteVoleurs_1902_DVD_ELAN.eaf'
p2472
sg17
I00
sba(i__main__
Movie
p2473
(dp2474
g3
S'Salome'
p2475
sg5
S'//130.60.131.134/studi/Filme/frueher_Film/3118_Salome_1922/'
p2476
sg7
(lp2477
sg9
(lp2478
I3118
aI1
aI1
asg11
S'frueher_Film/3118_Salome_1922/'
p2479
sg13
I01
sg14
Nsg15
S'//130.60.131.134/studi/Filme/frueher_Film/3118_Salome_1922\\3118_1_1_Salome_1922_DVD_ELAN.eaf'
p2480
sg17
I00
sba(i__main__
Movie
p2481
(dp2482
g3
S'TroopingTheColour'
p2483
sg5
S'//130.60.131.134/studi/Filme/mittlere_Filme/3133_Trooping_the_Colour_1937/'
p2484
sg7
(lp2485
S'//130.60.131.134/studi/Filme/mittlere_Filme/3133_Trooping_the_Colour_1937\\3133_1_1_TroopingTheColour_1937_DVD_ELAN.txt'
p2486
asg9
(lp2487
I3133
aI1
aI1
asg11
S'mittlere_Filme/3133_Trooping_the_Colour_1937/'
p2488
sg13
I00
sg14
Nsg15
S'//130.60.131.134/studi/Filme/mittlere_Filme/3133_Trooping_the_Colour_1937\\3133_1_1_TroopingTheColour_1937_DVD_ELAN.eaf'
p2489
sg17
I00
sba(i__main__
Movie
p2490
(dp2491
g3
S'OtrokiVoVselennoy'
p2492
sg5
S'//130.60.131.134/studi/Filme/spaete_Filme/3137_Otroki_Vo_Vselennoy_1975/'
p2493
sg7
(lp2494
S'//130.60.131.134/studi/Filme/spaete_Filme/3137_Otroki_Vo_Vselennoy_1975\\3137_1_1_OtrokiVoVselennoy_1975_DVD_ELAN.txt'
p2495
asg9
(lp2496
I3137
aI1
aI1
asg11
S'spaete_Filme/3137_Otroki_Vo_Vselennoy_1975/'
p2497
sg13
I00
sg14
Nsg15
S'//130.60.131.134/studi/Filme/spaete_Filme/3137_Otroki_Vo_Vselennoy_1975\\ELAN Projektdatei\\3137_1_1_OtrokiVoVselennoy_1975_DVD_ELAN.eaf'
p2498
sg17
I00
sba(i__main__
Movie
p2499
(dp2500
g3
S'TheRoyalOccasion'
p2501
sg5
S'//130.60.131.134/studi/Filme/mittlere_Filme/3139_The_Royal_Occasion_1953/'
p2502
sg7
(lp2503
S'//130.60.131.134/studi/Filme/mittlere_Filme/3139_The_Royal_Occasion_1953\\3139_1_1_TheRoyalOccasion_1953_DVD_ELAN.txt'
p2504
asg9
(lp2505
I3139
aI1
aI1
asg11
S'mittlere_Filme/3139_The_Royal_Occasion_1953/'
p2506
sg13
I00
sg14
Nsg15
S'//130.60.131.134/studi/Filme/mittlere_Filme/3139_The_Royal_Occasion_1953\\3139_1_1_TheRoyalOccasion_1953_DVD_ELAN.eaf'
p2507
sg17
I00
sba(i__main__
Movie
p2508
(dp2509
g3
S'TheShelteringSky'
p2510
sg5
S'//130.60.131.134/studi/Filme/spaete_Filme/3144_The_Sheltering_Sky_1990/'
p2511
sg7
(lp2512
S'//130.60.131.134/studi/Filme/spaete_Filme/3144_The_Sheltering_Sky_1990\\3144_1_1_TheShelteringSky_1990_DVD_ELAN_export.txt'
p2513
asg9
(lp2514
I3144
aI1
aI1
asg11
S'spaete_Filme/3144_The_Sheltering_Sky_1990/'
p2515
sg13
I01
sg14
Nsg15
S'//130.60.131.134/studi/Filme/spaete_Filme/3144_The_Sheltering_Sky_1990\\3144_1_1_TheShelteringSky_1990_DVD_ELAN.eaf'
p2516
sg17
I00
sba(i__main__
Movie
p2517
(dp2518
g3
S'TheExorcist'
p2519
sg5
S'//130.60.131.134/studi/Filme/spaete_Filme/3145_TheExorcist_1973/'
p2520
sg7
(lp2521
S'//130.60.131.134/studi/Filme/spaete_Filme/3145_TheExorcist_1973\\3145_1_1_TheExorcist_1973_DVD_ELAN.txt'
p2522
asg9
(lp2523
I3145
aI1
aI1
asg11
S'spaete_Filme/3145_TheExorcist_1973/'
p2524
sg13
I01
sg14
Nsg15
S'//130.60.131.134/studi/Filme/spaete_Filme/3145_TheExorcist_1973\\3145_1_1_TheExorcist_1973_DVD_ELAN.eaf'
p2525
sg17
I00
sba(i__main__
Movie
p2526
(dp2527
g3
S'SuperstitionAndalouse'
p2528
sg5
S'//130.60.131.134/studi/Filme/frueher_Film/3146_Superstition_Andalouse_1912/'
p2529
sg7
(lp2530
sg9
(lp2531
I3146
aI1
aI1
asg11
S'frueher_Film/3146_Superstition_Andalouse_1912/'
p2532
sg13
I00
sg14
Nsg15
S'//130.60.131.134/studi/Filme/frueher_Film/3146_Superstition_Andalouse_1912\\3146_1_1_SuperstitionAndalouse_1912_DVD_ELAN.eaf'
p2533
sg17
I00
sba(i__main__
Movie
p2534
(dp2535
g3
S'ThePirate'
p2536
sg5
S'//130.60.131.134/studi/Filme/mittlere_Filme/3151_The_Pirate_1949/'
p2537
sg7
(lp2538
sg9
(lp2539
I3151
aI1
aI1
asg11
S'mittlere_Filme/3151_The_Pirate_1949/'
p2540
sg13
I01
sg14
Nsg15
S'//130.60.131.134/studi/Filme/mittlere_Filme/3151_The_Pirate_1949\\3151_1_1_ThePirate_1949_DVD_ELAN.eaf'
p2541
sg17
I00
sba(i__main__
Movie
p2542
(dp2543
g3
S'TheBlueLagoon'
p2544
sg5
S'//130.60.131.134/studi/Filme/spaete_Filme/3153_TheBlueLagoon_1980/'
p2545
sg7
(lp2546
S'//130.60.131.134/studi/Filme/spaete_Filme/3153_TheBlueLagoon_1980\\3153_1_1_TheBlueLagoon_1980_DVD_ELAN.txt'
p2547
asg9
(lp2548
I3153
aI1
aI1
asg11
S'spaete_Filme/3153_TheBlueLagoon_1980/'
p2549
sg13
I00
sg14
Nsg15
S'//130.60.131.134/studi/Filme/spaete_Filme/3153_TheBlueLagoon_1980\\3153_1_1_TheBlueLagoon_1980_DVD_ELAN.eaf'
p2550
sg17
I00
sba(i__main__
Movie
p2551
(dp2552
g3
S'TopGun'
p2553
sg5
S'//130.60.131.134/studi/Filme/spaete_Filme/3154_TopGun_1986/'
p2554
sg7
(lp2555
sg9
(lp2556
I3154
aI1
aI1
asg11
S'spaete_Filme/3154_TopGun_1986/'
p2557
sg13
I01
sg14
Nsg15
S'//130.60.131.134/studi/Filme/spaete_Filme/3154_TopGun_1986\\3154_1_1_TopGun_1986.eaf'
p2558
sg17
I00
sba(i__main__
Movie
p2559
(dp2560
g3
S'LesOeufsDePaques'
p2561
sg5
S'//130.60.131.134/studi/Filme/frueher_Film/3156_Les_Oeufs_De_Paques_1907/'
p2562
sg7
(lp2563
sg9
(lp2564
I3156
aI1
aI1
asg11
S'frueher_Film/3156_Les_Oeufs_De_Paques_1907/'
p2565
sg13
I00
sg14
Nsg15
S'//130.60.131.134/studi/Filme/frueher_Film/3156_Les_Oeufs_De_Paques_1907\\3156_1_1_LesOeufsDePaques_1907_DVD_ELAN.eaf'
p2566
sg17
I00
sba(i__main__
Movie
p2567
(dp2568
g3
S'LoieFuller'
p2569
sg5
S'//130.60.131.134/studi/Filme/frueher_Film/3157_Loie_Fuller_1905/'
p2570
sg7
(lp2571
sg9
(lp2572
I3157
aI1
aI1
asg11
S'frueher_Film/3157_Loie_Fuller_1905/'
p2573
sg13
I00
sg14
Nsg15
S'//130.60.131.134/studi/Filme/frueher_Film/3157_Loie_Fuller_1905\\3157_1_1_LoieFuller_1905_DVD_ELAN.eaf'
p2574
sg17
I00
sba(i__main__
Movie
p2575
(dp2576
g3
S'UnDrameAuFondDeLaMer'
p2577
sg5
S'//130.60.131.134/studi/Filme/frueher_Film/3159_Un_Drame_Au_Fond_De_La_Mer_1901/'
p2578
sg7
(lp2579
sg9
(lp2580
I3159
aI1
aI1
asg11
S'frueher_Film/3159_Un_Drame_Au_Fond_De_La_Mer_1901/'
p2581
sg13
I00
sg14
Nsg15
S'//130.60.131.134/studi/Filme/frueher_Film/3159_Un_Drame_Au_Fond_De_La_Mer_1901\\3159_1_1_UnDrameAuFondDeLaMer_1901_DVD_ELAN.eaf'
p2582
sg17
I00
sba(i__main__
Movie
p2583
(dp2584
g3
S'TheLoveCharm'
p2585
sg5
S'//130.60.131.134/studi/Filme/frueher_Film/3161_The_Love_Charm_1928/'
p2586
sg7
(lp2587
sg9
(lp2588
I3161
aI1
aI1
asg11
S'frueher_Film/3161_The_Love_Charm_1928/'
p2589
sg13
I00
sg14
Nsg15
S'//130.60.131.134/studi/Filme/frueher_Film/3161_The_Love_Charm_1928\\3161_1_1_TheLoveCharm_1928_DVD_ELAN.eaf'
p2590
sg17
I00
sba(i__main__
Movie
p2591
(dp2592
g3
S"L'Atlantide"
p2593
sg5
S'//130.60.131.134/studi/Filme/frueher_Film/3165_LAtlantide_1921/'
p2594
sg7
(lp2595
sg9
(lp2596
I3165
aI1
aI1
asg11
S'frueher_Film/3165_LAtlantide_1921/'
p2597
sg13
I00
sg14
Nsg15
S"//130.60.131.134/studi/Filme/frueher_Film/3165_LAtlantide_1921\\3165_1_1_L'Atlantide_1921_ELAN.eaf"
p2598
sg17
I00
sba(i__main__
Movie
p2599
(dp2600
g3
S'WesternUnion'
p2601
sg5
S'//130.60.131.134/studi/Filme/mittlere_Filme/3170_Western_Union_1941/'
p2602
sg7
(lp2603
S'//130.60.131.134/studi/Filme/mittlere_Filme/3170_Western_Union_1941\\3170_1_1_WesternUnion_1941_DVD_ELAN.txt'
p2604
asg9
(lp2605
I3170
aI1
aI1
asg11
S'mittlere_Filme/3170_Western_Union_1941/'
p2606
sg13
I00
sg14
Nsg15
S'//130.60.131.134/studi/Filme/mittlere_Filme/3170_Western_Union_1941\\3170_1_1_WesternUnion_1941_DVD_ELAN.eaf'
p2607
sg17
I00
sba(i__main__
Movie
p2608
(dp2609
g3
S'LaFiestaDeSantaBarbara'
p2610
sg5
S'//130.60.131.134/studi/Filme/mittlere_Filme/3172_La_Fiesta_de_Santa_Barbara_1935/'
p2611
sg7
(lp2612
S'//130.60.131.134/studi/Filme/mittlere_Filme/3172_La_Fiesta_de_Santa_Barbara_1935\\3172_1_1_LaFiestaDeSantaBarbara_1935_DVD_ELAN.txt'
p2613
asg9
(lp2614
I3172
aI1
aI1
asg11
S'mittlere_Filme/3172_La_Fiesta_de_Santa_Barbara_1935/'
p2615
sg13
I00
sg14
Nsg15
S'//130.60.131.134/studi/Filme/mittlere_Filme/3172_La_Fiesta_de_Santa_Barbara_1935\\3172_1_1_LaFiestaDeSantaBarbara_1935_DVD_ELAN.eaf'
p2616
sg17
I00
sba(i__main__
Movie
p2617
(dp2618
g3
S'LaLegendeDuFantome'
p2619
sg5
S'//130.60.131.134/studi/Filme/frueher_Film/3180_La_Legende_Du_Fantome_1908/'
p2620
sg7
(lp2621
sg9
(lp2622
I3180
aI1
aI1
asg11
S'frueher_Film/3180_La_Legende_Du_Fantome_1908/'
p2623
sg13
I00
sg14
Nsg15
S'//130.60.131.134/studi/Filme/frueher_Film/3180_La_Legende_Du_Fantome_1908\\3180_1_1_LaLegendeDuFantome_1908_DVD_ELAN.eaf'
p2624
sg17
I00
sba(i__main__
Movie
p2625
(dp2626
g3
S'LeRoiDesDollars'
p2627
sg5
S'//130.60.131.134/studi/Filme/frueher_Film/3182_Le_Roi_Des_Dollars_1905/'
p2628
sg7
(lp2629
sg9
(lp2630
I3182
aI1
aI1
asg11
S'frueher_Film/3182_Le_Roi_Des_Dollars_1905/'
p2631
sg13
I00
sg14
Nsg15
S'//130.60.131.134/studi/Filme/frueher_Film/3182_Le_Roi_Des_Dollars_1905\\3182_1_1_LeRoiDesDollars_1905_DVD_Elan.eaf'
p2632
sg17
I00
sba(i__main__
Movie
p2633
(dp2634
g3
S'Hoehenfeuer'
p2635
sg5
S'//130.60.131.134/studi/Filme/spaete_Filme/3185_Hoehenfeuer_1985/'
p2636
sg7
(lp2637
S'//130.60.131.134/studi/Filme/spaete_Filme/3185_Hoehenfeuer_1985\\3185_1_1_Hoehenfeuer_1985_DVD_ELAN_export.txt'
p2638
asg9
(lp2639
I3185
aI1
aI1
asg11
S'spaete_Filme/3185_Hoehenfeuer_1985/'
p2640
sg13
I01
sg14
Nsg15
S'//130.60.131.134/studi/Filme/spaete_Filme/3185_Hoehenfeuer_1985\\3185_1_1_Hoehenfeuer_1985_DVD_ELAN.eaf'
p2641
sg17
I00
sba(i__main__
Movie
p2642
(dp2643
g3
S'LAlbumMerveilleux'
p2644
sg5
S'//130.60.131.134/studi/Filme/frueher_Film/3186_LAlbum_Merveilleux_1905/'
p2645
sg7
(lp2646
sg9
(lp2647
I3186
aI1
aI1
asg11
S'frueher_Film/3186_LAlbum_Merveilleux_1905/'
p2648
sg13
I00
sg14
Nsg15
S'//130.60.131.134/studi/Filme/frueher_Film/3186_LAlbum_Merveilleux_1905\\3186_LAlbumMerveilleux_1905_DVD_ELAN.eaf'
p2649
sg17
I00
sba(i__main__
Movie
p2650
(dp2651
g3
S'Japonaiseries'
p2652
sg5
S'//130.60.131.134/studi/Filme/frueher_Film/3229_Japonaiseries_1904/'
p2653
sg7
(lp2654
sg9
(lp2655
I3229
aI1
aI1
asg11
S'frueher_Film/3229_Japonaiseries_1904/'
p2656
sg13
I00
sg14
Nsg15
S'//130.60.131.134/studi/Filme/frueher_Film/3229_Japonaiseries_1904\\3229_1_1_Japonaiseries_1904_DVD_Elan.eaf'
p2657
sg17
I00
sba(i__main__
Movie
p2658
(dp2659
g3
S'LaFeePrintemps'
p2660
sg5
S'//130.60.131.134/studi/Filme/frueher_Film/3230_La_Fee_Printemps_1906/'
p2661
sg7
(lp2662
sg9
(lp2663
I3230
aI1
aI1
asg11
S'frueher_Film/3230_La_Fee_Printemps_1906/'
p2664
sg13
I00
sg14
Nsg15
S'//130.60.131.134/studi/Filme/frueher_Film/3230_La_Fee_Printemps_1906\\3230_1_1_LaFeePrintemps_1906_DVD_ELAN.eaf'
p2665
sg17
I00
sba(i__main__
Movie
p2666
(dp2667
g3
S'Bilitis'
p2668
sg5
S'//130.60.131.134/studi/Filme/spaete_Filme/3231_Bilitis_1977/'
p2669
sg7
(lp2670
S'//130.60.131.134/studi/Filme/spaete_Filme/3231_Bilitis_1977\\3231_1_1_Bilitis_1977_DVD_ELAN_export.txt'
p2671
asg9
(lp2672
I3231
aI1
aI1
asg11
S'spaete_Filme/3231_Bilitis_1977/'
p2673
sg13
I01
sg14
Nsg15
S'//130.60.131.134/studi/Filme/spaete_Filme/3231_Bilitis_1977\\3231_1_1_Bilitis_1977_DVD_ELAN.eaf'
p2674
sg17
I00
sba(i__main__
Movie
p2675
(dp2676
g3
S'LaSorciereNoire'
p2677
sg5
S'//130.60.131.134/studi/Filme/frueher_Film/3241_La_Sorciere_Noire_1907/'
p2678
sg7
(lp2679
sg9
(lp2680
I3241
aI1
aI1
asg11
S'frueher_Film/3241_La_Sorciere_Noire_1907/'
p2681
sg13
I00
sg14
Nsg15
S'//130.60.131.134/studi/Filme/frueher_Film/3241_La_Sorciere_Noire_1907\\3241_1_1_LaSorciereNoire_1907_DVD_ELAN.eaf'
p2682
sg17
I00
sba(i__main__
Movie
p2683
(dp2684
g3
S'StarTrekVITheUndiscoveredCountry'
p2685
sg5
S'//130.60.131.134/studi/Filme/spaete_Filme/3243_Star_Trek_VI_The_Undiscovered_Country_1991/'
p2686
sg7
(lp2687
S'//130.60.131.134/studi/Filme/spaete_Filme/3243_Star_Trek_VI_The_Undiscovered_Country_1991\\3243_1_1_StarTrekVITheUndiscoveredCountry_1991_DVD_ELAN_export.txt'
p2688
asg9
(lp2689
I3243
aI1
aI1
asg11
S'spaete_Filme/3243_Star_Trek_VI_The_Undiscovered_Country_1991/'
p2690
sg13
I01
sg14
Nsg15
S'//130.60.131.134/studi/Filme/spaete_Filme/3243_Star_Trek_VI_The_Undiscovered_Country_1991\\3243_1_1_StarTrekVITheUndiscoveredCountry_1991_DVD_ELAN.eaf'
p2691
sg17
I00
sba(i__main__
Movie
p2692
(dp2693
g3
S'TschelowekAmfibija'
p2694
sg5
S'//130.60.131.134/studi/Filme/spaete_Filme/3244_Tschelowek_Amfibija_1963/'
p2695
sg7
(lp2696
S'//130.60.131.134/studi/Filme/spaete_Filme/3244_Tschelowek_Amfibija_1963\\3244_1_1_TschelowekAmfibija_1963_DVD_ELAN_export.txt'
p2697
asg9
(lp2698
I3244
aI1
aI1
asg11
S'spaete_Filme/3244_Tschelowek_Amfibija_1963/'
p2699
sg13
I01
sg14
Nsg15
S'//130.60.131.134/studi/Filme/spaete_Filme/3244_Tschelowek_Amfibija_1963\\3244_1_1_TschelowekAmfibija_1963_DVD_ELAN.eaf'
p2700
sg17
I00
sba(i__main__
Movie
p2701
(dp2702
g3
S'LaBelleAuBoisDormant'
p2703
sg5
S'//130.60.131.134/studi/Filme/frueher_Film/3248_La_Belle_Au_Bois_Dormant_1908/'
p2704
sg7
(lp2705
sg9
(lp2706
I3248
aI1
aI1
asg11
S'frueher_Film/3248_La_Belle_Au_Bois_Dormant_1908/'
p2707
sg13
I01
sg14
Nsg15
S'//130.60.131.134/studi/Filme/frueher_Film/3248_La_Belle_Au_Bois_Dormant_1908\\3248_1_1_LaBelleAuBoisDormant_1908_DVD_ELAN.eaf'
p2708
sg17
I00
sba(i__main__
Movie
p2709
(dp2710
g3
S'ValseExcentrique'
p2711
sg5
S'//130.60.131.134/studi/Filme/frueher_Film/3249_Valse_Excentrique_1903/'
p2712
sg7
(lp2713
sg9
(lp2714
I3249
aI1
aI1
asg11
S'frueher_Film/3249_Valse_Excentrique_1903/'
p2715
sg13
I00
sg14
Nsg15
S'//130.60.131.134/studi/Filme/frueher_Film/3249_Valse_Excentrique_1903\\3249_1_1_ValseExcentrique_1903_DVD_ELAN.eaf'
p2716
sg17
I00
sba(i__main__
Movie
p2717
(dp2718
g3
S'Der'
p2719
sg5
S'//130.60.131.134/studi/Filme/frueher_Film/3250_Der_Golem_oder_wie_er_in_die_Welt_kam_1920/'
p2720
sg7
(lp2721
sg9
(lp2722
I3250
aI1
aI1
asg11
S'frueher_Film/3250_Der_Golem_oder_wie_er_in_die_Welt_kam_1920/'
p2723
sg13
I01
sg14
Nsg15
S'//130.60.131.134/studi/Filme/frueher_Film/3250_Der_Golem_oder_wie_er_in_die_Welt_kam_1920\\3250_1_1_Der_GolemOderWieErInDieWeltKam_1920_DVD_ELAN.eaf'
p2724
sg17
I00
sba(i__main__
Movie
p2725
(dp2726
g3
S"L'uccelloDallePiumeDiCristallo"
p2727
sg5
S"//130.60.131.134/studi/Filme/spaete_Filme/3369_L'uccello_Dalle_Piume_Di_Cristallo_1970/"
p2728
sg7
(lp2729
S"//130.60.131.134/studi/Filme/spaete_Filme/3369_L'uccello_Dalle_Piume_Di_Cristallo_1970\\3369_1_1_L'uccelloDallePiumeDiCristallo_1970_DVD_ELAN_export.txt"
p2730
asg9
(lp2731
I3369
aI1
aI1
asg11
S"spaete_Filme/3369_L'uccello_Dalle_Piume_Di_Cristallo_1970/"
p2732
sg13
I01
sg14
Nsg15
S"//130.60.131.134/studi/Filme/spaete_Filme/3369_L'uccello_Dalle_Piume_Di_Cristallo_1970\\3369_1_1_L'uccelloDallePiumeDiCristallo_1970_DVD_ELAN.eaf"
p2733
sg17
I00
sba(i__main__
Movie
p2734
(dp2735
g3
S'Inferno'
p2736
sg5
S'//130.60.131.134/studi/Filme/frueher_Film/3370_LInferno_1911/'
p2737
sg7
(lp2738
sg9
(lp2739
I3370
aI1
aI1
asg11
S'frueher_Film/3370_LInferno_1911/'
p2740
sg13
I01
sg14
Nsg15
S'//130.60.131.134/studi/Filme/frueher_Film/3370_LInferno_1911\\3370_1_1_Inferno_1911_DVD_ELAN.eaf'
p2741
sg17
I00
sba(i__main__
Movie
p2742
(dp2743
g3
S'RiverOfNoReturn'
p2744
sg5
S'//130.60.131.134/studi/Filme/mittlere_Filme/3372_River_of_No_Return_1954/'
p2745
sg7
(lp2746
S'//130.60.131.134/studi/Filme/mittlere_Filme/3372_River_of_No_Return_1954\\3372_1_1_RiverOfNoReturn_1954_DVD_ELAN.txt'
p2747
asg9
(lp2748
I3372
aI1
aI1
asg11
S'mittlere_Filme/3372_River_of_No_Return_1954/'
p2749
sg13
I00
sg14
Nsg15
S'//130.60.131.134/studi/Filme/mittlere_Filme/3372_River_of_No_Return_1954\\3372_1_1_RiverOfNoReturn_1954_DVD_ELAN.eaf'
p2750
sg17
I00
sba(i__main__
Movie
p2751
(dp2752
g3
S'DrCyclops'
p2753
sg5
S'//130.60.131.134/studi/Filme/mittlere_Filme/3377_Dr_Cyclops_1940/'
p2754
sg7
(lp2755
S'//130.60.131.134/studi/Filme/mittlere_Filme/3377_Dr_Cyclops_1940\\3377_1_1_DrCyclops_1940_DVD_ELAN.txt'
p2756
asg9
(lp2757
I3377
aI1
aI1
asg11
S'mittlere_Filme/3377_Dr_Cyclops_1940/'
p2758
sg13
I00
sg14
Nsg15
S'//130.60.131.134/studi/Filme/mittlere_Filme/3377_Dr_Cyclops_1940\\3377_1_1_DrCyclops_1940_DVD_ELAN.eaf'
p2759
sg17
I00
sba(i__main__
Movie
p2760
(dp2761
g3
S'DesertFury'
p2762
sg5
S'//130.60.131.134/studi/Filme/mittlere_Filme/3378_Desert_Fury_1947/'
p2763
sg7
(lp2764
sg9
(lp2765
I3378
aI1
aI1
asg11
S'mittlere_Filme/3378_Desert_Fury_1947/'
p2766
sg13
I01
sg14
Nsg15
S'//130.60.131.134/studi/Filme/mittlere_Filme/3378_Desert_Fury_1947\\3378_1_1_DesertFury_1947_DVD_ELAN.eaf'
p2767
sg17
I00
sba(i__main__
Movie
p2768
(dp2769
g3
S'BalletDesSylphides'
p2770
sg5
S'//130.60.131.134/studi/Filme/frueher_Film/3380_Ballet_Des_Sylphides_1902/'
p2771
sg7
(lp2772
sg9
(lp2773
I3380
aI1
aI1
asg11
S'frueher_Film/3380_Ballet_Des_Sylphides_1902/'
p2774
sg13
I00
sg14
Nsg15
S'//130.60.131.134/studi/Filme/frueher_Film/3380_Ballet_Des_Sylphides_1902\\3380_1_1_BalletDesSylphides_1902_DVD_ELAN.eaf'
p2775
sg17
I00
sba(i__main__
Movie
p2776
(dp2777
g3
S'TheWrathOfTheGods'
p2778
sg5
S'//130.60.131.134/studi/Filme/frueher_Film/3381_The_Wrath_Of_The_Gods_1914/'
p2779
sg7
(lp2780
sg9
(lp2781
I3381
aI1
aI1
asg11
S'frueher_Film/3381_The_Wrath_Of_The_Gods_1914/'
p2782
sg13
I01
sg14
Nsg15
S'//130.60.131.134/studi/Filme/frueher_Film/3381_The_Wrath_Of_The_Gods_1914\\3381_1_1_TheWrathOfTheGods_1914_DVD_ELAN.eaf'
p2783
sg17
I00
sba(i__main__
Movie
p2784
(dp2785
g3
S'TheDragonPainter'
p2786
sg5
S'//130.60.131.134/studi/Filme/frueher_Film/3382_The_Dragon_Painter_1919/'
p2787
sg7
(lp2788
sg9
(lp2789
I3382
aI1
aI1
asg11
S'frueher_Film/3382_The_Dragon_Painter_1919/'
p2790
sg13
I01
sg14
Nsg15
S'//130.60.131.134/studi/Filme/frueher_Film/3382_The_Dragon_Painter_1919\\3382_1_1_TheDragonPainter_1919_DVD_ELAN.eaf'
p2791
sg17
I00
sba(i__main__
Movie
p2792
(dp2793
g3
S'KiRiKiAcrobatesJaponais'
p2794
sg5
S'//130.60.131.134/studi/Filme/frueher_Film/3385_KiRiKi_Acrobates_Japonais_1907/'
p2795
sg7
(lp2796
sg9
(lp2797
I3385
aI1
aI1
asg11
S'frueher_Film/3385_KiRiKi_Acrobates_Japonais_1907/'
p2798
sg13
I00
sg14
Nsg15
S'//130.60.131.134/studi/Filme/frueher_Film/3385_KiRiKi_Acrobates_Japonais_1907\\3385_1_1_KiRiKiAcrobatesJaponais_1907_DVD_ELAN.eaf'
p2799
sg17
I00
sba(i__main__
Movie
p2800
(dp2801
g3
S'Hecate'
p2802
sg5
S'//130.60.131.134/studi/Filme/spaete_Filme/3387_Hecate_1982/'
p2803
sg7
(lp2804
S'//130.60.131.134/studi/Filme/spaete_Filme/3387_Hecate_1982\\3387_1_1_Hecate_1982_DVD_ELAN_export.txt'
p2805
asg9
(lp2806
I3387
aI1
aI1
asg11
S'spaete_Filme/3387_Hecate_1982/'
p2807
sg13
I01
sg14
Nsg15
S'//130.60.131.134/studi/Filme/spaete_Filme/3387_Hecate_1982\\3387_1_1_Hecate_1982_DVD_ELAN.eaf'
p2808
sg17
I00
sba(i__main__
Movie
p2809
(dp2810
g3
S'AmourDesclave'
p2811
sg5
S'//130.60.131.134/studi/Filme/frueher_Film/3399_Amour_Desclave_1907/'
p2812
sg7
(lp2813
sg9
(lp2814
I3399
aI1
aI1
asg11
S'frueher_Film/3399_Amour_Desclave_1907/'
p2815
sg13
I00
sg14
Nsg15
S'//130.60.131.134/studi/Filme/frueher_Film/3399_Amour_Desclave_1907\\3399_1_1_AmourDesclave_1907_DVD_ELAN.eaf'
p2816
sg17
I00
sba(i__main__
Movie
p2817
(dp2818
g3
S'TerjeVigen'
p2819
sg5
S'//130.60.131.134/studi/Filme/frueher_Film/3401_Terje_Vigen_1917/'
p2820
sg7
(lp2821
sg9
(lp2822
I3401
aI1
aI1
asg11
S'frueher_Film/3401_Terje_Vigen_1917/'
p2823
sg13
I01
sg14
Nsg15
S'//130.60.131.134/studi/Filme/frueher_Film/3401_Terje_Vigen_1917\\3401_1_1_TerjeVigen_1917_DVD_ELAN.eaf'
p2824
sg17
I00
sba(i__main__
Movie
p2825
(dp2826
g3
S'Fruits'
p2827
sg5
S'//130.60.131.134/studi/Filme/frueher_Film/3403_Fruits_1912/'
p2828
sg7
(lp2829
sg9
(lp2830
I3403
aI1
aI1
asg11
S'frueher_Film/3403_Fruits_1912/'
p2831
sg13
I00
sg14
Nsg15
S'//130.60.131.134/studi/Filme/frueher_Film/3403_Fruits_1912\\3403_1_1_Fruits_1912_DVD_ELAN.eaf'
p2832
sg17
I00
sba(i__main__
Movie
p2833
(dp2834
g3
S'FeuMathiasPascal'
p2835
sg5
S'//130.60.131.134/studi/Filme/frueher_Film/3428_Feu_Mathias_Pascal_1924/'
p2836
sg7
(lp2837
S'//130.60.131.134/studi/Filme/frueher_Film/3428_Feu_Mathias_Pascal_1924\\3428_1_1_FeuMathiasPascal_1924_ELAN.txt'
p2838
asg9
(lp2839
I3428
aI1
aI1
asg11
S'frueher_Film/3428_Feu_Mathias_Pascal_1924/'
p2840
sg13
I01
sg14
Nsg15
S'//130.60.131.134/studi/Filme/frueher_Film/3428_Feu_Mathias_Pascal_1924\\3428_1_1_FeuMathiasPascal_1924_ELAN.eaf'
p2841
sg17
I00
sba(i__main__
Movie
p2842
(dp2843
g3
S'HerrAgnesPengar'
p2844
sg5
S'//130.60.131.134/studi/Filme/frueher_Film/3449_Herr_Arnes_Pengar_1919/'
p2845
sg7
(lp2846
sg9
(lp2847
I3449
aI1
aI1
asg11
S'frueher_Film/3449_Herr_Arnes_Pengar_1919/'
p2848
sg13
I01
sg14
Nsg15
S'//130.60.131.134/studi/Filme/frueher_Film/3449_Herr_Arnes_Pengar_1919\\3449_1_1_HerrAgnesPengar_1919_DVD_ELAN.eaf'
p2849
sg17
I00
sba(i__main__
Movie
p2850
(dp2851
g3
S'ZapatasBande'
p2852
sg5
S'//130.60.131.134/studi/Filme/frueher_Film/3457_Zapatas_Bande_1914/'
p2853
sg7
(lp2854
sg9
(lp2855
I3457
aI1
aI1
asg11
S'frueher_Film/3457_Zapatas_Bande_1914/'
p2856
sg13
I01
sg14
Nsg15
S'//130.60.131.134/studi/Filme/frueher_Film/3457_Zapatas_Bande_1914\\3457_1_1_ZapatasBande_1914_DVD_ELAN.eaf'
p2857
sg17
I00
sba(i__main__
Movie
p2858
(dp2859
g3
S'OnTheTown'
p2860
sg5
S'//130.60.131.134/studi/Filme/mittlere_Filme/3458_On_the_Town_1949/'
p2861
sg7
(lp2862
S'//130.60.131.134/studi/Filme/mittlere_Filme/3458_On_the_Town_1949\\3458_1_1_OnTheTown_1949_DVD_ELAN.txt'
p2863
asg9
(lp2864
I3458
aI1
aI1
asg11
S'mittlere_Filme/3458_On_the_Town_1949/'
p2865
sg13
I00
sg14
Nsg15
S'//130.60.131.134/studi/Filme/mittlere_Filme/3458_On_the_Town_1949\\3458_1_1_OnTheTown_1949_DVD_ELAN.eaf'
p2866
sg17
I00
sba(i__main__
Movie
p2867
(dp2868
g3
S'TheGeneral'
p2869
sg5
S'//130.60.131.134/studi/Filme/frueher_Film/3462_The_General_1926/'
p2870
sg7
(lp2871
sg9
(lp2872
I3462
aI1
aI1
asg11
S'frueher_Film/3462_The_General_1926/'
p2873
sg13
I01
sg14
Nsg15
S'//130.60.131.134/studi/Filme/frueher_Film/3462_The_General_1926\\3462_1_1_TheGeneral_1926_DVD_ELAN.eaf'
p2874
sg17
I00
sba(i__main__
Movie
p2875
(dp2876
g3
S'TheInformer'
p2877
sg5
S'//130.60.131.134/studi/Filme/frueher_Film/3463_The_Informer_1929/'
p2878
sg7
(lp2879
sg9
(lp2880
I3463
aI1
aI1
asg11
S'frueher_Film/3463_The_Informer_1929/'
p2881
sg13
I01
sg14
Nsg15
S'//130.60.131.134/studi/Filme/frueher_Film/3463_The_Informer_1929\\3463_1_1_TheInformer_1929_DVD_ELAN.eaf'
p2882
sg17
I00
sba(i__main__
Movie
p2883
(dp2884
g3
S'JeanneDArc'
p2885
sg5
S'//130.60.131.134/studi/Filme/frueher_Film/3469_Jeanne_DArc_1900/'
p2886
sg7
(lp2887
sg9
(lp2888
I3469
aI1
aI1
asg11
S'frueher_Film/3469_Jeanne_DArc_1900/'
p2889
sg13
I00
sg14
Nsg15
S'//130.60.131.134/studi/Filme/frueher_Film/3469_Jeanne_DArc_1900\\3469_1_1_JeanneDArc_1900_DVD_ELAN.eaf'
p2890
sg17
I00
sba(i__main__
Movie
p2891
(dp2892
g3
S'LeVoyageDeGulliverALilliputEtChezLesGeants'
p2893
sg5
S'//130.60.131.134/studi/Filme/frueher_Film/3470_Le_Voyage_De_Gulliver_A_Lilliput_E_t_Chez_Les_Geants_1902/'
p2894
sg7
(lp2895
sg9
(lp2896
I3470
aI1
aI1
asg11
S'frueher_Film/3470_Le_Voyage_De_Gulliver_A_Lilliput_E_t_Chez_Les_Geants_1902/'
p2897
sg13
I00
sg14
Nsg15
S'//130.60.131.134/studi/Filme/frueher_Film/3470_Le_Voyage_De_Gulliver_A_Lilliput_E_t_Chez_Les_Geants_1902\\3470_1_1_LeVoyageDeGulliverALilliputEtChezLesGeants_1902_DVD_ELAN.eaf'
p2898
sg17
I00
sba(i__main__
Movie
p2899
(dp2900
g3
S'Shurayukihime'
p2901
sg5
S'//130.60.131.134/studi/Filme/spaete_Filme/3478_Shurayukihime_1973/'
p2902
sg7
(lp2903
S'//130.60.131.134/studi/Filme/spaete_Filme/3478_Shurayukihime_1973\\3478_1_1_Shurayukihime_1973_DVD_ELAN_export.txt'
p2904
asg9
(lp2905
I3478
aI1
aI1
asg11
S'spaete_Filme/3478_Shurayukihime_1973/'
p2906
sg13
I01
sg14
Nsg15
S'//130.60.131.134/studi/Filme/spaete_Filme/3478_Shurayukihime_1973\\3478_1_1_Shurayukihime_1973_DVD_ELAN.eaf'
p2907
sg17
I00
sba(i__main__
Movie
p2908
(dp2909
g3
S'DaHongDengLongGaoGaoGua'
p2910
sg5
S'//130.60.131.134/studi/Filme/spaete_Filme/3480_Da_HongDengLong_GaoGao_Gua_1991/'
p2911
sg7
(lp2912
S'//130.60.131.134/studi/Filme/spaete_Filme/3480_Da_HongDengLong_GaoGao_Gua_1991\\3480_1_1_DaHongDengLongGaoGaoGua_1991_DVD_ELAN_export.txt'
p2913
asg9
(lp2914
I3480
aI1
aI1
asg11
S'spaete_Filme/3480_Da_HongDengLong_GaoGao_Gua_1991/'
p2915
sg13
I01
sg14
Nsg15
S'//130.60.131.134/studi/Filme/spaete_Filme/3480_Da_HongDengLong_GaoGao_Gua_1991\\3480_1_1_DaHongDengLongGaoGaoGua_1991_DVD_ELAN.eaf'
p2916
sg17
I00
sba(i__main__
Movie
p2917
(dp2918
g3
S'Dyrygent'
p2919
sg5
S'//130.60.131.134/studi/Filme/spaete_Filme/3484_Dyrygent_1979/'
p2920
sg7
(lp2921
S'//130.60.131.134/studi/Filme/spaete_Filme/3484_Dyrygent_1979\\3484_1_1_Dyrygent_1980_DVD_ELAN_export.txt'
p2922
aS'//130.60.131.134/studi/Filme/spaete_Filme/3484_Dyrygent_1979\\3484_1_1_Dyrygent_1980_DVD_ELAN_export.csv'
p2923
aS'//130.60.131.134/studi/Filme/spaete_Filme/3484_Dyrygent_1979\\3484_1_1_Dyrygent_1980_DVD_FCT_snapchots.csv'
p2924
aS'//130.60.131.134/studi/Filme/spaete_Filme/3484_Dyrygent_1979\\3484_1_1_Dyrygent_1980_DVD_FCT_temp.csv'
p2925
asg9
(lp2926
I3484
aI1
aI1
asg11
S'spaete_Filme/3484_Dyrygent_1979/'
p2927
sg13
I01
sg14
Nsg15
S'//130.60.131.134/studi/Filme/spaete_Filme/3484_Dyrygent_1979\\3484_1_1_Dyrygent_1980_DVD_ELAN.eaf'
p2928
sg17
I00
sba(i__main__
Movie
p2929
(dp2930
g3
S'HongGaoliang'
p2931
sg5
S'//130.60.131.134/studi/Filme/spaete_Filme/3488_Hong_Gaoliang_1987/'
p2932
sg7
(lp2933
S'//130.60.131.134/studi/Filme/spaete_Filme/3488_Hong_Gaoliang_1987\\3488_1_1_HongGaoliang_1987_DVD_ELAN.txt'
p2934
asg9
(lp2935
I3488
aI1
aI1
asg11
S'spaete_Filme/3488_Hong_Gaoliang_1987/'
p2936
sg13
I00
sg14
Nsg15
S'//130.60.131.134/studi/Filme/spaete_Filme/3488_Hong_Gaoliang_1987\\ELAN Projektdatei\\3488_1_1_HongGaoliang_1987_DVD_ELAN.eaf'
p2937
sg17
I00
sba(i__main__
Movie
p2938
(dp2939
g3
S'Indiscreet'
p2940
sg5
S'//130.60.131.134/studi/Filme/spaete_Filme/spaete_Filme/'
p2941
sg7
(lp2942
S'//130.60.131.134/studi/Filme/spaete_Filme/spaete_Filme\\3491_1_1_Indiscreet_1957_DVD_ELAN_export.txt'
p2943
asg9
(lp2944
I3491
aI1
aI1
asg11
S'spaete_Filme/spaete_Filme/'
p2945
sg13
I00
sg14
Nsg15
S'//130.60.131.134/studi/Filme/spaete_Filme/spaete_Filme\\3491_1_1_Indiscreet_1957_DVD_ELAN.eaf'
p2946
sg17
I00
sba(i__main__
Movie
p2947
(dp2948
g3
S'Wojna'
p2949
sg5
S'//130.60.131.134/studi/Filme/spaete_Filme/3492_Wojna_Swjatow_1981/'
p2950
sg7
(lp2951
S'//130.60.131.134/studi/Filme/spaete_Filme/3492_Wojna_Swjatow_1981\\3492_1_1_Wojna_Swjatow_1981_DVD_ELAN_export.txt'
p2952
asg9
(lp2953
I3492
aI1
aI1
asg11
S'spaete_Filme/3492_Wojna_Swjatow_1981/'
p2954
sg13
I01
sg14
Nsg15
S'//130.60.131.134/studi/Filme/spaete_Filme/3492_Wojna_Swjatow_1981\\3492_1_1_Wojna_Swjatow_1981_DVD_ELAN.eaf'
p2955
sg17
I00
sba(i__main__
Movie
p2956
(dp2957
g3
S'LaDecimaVittima'
p2958
sg5
S'//130.60.131.134/studi/Filme/spaete_Filme/3493_La_Decima_Vittima_1965/'
p2959
sg7
(lp2960
S'//130.60.131.134/studi/Filme/spaete_Filme/3493_La_Decima_Vittima_1965\\3493_1_1_LaDecimaVittima_1965_DVD_ELAN_export.txt'
p2961
asg9
(lp2962
I3493
aI1
aI1
asg11
S'spaete_Filme/3493_La_Decima_Vittima_1965/'
p2963
sg13
I01
sg14
Nsg15
S'//130.60.131.134/studi/Filme/spaete_Filme/3493_La_Decima_Vittima_1965\\3493_1_1_LaDecimaVittima_1965_DVD_ELAN.eaf'
p2964
sg17
I00
sba(i__main__
Movie
p2965
(dp2966
g3
S'TheLostWorld'
p2967
sg5
S'//130.60.131.134/studi/Filme/frueher_Film/3556_The_Lost_World_1925/'
p2968
sg7
(lp2969
sg9
(lp2970
I3556
aI1
aI1
asg11
S'frueher_Film/3556_The_Lost_World_1925/'
p2971
sg13
I01
sg14
Nsg15
S'//130.60.131.134/studi/Filme/frueher_Film/3556_The_Lost_World_1925\\3556_1_1_TheLostWorld_1925_DVD_ELAN.eaf'
p2972
sg17
I00
sba(i__main__
Movie
p2973
(dp2974
g3
S'DanseursEspagnols'
p2975
sg5
S'//130.60.131.134/studi/Filme/frueher_Film/3569_Danseurs_Espagnols_1898/'
p2976
sg7
(lp2977
sg9
(lp2978
I3569
aI1
aI1
asg11
S'frueher_Film/3569_Danseurs_Espagnols_1898/'
p2979
sg13
I00
sg14
Nsg15
S'//130.60.131.134/studi/Filme/frueher_Film/3569_Danseurs_Espagnols_1898\\3569_1_1_DanseursEspagnols_1898_DVD_ELAN.eaf'
p2980
sg17
I00
sba(i__main__
Movie
p2981
(dp2982
S'errors'
p2983
Nsg3
S'BladeRunner'
p2984
sg5
S'//130.60.131.134/studi/Filme/spaete_Filme/329_Blade_Runner_1982/'
p2985
sg7
S'//130.60.131.134/studi/Filme/spaete_Filme/329_Blade_Runner_1982/329_1_1_BladeRunner_1982_DVD_ELAN_export2.txt'
p2986
sg9
(lp2987
I329
aI1
aI1
asg11
S'spaete_Filme/329_Blade_Runner_1982/'
p2988
sg13
I00
sg14
Nsg15
S'//130.60.131.134/studi/Filme/spaete_Filme/329_Blade_Runner_1982/329_1_1_BladeRunner_1982_DVD_ELAN.eaf'
p2989
sg17
I00
sba.