(lp0
(i__main__
Movie
p1
(dp2
S'movie_name'
p3
S'FlightToMars'
p4
sS'folder_path'
p5
S'//130.60.131.134/studi/Filme/mittlere_Filme/2_Flight_to_Mars_1951/'
p6
sS'segmentation_path'
p7
(lp8
sS'filemaker_ID'
p9
(lp10
I2
aI1
aI1
asS'relative_path'
p11
S'mittlere_Filme/2_Flight_to_Mars_1951/'
p12
sS'has_sub_segmentation'
p13
I01
sS'shots'
p14
NsS'elan_path'
p15
S'//130.60.131.134/studi/Filme/mittlere_Filme/2_Flight_to_Mars_1951\\2_1_1_FlightToMars_1951_DVD_ELAN.eaf'
p16
sS'needs_segmentation'
p17
I00
sba(i__main__
Movie
p18
(dp19
g3
S'GoneWithTheWind'
p20
sg5
S'//130.60.131.134/studi/Filme/mittlere_Filme/8_Gone_With_The_Wind_1940/8_1_1_Gone with the Wind_1940_DVD/'
p21
sg7
(lp22
sg9
(lp23
I8
aI1
aI1
asg11
S'mittlere_Filme/8_Gone_With_The_Wind_1940/8_1_1_Gone with the Wind_1940_DVD/'
p24
sg13
I00
sg14
Nsg15
S'//130.60.131.134/studi/Filme/mittlere_Filme/8_Gone_With_The_Wind_1940/8_1_1_Gone with the Wind_1940_DVD\\8_1_1_GoneWithTheWind_Part1_1940_DVD_ELAN.eaf'
p25
sg17
I00
sba(i__main__
Movie
p26
(dp27
g3
S'GoneWithTheWind'
p28
sg5
S'//130.60.131.134/studi/Filme/mittlere_Filme/8_Gone_With_The_Wind_1940/8_1_2_Gone with the Wind_1940_DVD/'
p29
sg7
(lp30
sg9
(lp31
I8
aI1
aI2
asg11
S'mittlere_Filme/8_Gone_With_The_Wind_1940/8_1_2_Gone with the Wind_1940_DVD/'
p32
sg13
I00
sg14
Nsg15
S'//130.60.131.134/studi/Filme/mittlere_Filme/8_Gone_With_The_Wind_1940/8_1_2_Gone with the Wind_1940_DVD\\8_1_2_GoneWithTheWind_Part2_1940_DVD_ELAN.eaf'
p33
sg17
I00
sba(i__main__
Movie
p34
(dp35
g3
S'WingsOfTheMorning'
p36
sg5
S'//130.60.131.134/studi/Filme/mittlere_Filme/13_Wings_of_the_Morning_1937/'
p37
sg7
(lp38
S'//130.60.131.134/studi/Filme/mittlere_Filme/13_Wings_of_the_Morning_1937\\13_1_2_WingsOfTheMorning_1937_DVD_ELAN.txt'
p39
asg9
(lp40
I13
aI1
aI2
asg11
S'mittlere_Filme/13_Wings_of_the_Morning_1937/'
p41
sg13
I01
sg14
Nsg15
S'//130.60.131.134/studi/Filme/mittlere_Filme/13_Wings_of_the_Morning_1937\\13_1_2_WingsOfTheMorning_1937_DVD_ELAN.eaf'
p42
sg17
I00
sba(i__main__
Movie
p43
(dp44
g3
S'UneFemmeEstUneFemme'
p45
sg5
S'//130.60.131.134/studi/Filme/spaete_Filme/14_Une_Femme_est_une_Femme_1961/'
p46
sg7
(lp47
S'//130.60.131.134/studi/Filme/spaete_Filme/14_Une_Femme_est_une_Femme_1961\\14_1_1_UneFemmeEstUneFemme_1961_DVD_ELAN_BF.txt'
p48
asg9
(lp49
I14
aI1
aI1
asg11
S'spaete_Filme/14_Une_Femme_est_une_Femme_1961/'
p50
sg13
I00
sg14
Nsg15
S'//130.60.131.134/studi/Filme/spaete_Filme/14_Une_Femme_est_une_Femme_1961\\14_1_1_UneFemmeEstUneFemme_1961_DVD_ELAN_BF.eaf'
p51
sg17
I00
sba(i__main__
Movie
p52
(dp53
g3
S'JourDeFete'
p54
sg5
S'//130.60.131.134/studi/Filme/mittlere_Filme/25_Jour_de_fete_1949/'
p55
sg7
(lp56
S'//130.60.131.134/studi/Filme/mittlere_Filme/25_Jour_de_fete_1949\\25_1_1_JourDeFete_1949_DVD_ELAN.txt'
p57
asg9
(lp58
I25
aI1
aI1
asg11
S'mittlere_Filme/25_Jour_de_fete_1949/'
p59
sg13
I00
sg14
Nsg15
S'//130.60.131.134/studi/Filme/mittlere_Filme/25_Jour_de_fete_1949\\ELAN_Projektdatei\\25_1_1_JourDeFete_1949_DVD_ELAN.eaf'
p60
sg17
I00
sba(i__main__
Movie
p61
(dp62
g3
S'JoanTheWoman'
p63
sg5
S'//130.60.131.134/studi/Filme/frueher_Film/26_Joan_the_Woman_1916/'
p64
sg7
(lp65
sg9
(lp66
I26
aI1
aI1
asg11
S'frueher_Film/26_Joan_the_Woman_1916/'
p67
sg13
I01
sg14
Nsg15
S'//130.60.131.134/studi/Filme/frueher_Film/26_Joan_the_Woman_1916\\26_1_1_JoanTheWoman_1916_DVD_ELAN.eaf'
p68
sg17
I00
sba(i__main__
Movie
p69
(dp70
g3
S'LaPouleAuxOeufsDor'
p71
sg5
S'//130.60.131.134/studi/Filme/frueher_Film/31_La_Poule_Aux_Oeufs_Dor_1905/'
p72
sg7
(lp73
sg9
(lp74
I31
aI1
aI2
asg11
S'frueher_Film/31_La_Poule_Aux_Oeufs_Dor_1905/'
p75
sg13
I00
sg14
Nsg15
S'//130.60.131.134/studi/Filme/frueher_Film/31_La_Poule_Aux_Oeufs_Dor_1905\\31_1_2_LaPouleAuxOeufsDor_1905_ELAN.eaf'
p76
sg17
I00
sba(i__main__
Movie
p77
(dp78
g3
S'LePalaisDesMilleEtUneNuits'
p79
sg5
S'//130.60.131.134/studi/Filme/frueher_Film/37_Le_Palais_Des_Mille_Et_Une_Nuits_1905/'
p80
sg7
(lp81
sg9
(lp82
I37
aI1
aI1
asg11
S'frueher_Film/37_Le_Palais_Des_Mille_Et_Une_Nuits_1905/'
p83
sg13
I00
sg14
Nsg15
S'//130.60.131.134/studi/Filme/frueher_Film/37_Le_Palais_Des_Mille_Et_Une_Nuits_1905\\37_1_1_LePalaisDesMilleEtUneNuits_1905_DVD_ELAN.eaf'
p84
sg17
I00
sba(i__main__
Movie
p85
(dp86
g3
S'Redskin'
p87
sg5
S'//130.60.131.134/studi/Filme/frueher_Film/39_Redskin_1929/'
p88
sg7
(lp89
sg9
(lp90
I39
aI1
aI2
asg11
S'frueher_Film/39_Redskin_1929/'
p91
sg13
I00
sg14
Nsg15
S'//130.60.131.134/studi/Filme/frueher_Film/39_Redskin_1929\\39_1_2_Redskin_1929_DVD_ELAN.eaf'
p92
sg17
I00
sba(i__main__
Movie
p93
(dp94
g3
S'TheRedLantern'
p95
sg5
S'//130.60.131.134/studi/Filme/frueher_Film/47_The_Red_Lantern_1919/'
p96
sg7
(lp97
sg9
(lp98
I47
aI1
aI1
asg11
S'frueher_Film/47_The_Red_Lantern_1919/'
p99
sg13
I01
sg14
Nsg15
S'//130.60.131.134/studi/Filme/frueher_Film/47_The_Red_Lantern_1919\\47_1_1_TheRedLantern_1919_DVD_ELAN.eaf'
p100
sg17
I00
sba(i__main__
Movie
p101
(dp102
g3
S'LaCucaracha'
p103
sg5
S'//130.60.131.134/studi/Filme/mittlere_Filme/48_La_Cucaracha_1934/'
p104
sg7
(lp105
sg9
(lp106
I48
aI1
aI1
asg11
S'mittlere_Filme/48_La_Cucaracha_1934/'
p107
sg13
I00
sg14
Nsg15
S'//130.60.131.134/studi/Filme/mittlere_Filme/48_La_Cucaracha_1934\\ELAN_Projektdatei\\48_1_1_LaCucaracha_1934_DVD_ELAN.eaf'
p108
sg17
I00
sba(i__main__
Movie
p109
(dp110
g3
S'BeckySharp'
p111
sg5
S'//130.60.131.134/studi/Filme/mittlere_Filme/63_Becky_Sharp_1935/'
p112
sg7
(lp113
sg9
(lp114
I63
aI1
aI2
asg11
S'mittlere_Filme/63_Becky_Sharp_1935/'
p115
sg13
I01
sg14
Nsg15
S'//130.60.131.134/studi/Filme/mittlere_Filme/63_Becky_Sharp_1935\\63_1_2_BeckySharp_1935_DVD_ELAN.eaf'
p116
sg17
I00
sba(i__main__
Movie
p117
(dp118
g3
S'PierrotLeFou'
p119
sg5
S'//130.60.131.134/studi/Filme/spaete_Filme/69_Pierrot_le_Fou_1965/'
p120
sg7
(lp121
S'//130.60.131.134/studi/Filme/spaete_Filme/69_Pierrot_le_Fou_1965\\69_PierrotLeFou_1965_DVD_ELAN_BF.txt'
p122
asg9
(lp123
I69
aI1
aI1
asg11
S'spaete_Filme/69_Pierrot_le_Fou_1965/'
p124
sg13
I00
sg14
Nsg15
S'//130.60.131.134/studi/Filme/spaete_Filme/69_Pierrot_le_Fou_1965\\69_1_1_PierrotLeFou_1965_DVD_ELAN_BF_korr.eaf'
p125
sg17
I00
sba(i__main__
Movie
p126
(dp127
g3
S'LeMepris'
p128
sg5
S'//130.60.131.134/studi/Filme/spaete_Filme/108_Le_Mepris_1964/'
p129
sg7
(lp130
S'//130.60.131.134/studi/Filme/spaete_Filme/108_Le_Mepris_1964\\108_1_1_LeMepris_DVD_ELAN_BF.txt'
p131
asg9
(lp132
I108
aI1
aI1
asg11
S'spaete_Filme/108_Le_Mepris_1964/'
p133
sg13
I00
sg14
Nsg15
S'//130.60.131.134/studi/Filme/spaete_Filme/108_Le_Mepris_1964\\108_1_1_LeMepris_DVD_ELAN_BF.eaf'
p134
sg17
I00
sba(i__main__
Movie
p135
(dp136
g3
S'TheFourFeathers'
p137
sg5
S'//130.60.131.134/studi/Filme/mittlere_Filme/127_The_Four_Feathers_1939/'
p138
sg7
(lp139
sg9
(lp140
I127
aI1
aI1
asg11
S'mittlere_Filme/127_The_Four_Feathers_1939/'
p141
sg13
I01
sg14
Nsg15
S'//130.60.131.134/studi/Filme/mittlere_Filme/127_The_Four_Feathers_1939\\127_1_1_TheFourFeathers_1939_DVD_ELAN.eaf'
p142
sg17
I00
sba(i__main__
Movie
p143
(dp144
g3
S'GoldDiggersOfBroadway'
p145
sg5
S'//130.60.131.134/studi/Filme/frueher_Film/142_Gold_Diggers_of_Broadway_1929/'
p146
sg7
(lp147
sg9
(lp148
I142
aI1
aI1
asg11
S'frueher_Film/142_Gold_Diggers_of_Broadway_1929/'
p149
sg13
I00
sg14
Nsg15
S'//130.60.131.134/studi/Filme/frueher_Film/142_Gold_Diggers_of_Broadway_1929\\142_1_1_GoldDiggersOfBroadway_1929_DVD_ELAN.eaf'
p150
sg17
I00
sba(i__main__
Movie
p151
(dp152
g3
S'Gribiche'
p153
sg5
S'//130.60.131.134/studi/Filme/frueher_Film/161_Gribiche_1926/'
p154
sg7
(lp155
S'//130.60.131.134/studi/Filme/frueher_Film/161_Gribiche_1926\\161_1_1_Gribiche_1926_DVD_ELAN.txt'
p156
asg9
(lp157
I161
aI1
aI1
asg11
S'frueher_Film/161_Gribiche_1926/'
p158
sg13
I01
sg14
Nsg15
S'//130.60.131.134/studi/Filme/frueher_Film/161_Gribiche_1926\\161_1_1_Gribiche_1926_DVD_ELAN.eaf'
p159
sg17
I00
sba(i__main__
Movie
p160
(dp161
g3
S'LaRoue'
p162
sg5
S'//130.60.131.134/studi/Filme/frueher_Film/167_La_Roue_1923/167_1_1_LaRoue_1923_DVD/'
p163
sg7
(lp164
sg9
(lp165
I167
aI1
aI1
asg11
S'frueher_Film/167_La_Roue_1923/167_1_1_LaRoue_1923_DVD/'
p166
sg13
I01
sg14
Nsg15
S'//130.60.131.134/studi/Filme/frueher_Film/167_La_Roue_1923/167_1_1_LaRoue_1923_DVD\\167_1_1_LaRoue_1923_DVD_ELAN.eaf'
p167
sg17
I00
sba(i__main__
Movie
p168
(dp169
g3
S'LaRoue'
p170
sg5
S'//130.60.131.134/studi/Filme/frueher_Film/167_La_Roue_1923/167_1_2_LaRoue_1923_DVD/'
p171
sg7
(lp172
sg9
(lp173
I167
aI1
aI2
asg11
S'frueher_Film/167_La_Roue_1923/167_1_2_LaRoue_1923_DVD/'
p174
sg13
I01
sg14
Nsg15
S'//130.60.131.134/studi/Filme/frueher_Film/167_La_Roue_1923/167_1_2_LaRoue_1923_DVD\\167_1_2_LaRoue_1923_DVD_ELAN.eaf'
p175
sg17
I00
sba(i__main__
Movie
p176
(dp177
g3
S'TheRedShoes'
p178
sg5
S'//130.60.131.134/studi/Filme/mittlere_Filme/180_The_Red_Shoes_1948/'
p179
sg7
(lp180
S'//130.60.131.134/studi/Filme/mittlere_Filme/180_The_Red_Shoes_1948\\180_1_1_TheRedShoes_1948_DVD_ELAN.txt'
p181
asg9
(lp182
I180
aI1
aI1
asg11
S'mittlere_Filme/180_The_Red_Shoes_1948/'
p183
sg13
I00
sg14
Nsg15
S'//130.60.131.134/studi/Filme/mittlere_Filme/180_The_Red_Shoes_1948\\ELAN_Projektdatei\\180_1_1_TheRedShoes_1948_DVD_ELAN.eaf'
p184
sg17
I00
sba(i__main__
Movie
p185
(dp186
g3
S'Kolberg'
p187
sg5
S'//130.60.131.134/studi/Filme/mittlere_Filme/183_Kolberg_1945/'
p188
sg7
(lp189
S'//130.60.131.134/studi/Filme/mittlere_Filme/183_Kolberg_1945\\183_1_3_Kolberg_1945_DVD_ELAN.txt'
p190
asg9
(lp191
I183
aI1
aI3
asg11
S'mittlere_Filme/183_Kolberg_1945/'
p192
sg13
I00
sg14
Nsg15
S'//130.60.131.134/studi/Filme/mittlere_Filme/183_Kolberg_1945\\183_1_3_Kolberg_1945_DVD_ELAN.eaf'
p193
sg17
I00
sba(i__main__
Movie
p194
(dp195
g3
S'BlackNarcissus'
p196
sg5
S'//130.60.131.134/studi/Filme/mittlere_Filme/184_Black_Narcissus_1947/'
p197
sg7
(lp198
S'//130.60.131.134/studi/Filme/mittlere_Filme/184_Black_Narcissus_1947\\184_1_1_BlackNarcissus_1947_DVD_ELAN_BF.txt'
p199
asg9
(lp200
I184
aI1
aI1
asg11
S'mittlere_Filme/184_Black_Narcissus_1947/'
p201
sg13
I00
sg14
Nsg15
S'//130.60.131.134/studi/Filme/mittlere_Filme/184_Black_Narcissus_1947\\184_1_1_BlackNarcissus_1947_DVD_ELAN_BF.eaf'
p202
sg17
I00
sba(i__main__
Movie
p203
(dp204
g3
S'LesRosesMagiques'
p205
sg5
S'//130.60.131.134/studi/Filme/frueher_Film/191_Les_Roses_Magiques_1906/'
p206
sg7
(lp207
sg9
(lp208
I191
aI1
aI1
asg11
S'frueher_Film/191_Les_Roses_Magiques_1906/'
p209
sg13
I00
sg14
Nsg15
S'//130.60.131.134/studi/Filme/frueher_Film/191_Les_Roses_Magiques_1906\\191_1_1_LesRosesMagiques_DVD_ELAN.eaf'
p210
sg17
I00
sba(i__main__
Movie
p211
(dp212
g3
S'MortDeMarat'
p213
sg5
S'//130.60.131.134/studi/Filme/frueher_Film/198_Mort_de_Marat_1897/'
p214
sg7
(lp215
sg9
(lp216
I198
aI1
aI1
asg11
S'frueher_Film/198_Mort_de_Marat_1897/'
p217
sg13
I00
sg14
Nsg15
S'//130.60.131.134/studi/Filme/frueher_Film/198_Mort_de_Marat_1897\\198_1_1_MortDeMarat_DVD_ELAN.eaf'
p218
sg17
I00
sba(i__main__
Movie
p219
(dp220
g3
S'RapsodiaSatanica'
p221
sg5
S'//130.60.131.134/studi/Filme/frueher_Film/199_Rapsodia_Satanica_1917/'
p222
sg7
(lp223
sg9
(lp224
I199
aI1
aI1
asg11
S'frueher_Film/199_Rapsodia_Satanica_1917/'
p225
sg13
I01
sg14
Nsg15
S'//130.60.131.134/studi/Filme/frueher_Film/199_Rapsodia_Satanica_1917\\199_1_1_RapsodiaSatanica_1917_ELAN.eaf'
p226
sg17
I00
sba(i__main__
Movie
p227
(dp228
g3
S'AladinOuLLampeMerveilleuse'
p229
sg5
S'//130.60.131.134/studi/Filme/frueher_Film/206_Aladin_Ou_La_Lampe_Merveilleuse_1906/'
p230
sg7
(lp231
sg9
(lp232
I206
aI1
aI1
asg11
S'frueher_Film/206_Aladin_Ou_La_Lampe_Merveilleuse_1906/'
p233
sg13
I01
sg14
Nsg15
S'//130.60.131.134/studi/Filme/frueher_Film/206_Aladin_Ou_La_Lampe_Merveilleuse_1906\\206_1_1_AladinOuLLampeMerveilleuse_1906_DVD_ELAN.eaf'
p234
sg17
I00
sba(i__main__
Movie
p235
(dp236
g3
S'NewYork'
p237
sg5
S'//130.60.131.134/studi/Filme/mittlere_Filme/225_New_York_1938/'
p238
sg7
(lp239
S'//130.60.131.134/studi/Filme/mittlere_Filme/225_New_York_1938\\225_1_1_NewYork_1938_DVD_ELAN.txt'
p240
asg9
(lp241
I225
aI1
aI1
asg11
S'mittlere_Filme/225_New_York_1938/'
p242
sg13
I00
sg14
Nsg15
S'//130.60.131.134/studi/Filme/mittlere_Filme/225_New_York_1938\\225_1_1_NewYork_1938_DVD_ELAN.eaf'
p243
sg17
I00
sba(i__main__
Movie
p244
(dp245
g3
S'TheTrailOfTheLonesomePine'
p246
sg5
S'//130.60.131.134/studi/Filme/mittlere_Filme/231_The_Trail_of_the_Lonesome_Pine_1936/'
p247
sg7
(lp248
S'//130.60.131.134/studi/Filme/mittlere_Filme/231_The_Trail_of_the_Lonesome_Pine_1936\\231_1_1_TheTrailOfTheLonesomePine_1936_DVD_ELAN.txt'
p249
asg9
(lp250
I231
aI1
aI1
asg11
S'mittlere_Filme/231_The_Trail_of_the_Lonesome_Pine_1936/'
p251
sg13
I01
sg14
Nsg15
S'//130.60.131.134/studi/Filme/mittlere_Filme/231_The_Trail_of_the_Lonesome_Pine_1936\\231_1_1_TheTrailOfTheLonesomePine_1936_DVD_ELAN.eaf'
p252
sg17
I00
sba(i__main__
Movie
p253
(dp254
g3
S'AllThatHeavenAllows'
p255
sg5
S'//130.60.131.134/studi/Filme/spaete_Filme/241_All_That_Heaven_Allows_1955/'
p256
sg7
(lp257
sg9
(lp258
I241
aI1
aI1
asg11
S'spaete_Filme/241_All_That_Heaven_Allows_1955/'
p259
sg13
I00
sg14
Nsg15
S'//130.60.131.134/studi/Filme/spaete_Filme/241_All_That_Heaven_Allows_1955\\241_1_1_AllThatHeavenAllows_1955_DVD_ELAN_BF.eaf'
p260
sg17
I00
sba(i__main__
Movie
p261
(dp262
g3
S'SeiDonnePerLAssassino'
p263
sg5
S'//130.60.131.134/studi/Filme/spaete_Filme/261_SeiDonnePerLAssassino_1964/'
p264
sg7
(lp265
S'//130.60.131.134/studi/Filme/spaete_Filme/261_SeiDonnePerLAssassino_1964\\261_1_1_SeiDonnePerLAssassino_1964_DVD_ELAN_BF.txt'
p266
aS'//130.60.131.134/studi/Filme/spaete_Filme/261_SeiDonnePerLAssassino_1964\\261_1_1_SeiDonnePerLAssassino_1964_DVD_ELAN_BF_korr2.txt'
p267
asg9
(lp268
I261
aI1
aI1
asg11
S'spaete_Filme/261_SeiDonnePerLAssassino_1964/'
p269
sg13
I00
sg14
Nsg15
S'//130.60.131.134/studi/Filme/spaete_Filme/261_SeiDonnePerLAssassino_1964\\261_1_1_SeiDonnePerLAssassino_1964_DVD_ELAN_BF_korr2.eaf'
p270
sg17
I00
sba(i__main__
Movie
p271
(dp272
g3
S'TheFluteOfKrishna'
p273
sg5
S'//130.60.131.134/studi/Filme/frueher_Film/269_The_Flute_Of_Krishna_1926/'
p274
sg7
(lp275
sg9
(lp276
I269
aI1
aI2
asg11
S'frueher_Film/269_The_Flute_Of_Krishna_1926/'
p277
sg13
I00
sg14
Nsg15
S'//130.60.131.134/studi/Filme/frueher_Film/269_The_Flute_Of_Krishna_1926\\269_1_2_TheFluteOfKrishna_1926_DVD_Elan.eaf'
p278
sg17
I00
sba(i__main__
Movie
p279
(dp280
g3
S'IlMisteroDiOberwald'
p281
sg5
S'//130.60.131.134/studi/Filme/spaete_Filme/277_Il_mistero_di_Oberwald_1981/'
p282
sg7
(lp283
S'//130.60.131.134/studi/Filme/spaete_Filme/277_Il_mistero_di_Oberwald_1981\\277_1_1_IlMisteroDiOberwald_1981_DVD.txt'
p284
asg9
(lp285
I277
aI1
aI1
asg11
S'spaete_Filme/277_Il_mistero_di_Oberwald_1981/'
p286
sg13
I00
sg14
Nsg15
S'//130.60.131.134/studi/Filme/spaete_Filme/277_Il_mistero_di_Oberwald_1981\\277_1_1_IlMisteroDiOberwald_1981_DVD.eaf'
p287
sg17
I00
sba(i__main__
Movie
p288
(dp289
g3
S'Possession'
p290
sg5
S'//130.60.131.134/studi/Filme/spaete_Filme/278_Possession_1981/'
p291
sg7
(lp292
sg9
(lp293
I278
aI1
aI1
asg11
S'spaete_Filme/278_Possession_1981/'
p294
sg13
I01
sg14
Nsg15
S'//130.60.131.134/studi/Filme/spaete_Filme/278_Possession_1981\\278_1_1_Possession_1981_DVD_ELAN.eaf'
p295
sg17
I00
sba(i__main__
Movie
p296
(dp297
g3
S'Kika'
p298
sg5
S'//130.60.131.134/studi/Filme/spaete_Filme/280_Kika_1990/'
p299
sg7
(lp300
S'//130.60.131.134/studi/Filme/spaete_Filme/280_Kika_1990\\280_1_1_Kika_1993_DVD_ELAN_export.txt'
p301
asg9
(lp302
I280
aI1
aI1
asg11
S'spaete_Filme/280_Kika_1990/'
p303
sg13
I01
sg14
Nsg15
S'//130.60.131.134/studi/Filme/spaete_Filme/280_Kika_1990\\280_1_1_Kika_1993_DVD_ELAN.eaf'
p304
sg17
I00
sba(i__main__
Movie
p305
(dp306
g3
S'NorthByNorthwest'
p307
sg5
S'//130.60.131.134/studi/Filme/spaete_Filme/282_NorthByNorthwest_1959/'
p308
sg7
(lp309
S'//130.60.131.134/studi/Filme/spaete_Filme/282_NorthByNorthwest_1959\\282_1_3_NorthByNorthwest_1959_BD_ELAN_BF.txt'
p310
asg9
(lp311
I282
aI1
aI3
asg11
S'spaete_Filme/282_NorthByNorthwest_1959/'
p312
sg13
I00
sg14
Nsg15
S'//130.60.131.134/studi/Filme/spaete_Filme/282_NorthByNorthwest_1959\\282_1_3_NorthByNorthwest_1959_BD_ELAN_BF.eaf'
p313
sg17
I00
sba(i__main__
Movie
p314
(dp315
g3
S'ToCatchAThief'
p316
sg5
S'//130.60.131.134/studi/Filme/spaete_Filme/287_To_Catch_A_Thief_1955/'
p317
sg7
(lp318
S'//130.60.131.134/studi/Filme/spaete_Filme/287_To_Catch_A_Thief_1955\\287_1_1_ToCatchAThief_1955_Bluray_ELAN_BF.txt'
p319
asg9
(lp320
I287
aI1
aI1
asg11
S'spaete_Filme/287_To_Catch_A_Thief_1955/'
p321
sg13
I00
sg14
Nsg15
S'//130.60.131.134/studi/Filme/spaete_Filme/287_To_Catch_A_Thief_1955\\287_1_1_ToCatchAThief_1955_Bluray_ELAN_BF.eaf'
p322
sg17
I00
sba(i__main__
Movie
p323
(dp324
g3
S'HeavenCanWait'
p325
sg5
S'//130.60.131.134/studi/Filme/mittlere_Filme/289_Heaven_Can_Wait_1943/'
p326
sg7
(lp327
S'//130.60.131.134/studi/Filme/mittlere_Filme/289_Heaven_Can_Wait_1943\\289_1_1_HeavenCanWait_1943_DVD_ELAN.txt'
p328
asg9
(lp329
I289
aI1
aI1
asg11
S'mittlere_Filme/289_Heaven_Can_Wait_1943/'
p330
sg13
I00
sg14
Nsg15
S'//130.60.131.134/studi/Filme/mittlere_Filme/289_Heaven_Can_Wait_1943\\289_1_1_ELAN_Projektdatei\\289_1_1_HeavenCanWait_1943_DVD_ELAN.eaf'
p331
sg17
I00
sba(i__main__
Movie
p332
(dp333
g3
S'Spartacus'
p334
sg5
S'//130.60.131.134/studi/Filme/spaete_Filme/291_Spartacus_1960/'
p335
sg7
(lp336
sg9
(lp337
I291
aI1
aI1
asg11
S'spaete_Filme/291_Spartacus_1960/'
p338
sg13
I00
sg14
Nsg15
S'//130.60.131.134/studi/Filme/spaete_Filme/291_Spartacus_1960\\291_1_1_Spartacus_1960_DVD_ELAN.eaf'
p339
sg17
I00
sba(i__main__
Movie
p340
(dp341
g3
S'Steel'
p342
sg5
S'//130.60.131.134/studi/Filme/mittlere_Filme/300_Steel_1945/'
p343
sg7
(lp344
S'//130.60.131.134/studi/Filme/mittlere_Filme/300_Steel_1945\\300_1_2_Steel_1945_DVD_ELAN.txt'
p345
asg9
(lp346
I300
aI1
aI2
asg11
S'mittlere_Filme/300_Steel_1945/'
p347
sg13
I00
sg14
Nsg15
S'//130.60.131.134/studi/Filme/mittlere_Filme/300_Steel_1945\\300_1_2_Steel_1945_DVD_ELAN.eaf'
p348
sg17
I00
sba(i__main__
Movie
p349
(dp350
g3
S'TheShining'
p351
sg5
S'//130.60.131.134/studi/Filme/spaete_Filme/316_TheShining_1980/'
p352
sg7
(lp353
sg9
(lp354
I316
aI1
aI1
asg11
S'spaete_Filme/316_TheShining_1980/'
p355
sg13
I01
sg14
Nsg15
S'//130.60.131.134/studi/Filme/spaete_Filme/316_TheShining_1980\\316_1_1_TheShining_1980_DVD_ELAN.eaf'
p356
sg17
I00
sba(i__main__
Movie
p357
(dp358
g3
S'DiveBomber'
p359
sg5
S'//130.60.131.134/studi/Filme/mittlere_Filme/324_Dive_Bomber_1941/'
p360
sg7
(lp361
S'//130.60.131.134/studi/Filme/mittlere_Filme/324_Dive_Bomber_1941\\324_1_1_DiveBomber_1941_DVD_ELAN.txt'
p362
asg9
(lp363
I324
aI1
aI1
asg11
S'mittlere_Filme/324_Dive_Bomber_1941/'
p364
sg13
I01
sg14
Nsg15
S'//130.60.131.134/studi/Filme/mittlere_Filme/324_Dive_Bomber_1941\\324_1_1_DiveBomber_1941_DVD_ELAN.eaf'
p365
sg17
I00
sba(i__main__
Movie
p366
(dp367
g3
S'MujeresAlBorde'
p368
sg5
S'//130.60.131.134/studi/Filme/spaete_Filme/337_Mujeres_Al_Borde_De_Un_Ataque_De_Nervios_1988/'
p369
sg7
(lp370
sg9
(lp371
I337
aI1
aI1
asg11
S'spaete_Filme/337_Mujeres_Al_Borde_De_Un_Ataque_De_Nervios_1988/'
p372
sg13
I01
sg14
Nsg15
S'//130.60.131.134/studi/Filme/spaete_Filme/337_Mujeres_Al_Borde_De_Un_Ataque_De_Nervios_1988\\337_1_1_MujeresAlBorde_1988_DVD_ELAN.eaf'
p373
sg17
I00
sba(i__main__
Movie
p374
(dp375
g3
S'TaxiDriver'
p376
sg5
S'//130.60.131.134/studi/Filme/spaete_Filme/338_TaxiDriver_1978/'
p377
sg7
(lp378
S'//130.60.131.134/studi/Filme/spaete_Filme/338_TaxiDriver_1978\\338_1_1_TaxiDriver_1976_DVD_ELAN.txt'
p379
asg9
(lp380
I338
aI1
aI1
asg11
S'spaete_Filme/338_TaxiDriver_1978/'
p381
sg13
I00
sg14
Nsg15
S'//130.60.131.134/studi/Filme/spaete_Filme/338_TaxiDriver_1978\\338_1_1_TaxiDriver_1976_DVD_ELAN.eaf'
p382
sg17
I00
sba(i__main__
Movie
p383
(dp384
g3
S'UnderCapricorn'
p385
sg5
S'//130.60.131.134/studi/Filme/mittlere_Filme/353_Under_Capricorn_1949/'
p386
sg7
(lp387
sg9
(lp388
I353
aI1
aI1
asg11
S'mittlere_Filme/353_Under_Capricorn_1949/'
p389
sg13
I00
sg14
Nsg15
S'//130.60.131.134/studi/Filme/mittlere_Filme/353_Under_Capricorn_1949\\353_1_1_UnderCapricorn_1949_DVD_ELAN.eaf'
p390
sg17
I00
sba(i__main__
Movie
p391
(dp392
g3
S'MetamorphoseDuPapillon'
p393
sg5
S'//130.60.131.134/studi/Filme/frueher_Film/362_Metamorphose_Du_Papillon_1904/'
p394
sg7
(lp395
sg9
(lp396
I362
aI1
aI1
asg11
S'frueher_Film/362_Metamorphose_Du_Papillon_1904/'
p397
sg13
I00
sg14
Nsg15
S'//130.60.131.134/studi/Filme/frueher_Film/362_Metamorphose_Du_Papillon_1904\\362_1_1_MetamorphoseDuPapillon_1904_DVD_ELAN.eaf'
p398
sg17
I00
sba(i__main__
Movie
p399
(dp400
g3
S'CyranoDeBergerac'
p401
sg5
S'//130.60.131.134/studi/Filme/frueher_Film/364_Cyrano_De_Bergerac_1923/'
p402
sg7
(lp403
sg9
(lp404
I364
aI1
aI1
asg11
S'frueher_Film/364_Cyrano_De_Bergerac_1923/'
p405
sg13
I00
sg14
Nsg15
S'//130.60.131.134/studi/Filme/frueher_Film/364_Cyrano_De_Bergerac_1923\\364_1_1_CyranoDeBergerac_1923_DVD_ELAN.eaf'
p406
sg17
I00
sba(i__main__
Movie
p407
(dp408
g3
S'Cyclo'
p409
sg5
S'//130.60.131.134/studi/Filme/spaete_Filme/365_Cyclo_1995/'
p410
sg7
(lp411
S'//130.60.131.134/studi/Filme/spaete_Filme/365_Cyclo_1995\\365_1_1_Cyclo_1995_DVD_ELAN.txt'
p412
asg9
(lp413
I365
aI1
aI1
asg11
S'spaete_Filme/365_Cyclo_1995/'
p414
sg13
I01
sg14
Nsg15
S'//130.60.131.134/studi/Filme/spaete_Filme/365_Cyclo_1995\\ELAN Projektdatei\\365_1_1_Cyclo_1995_DVD_ELAN.eaf'
p415
sg17
I00
sba(i__main__
Movie
p416
(dp417
g3
S'Solayaris'
p418
sg5
S'//130.60.131.134/studi/Filme/spaete_Filme/366_Solayaris_1972/'
p419
sg7
(lp420
S'//130.60.131.134/studi/Filme/spaete_Filme/366_Solayaris_1972\\366_1_1_Solayaris_1972_DVD_ELAN_export.txt'
p421
asg9
(lp422
I366
aI1
aI1
asg11
S'spaete_Filme/366_Solayaris_1972/'
p423
sg13
I01
sg14
Nsg15
S'//130.60.131.134/studi/Filme/spaete_Filme/366_Solayaris_1972\\366_1_1_Solayaris_1972_DVD_ELAN.eaf'
p424
sg17
I00
sba(i__main__
Movie
p425
(dp426
g3
S'LassieComeHome'
p427
sg5
S'//130.60.131.134/studi/Filme/mittlere_Filme/369_Lassie_Come_Home_1943/'
p428
sg7
(lp429
sg9
(lp430
I369
aI1
aI1
asg11
S'mittlere_Filme/369_Lassie_Come_Home_1943/'
p431
sg13
I01
sg14
Nsg15
S'//130.60.131.134/studi/Filme/mittlere_Filme/369_Lassie_Come_Home_1943\\369_1_1_LassieComeHome_1943_DVD_ELAN.eaf'
p432
sg17
I00
sba(i__main__
Movie
p433
(dp434
g3
S'WesternApproaches'
p435
sg5
S'//130.60.131.134/studi/Filme/mittlere_Filme/382_Western_Approaches_1944/'
p436
sg7
(lp437
S'//130.60.131.134/studi/Filme/mittlere_Filme/382_Western_Approaches_1944\\382_1_1_WesternApproaches_1944_DVD_ELAN.txt'
p438
asg9
(lp439
I382
aI1
aI1
asg11
S'mittlere_Filme/382_Western_Approaches_1944/'
p440
sg13
I00
sg14
Nsg15
S'//130.60.131.134/studi/Filme/mittlere_Filme/382_Western_Approaches_1944\\382_1_1_WesternApproaches_1944_DVD_ELAN.eaf'
p441
sg17
I00
sba(i__main__
Movie
p442
(dp443
g3
S'AMatterOfLifeAndDeath'
p444
sg5
S'//130.60.131.134/studi/Filme/mittlere_Filme/386_A_Matter_of_Life_and_Death_1946/'
p445
sg7
(lp446
S'//130.60.131.134/studi/Filme/mittlere_Filme/386_A_Matter_of_Life_and_Death_1946\\386_1_1_AMatterOfLifeAndDeath_1946_DVD_ELAN.txt'
p447
asg9
(lp448
I386
aI1
aI1
asg11
S'mittlere_Filme/386_A_Matter_of_Life_and_Death_1946/'
p449
sg13
I00
sg14
Nsg15
S'//130.60.131.134/studi/Filme/mittlere_Filme/386_A_Matter_of_Life_and_Death_1946\\386_1_1_AMatterOfLifeAndDeath_1946_DVD_ELAN.eaf'
p450
sg17
I00
sba(i__main__
Movie
p451
(dp452
g3
S'DrumsAlongTheMohawk'
p453
sg5
S'//130.60.131.134/studi/Filme/mittlere_Filme/391_Drums_along_the_Mohawk_1939/'
p454
sg7
(lp455
S'//130.60.131.134/studi/Filme/mittlere_Filme/391_Drums_along_the_Mohawk_1939\\391_1_1_DrumsAlongTheMohawk_1939_DVD_ELAN.txt'
p456
asg9
(lp457
I391
aI1
aI1
asg11
S'mittlere_Filme/391_Drums_along_the_Mohawk_1939/'
p458
sg13
I00
sg14
Nsg15
S'//130.60.131.134/studi/Filme/mittlere_Filme/391_Drums_along_the_Mohawk_1939\\391_1_1_DrumsAlongTheMohawk_1939_DVD_ELAN.eaf'
p459
sg17
I00
sba(i__main__
Movie
p460
(dp461
g3
S'Wilson'
p462
sg5
S'//130.60.131.134/studi/Filme/mittlere_Filme/394_Wilson_1944/'
p463
sg7
(lp464
sg9
(lp465
I394
aI1
aI1
asg11
S'mittlere_Filme/394_Wilson_1944/'
p466
sg13
I01
sg14
Nsg15
S'//130.60.131.134/studi/Filme/mittlere_Filme/394_Wilson_1944\\394_1_1_Wilson_1944_DVD_ELAN.eaf'
p467
sg17
I00
sba(i__main__
Movie
p468
(dp469
g3
S'Shane'
p470
sg5
S'//130.60.131.134/studi/Filme/mittlere_Filme/400_Shane_1953/'
p471
sg7
(lp472
S'//130.60.131.134/studi/Filme/mittlere_Filme/400_Shane_1953\\400_1_1_Shane_1953_DVD_ELAN.txt'
p473
asg9
(lp474
I400
aI1
aI1
asg11
S'mittlere_Filme/400_Shane_1953/'
p475
sg13
I00
sg14
Nsg15
S'//130.60.131.134/studi/Filme/mittlere_Filme/400_Shane_1953\\400_1_1_Shane_1953_DVD_ELAN.eaf'
p476
sg17
I00
sba(i__main__
Movie
p477
(dp478
g3
S'TheEpicOfEverest'
p479
sg5
S'//130.60.131.134/studi/Filme/frueher_Film/411_The_Epic_of_Everest_1924/'
p480
sg7
(lp481
sg9
(lp482
I411
aI1
aI1
asg11
S'frueher_Film/411_The_Epic_of_Everest_1924/'
p483
sg13
I00
sg14
Nsg15
S'//130.60.131.134/studi/Filme/frueher_Film/411_The_Epic_of_Everest_1924\\411_1_1_TheEpicOfEverest_1924_DVD_Elan.eaf'
p484
sg17
I00
sba(i__main__
Movie
p485
(dp486
g3
S'DieGoldeneStadt'
p487
sg5
S'//130.60.131.134/studi/Filme/mittlere_Filme/417_Die_goldene_Stadt_1942/'
p488
sg7
(lp489
S'//130.60.131.134/studi/Filme/mittlere_Filme/417_Die_goldene_Stadt_1942\\417_1_1_DieGoldeneStadt_1942_DVD_ELAN.txt'
p490
asg9
(lp491
I417
aI1
aI1
asg11
S'mittlere_Filme/417_Die_goldene_Stadt_1942/'
p492
sg13
I00
sg14
Nsg15
S'//130.60.131.134/studi/Filme/mittlere_Filme/417_Die_goldene_Stadt_1942\\417_1_1_DieGoldeneStadt_1942_DVD_ELAN.eaf'
p493
sg17
I00
sba(i__main__
Movie
p494
(dp495
g3
S'AStarIsBorn'
p496
sg5
S'//130.60.131.134/studi/Filme/mittlere_Filme/434_A_Star_Is_Born_1954/'
p497
sg7
(lp498
sg9
(lp499
I434
aI1
aI1
asg11
S'mittlere_Filme/434_A_Star_Is_Born_1954/'
p500
sg13
I01
sg14
Nsg15
S'//130.60.131.134/studi/Filme/mittlere_Filme/434_A_Star_Is_Born_1954\\434_1_1_AStarIsBorn_1954_DVD_ELAN.eaf'
p501
sg17
I00
sba(i__main__
Movie
p502
(dp503
g3
S'DieFrauMeinerTraeume'
p504
sg5
S'//130.60.131.134/studi/Filme/mittlere_Filme/435_Die_Frau_meiner_Traeume_1944/'
p505
sg7
(lp506
S'//130.60.131.134/studi/Filme/mittlere_Filme/435_Die_Frau_meiner_Traeume_1944\\435_1_1_DieFrauMeinerTraeume_1944_DVD_ELAN.txt'
p507
asg9
(lp508
I435
aI1
aI1
asg11
S'mittlere_Filme/435_Die_Frau_meiner_Traeume_1944/'
p509
sg13
I00
sg14
Nsg15
S'//130.60.131.134/studi/Filme/mittlere_Filme/435_Die_Frau_meiner_Traeume_1944\\435_1_1_DieFrauMeinerTraeume_1944_DVD_ELAN.eaf'
p510
sg17
I00
sba(i__main__
Movie
p511
(dp512
g3
S'RebelWithoutACause'
p513
sg5
S'//130.60.131.134/studi/Filme/spaete_Filme/437_Rebel_Without_A_Cause_1955/'
p514
sg7
(lp515
S'//130.60.131.134/studi/Filme/spaete_Filme/437_Rebel_Without_A_Cause_1955\\437_1_1_RebelWithoutACause_1955_DVD_ELAN_2_export.txt'
p516
asg9
(lp517
I437
aI1
aI1
asg11
S'spaete_Filme/437_Rebel_Without_A_Cause_1955/'
p518
sg13
I01
sg14
Nsg15
S'//130.60.131.134/studi/Filme/spaete_Filme/437_Rebel_Without_A_Cause_1955\\437_1_1_RebelWithoutACause_1955_DVD_ELAN_2.eaf'
p519
sg17
I00
sba(i__main__
Movie
p520
(dp521
g3
S'DownArgentineWay'
p522
sg5
S'//130.60.131.134/studi/Filme/mittlere_Filme/442_Down_Argentine_Way_1940/'
p523
sg7
(lp524
sg9
(lp525
I442
aI1
aI1
asg11
S'mittlere_Filme/442_Down_Argentine_Way_1940/'
p526
sg13
I01
sg14
Nsg15
S'//130.60.131.134/studi/Filme/mittlere_Filme/442_Down_Argentine_Way_1940\\442_1_1_DownArgentineWay_1940_DVD_ELAN.eaf'
p527
sg17
I00
sba(i__main__
Movie
p528
(dp529
g3
S'AnnieGetYourGun'
p530
sg5
S'//130.60.131.134/studi/Filme/mittlere_Filme/474_Annie_Get_Your_Gun_1950/'
p531
sg7
(lp532
S'//130.60.131.134/studi/Filme/mittlere_Filme/474_Annie_Get_Your_Gun_1950\\474_1_1_AnnieGetYourGun_1950_DVD_ELAN.txt'
p533
asg9
(lp534
I474
aI1
aI1
asg11
S'mittlere_Filme/474_Annie_Get_Your_Gun_1950/'
p535
sg13
I00
sg14
Nsg15
S'//130.60.131.134/studi/Filme/mittlere_Filme/474_Annie_Get_Your_Gun_1950\\474_1_1_AnnieGetYourGun_1950_DVD_ELAN.eaf'
p536
sg17
I00
sba(i__main__
Movie
p537
(dp538
g3
S'TheRobe'
p539
sg5
S'//130.60.131.134/studi/Filme/mittlere_Filme/488_The_Robe_1953/'
p540
sg7
(lp541
S'//130.60.131.134/studi/Filme/mittlere_Filme/488_The_Robe_1953\\488_1_1_TheRobe_1953_DVD_ELAN.txt'
p542
asg9
(lp543
I488
aI1
aI1
asg11
S'mittlere_Filme/488_The_Robe_1953/'
p544
sg13
I00
sg14
Nsg15
S'//130.60.131.134/studi/Filme/mittlere_Filme/488_The_Robe_1953\\488_1_1_TheRobe_1953_DVD_ELAN.eaf'
p545
sg17
I00
sba(i__main__
Movie
p546
(dp547
g3
S'RearWindow'
p548
sg5
S'//130.60.131.134/studi/Filme/mittlere_Filme/490_Rear_Window_1954/'
p549
sg7
(lp550
sg9
(lp551
I490
aI1
aI1
asg11
S'mittlere_Filme/490_Rear_Window_1954/'
p552
sg13
I01
sg14
Nsg15
S'//130.60.131.134/studi/Filme/mittlere_Filme/490_Rear_Window_1954\\490_1_1_RearWindow_1954_DVD_ELAN.eaf'
p553
sg17
I00
sba(i__main__
Movie
p554
(dp555
g3
S'SevenBridesForSevenBrothers'
p556
sg5
S'//130.60.131.134/studi/Filme/mittlere_Filme/491_Seven_Brides_for_Seven_Brothers_1954/'
p557
sg7
(lp558
S'//130.60.131.134/studi/Filme/mittlere_Filme/491_Seven_Brides_for_Seven_Brothers_1954\\491_1_1_SevenBridesForSevenBrothers_1954_DVD_ELAN.txt'
p559
asg9
(lp560
I491
aI1
aI1
asg11
S'mittlere_Filme/491_Seven_Brides_for_Seven_Brothers_1954/'
p561
sg13
I01
sg14
Nsg15
S'//130.60.131.134/studi/Filme/mittlere_Filme/491_Seven_Brides_for_Seven_Brothers_1954\\491_1_1_SevenBridesForSevenBrothers_1954_DVD_ELAN.eaf'
p562
sg17
I00
sba(i__main__
Movie
p563
(dp564
g3
S'Gigi'
p565
sg5
S'//130.60.131.134/studi/Filme/spaete_Filme/504_Gigi_1958/'
p566
sg7
(lp567
S'//130.60.131.134/studi/Filme/spaete_Filme/504_Gigi_1958\\504_1_1_Gigi_1958_DVD_ELAN.txt'
p568
asg9
(lp569
I504
aI1
aI1
asg11
S'spaete_Filme/504_Gigi_1958/'
p570
sg13
I00
sg14
Nsg15
S'//130.60.131.134/studi/Filme/spaete_Filme/504_Gigi_1958\\ELAN Projektdatei\\504_1_1_Gigi_1958_DVD_ELAN.eaf'
p571
sg17
I00
sba(i__main__
Movie
p572
(dp573
g3
S'LawrenceOfArabia'
p574
sg5
S'//130.60.131.134/studi/Filme/spaete_Filme/523_Lawrence_of_Arabia_1962/'
p575
sg7
(lp576
S'//130.60.131.134/studi/Filme/spaete_Filme/523_Lawrence_of_Arabia_1962\\523_1_1_LawrenceOfArabia_1962_Bluray_ELAN_export.txt'
p577
asg9
(lp578
I523
aI1
aI1
asg11
S'spaete_Filme/523_Lawrence_of_Arabia_1962/'
p579
sg13
I01
sg14
Nsg15
S'//130.60.131.134/studi/Filme/spaete_Filme/523_Lawrence_of_Arabia_1962\\523_1_1_LawrenceOfArabia_1962_Bluray_ELAN.eaf'
p580
sg17
I00
sba(i__main__
Movie
p581
(dp582
g3
S'FantasticVoyage'
p583
sg5
S'//130.60.131.134/studi/Filme/spaete_Filme/541_Fantastic_Voyage_1966/'
p584
sg7
(lp585
S'//130.60.131.134/studi/Filme/spaete_Filme/541_Fantastic_Voyage_1966\\541_1_1_FantasticVoyage_1966_DVD_ELAN_export.txt'
p586
asg9
(lp587
I541
aI1
aI1
asg11
S'spaete_Filme/541_Fantastic_Voyage_1966/'
p588
sg13
I01
sg14
Nsg15
S'//130.60.131.134/studi/Filme/spaete_Filme/541_Fantastic_Voyage_1966\\541_1_1_FantasticVoyage_1966_DVD_ELAN.eaf'
p589
sg17
I00
sba(i__main__
Movie
p590
(dp591
g3
S'TheBoldCaballero'
p592
sg5
S'//130.60.131.134/studi/Filme/mittlere_Filme/548_The_Bold_Caballero_1936/'
p593
sg7
(lp594
S'//130.60.131.134/studi/Filme/mittlere_Filme/548_The_Bold_Caballero_1936\\548_1_1_TheBoldCaballero_1936_DVD_ELAN.txt'
p595
asg9
(lp596
I548
aI1
aI1
asg11
S'mittlere_Filme/548_The_Bold_Caballero_1936/'
p597
sg13
I00
sg14
Nsg15
S'//130.60.131.134/studi/Filme/mittlere_Filme/548_The_Bold_Caballero_1936\\548_1_1_TheBoldCaballero_1936_DVD_ELAN.eaf'
p598
sg17
I00
sba(i__main__
Movie
p599
(dp600
g3
S'OutCaliforniaWay'
p601
sg5
S'//130.60.131.134/studi/Filme/mittlere_Filme/550_Out_California_Way_1946/'
p602
sg7
(lp603
S'//130.60.131.134/studi/Filme/mittlere_Filme/550_Out_California_Way_1946\\550_1_1_OutCaliforniaWay_1946_DVD_ELAN.txt'
p604
asg9
(lp605
I550
aI1
aI1
asg11
S'mittlere_Filme/550_Out_California_Way_1946/'
p606
sg13
I00
sg14
Nsg15
S'//130.60.131.134/studi/Filme/mittlere_Filme/550_Out_California_Way_1946\\550_1_1_OutCaliforniaWay_1946_DVD_ELAN.eaf'
p607
sg17
I00
sba(i__main__
Movie
p608
(dp609
g3
S'TheGoldwynFollies'
p610
sg5
S'//130.60.131.134/studi/Filme/mittlere_Filme/553_The_Goldwyn_Follies_1938/'
p611
sg7
(lp612
sg9
(lp613
I553
aI1
aI1
asg11
S'mittlere_Filme/553_The_Goldwyn_Follies_1938/'
p614
sg13
I01
sg14
Nsg15
S'//130.60.131.134/studi/Filme/mittlere_Filme/553_The_Goldwyn_Follies_1938\\553_1_1_TheGoldwynFollies_1938_DVD_ELAN.eaf'
p615
sg17
I00
sba(i__main__
Movie
p616
(dp617
g3
S'NothingSacred'
p618
sg5
S'//130.60.131.134/studi/Filme/mittlere_Filme/561_Nothing_Sacred_1937/'
p619
sg7
(lp620
S'//130.60.131.134/studi/Filme/mittlere_Filme/561_Nothing_Sacred_1937\\561_1_1_NothingSacred_1937_DVD_ELAN.txt'
p621
asg9
(lp622
I561
aI1
aI1
asg11
S'mittlere_Filme/561_Nothing_Sacred_1937/'
p623
sg13
I00
sg14
Nsg15
S'//130.60.131.134/studi/Filme/mittlere_Filme/561_Nothing_Sacred_1937\\561_1_1_NothingSacred_1937_DVD_ELAN.eaf'
p624
sg17
I00
sba(i__main__
Movie
p625
(dp626
g3
S'Whoopee'
p627
sg5
S'//130.60.131.134/studi/Filme/frueher_Film/574_Whoopee_1930/'
p628
sg7
(lp629
sg9
(lp630
I574
aI1
aI1
asg11
S'frueher_Film/574_Whoopee_1930/'
p631
sg13
I00
sg14
Nsg15
S'//130.60.131.134/studi/Filme/frueher_Film/574_Whoopee_1930\\574_1_1_Whoopee_1930_ELAN.eaf'
p632
sg17
I00
sba(i__main__
Movie
p633
(dp634
g3
S'TheThiefOfBagdad'
p635
sg5
S'//130.60.131.134/studi/Filme/frueher_Film/613_The_Thief_Of_Bagdad_1924/'
p636
sg7
(lp637
sg9
(lp638
I613
aI1
aI1
asg11
S'frueher_Film/613_The_Thief_Of_Bagdad_1924/'
p639
sg13
I01
sg14
Nsg15
S'//130.60.131.134/studi/Filme/frueher_Film/613_The_Thief_Of_Bagdad_1924\\613_1_1_TheThiefOfBagdad_1924_DVD_ELAN.eaf'
p640
sg17
I00
sba(i__main__
Movie
p641
(dp642
g3
S'Erotikon'
p643
sg5
S'//130.60.131.134/studi/Filme/frueher_Film/614_Erotikon_1920/'
p644
sg7
(lp645
sg9
(lp646
I614
aI1
aI1
asg11
S'frueher_Film/614_Erotikon_1920/'
p647
sg13
I01
sg14
Nsg15
S'//130.60.131.134/studi/Filme/frueher_Film/614_Erotikon_1920\\614_1_1_Erotikon_1920_DVD_ELAN.eaf'
p648
sg17
I00
sba(i__main__
Movie
p649
(dp650
g3
S'BehindTheDoor'
p651
sg5
S'//130.60.131.134/studi/Filme/frueher_Film/616_Behind_The_Door_1919/'
p652
sg7
(lp653
sg9
(lp654
I616
aI1
aI1
asg11
S'frueher_Film/616_Behind_The_Door_1919/'
p655
sg13
I01
sg14
Nsg15
S'//130.60.131.134/studi/Filme/frueher_Film/616_Behind_The_Door_1919\\616_1_1_BehindTheDoor_1919_DVD_ELAN.eaf'
p656
sg17
I00
sba(i__main__
Movie
p657
(dp658
g3
S'InvadersFromMars'
p659
sg5
S'//130.60.131.134/studi/Filme/mittlere_Filme/620_Invaders_from_Mars_1953/'
p660
sg7
(lp661
S'//130.60.131.134/studi/Filme/mittlere_Filme/620_Invaders_from_Mars_1953\\620_1_1_InvadersFromMars_1953_DVD_ELAN.txt'
p662
asg9
(lp663
I620
aI1
aI1
asg11
S'mittlere_Filme/620_Invaders_from_Mars_1953/'
p664
sg13
I01
sg14
Nsg15
S'//130.60.131.134/studi/Filme/mittlere_Filme/620_Invaders_from_Mars_1953\\620_1_1_InvadersFromMars_1953_DVD_ELAN.eaf'
p665
sg17
I00
sba(i__main__
Movie
p666
(dp667
g3
S'DestinationMoon'
p668
sg5
S'//130.60.131.134/studi/Filme/mittlere_Filme/622_Destination_Moon_1950/'
p669
sg7
(lp670
sg9
(lp671
I622
aI1
aI1
asg11
S'mittlere_Filme/622_Destination_Moon_1950/'
p672
sg13
I01
sg14
Nsg15
S'//130.60.131.134/studi/Filme/mittlere_Filme/622_Destination_Moon_1950\\622_1_1_DestinationMoon_1950_DVD_ELAN.eaf'
p673
sg17
I00
sba(i__main__
Movie
p674
(dp675
g3
S'LaFeeAuxFleurs'
p676
sg5
S'//130.60.131.134/studi/Filme/frueher_Film/641_La_Fee_Aux_Fleurs_1905/'
p677
sg7
(lp678
sg9
(lp679
I641
aI1
aI4
asg11
S'frueher_Film/641_La_Fee_Aux_Fleurs_1905/'
p680
sg13
I00
sg14
Nsg15
S'//130.60.131.134/studi/Filme/frueher_Film/641_La_Fee_Aux_Fleurs_1905\\641_1_4_LaFeeAuxFleurs_1905_DVD_ELAN.eaf'
p681
sg17
I00
sba(i__main__
Movie
p682
(dp683
g3
S'LePiedDeMouton'
p684
sg5
S'//130.60.131.134/studi/Filme/frueher_Film/642_Le_Pied_De_Mouton_1907/'
p685
sg7
(lp686
sg9
(lp687
I642
aI1
aI1
asg11
S'frueher_Film/642_Le_Pied_De_Mouton_1907/'
p688
sg13
I00
sg14
Nsg15
S'//130.60.131.134/studi/Filme/frueher_Film/642_Le_Pied_De_Mouton_1907\\642_1_1_LePiedDeMouton_1907_DVD_ELAN.eaf'
p689
sg17
I00
sba(i__main__
Movie
p690
(dp691
g3
S'AssuntaSpina'
p692
sg5
S'//130.60.131.134/studi/Filme/frueher_Film/699_Assunta_Spina_1915/'
p693
sg7
(lp694
sg9
(lp695
I699
aI1
aI1
asg11
S'frueher_Film/699_Assunta_Spina_1915/'
p696
sg13
I01
sg14
Nsg15
S'//130.60.131.134/studi/Filme/frueher_Film/699_Assunta_Spina_1915\\699_1_1_AssuntaSpina_1915_DVD_ELAN.eaf'
p697
sg17
I00
sba(i__main__
Movie
p698
(dp699
g3
S'DasWirtshausImSpessart'
p700
sg5
S'//130.60.131.134/studi/Filme/spaete_Filme/820_Das_Wirtshaus_im_Spessart_1957/'
p701
sg7
(lp702
S'//130.60.131.134/studi/Filme/spaete_Filme/820_Das_Wirtshaus_im_Spessart_1957\\820_1_2_DasWirtshausImSpessart_1957_DVD_ELAN_export.txt'
p703
asg9
(lp704
I820
aI1
aI2
asg11
S'spaete_Filme/820_Das_Wirtshaus_im_Spessart_1957/'
p705
sg13
I01
sg14
Nsg15
S'//130.60.131.134/studi/Filme/spaete_Filme/820_Das_Wirtshaus_im_Spessart_1957\\820_1_2_DasWirtshausImSpessart_1957_DVD_ELAN.eaf'
p706
sg17
I00
sba(i__main__
Movie
p707
(dp708
g3
S'Schwarzwaldmaedel'
p709
sg5
S'//130.60.131.134/studi/Filme/mittlere_Filme/821_Schwarzwaldmaedel_1950/'
p710
sg7
(lp711
S'//130.60.131.134/studi/Filme/mittlere_Filme/821_Schwarzwaldmaedel_1950\\821_1_2_Schwarzwaldmaedel_1950_DVD_ELAN.txt'
p712
asg9
(lp713
I821
aI1
aI2
asg11
S'mittlere_Filme/821_Schwarzwaldmaedel_1950/'
p714
sg13
I01
sg14
Nsg15
S'//130.60.131.134/studi/Filme/mittlere_Filme/821_Schwarzwaldmaedel_1950\\821_1_2_Schwarzwaldmaedel_1950_DVD_ELAN.eaf'
p715
sg17
I00
sba(i__main__
Movie
p716
(dp717
g3
S'ElNegro'
p718
sg5
S'//130.60.131.134/studi/Filme/frueher_Film/830_El_Negro_Que_Tenia_El_Alma_Blanca_1927/'
p719
sg7
(lp720
sg9
(lp721
I830
aI1
aI1
asg11
S'frueher_Film/830_El_Negro_Que_Tenia_El_Alma_Blanca_1927/'
p722
sg13
I01
sg14
Nsg15
S'//130.60.131.134/studi/Filme/frueher_Film/830_El_Negro_Que_Tenia_El_Alma_Blanca_1927\\830_1_1_ElNegro_1927_DVD_ELAN.eaf'
p723
sg17
I00
sba(i__main__
Movie
p724
(dp725
g3
S'Intolerance'
p726
sg5
S'//130.60.131.134/studi/Filme/frueher_Film/832_Intolerance_1916/'
p727
sg7
(lp728
sg9
(lp729
I832
aI1
aI1
asg11
S'frueher_Film/832_Intolerance_1916/'
p730
sg13
I01
sg14
Nsg15
S'//130.60.131.134/studi/Filme/frueher_Film/832_Intolerance_1916\\832_1_1_Intolerance_1916_DVD_Elan.eaf'
p731
sg17
I00
sba(i__main__
Movie
p732
(dp733
g3
S'Frauenschicksale'
p734
sg5
S'//130.60.131.134/studi/Filme/mittlere_Filme/840_Frauenschicksale_1952/'
p735
sg7
(lp736
S'//130.60.131.134/studi/Filme/mittlere_Filme/840_Frauenschicksale_1952\\840_1_1_Frauenschicksale_1952_DVD_ELAN.txt'
p737
asg9
(lp738
I840
aI1
aI1
asg11
S'mittlere_Filme/840_Frauenschicksale_1952/'
p739
sg13
I00
sg14
Nsg15
S'//130.60.131.134/studi/Filme/mittlere_Filme/840_Frauenschicksale_1952\\840_1_1_Frauenschicksale_1952_DVD_ELAN.eaf'
p740
sg17
I00
sba(i__main__
Movie
p741
(dp742
g3
S'AliceInWonderland'
p743
sg5
S'//130.60.131.134/studi/Filme/frueher_Film/851_Alice_In_Wonderland_1915/'
p744
sg7
(lp745
sg9
(lp746
I851
aI1
aI1
asg11
S'frueher_Film/851_Alice_In_Wonderland_1915/'
p747
sg13
I01
sg14
Nsg15
S'//130.60.131.134/studi/Filme/frueher_Film/851_Alice_In_Wonderland_1915\\851_1_1_AliceInWonderland_1915_DVD_ELAN.eaf'
p748
sg17
I00
sba(i__main__
Movie
p749
(dp750
g3
S'ParisTexas'
p751
sg5
S'//130.60.131.134/studi/Filme/spaete_Filme/852_Paris_Texas_1984/'
p752
sg7
(lp753
sg9
(lp754
I852
aI1
aI1
asg11
S'spaete_Filme/852_Paris_Texas_1984/'
p755
sg13
I00
sg14
Nsg15
S'//130.60.131.134/studi/Filme/spaete_Filme/852_Paris_Texas_1984\\852_1_1_ParisTexas_1984_DVD_ELAN_BF.eaf'
p756
sg17
I00
sba(i__main__
Movie
p757
(dp758
g3
S'DieNibelungen'
p759
sg5
S'//130.60.131.134/studi/Filme/frueher_Film/854_Die_Nibelungen_1924/854_1_1_DieNibelungen_1924_DVD/'
p760
sg7
(lp761
sg9
(lp762
I854
aI1
aI1
asg11
S'frueher_Film/854_Die_Nibelungen_1924/854_1_1_DieNibelungen_1924_DVD/'
p763
sg13
I01
sg14
Nsg15
S'//130.60.131.134/studi/Filme/frueher_Film/854_Die_Nibelungen_1924/854_1_1_DieNibelungen_1924_DVD\\854_1_1_DieNibelungen_1924_DVD_ELAN.eaf'
p764
sg17
I00
sba(i__main__
Movie
p765
(dp766
g3
S'DieNibelungen'
p767
sg5
S'//130.60.131.134/studi/Filme/frueher_Film/854_Die_Nibelungen_1924/854_2_1_DieNibelungen_1924_DVD/'
p768
sg7
(lp769
sg9
(lp770
I854
aI2
aI1
asg11
S'frueher_Film/854_Die_Nibelungen_1924/854_2_1_DieNibelungen_1924_DVD/'
p771
sg13
I01
sg14
Nsg15
S'//130.60.131.134/studi/Filme/frueher_Film/854_Die_Nibelungen_1924/854_2_1_DieNibelungen_1924_DVD\\854_2_1_DieNibelungen_1924_DVD_ELAN.eaf'
p772
sg17
I00
sba(i__main__
Movie
p773
(dp774
g3
S'Napoleon'
p775
sg5
S'//130.60.131.134/studi/Filme/frueher_Film/860_Napoleon_1927/860_1_1_Napoleon_1927/'
p776
sg7
(lp777
sg9
(lp778
I860
aI1
aI1
asg11
S'frueher_Film/860_Napoleon_1927/860_1_1_Napoleon_1927/'
p779
sg13
I00
sg14
Nsg15
S'//130.60.131.134/studi/Filme/frueher_Film/860_Napoleon_1927/860_1_1_Napoleon_1927\\860_1_1_Napoleon_1927_Disc1_ELAN.eaf'
p780
sg17
I00
sba(i__main__
Movie
p781
(dp782
g3
S'Napoleon'
p783
sg5
S'//130.60.131.134/studi/Filme/frueher_Film/860_Napoleon_1927/860_1_2_Napoleon_1927/'
p784
sg7
(lp785
sg9
(lp786
I860
aI1
aI2
asg11
S'frueher_Film/860_Napoleon_1927/860_1_2_Napoleon_1927/'
p787
sg13
I00
sg14
Nsg15
S'//130.60.131.134/studi/Filme/frueher_Film/860_Napoleon_1927/860_1_2_Napoleon_1927\\860_1_2_Napoleon_1927_Disc2_ELAN.eaf'
p788
sg17
I00
sba(i__main__
Movie
p789
(dp790
g3
S'Napoleon'
p791
sg5
S'//130.60.131.134/studi/Filme/frueher_Film/860_Napoleon_1927/860_1_3_Napoleon_1927/'
p792
sg7
(lp793
sg9
(lp794
I860
aI1
aI3
asg11
S'frueher_Film/860_Napoleon_1927/860_1_3_Napoleon_1927/'
p795
sg13
I00
sg14
Nsg15
S'//130.60.131.134/studi/Filme/frueher_Film/860_Napoleon_1927/860_1_3_Napoleon_1927\\860_1_3_Napoleon_1927_Disc3_ELAN.eaf'
p796
sg17
I00
sba(i__main__
Movie
p797
(dp798
g3
S'Napoleon'
p799
sg5
S'//130.60.131.134/studi/Filme/frueher_Film/860_Napoleon_1927/860_1_4_Napoleon_1927/'
p800
sg7
(lp801
sg9
(lp802
I860
aI1
aI4
asg11
S'frueher_Film/860_Napoleon_1927/860_1_4_Napoleon_1927/'
p803
sg13
I00
sg14
Nsg15
S'//130.60.131.134/studi/Filme/frueher_Film/860_Napoleon_1927/860_1_4_Napoleon_1927\\860_1_4_Napoleon_1927_Disc4_ELAN.eaf'
p804
sg17
I00
sba(i__main__
Movie
p805
(dp806
g3
S'TheOpenRoad'
p807
sg5
S'//130.60.131.134/studi/Filme/frueher_Film/878_The_Open_Road_1925/'
p808
sg7
(lp809
sg9
(lp810
I878
aI1
aI1
asg11
S'frueher_Film/878_The_Open_Road_1925/'
p811
sg13
I00
sg14
Nsg15
S'//130.60.131.134/studi/Filme/frueher_Film/878_The_Open_Road_1925\\878_1_1_TheOpenRoad_1925_DVD_ELAN.eaf'
p812
sg17
I00
sba(i__main__
Movie
p813
(dp814
g3
S'MaerkischeFahrt'
p815
sg5
S'//130.60.131.134/studi/Filme/mittlere_Filme/891_Maerkische_Fahrt_1942/'
p816
sg7
(lp817
S'//130.60.131.134/studi/Filme/mittlere_Filme/891_Maerkische_Fahrt_1942\\891_1_3_MaerkischeFahrt_1942_DVD_ELAN.txt'
p818
asg9
(lp819
I891
aI1
aI3
asg11
S'mittlere_Filme/891_Maerkische_Fahrt_1942/'
p820
sg13
I00
sg14
Nsg15
S'//130.60.131.134/studi/Filme/mittlere_Filme/891_Maerkische_Fahrt_1942\\891_1_3_MaerkischeFahrt_1942_DVD_ELAN.eaf'
p821
sg17
I00
sba(i__main__
Movie
p822
(dp823
g3
S'LaGrandeBouffe'
p824
sg5
S'//130.60.131.134/studi/Filme/spaete_Filme/897_La_Grande_Bouffe_1973/'
p825
sg7
(lp826
sg9
(lp827
I897
aI1
aI2
asg11
S'spaete_Filme/897_La_Grande_Bouffe_1973/'
p828
sg13
I00
sg14
Nsg15
S'//130.60.131.134/studi/Filme/spaete_Filme/897_La_Grande_Bouffe_1973\\897_1_2_LaGrandeBouffe_1973_DVD_ELAN.eaf'
p829
sg17
I00
sba(i__main__
Movie
p830
(dp831
g3
S'MorteAVenezia'
p832
sg5
S'//130.60.131.134/studi/Filme/spaete_Filme/902_MorteAVenezia_1971/'
p833
sg7
(lp834
S'//130.60.131.134/studi/Filme/spaete_Filme/902_MorteAVenezia_1971\\902_1_1_MorteAVenezia_1971_DVD_ELAN_BF.txt'
p835
asg9
(lp836
I902
aI1
aI1
asg11
S'spaete_Filme/902_MorteAVenezia_1971/'
p837
sg13
I00
sg14
Nsg15
S'//130.60.131.134/studi/Filme/spaete_Filme/902_MorteAVenezia_1971\\902_1_1_MorteAVenezia_1971_DVD_ELAN_BF.eaf'
p838
sg17
I00
sba(i__main__
Movie
p839
(dp840
g3
S'TulitikkutehtaanTytto'
p841
sg5
S'//130.60.131.134/studi/Filme/spaete_Filme/931_Tulitikkutehtaan_Tytto_1990/'
p842
sg7
(lp843
S'//130.60.131.134/studi/Filme/spaete_Filme/931_Tulitikkutehtaan_Tytto_1990\\1400_1_1_StarWarsV_1980_DVD_ELAN_export.txt'
p844
aS'//130.60.131.134/studi/Filme/spaete_Filme/931_Tulitikkutehtaan_Tytto_1990\\931_1_1_TulitikkutehtaanTytto_1990_DVD_ELAN_export2.txt'
p845
asg9
(lp846
I931
aI1
aI1
asg11
S'spaete_Filme/931_Tulitikkutehtaan_Tytto_1990/'
p847
sg13
I00
sg14
Nsg15
S'//130.60.131.134/studi/Filme/spaete_Filme/931_Tulitikkutehtaan_Tytto_1990\\931_1_1_TulitikkutehtaanTytto_1990_DVD_ELAN.eaf'
p848
sg17
I00
sba(i__main__
Movie
p849
(dp850
g3
S'DodgeCity'
p851
sg5
S'//130.60.131.134/studi/Filme/mittlere_Filme/948_Dodge_City_1939/'
p852
sg7
(lp853
sg9
(lp854
I948
aI1
aI1
asg11
S'mittlere_Filme/948_Dodge_City_1939/'
p855
sg13
I00
sg14
Nsg15
S'//130.60.131.134/studi/Filme/mittlere_Filme/948_Dodge_City_1939\\948_1_1_DodgeCity_1939_DVD_ELAN.eaf'
p856
sg17
I00
sba(i__main__
Movie
p857
(dp858
g3
S'ParisOnParade'
p859
sg5
S'//130.60.131.134/studi/Filme/mittlere_Filme/959_Paris_on_Parade_1938/'
p860
sg7
(lp861
S'//130.60.131.134/studi/Filme/mittlere_Filme/959_Paris_on_Parade_1938\\959_1_1_ParisOnParade_1938_DVD_ELAN.txt'
p862
asg9
(lp863
I959
aI1
aI1
asg11
S'mittlere_Filme/959_Paris_on_Parade_1938/'
p864
sg13
I00
sg14
Nsg15
S'//130.60.131.134/studi/Filme/mittlere_Filme/959_Paris_on_Parade_1938\\959_1_1_ParisOnParade_1938_DVD_ELAN.eaf'
p865
sg17
I00
sba(i__main__
Movie
p866
(dp867
g3
S'MysteryOfTheWaxMuseum'
p868
sg5
S'//130.60.131.134/studi/Filme/frueher_Film/1018_Mystery_Of_The_Wax_Museum_1933/'
p869
sg7
(lp870
sg9
(lp871
I1018
aI1
aI1
asg11
S'frueher_Film/1018_Mystery_Of_The_Wax_Museum_1933/'
p872
sg13
I01
sg14
Nsg15
S'//130.60.131.134/studi/Filme/frueher_Film/1018_Mystery_Of_The_Wax_Museum_1933\\1018_1_1_MysteryOfTheWaxMuseum_1933_DVD_Elan.eaf'
p873
sg17
I00
sba(i__main__
Movie
p874
(dp875
g3
S'YolandaAndTheThief'
p876
sg5
S'//130.60.131.134/studi/Filme/mittlere_Filme/1038_Yolanda_and_the_Thief_1945/'
p877
sg7
(lp878
S'//130.60.131.134/studi/Filme/mittlere_Filme/1038_Yolanda_and_the_Thief_1945\\1038_1_1_YolandaAndTheThief_1945_DVD_ELAN.txt'
p879
asg9
(lp880
I1038
aI1
aI1
asg11
S'mittlere_Filme/1038_Yolanda_and_the_Thief_1945/'
p881
sg13
I01
sg14
Nsg15
S'//130.60.131.134/studi/Filme/mittlere_Filme/1038_Yolanda_and_the_Thief_1945\\1038_1_1_YolandaAndTheThief_1945_DVD_ELAN.eaf'
p882
sg17
I00
sba(i__main__
Movie
p883
(dp884
g3
S'HellsAngels'
p885
sg5
S'//130.60.131.134/studi/Filme/frueher_Film/1062_Hells_Angels_1930/'
p886
sg7
(lp887
sg9
(lp888
I1062
aI1
aI3
asg11
S'frueher_Film/1062_Hells_Angels_1930/'
p889
sg13
I01
sg14
Nsg15
S'//130.60.131.134/studi/Filme/frueher_Film/1062_Hells_Angels_1930\\1062_1_3_HellsAngels_1930_DVD_ELAN.eaf'
p890
sg17
I00
sba(i__main__
Movie
p891
(dp892
g3
S'K\xf6rkarlen'
p893
sg5
S'//130.60.131.134/studi/Filme/frueher_Film/1081_K\xf6rkarlen_1921/'
p894
sg7
(lp895
sg9
(lp896
I1081
aI1
aI1
asg11
S'frueher_Film/1081_K\xf6rkarlen_1921/'
p897
sg13
I01
sg14
Nsg15
S'//130.60.131.134/studi/Filme/frueher_Film/1081_K\xf6rkarlen_1921\\1081_1_1_K\xf6rkarlen_1921_DVD_ELAN.eaf'
p898
sg17
I00
sba(i__main__
Movie
p899
(dp900
g3
S'NightAndDay'
p901
sg5
S'//130.60.131.134/studi/Filme/mittlere_Filme/1110_Night_and_Day_1946/'
p902
sg7
(lp903
sg9
(lp904
I1110
aI1
aI1
asg11
S'mittlere_Filme/1110_Night_and_Day_1946/'
p905
sg13
I01
sg14
Nsg15
S'//130.60.131.134/studi/Filme/mittlere_Filme/1110_Night_and_Day_1946\\1110_1_1_NightAndDay_1946_DVD_ELAN.eaf'
p906
sg17
I00
sba(i__main__
Movie
p907
(dp908
g3
S'ImmerBereit'
p909
sg5
S'//130.60.131.134/studi/Filme/mittlere_Filme/1169_Immer_bereit_1950/'
p910
sg7
(lp911
S'//130.60.131.134/studi/Filme/mittlere_Filme/1169_Immer_bereit_1950\\1169_1_1_ImmerBereit_1950_DVD_ELAN.txt'
p912
asg9
(lp913
I1169
aI1
aI1
asg11
S'mittlere_Filme/1169_Immer_bereit_1950/'
p914
sg13
I00
sg14
Nsg15
S'//130.60.131.134/studi/Filme/mittlere_Filme/1169_Immer_bereit_1950\\1169_1_1_ImmerBereit_1950_DVD_ELAN.eaf'
p915
sg17
I00
sba(i__main__
Movie
p916
(dp917
g3
S'TeethOfSteel'
p918
sg5
S'//130.60.131.134/studi/Filme/mittlere_Filme/1213_Teeth_of_Steel_1942/'
p919
sg7
(lp920
S'//130.60.131.134/studi/Filme/mittlere_Filme/1213_Teeth_of_Steel_1942\\1213_1_1_TeethOfSteel_1942_DVD_ELAN.txt'
p921
asg9
(lp922
I1213
aI1
aI1
asg11
S'mittlere_Filme/1213_Teeth_of_Steel_1942/'
p923
sg13
I00
sg14
Nsg15
S'//130.60.131.134/studi/Filme/mittlere_Filme/1213_Teeth_of_Steel_1942\\1213_1_1_TeethOfSteel_1942_DVD_ELAN.eaf'
p924
sg17
I00
sba(i__main__
Movie
p925
(dp926
g3
S'TheCoronationOfTheirMajestiesKingGeorgeVIAndQueenElizabeth'
p927
sg5
S'//130.60.131.134/studi/Filme/mittlere_Filme/1230_The_Coronation_of_Their_Majesties_King_George_VI_and_Queen_Elizabeth_1937/'
p928
sg7
(lp929
S'//130.60.131.134/studi/Filme/mittlere_Filme/1230_The_Coronation_of_Their_Majesties_King_George_VI_and_Queen_Elizabeth_1937\\1230_1_1_TheCoronationOfTheirMajestiesKingGeorgeVIAndQueenElizabeth_1937_DVD_ELAN.txt'
p930
asg9
(lp931
I1230
aI1
aI1
asg11
S'mittlere_Filme/1230_The_Coronation_of_Their_Majesties_King_George_VI_and_Queen_Elizabeth_1937/'
p932
sg13
I00
sg14
Nsg15
S'//130.60.131.134/studi/Filme/mittlere_Filme/1230_The_Coronation_of_Their_Majesties_King_George_VI_and_Queen_Elizabeth_1937\\1230_1_1_TheCoronationOfTheirMajestiesKingGeorgeVIAndQueenElizabeth_1937_DVD_ELAN.eaf'
p933
sg17
I00
sba(i__main__
Movie
p934
(dp935
g3
S'TheGodfather'
p936
sg5
S'//130.60.131.134/studi/Filme/spaete_Filme/1242_The_Godfather_1972/'
p937
sg7
(lp938
S'//130.60.131.134/studi/Filme/spaete_Filme/1242_The_Godfather_1972\\1242_1_1_TheGodfather_1972_DVD_ELAN.txt'
p939
asg9
(lp940
I1242
aI1
aI1
asg11
S'spaete_Filme/1242_The_Godfather_1972/'
p941
sg13
I01
sg14
Nsg15
S'//130.60.131.134/studi/Filme/spaete_Filme/1242_The_Godfather_1972\\ELAN Projektdatei\\1242_1_1_TheGodfather_1972_DVD_ELAN.eaf'
p942
sg17
I00
sba(i__main__
Movie
p943
(dp944
g3
S'TheRiver'
p945
sg5
S'//130.60.131.134/studi/Filme/mittlere_Filme/1278_The_River_1951/'
p946
sg7
(lp947
S'//130.60.131.134/studi/Filme/mittlere_Filme/1278_The_River_1951\\1278_1_1_TheRiver_1951_DVD_ELAN.txt'
p948
asg9
(lp949
I1278
aI1
aI1
asg11
S'mittlere_Filme/1278_The_River_1951/'
p950
sg13
I00
sg14
Nsg15
S'//130.60.131.134/studi/Filme/mittlere_Filme/1278_The_River_1951\\1278_1_1_TheRiver_1951_DVD_ELAN.eaf'
p951
sg17
I00
sba(i__main__
Movie
p952
(dp953
g3
S'TheLivingDaylights'
p954
sg5
S'//130.60.131.134/studi/Filme/spaete_Filme/1296_The_Living_Daylights_1987/'
p955
sg7
(lp956
S'//130.60.131.134/studi/Filme/spaete_Filme/1296_The_Living_Daylights_1987\\1296_1_1_TheLivingDaylights_1987_DVD_ELAN.txt'
p957
asg9
(lp958
I1296
aI1
aI1
asg11
S'spaete_Filme/1296_The_Living_Daylights_1987/'
p959
sg13
I00
sg14
Nsg15
S'//130.60.131.134/studi/Filme/spaete_Filme/1296_The_Living_Daylights_1987\\ELAN Projektdatei\\1296_1_1_TheLivingDaylights_1987_DVD_ELAN.eaf'
p960
sg17
I00
sba(i__main__
Movie
p961
(dp962
g3
S'Aliens'
p963
sg5
S'//130.60.131.134/studi/Filme/spaete_Filme/1307_Aliens_1986/'
p964
sg7
(lp965
S'//130.60.131.134/studi/Filme/spaete_Filme/1307_Aliens_1986\\1307_1_1_Aliens_1986_DVD_ELAN.txt'
p966
asg9
(lp967
I1307
aI1
aI1
asg11
S'spaete_Filme/1307_Aliens_1986/'
p968
sg13
I00
sg14
Nsg15
S'//130.60.131.134/studi/Filme/spaete_Filme/1307_Aliens_1986\\ELAN Projektdatei\\1307_1_1_Aliens_1986_DVD_ELAN.eaf'
p969
sg17
I00
sba(i__main__
Movie
p970
(dp971
g3
S'Batman'
p972
sg5
S'//130.60.131.134/studi/Filme/spaete_Filme/1318_Batman_1989/'
p973
sg7
(lp974
S'//130.60.131.134/studi/Filme/spaete_Filme/1318_Batman_1989\\1318_1_1_Batman_1989_DVD_ELAN.txt'
p975
asg9
(lp976
I1318
aI1
aI1
asg11
S'spaete_Filme/1318_Batman_1989/'
p977
sg13
I00
sg14
Nsg15
S'//130.60.131.134/studi/Filme/spaete_Filme/1318_Batman_1989\\ELAN Projektdatei\\1318_1_1_Batman_1989_DVD_ELAN.eaf'
p978
sg17
I00
sba(i__main__
Movie
p979
(dp980
g3
S'OutOfAfrica'
p981
sg5
S'//130.60.131.134/studi/Filme/spaete_Filme/1381_Out_Of_Africa_1985/'
p982
sg7
(lp983
S'//130.60.131.134/studi/Filme/spaete_Filme/1381_Out_Of_Africa_1985\\1381_1_1_OutOfAfrica_1985_DVD_ELAN.txt'
p984
asg9
(lp985
I1381
aI1
aI1
asg11
S'spaete_Filme/1381_Out_Of_Africa_1985/'
p986
sg13
I00
sg14
Nsg15
S'//130.60.131.134/studi/Filme/spaete_Filme/1381_Out_Of_Africa_1985\\ELAN Projektdatei\\1381_1_1_OutOfAfrica_1985_DVD_ELAN.eaf'
p987
sg17
I00
sba(i__main__
Movie
p988
(dp989
g3
S'StarWarsV'
p990
sg5
S'//130.60.131.134/studi/Filme/spaete_Filme/1400_Star_Wars_V_1980/'
p991
sg7
(lp992
sg9
(lp993
I1400
aI1
aI1
asg11
S'spaete_Filme/1400_Star_Wars_V_1980/'
p994
sg13
I01
sg14
Nsg15
S'//130.60.131.134/studi/Filme/spaete_Filme/1400_Star_Wars_V_1980\\1400_1_1_StarWarsV_1980_DVD_ELAN.eaf'
p995
sg17
I00
sba(i__main__
Movie
p996
(dp997
g3
S'TheFrenchConnection'
p998
sg5
S'//130.60.131.134/studi/Filme/spaete_Filme/1408_The_French_Connection_1971/'
p999
sg7
(lp1000
S'//130.60.131.134/studi/Filme/spaete_Filme/1408_The_French_Connection_1971\\1408_1_1_TheFrenchConnection_1971_DVD_ELAN_export.txt'
p1001
aS'//130.60.131.134/studi/Filme/spaete_Filme/1408_The_French_Connection_1971\\1510_1_1_DasBoot_1981_DVD_ELAN_export.txt'
p1002
asg9
(lp1003
I1408
aI1
aI1
asg11
S'spaete_Filme/1408_The_French_Connection_1971/'
p1004
sg13
I01
sg14
Nsg15
S'//130.60.131.134/studi/Filme/spaete_Filme/1408_The_French_Connection_1971\\1408_1_1_TheFrenchConnection_1971_DVD_ELAN.eaf'
p1005
sg17
I00
sba(i__main__
Movie
p1006
(dp1007
g3
S'Brigadoon'
p1008
sg5
S'//130.60.131.134/studi/Filme/mittlere_Filme/1475_Brigadoon_1954/'
p1009
sg7
(lp1010
S'//130.60.131.134/studi/Filme/mittlere_Filme/1475_Brigadoon_1954\\1475_1_1_Brigadoon_1954_DVD_ELAN.txt'
p1011
asg9
(lp1012
I1475
aI1
aI1
asg11
S'mittlere_Filme/1475_Brigadoon_1954/'
p1013
sg13
I00
sg14
Nsg15
S'//130.60.131.134/studi/Filme/mittlere_Filme/1475_Brigadoon_1954\\1475_1_1_Brigadoon_1954_DVD_ELAN.eaf'
p1014
sg17
I00
sba(i__main__
Movie
p1015
(dp1016
g3
S'DasBoot'
p1017
sg5
S'//130.60.131.134/studi/Filme/spaete_Filme/1510_Das_Boot_1981/'
p1018
sg7
(lp1019
S'//130.60.131.134/studi/Filme/spaete_Filme/1510_Das_Boot_1981\\1510_1_1_DasBoot_1981_DVD_ELAN_export.txt'
p1020
aS'//130.60.131.134/studi/Filme/spaete_Filme/1510_Das_Boot_1981\\1510_1_1_DasBoot_1981_DVD_ELAN_export.csv'
p1021
aS'//130.60.131.134/studi/Filme/spaete_Filme/1510_Das_Boot_1981\\1510_1_1_DasBoot_1981_DVD_FCT_snapchots.csv'
p1022
aS'//130.60.131.134/studi/Filme/spaete_Filme/1510_Das_Boot_1981\\1510_1_1_DasBoot_1981_DVD_FCT_temp.csv'
p1023
asg9
(lp1024
I1510
aI1
aI1
asg11
S'spaete_Filme/1510_Das_Boot_1981/'
p1025
sg13
I01
sg14
Nsg15
S'//130.60.131.134/studi/Filme/spaete_Filme/1510_Das_Boot_1981\\1510_1_1_DasBoot_1981_DVD_ELAN.eaf'
p1026
sg17
I00
sba(i__main__
Movie
p1027
(dp1028
g3
S'DaysOfHeaven'
p1029
sg5
S'//130.60.131.134/studi/Filme/spaete_Filme/1517_Days_of_Heaven_1978/'
p1030
sg7
(lp1031
S'//130.60.131.134/studi/Filme/spaete_Filme/1517_Days_of_Heaven_1978\\1517_1_1_DaysOfHeaven_1978_DVD_ELAN.txt'
p1032
asg9
(lp1033
I1517
aI1
aI1
asg11
S'spaete_Filme/1517_Days_of_Heaven_1978/'
p1034
sg13
I00
sg14
Nsg15
S'//130.60.131.134/studi/Filme/spaete_Filme/1517_Days_of_Heaven_1978\\ELAN Projektdatei\\1517_1_1_DaysOfHeaven_1978_DVD_ELAN.eaf'
p1035
sg17
I00
sba(i__main__
Movie
p1036
(dp1037
g3
S'DickTracy'
p1038
sg5
S'//130.60.131.134/studi/Filme/spaete_Filme/1535_Dick_Tracy_1990/'
p1039
sg7
(lp1040
S'//130.60.131.134/studi/Filme/spaete_Filme/1535_Dick_Tracy_1990\\1535_1_1_DickTracy_1990_DVD_ELAN_2.txt'
p1041
asg9
(lp1042
I1535
aI1
aI1
asg11
S'spaete_Filme/1535_Dick_Tracy_1990/'
p1043
sg13
I01
sg14
Nsg15
S'//130.60.131.134/studi/Filme/spaete_Filme/1535_Dick_Tracy_1990\\1535_1_1_DickTracy_1990_DVD_ELAN.eaf'
p1044
sg17
I00
sba(i__main__
Movie
p1045
(dp1046
g3
S'DieEheDerMariaBraun'
p1047
sg5
S'//130.60.131.134/studi/Filme/spaete_Filme/1537_Die_Ehe_Der_Maria_Braun_1979/'
p1048
sg7
(lp1049
S'//130.60.131.134/studi/Filme/spaete_Filme/1537_Die_Ehe_Der_Maria_Braun_1979\\1537_1_1_DieEheDerMariaBraun_1979_DVD_ELAN_export.txt'
p1050
asg9
(lp1051
I1537
aI1
aI1
asg11
S'spaete_Filme/1537_Die_Ehe_Der_Maria_Braun_1979/'
p1052
sg13
I00
sg14
Nsg15
S'//130.60.131.134/studi/Filme/spaete_Filme/1537_Die_Ehe_Der_Maria_Braun_1979\\1537_1_1_DieEheDerMariaBraun_1979_DVD_ELAN.eaf'
p1053
sg17
I00
sba(i__main__
Movie
p1054
(dp1055
g3
S'Eolomea'
p1056
sg5
S'//130.60.131.134/studi/Filme/spaete_Filme/1563_Eolomea_1972/'
p1057
sg7
(lp1058
S'//130.60.131.134/studi/Filme/spaete_Filme/1563_Eolomea_1972\\1563_1_1_Eolomea_1972_DVD_ELAN.txt'
p1059
asg9
(lp1060
I1563
aI1
aI1
asg11
S'spaete_Filme/1563_Eolomea_1972/'
p1061
sg13
I01
sg14
Nsg15
S'//130.60.131.134/studi/Filme/spaete_Filme/1563_Eolomea_1972\\ELAN Projektdatei\\1563_1_1_Eolomea_1972_DVD_ELAN.eaf'
p1062
sg17
I00
sba(i__main__
Movie
p1063
(dp1064
g3
S'Flashdance'
p1065
sg5
S'//130.60.131.134/studi/Filme/spaete_Filme/1574_Flashdance_1983/'
p1066
sg7
(lp1067
S'//130.60.131.134/studi/Filme/spaete_Filme/1574_Flashdance_1983\\1574_1_1_Flashdance_1983_DVD_ELAN.txt'
p1068
asg9
(lp1069
I1574
aI1
aI1
asg11
S'spaete_Filme/1574_Flashdance_1983/'
p1070
sg13
I00
sg14
Nsg15
S'//130.60.131.134/studi/Filme/spaete_Filme/1574_Flashdance_1983\\ELAN Projektdatei\\1574_1_1_Flashdance_1983_DVD_ELAN.eaf'
p1071
sg17
I00
sba(i__main__
Movie
p1072
(dp1073
g3
S'LaDoubleVieDeVeronique'
p1074
sg5
S'//130.60.131.134/studi/Filme/spaete_Filme/1654_La_double_vie_de_Veronique_1991/'
p1075
sg7
(lp1076
S'//130.60.131.134/studi/Filme/spaete_Filme/1654_La_double_vie_de_Veronique_1991\\1654_1_1_LaDoubleVieDeVeronique_1991_DVD_ELAN.txt'
p1077
asg9
(lp1078
I1654
aI1
aI1
asg11
S'spaete_Filme/1654_La_double_vie_de_Veronique_1991/'
p1079
sg13
I00
sg14
Nsg15
S'//130.60.131.134/studi/Filme/spaete_Filme/1654_La_double_vie_de_Veronique_1991\\ELAN Projektdatei\\1654_1_1_LaDoubleVieDeVeronique_1991_DVD_ELAN.eaf'
p1080
sg17
I00
sba(i__main__
Movie
p1081
(dp1082
g3
S'LeDernierMetro'
p1083
sg5
S'//130.60.131.134/studi/Filme/spaete_Filme/1669_Le_Dernier_Metro_1980/'
p1084
sg7
(lp1085
S'//130.60.131.134/studi/Filme/spaete_Filme/1669_Le_Dernier_Metro_1980\\1669_1_1_LeDernierMetro_1980_DVD_ELAN_export.txt'
p1086
asg9
(lp1087
I1669
aI1
aI1
asg11
S'spaete_Filme/1669_Le_Dernier_Metro_1980/'
p1088
sg13
I01
sg14
Nsg15
S'//130.60.131.134/studi/Filme/spaete_Filme/1669_Le_Dernier_Metro_1980\\1669_1_1_LeDernierMetro_1980_DVD_ELAN.eaf'
p1089
sg17
I00
sba(i__main__
Movie
p1090
(dp1091
g3
S'CeraUnaVoltaIlWest'
p1092
sg5
S'//130.60.131.134/studi/Filme/spaete_Filme/1746_Cera_Una_Volta_Il_West_1968/'
p1093
sg7
(lp1094
S'//130.60.131.134/studi/Filme/spaete_Filme/1746_Cera_Una_Volta_Il_West_1968\\1746_1_1_CeraUnaVoltaIlWest_1968_DVD_ELAN_export.txt'
p1095
asg9
(lp1096
I1746
aI1
aI1
asg11
S'spaete_Filme/1746_Cera_Una_Volta_Il_West_1968/'
p1097
sg13
I01
sg14
Nsg15
S'//130.60.131.134/studi/Filme/spaete_Filme/1746_Cera_Una_Volta_Il_West_1968\\1746_1_1_CeraUnaVoltaIlWest_1968_DVD_ELAN.eaf'
p1098
sg17
I00
sba(i__main__
Movie
p1099
(dp1100
g3
S'Ran'
p1101
sg5
S'//130.60.131.134/studi/Filme/spaete_Filme/1774_Ran_1985/'
p1102
sg7
(lp1103
S'//130.60.131.134/studi/Filme/spaete_Filme/1774_Ran_1985\\1774_1_1_Ran_1985_DVD_ELAN_export.txt'
p1104
asg9
(lp1105
I1774
aI1
aI1
asg11
S'spaete_Filme/1774_Ran_1985/'
p1106
sg13
I01
sg14
Nsg15
S'//130.60.131.134/studi/Filme/spaete_Filme/1774_Ran_1985\\1774_1_1_Ran_1985_DVD_ELAN.eaf'
p1107
sg17
I00
sba(i__main__
Movie
p1108
(dp1109
g3
S'TheLastEmperor'
p1110
sg5
S'//130.60.131.134/studi/Filme/spaete_Filme/1860_The_Last_Emperor_1987/'
p1111
sg7
(lp1112
S'//130.60.131.134/studi/Filme/spaete_Filme/1860_The_Last_Emperor_1987\\1860_1_1_TheLastEmperor_1987_BluRay_ELAN.txt'
p1113
asg9
(lp1114
I1860
aI1
aI1
asg11
S'spaete_Filme/1860_The_Last_Emperor_1987/'
p1115
sg13
I01
sg14
Nsg15
S'//130.60.131.134/studi/Filme/spaete_Filme/1860_The_Last_Emperor_1987\\ELAN Projektdatei\\1860_1_1_TheLastEmperor_1987_BluRay_ELAN.eaf'
p1116
sg17
I00
sba(i__main__
Movie
p1117
(dp1118
g3
S'TheLongLongTrailer'
p1119
sg5
S'//130.60.131.134/studi/Filme/mittlere_Filme/1866_The_Long_Long_Trailer_1953/'
p1120
sg7
(lp1121
S'//130.60.131.134/studi/Filme/mittlere_Filme/1866_The_Long_Long_Trailer_1953\\1866_1_1_TheLongLongTrailer_1953_DVD_ELAN.txt'
p1122
asg9
(lp1123
I1866
aI1
aI1
asg11
S'mittlere_Filme/1866_The_Long_Long_Trailer_1953/'
p1124
sg13
I01
sg14
Nsg15
S'//130.60.131.134/studi/Filme/mittlere_Filme/1866_The_Long_Long_Trailer_1953\\1866_1_1_TheLongLongTrailer_1953_DVD_ELAN.eaf'
p1125
sg17
I00
sba(i__main__
Movie
p1126
(dp1127
g3
S'TheManWhoFellToEarth'
p1128
sg5
S'//130.60.131.134/studi/Filme/spaete_Filme/1868_The_Man_Who_Fell_To_Earth_1976/'
p1129
sg7
(lp1130
S'//130.60.131.134/studi/Filme/spaete_Filme/1868_The_Man_Who_Fell_To_Earth_1976\\1868_1_1_TheManWhoFellToEarth_1976_DVD_ELAN_export.txt'
p1131
asg9
(lp1132
I1868
aI1
aI1
asg11
S'spaete_Filme/1868_The_Man_Who_Fell_To_Earth_1976/'
p1133
sg13
I01
sg14
Nsg15
S'//130.60.131.134/studi/Filme/spaete_Filme/1868_The_Man_Who_Fell_To_Earth_1976\\1868_1_1_TheManWhoFellToEarth_1976_DVD_ELAN.eaf'
p1134
sg17
I00
sba(i__main__
Movie
p1135
(dp1136
g3
S'SilenceLambs'
p1137
sg5
S'//130.60.131.134/studi/Filme/spaete_Filme/1880_SilenceLambs_1991/'
p1138
sg7
(lp1139
sg9
(lp1140
I1880
aI1
aI1
asg11
S'spaete_Filme/1880_SilenceLambs_1991/'
p1141
sg13
I01
sg14
Nsg15
S'//130.60.131.134/studi/Filme/spaete_Filme/1880_SilenceLambs_1991\\1880_1_1_SilenceLambs_1991_DVD_ELAN.eaf'
p1142
sg17
I00
sba(i__main__
Movie
p1143
(dp1144
g3
S'UnaGiornataParticolare'
p1145
sg5
S'//130.60.131.134/studi/Filme/spaete_Filme/1908_UnaGiornataParticolare_1977/'
p1146
sg7
(lp1147
sg9
(lp1148
I1908
aI1
aI1
asg11
S'spaete_Filme/1908_UnaGiornataParticolare_1977/'
p1149
sg13
I01
sg14
Nsg15
S'//130.60.131.134/studi/Filme/spaete_Filme/1908_UnaGiornataParticolare_1977\\1908_1_1_UnaGiornataParticolare_1977.eaf'
p1150
sg17
I00
sba(i__main__
Movie
p1151
(dp1152
g3
S'THX1138'
p1153
sg5
S'//130.60.131.134/studi/Filme/spaete_Filme/1976_THX_1138_1971/'
p1154
sg7
(lp1155
S'//130.60.131.134/studi/Filme/spaete_Filme/1976_THX_1138_1971\\1976_1_1_THX1138_1971_DVD_ELAN_export.txt'
p1156
asg9
(lp1157
I1976
aI1
aI1
asg11
S'spaete_Filme/1976_THX_1138_1971/'
p1158
sg13
I01
sg14
Nsg15
S'//130.60.131.134/studi/Filme/spaete_Filme/1976_THX_1138_1971\\1976_1_1_THX1138_1971_DVD_ELAN.eaf'
p1159
sg17
I00
sba(i__main__
Movie
p1160
(dp1161
g3
S'ImBad'
p1162
sg5
S'//130.60.131.134/studi/Filme/frueher_Film/2020_Im_Bad_1917/'
p1163
sg7
(lp1164
S'//130.60.131.134/studi/Filme/frueher_Film/2020_Im_Bad_1917\\2020_1_3_ImBad_1917_ELAN.txt'
p1165
asg9
(lp1166
I2020
aI1
aI3
asg11
S'frueher_Film/2020_Im_Bad_1917/'
p1167
sg13
I00
sg14
Nsg15
S'//130.60.131.134/studi/Filme/frueher_Film/2020_Im_Bad_1917\\2020_1_3_ImBad_1917_ELAN.eaf'
p1168
sg17
I00
sba(i__main__
Movie
p1169
(dp1170
g3
S'ImWeissenRoessl'
p1171
sg5
S'//130.60.131.134/studi/Filme/mittlere_Filme/2564_Im_Weissen_Roessl_1952/'
p1172
sg7
(lp1173
S'//130.60.131.134/studi/Filme/mittlere_Filme/2564_Im_Weissen_Roessl_1952\\2564_1_1_ImWeissenRoessl_1952_DVD_ELAN.txt'
p1174
asg9
(lp1175
I2564
aI1
aI1
asg11
S'mittlere_Filme/2564_Im_Weissen_Roessl_1952/'
p1176
sg13
I01
sg14
Nsg15
S'//130.60.131.134/studi/Filme/mittlere_Filme/2564_Im_Weissen_Roessl_1952\\2564_1_1_ImWeissenRoessl_1952_DVD_ELAN.eaf'
p1177
sg17
I00
sba(i__main__
Movie
p1178
(dp1179
g3
S'SignaleEinWeltraumabenteuer'
p1180
sg5
S'//130.60.131.134/studi/Filme/spaete_Filme/2887_Signale_Ein_Weltraumabenteuer_1970/'
p1181
sg7
(lp1182
S'//130.60.131.134/studi/Filme/spaete_Filme/2887_Signale_Ein_Weltraumabenteuer_1970\\2887_1_1_SignaleEinWeltraumabenteuer_1970_DVD_ELAN_export.txt'
p1183
asg9
(lp1184
I2887
aI1
aI1
asg11
S'spaete_Filme/2887_Signale_Ein_Weltraumabenteuer_1970/'
p1185
sg13
I01
sg14
Nsg15
S'//130.60.131.134/studi/Filme/spaete_Filme/2887_Signale_Ein_Weltraumabenteuer_1970\\2887_1_1_SignaleEinWeltraumabenteuer_1970_DVD_ELAN.eaf'
p1186
sg17
I00
sba(i__main__
Movie
p1187
(dp1188
g3
S'Wagon'
p1189
sg5
S'//130.60.131.134/studi/Filme/frueher_Film/3076_Wagon_Tracks_1919/'
p1190
sg7
(lp1191
sg9
(lp1192
I3076
aI1
aI1
asg11
S'frueher_Film/3076_Wagon_Tracks_1919/'
p1193
sg13
I01
sg14
Nsg15
S'//130.60.131.134/studi/Filme/frueher_Film/3076_Wagon_Tracks_1919\\3076_1_1_Wagon_Tracks_1919_DVD_ELAN.eaf'
p1194
sg17
I00
sba(i__main__
Movie
p1195
(dp1196
g3
S'ModestyBlaise'
p1197
sg5
S'//130.60.131.134/studi/Filme/spaete_Filme/3085_Modesty_Blaise_1965/'
p1198
sg7
(lp1199
S'//130.60.131.134/studi/Filme/spaete_Filme/3085_Modesty_Blaise_1965\\3085_1_1_ModestyBlaise_1965_DVD_ELAN_BF.txt'
p1200
asg9
(lp1201
I3085
aI1
aI1
asg11
S'spaete_Filme/3085_Modesty_Blaise_1965/'
p1202
sg13
I00
sg14
Nsg15
S'//130.60.131.134/studi/Filme/spaete_Filme/3085_Modesty_Blaise_1965\\3085_1_1_ModestyBlaise_1965_DVD_ELAN_BF.eaf'
p1203
sg17
I00
sba(i__main__
Movie
p1204
(dp1205
g3
S'Frenzy'
p1206
sg5
S'//130.60.131.134/studi/Filme/spaete_Filme/3093_Frenzy_1972/'
p1207
sg7
(lp1208
sg9
(lp1209
I3093
aI1
aI1
asg11
S'spaete_Filme/3093_Frenzy_1972/'
p1210
sg13
I01
sg14
Nsg15
S'//130.60.131.134/studi/Filme/spaete_Filme/3093_Frenzy_1972\\3093_1_1_Frenzy_1972_DVD_ELAN.eaf'
p1211
sg17
I00
sba(i__main__
Movie
p1212
(dp1213
g3
S'LaPeineDuTalion'
p1214
sg5
S'//130.60.131.134/studi/Filme/frueher_Film/3099_La_Peine_Du_Talion_1906/'
p1215
sg7
(lp1216
sg9
(lp1217
I3099
aI1
aI1
asg11
S'frueher_Film/3099_La_Peine_Du_Talion_1906/'
p1218
sg13
I01
sg14
Nsg15
S'//130.60.131.134/studi/Filme/frueher_Film/3099_La_Peine_Du_Talion_1906\\3099_1_1_LaPeineDuTalion_1906_DVD_Elan.eaf'
p1219
sg17
I00
sba(i__main__
Movie
p1220
(dp1221
g3
S'KyuketsukiGokemidoro'
p1222
sg5
S'//130.60.131.134/studi/Filme/spaete_Filme/3100_Kyuketsuki_Gokemidoro_1968/'
p1223
sg7
(lp1224
S'//130.60.131.134/studi/Filme/spaete_Filme/3100_Kyuketsuki_Gokemidoro_1968\\3100_1_1_KyuketsukiGokemidoro_1968_DVD_ELAN_export.txt'
p1225
asg9
(lp1226
I3100
aI1
aI1
asg11
S'spaete_Filme/3100_Kyuketsuki_Gokemidoro_1968/'
p1227
sg13
I01
sg14
Nsg15
S'//130.60.131.134/studi/Filme/spaete_Filme/3100_Kyuketsuki_Gokemidoro_1968\\3100_1_1_KyuketsukiGokemidoro_1968_DVD_ELAN.eaf'
p1228
sg17
I00
sba(i__main__
Movie
p1229
(dp1230
g3
S'KnochuDaisenso'
p1231
sg5
S'//130.60.131.134/studi/Filme/spaete_Filme/3101_Knochu_daisenso_1968/'
p1232
sg7
(lp1233
S'//130.60.131.134/studi/Filme/spaete_Filme/3101_Knochu_daisenso_1968\\3101_1_1_KnochuDaisenso_1968_DVD_ELAN_export.txt'
p1234
asg9
(lp1235
I3101
aI1
aI1
asg11
S'spaete_Filme/3101_Knochu_daisenso_1968/'
p1236
sg13
I01
sg14
Nsg15
S'//130.60.131.134/studi/Filme/spaete_Filme/3101_Knochu_daisenso_1968\\3101_1_1_KnochuDaisenso_1968_DVD_ELAN.eaf'
p1237
sg17
I00
sba(i__main__
Movie
p1238
(dp1239
g3
S'DerWegzudenSternen'
p1240
sg5
S'//130.60.131.134/studi/Filme/spaete_Filme/3102_DerWegzudenSternen_1957/'
p1241
sg7
(lp1242
S'//130.60.131.134/studi/Filme/spaete_Filme/3102_DerWegzudenSternen_1957\\3102_1_1_DerWegzudenSternen_1957_DVD_ELAN_export.txt'
p1243
asg9
(lp1244
I3102
aI1
aI1
asg11
S'spaete_Filme/3102_DerWegzudenSternen_1957/'
p1245
sg13
I01
sg14
Nsg15
S'//130.60.131.134/studi/Filme/spaete_Filme/3102_DerWegzudenSternen_1957\\3102_1_1_DerWegzudenSternen_1957_DVD_ELAN.eaf'
p1246
sg17
I00
sba(i__main__
Movie
p1247
(dp1248
g3
S'DasWachsfigurenkabinett'
p1249
sg5
S'//130.60.131.134/studi/Filme/frueher_Film/3104_Das_Wachsfigurenkabinett_1923/'
p1250
sg7
(lp1251
sg9
(lp1252
I3104
aI1
aI1
asg11
S'frueher_Film/3104_Das_Wachsfigurenkabinett_1923/'
p1253
sg13
I01
sg14
Nsg15
S'//130.60.131.134/studi/Filme/frueher_Film/3104_Das_Wachsfigurenkabinett_1923\\3104_1_1_DasWachsfigurenkabinett_1923_DVD_Elan.eaf'
p1254
sg17
I00
sba(i__main__
Movie
p1255
(dp1256
g3
S'PosleSmerti'
p1257
sg5
S'//130.60.131.134/studi/Filme/frueher_Film/3109_Posle_Smerti_1915/'
p1258
sg7
(lp1259
sg9
(lp1260
I3109
aI1
aI1
asg11
S'frueher_Film/3109_Posle_Smerti_1915/'
p1261
sg13
I01
sg14
Nsg15
S'//130.60.131.134/studi/Filme/frueher_Film/3109_Posle_Smerti_1915\\3109_1_1_PosleSmerti_1915_DVD_ELAN.eaf'
p1262
sg17
I00
sba(i__main__
Movie
p1263
(dp1264
g3
S'AliBabaEtLesQuaranteVoleurs'
p1265
sg5
S'//130.60.131.134/studi/Filme/frueher_Film/3112_Ali_Baba_et_les_Quarante_Voleurs_1902/'
p1266
sg7
(lp1267
sg9
(lp1268
I3112
aI1
aI1
asg11
S'frueher_Film/3112_Ali_Baba_et_les_Quarante_Voleurs_1902/'
p1269
sg13
I00
sg14
Nsg15
S'//130.60.131.134/studi/Filme/frueher_Film/3112_Ali_Baba_et_les_Quarante_Voleurs_1902\\3112_1_1_AliBabaEtLesQuaranteVoleurs_1902_DVD_ELAN.eaf'
p1270
sg17
I00
sba(i__main__
Movie
p1271
(dp1272
g3
S'Salome'
p1273
sg5
S'//130.60.131.134/studi/Filme/frueher_Film/3118_Salome_1922/'
p1274
sg7
(lp1275
sg9
(lp1276
I3118
aI1
aI1
asg11
S'frueher_Film/3118_Salome_1922/'
p1277
sg13
I01
sg14
Nsg15
S'//130.60.131.134/studi/Filme/frueher_Film/3118_Salome_1922\\3118_1_1_Salome_1922_DVD_ELAN.eaf'
p1278
sg17
I00
sba(i__main__
Movie
p1279
(dp1280
g3
S'TroopingTheColour'
p1281
sg5
S'//130.60.131.134/studi/Filme/mittlere_Filme/3133_Trooping_the_Colour_1937/'
p1282
sg7
(lp1283
S'//130.60.131.134/studi/Filme/mittlere_Filme/3133_Trooping_the_Colour_1937\\3133_1_1_TroopingTheColour_1937_DVD_ELAN.txt'
p1284
asg9
(lp1285
I3133
aI1
aI1
asg11
S'mittlere_Filme/3133_Trooping_the_Colour_1937/'
p1286
sg13
I00
sg14
Nsg15
S'//130.60.131.134/studi/Filme/mittlere_Filme/3133_Trooping_the_Colour_1937\\3133_1_1_TroopingTheColour_1937_DVD_ELAN.eaf'
p1287
sg17
I00
sba(i__main__
Movie
p1288
(dp1289
g3
S'OtrokiVoVselennoy'
p1290
sg5
S'//130.60.131.134/studi/Filme/spaete_Filme/3137_Otroki_Vo_Vselennoy_1975/'
p1291
sg7
(lp1292
S'//130.60.131.134/studi/Filme/spaete_Filme/3137_Otroki_Vo_Vselennoy_1975\\3137_1_1_OtrokiVoVselennoy_1975_DVD_ELAN.txt'
p1293
asg9
(lp1294
I3137
aI1
aI1
asg11
S'spaete_Filme/3137_Otroki_Vo_Vselennoy_1975/'
p1295
sg13
I00
sg14
Nsg15
S'//130.60.131.134/studi/Filme/spaete_Filme/3137_Otroki_Vo_Vselennoy_1975\\ELAN Projektdatei\\3137_1_1_OtrokiVoVselennoy_1975_DVD_ELAN.eaf'
p1296
sg17
I00
sba(i__main__
Movie
p1297
(dp1298
g3
S'TheRoyalOccasion'
p1299
sg5
S'//130.60.131.134/studi/Filme/mittlere_Filme/3139_The_Royal_Occasion_1953/'
p1300
sg7
(lp1301
S'//130.60.131.134/studi/Filme/mittlere_Filme/3139_The_Royal_Occasion_1953\\3139_1_1_TheRoyalOccasion_1953_DVD_ELAN.txt'
p1302
asg9
(lp1303
I3139
aI1
aI1
asg11
S'mittlere_Filme/3139_The_Royal_Occasion_1953/'
p1304
sg13
I00
sg14
Nsg15
S'//130.60.131.134/studi/Filme/mittlere_Filme/3139_The_Royal_Occasion_1953\\3139_1_1_TheRoyalOccasion_1953_DVD_ELAN.eaf'
p1305
sg17
I00
sba(i__main__
Movie
p1306
(dp1307
g3
S'TheShelteringSky'
p1308
sg5
S'//130.60.131.134/studi/Filme/spaete_Filme/3144_The_Sheltering_Sky_1990/'
p1309
sg7
(lp1310
S'//130.60.131.134/studi/Filme/spaete_Filme/3144_The_Sheltering_Sky_1990\\3144_1_1_TheShelteringSky_1990_DVD_ELAN_export.txt'
p1311
asg9
(lp1312
I3144
aI1
aI1
asg11
S'spaete_Filme/3144_The_Sheltering_Sky_1990/'
p1313
sg13
I01
sg14
Nsg15
S'//130.60.131.134/studi/Filme/spaete_Filme/3144_The_Sheltering_Sky_1990\\3144_1_1_TheShelteringSky_1990_DVD_ELAN.eaf'
p1314
sg17
I00
sba(i__main__
Movie
p1315
(dp1316
g3
S'TheExorcist'
p1317
sg5
S'//130.60.131.134/studi/Filme/spaete_Filme/3145_TheExorcist_1973/'
p1318
sg7
(lp1319
S'//130.60.131.134/studi/Filme/spaete_Filme/3145_TheExorcist_1973\\3145_1_1_TheExorcist_1973_DVD_ELAN.txt'
p1320
asg9
(lp1321
I3145
aI1
aI1
asg11
S'spaete_Filme/3145_TheExorcist_1973/'
p1322
sg13
I01
sg14
Nsg15
S'//130.60.131.134/studi/Filme/spaete_Filme/3145_TheExorcist_1973\\3145_1_1_TheExorcist_1973_DVD_ELAN.eaf'
p1323
sg17
I00
sba(i__main__
Movie
p1324
(dp1325
g3
S'SuperstitionAndalouse'
p1326
sg5
S'//130.60.131.134/studi/Filme/frueher_Film/3146_Superstition_Andalouse_1912/'
p1327
sg7
(lp1328
sg9
(lp1329
I3146
aI1
aI1
asg11
S'frueher_Film/3146_Superstition_Andalouse_1912/'
p1330
sg13
I00
sg14
Nsg15
S'//130.60.131.134/studi/Filme/frueher_Film/3146_Superstition_Andalouse_1912\\3146_1_1_SuperstitionAndalouse_1912_DVD_ELAN.eaf'
p1331
sg17
I00
sba(i__main__
Movie
p1332
(dp1333
g3
S'ThePirate'
p1334
sg5
S'//130.60.131.134/studi/Filme/mittlere_Filme/3151_The_Pirate_1949/'
p1335
sg7
(lp1336
sg9
(lp1337
I3151
aI1
aI1
asg11
S'mittlere_Filme/3151_The_Pirate_1949/'
p1338
sg13
I01
sg14
Nsg15
S'//130.60.131.134/studi/Filme/mittlere_Filme/3151_The_Pirate_1949\\3151_1_1_ThePirate_1949_DVD_ELAN.eaf'
p1339
sg17
I00
sba(i__main__
Movie
p1340
(dp1341
g3
S'TheBlueLagoon'
p1342
sg5
S'//130.60.131.134/studi/Filme/spaete_Filme/3153_TheBlueLagoon_1980/'
p1343
sg7
(lp1344
S'//130.60.131.134/studi/Filme/spaete_Filme/3153_TheBlueLagoon_1980\\3153_1_1_TheBlueLagoon_1980_DVD_ELAN.txt'
p1345
asg9
(lp1346
I3153
aI1
aI1
asg11
S'spaete_Filme/3153_TheBlueLagoon_1980/'
p1347
sg13
I00
sg14
Nsg15
S'//130.60.131.134/studi/Filme/spaete_Filme/3153_TheBlueLagoon_1980\\3153_1_1_TheBlueLagoon_1980_DVD_ELAN.eaf'
p1348
sg17
I00
sba(i__main__
Movie
p1349
(dp1350
g3
S'TopGun'
p1351
sg5
S'//130.60.131.134/studi/Filme/spaete_Filme/3154_TopGun_1986/'
p1352
sg7
(lp1353
sg9
(lp1354
I3154
aI1
aI1
asg11
S'spaete_Filme/3154_TopGun_1986/'
p1355
sg13
I01
sg14
Nsg15
S'//130.60.131.134/studi/Filme/spaete_Filme/3154_TopGun_1986\\3154_1_1_TopGun_1986.eaf'
p1356
sg17
I00
sba(i__main__
Movie
p1357
(dp1358
g3
S'LesOeufsDePaques'
p1359
sg5
S'//130.60.131.134/studi/Filme/frueher_Film/3156_Les_Oeufs_De_Paques_1907/'
p1360
sg7
(lp1361
sg9
(lp1362
I3156
aI1
aI1
asg11
S'frueher_Film/3156_Les_Oeufs_De_Paques_1907/'
p1363
sg13
I00
sg14
Nsg15
S'//130.60.131.134/studi/Filme/frueher_Film/3156_Les_Oeufs_De_Paques_1907\\3156_1_1_LesOeufsDePaques_1907_DVD_ELAN.eaf'
p1364
sg17
I00
sba(i__main__
Movie
p1365
(dp1366
g3
S'LoieFuller'
p1367
sg5
S'//130.60.131.134/studi/Filme/frueher_Film/3157_Loie_Fuller_1905/'
p1368
sg7
(lp1369
sg9
(lp1370
I3157
aI1
aI1
asg11
S'frueher_Film/3157_Loie_Fuller_1905/'
p1371
sg13
I00
sg14
Nsg15
S'//130.60.131.134/studi/Filme/frueher_Film/3157_Loie_Fuller_1905\\3157_1_1_LoieFuller_1905_DVD_ELAN.eaf'
p1372
sg17
I00
sba(i__main__
Movie
p1373
(dp1374
g3
S'UnDrameAuFondDeLaMer'
p1375
sg5
S'//130.60.131.134/studi/Filme/frueher_Film/3159_Un_Drame_Au_Fond_De_La_Mer_1901/'
p1376
sg7
(lp1377
sg9
(lp1378
I3159
aI1
aI1
asg11
S'frueher_Film/3159_Un_Drame_Au_Fond_De_La_Mer_1901/'
p1379
sg13
I00
sg14
Nsg15
S'//130.60.131.134/studi/Filme/frueher_Film/3159_Un_Drame_Au_Fond_De_La_Mer_1901\\3159_1_1_UnDrameAuFondDeLaMer_1901_DVD_ELAN.eaf'
p1380
sg17
I00
sba(i__main__
Movie
p1381
(dp1382
g3
S'TheLoveCharm'
p1383
sg5
S'//130.60.131.134/studi/Filme/frueher_Film/3161_The_Love_Charm_1928/'
p1384
sg7
(lp1385
sg9
(lp1386
I3161
aI1
aI1
asg11
S'frueher_Film/3161_The_Love_Charm_1928/'
p1387
sg13
I00
sg14
Nsg15
S'//130.60.131.134/studi/Filme/frueher_Film/3161_The_Love_Charm_1928\\3161_1_1_TheLoveCharm_1928_DVD_ELAN.eaf'
p1388
sg17
I00
sba(i__main__
Movie
p1389
(dp1390
g3
S"L'Atlantide"
p1391
sg5
S'//130.60.131.134/studi/Filme/frueher_Film/3165_LAtlantide_1921/'
p1392
sg7
(lp1393
sg9
(lp1394
I3165
aI1
aI1
asg11
S'frueher_Film/3165_LAtlantide_1921/'
p1395
sg13
I00
sg14
Nsg15
S"//130.60.131.134/studi/Filme/frueher_Film/3165_LAtlantide_1921\\3165_1_1_L'Atlantide_1921_ELAN.eaf"
p1396
sg17
I00
sba(i__main__
Movie
p1397
(dp1398
g3
S'WesternUnion'
p1399
sg5
S'//130.60.131.134/studi/Filme/mittlere_Filme/3170_Western_Union_1941/'
p1400
sg7
(lp1401
S'//130.60.131.134/studi/Filme/mittlere_Filme/3170_Western_Union_1941\\3170_1_1_WesternUnion_1941_DVD_ELAN.txt'
p1402
asg9
(lp1403
I3170
aI1
aI1
asg11
S'mittlere_Filme/3170_Western_Union_1941/'
p1404
sg13
I00
sg14
Nsg15
S'//130.60.131.134/studi/Filme/mittlere_Filme/3170_Western_Union_1941\\3170_1_1_WesternUnion_1941_DVD_ELAN.eaf'
p1405
sg17
I00
sba(i__main__
Movie
p1406
(dp1407
g3
S'LaFiestaDeSantaBarbara'
p1408
sg5
S'//130.60.131.134/studi/Filme/mittlere_Filme/3172_La_Fiesta_de_Santa_Barbara_1935/'
p1409
sg7
(lp1410
S'//130.60.131.134/studi/Filme/mittlere_Filme/3172_La_Fiesta_de_Santa_Barbara_1935\\3172_1_1_LaFiestaDeSantaBarbara_1935_DVD_ELAN.txt'
p1411
asg9
(lp1412
I3172
aI1
aI1
asg11
S'mittlere_Filme/3172_La_Fiesta_de_Santa_Barbara_1935/'
p1413
sg13
I00
sg14
Nsg15
S'//130.60.131.134/studi/Filme/mittlere_Filme/3172_La_Fiesta_de_Santa_Barbara_1935\\3172_1_1_LaFiestaDeSantaBarbara_1935_DVD_ELAN.eaf'
p1414
sg17
I00
sba(i__main__
Movie
p1415
(dp1416
g3
S'LaLegendeDuFantome'
p1417
sg5
S'//130.60.131.134/studi/Filme/frueher_Film/3180_La_Legende_Du_Fantome_1908/'
p1418
sg7
(lp1419
sg9
(lp1420
I3180
aI1
aI1
asg11
S'frueher_Film/3180_La_Legende_Du_Fantome_1908/'
p1421
sg13
I00
sg14
Nsg15
S'//130.60.131.134/studi/Filme/frueher_Film/3180_La_Legende_Du_Fantome_1908\\3180_1_1_LaLegendeDuFantome_1908_DVD_ELAN.eaf'
p1422
sg17
I00
sba(i__main__
Movie
p1423
(dp1424
g3
S'LeRoiDesDollars'
p1425
sg5
S'//130.60.131.134/studi/Filme/frueher_Film/3182_Le_Roi_Des_Dollars_1905/'
p1426
sg7
(lp1427
sg9
(lp1428
I3182
aI1
aI1
asg11
S'frueher_Film/3182_Le_Roi_Des_Dollars_1905/'
p1429
sg13
I00
sg14
Nsg15
S'//130.60.131.134/studi/Filme/frueher_Film/3182_Le_Roi_Des_Dollars_1905\\3182_1_1_LeRoiDesDollars_1905_DVD_Elan.eaf'
p1430
sg17
I00
sba(i__main__
Movie
p1431
(dp1432
g3
S'Hoehenfeuer'
p1433
sg5
S'//130.60.131.134/studi/Filme/spaete_Filme/3185_Hoehenfeuer_1985/'
p1434
sg7
(lp1435
S'//130.60.131.134/studi/Filme/spaete_Filme/3185_Hoehenfeuer_1985\\3185_1_1_Hoehenfeuer_1985_DVD_ELAN_export.txt'
p1436
asg9
(lp1437
I3185
aI1
aI1
asg11
S'spaete_Filme/3185_Hoehenfeuer_1985/'
p1438
sg13
I01
sg14
Nsg15
S'//130.60.131.134/studi/Filme/spaete_Filme/3185_Hoehenfeuer_1985\\3185_1_1_Hoehenfeuer_1985_DVD_ELAN.eaf'
p1439
sg17
I00
sba(i__main__
Movie
p1440
(dp1441
g3
S'LAlbumMerveilleux'
p1442
sg5
S'//130.60.131.134/studi/Filme/frueher_Film/3186_LAlbum_Merveilleux_1905/'
p1443
sg7
(lp1444
sg9
(lp1445
I3186
aI1
aI1
asg11
S'frueher_Film/3186_LAlbum_Merveilleux_1905/'
p1446
sg13
I00
sg14
Nsg15
S'//130.60.131.134/studi/Filme/frueher_Film/3186_LAlbum_Merveilleux_1905\\3186_LAlbumMerveilleux_1905_DVD_ELAN.eaf'
p1447
sg17
I00
sba(i__main__
Movie
p1448
(dp1449
g3
S'Japonaiseries'
p1450
sg5
S'//130.60.131.134/studi/Filme/frueher_Film/3229_Japonaiseries_1904/'
p1451
sg7
(lp1452
sg9
(lp1453
I3229
aI1
aI1
asg11
S'frueher_Film/3229_Japonaiseries_1904/'
p1454
sg13
I00
sg14
Nsg15
S'//130.60.131.134/studi/Filme/frueher_Film/3229_Japonaiseries_1904\\3229_1_1_Japonaiseries_1904_DVD_Elan.eaf'
p1455
sg17
I00
sba(i__main__
Movie
p1456
(dp1457
g3
S'LaFeePrintemps'
p1458
sg5
S'//130.60.131.134/studi/Filme/frueher_Film/3230_La_Fee_Printemps_1906/'
p1459
sg7
(lp1460
sg9
(lp1461
I3230
aI1
aI1
asg11
S'frueher_Film/3230_La_Fee_Printemps_1906/'
p1462
sg13
I00
sg14
Nsg15
S'//130.60.131.134/studi/Filme/frueher_Film/3230_La_Fee_Printemps_1906\\3230_1_1_LaFeePrintemps_1906_DVD_ELAN.eaf'
p1463
sg17
I00
sba(i__main__
Movie
p1464
(dp1465
g3
S'Bilitis'
p1466
sg5
S'//130.60.131.134/studi/Filme/spaete_Filme/3231_Bilitis_1977/'
p1467
sg7
(lp1468
S'//130.60.131.134/studi/Filme/spaete_Filme/3231_Bilitis_1977\\3231_1_1_Bilitis_1977_DVD_ELAN_export.txt'
p1469
asg9
(lp1470
I3231
aI1
aI1
asg11
S'spaete_Filme/3231_Bilitis_1977/'
p1471
sg13
I01
sg14
Nsg15
S'//130.60.131.134/studi/Filme/spaete_Filme/3231_Bilitis_1977\\3231_1_1_Bilitis_1977_DVD_ELAN.eaf'
p1472
sg17
I00
sba(i__main__
Movie
p1473
(dp1474
g3
S'LaSorciereNoire'
p1475
sg5
S'//130.60.131.134/studi/Filme/frueher_Film/3241_La_Sorciere_Noire_1907/'
p1476
sg7
(lp1477
sg9
(lp1478
I3241
aI1
aI1
asg11
S'frueher_Film/3241_La_Sorciere_Noire_1907/'
p1479
sg13
I00
sg14
Nsg15
S'//130.60.131.134/studi/Filme/frueher_Film/3241_La_Sorciere_Noire_1907\\3241_1_1_LaSorciereNoire_1907_DVD_ELAN.eaf'
p1480
sg17
I00
sba(i__main__
Movie
p1481
(dp1482
g3
S'StarTrekVITheUndiscoveredCountry'
p1483
sg5
S'//130.60.131.134/studi/Filme/spaete_Filme/3243_Star_Trek_VI_The_Undiscovered_Country_1991/'
p1484
sg7
(lp1485
S'//130.60.131.134/studi/Filme/spaete_Filme/3243_Star_Trek_VI_The_Undiscovered_Country_1991\\3243_1_1_StarTrekVITheUndiscoveredCountry_1991_DVD_ELAN_export.txt'
p1486
asg9
(lp1487
I3243
aI1
aI1
asg11
S'spaete_Filme/3243_Star_Trek_VI_The_Undiscovered_Country_1991/'
p1488
sg13
I01
sg14
Nsg15
S'//130.60.131.134/studi/Filme/spaete_Filme/3243_Star_Trek_VI_The_Undiscovered_Country_1991\\3243_1_1_StarTrekVITheUndiscoveredCountry_1991_DVD_ELAN.eaf'
p1489
sg17
I00
sba(i__main__
Movie
p1490
(dp1491
g3
S'TschelowekAmfibija'
p1492
sg5
S'//130.60.131.134/studi/Filme/spaete_Filme/3244_Tschelowek_Amfibija_1963/'
p1493
sg7
(lp1494
S'//130.60.131.134/studi/Filme/spaete_Filme/3244_Tschelowek_Amfibija_1963\\3244_1_1_TschelowekAmfibija_1963_DVD_ELAN_export.txt'
p1495
asg9
(lp1496
I3244
aI1
aI1
asg11
S'spaete_Filme/3244_Tschelowek_Amfibija_1963/'
p1497
sg13
I01
sg14
Nsg15
S'//130.60.131.134/studi/Filme/spaete_Filme/3244_Tschelowek_Amfibija_1963\\3244_1_1_TschelowekAmfibija_1963_DVD_ELAN.eaf'
p1498
sg17
I00
sba(i__main__
Movie
p1499
(dp1500
g3
S'LaBelleAuBoisDormant'
p1501
sg5
S'//130.60.131.134/studi/Filme/frueher_Film/3248_La_Belle_Au_Bois_Dormant_1908/'
p1502
sg7
(lp1503
sg9
(lp1504
I3248
aI1
aI1
asg11
S'frueher_Film/3248_La_Belle_Au_Bois_Dormant_1908/'
p1505
sg13
I01
sg14
Nsg15
S'//130.60.131.134/studi/Filme/frueher_Film/3248_La_Belle_Au_Bois_Dormant_1908\\3248_1_1_LaBelleAuBoisDormant_1908_DVD_ELAN.eaf'
p1506
sg17
I00
sba(i__main__
Movie
p1507
(dp1508
g3
S'ValseExcentrique'
p1509
sg5
S'//130.60.131.134/studi/Filme/frueher_Film/3249_Valse_Excentrique_1903/'
p1510
sg7
(lp1511
sg9
(lp1512
I3249
aI1
aI1
asg11
S'frueher_Film/3249_Valse_Excentrique_1903/'
p1513
sg13
I00
sg14
Nsg15
S'//130.60.131.134/studi/Filme/frueher_Film/3249_Valse_Excentrique_1903\\3249_1_1_ValseExcentrique_1903_DVD_ELAN.eaf'
p1514
sg17
I00
sba(i__main__
Movie
p1515
(dp1516
g3
S'Der'
p1517
sg5
S'//130.60.131.134/studi/Filme/frueher_Film/3250_Der_Golem_oder_wie_er_in_die_Welt_kam_1920/'
p1518
sg7
(lp1519
sg9
(lp1520
I3250
aI1
aI1
asg11
S'frueher_Film/3250_Der_Golem_oder_wie_er_in_die_Welt_kam_1920/'
p1521
sg13
I01
sg14
Nsg15
S'//130.60.131.134/studi/Filme/frueher_Film/3250_Der_Golem_oder_wie_er_in_die_Welt_kam_1920\\3250_1_1_Der_GolemOderWieErInDieWeltKam_1920_DVD_ELAN.eaf'
p1522
sg17
I00
sba(i__main__
Movie
p1523
(dp1524
g3
S"L'uccelloDallePiumeDiCristallo"
p1525
sg5
S"//130.60.131.134/studi/Filme/spaete_Filme/3369_L'uccello_Dalle_Piume_Di_Cristallo_1970/"
p1526
sg7
(lp1527
S"//130.60.131.134/studi/Filme/spaete_Filme/3369_L'uccello_Dalle_Piume_Di_Cristallo_1970\\3369_1_1_L'uccelloDallePiumeDiCristallo_1970_DVD_ELAN_export.txt"
p1528
asg9
(lp1529
I3369
aI1
aI1
asg11
S"spaete_Filme/3369_L'uccello_Dalle_Piume_Di_Cristallo_1970/"
p1530
sg13
I01
sg14
Nsg15
S"//130.60.131.134/studi/Filme/spaete_Filme/3369_L'uccello_Dalle_Piume_Di_Cristallo_1970\\3369_1_1_L'uccelloDallePiumeDiCristallo_1970_DVD_ELAN.eaf"
p1531
sg17
I00
sba(i__main__
Movie
p1532
(dp1533
g3
S'Inferno'
p1534
sg5
S'//130.60.131.134/studi/Filme/frueher_Film/3370_LInferno_1911/'
p1535
sg7
(lp1536
sg9
(lp1537
I3370
aI1
aI1
asg11
S'frueher_Film/3370_LInferno_1911/'
p1538
sg13
I01
sg14
Nsg15
S'//130.60.131.134/studi/Filme/frueher_Film/3370_LInferno_1911\\3370_1_1_Inferno_1911_DVD_ELAN.eaf'
p1539
sg17
I00
sba(i__main__
Movie
p1540
(dp1541
g3
S'RiverOfNoReturn'
p1542
sg5
S'//130.60.131.134/studi/Filme/mittlere_Filme/3372_River_of_No_Return_1954/'
p1543
sg7
(lp1544
S'//130.60.131.134/studi/Filme/mittlere_Filme/3372_River_of_No_Return_1954\\3372_1_1_RiverOfNoReturn_1954_DVD_ELAN.txt'
p1545
asg9
(lp1546
I3372
aI1
aI1
asg11
S'mittlere_Filme/3372_River_of_No_Return_1954/'
p1547
sg13
I00
sg14
Nsg15
S'//130.60.131.134/studi/Filme/mittlere_Filme/3372_River_of_No_Return_1954\\3372_1_1_RiverOfNoReturn_1954_DVD_ELAN.eaf'
p1548
sg17
I00
sba(i__main__
Movie
p1549
(dp1550
g3
S'DrCyclops'
p1551
sg5
S'//130.60.131.134/studi/Filme/mittlere_Filme/3377_Dr_Cyclops_1940/'
p1552
sg7
(lp1553
S'//130.60.131.134/studi/Filme/mittlere_Filme/3377_Dr_Cyclops_1940\\3377_1_1_DrCyclops_1940_DVD_ELAN.txt'
p1554
asg9
(lp1555
I3377
aI1
aI1
asg11
S'mittlere_Filme/3377_Dr_Cyclops_1940/'
p1556
sg13
I00
sg14
Nsg15
S'//130.60.131.134/studi/Filme/mittlere_Filme/3377_Dr_Cyclops_1940\\3377_1_1_DrCyclops_1940_DVD_ELAN.eaf'
p1557
sg17
I00
sba(i__main__
Movie
p1558
(dp1559
g3
S'DesertFury'
p1560
sg5
S'//130.60.131.134/studi/Filme/mittlere_Filme/3378_Desert_Fury_1947/'
p1561
sg7
(lp1562
sg9
(lp1563
I3378
aI1
aI1
asg11
S'mittlere_Filme/3378_Desert_Fury_1947/'
p1564
sg13
I01
sg14
Nsg15
S'//130.60.131.134/studi/Filme/mittlere_Filme/3378_Desert_Fury_1947\\3378_1_1_DesertFury_1947_DVD_ELAN.eaf'
p1565
sg17
I00
sba(i__main__
Movie
p1566
(dp1567
g3
S'BalletDesSylphides'
p1568
sg5
S'//130.60.131.134/studi/Filme/frueher_Film/3380_Ballet_Des_Sylphides_1902/'
p1569
sg7
(lp1570
sg9
(lp1571
I3380
aI1
aI1
asg11
S'frueher_Film/3380_Ballet_Des_Sylphides_1902/'
p1572
sg13
I00
sg14
Nsg15
S'//130.60.131.134/studi/Filme/frueher_Film/3380_Ballet_Des_Sylphides_1902\\3380_1_1_BalletDesSylphides_1902_DVD_ELAN.eaf'
p1573
sg17
I00
sba(i__main__
Movie
p1574
(dp1575
g3
S'TheWrathOfTheGods'
p1576
sg5
S'//130.60.131.134/studi/Filme/frueher_Film/3381_The_Wrath_Of_The_Gods_1914/'
p1577
sg7
(lp1578
sg9
(lp1579
I3381
aI1
aI1
asg11
S'frueher_Film/3381_The_Wrath_Of_The_Gods_1914/'
p1580
sg13
I01
sg14
Nsg15
S'//130.60.131.134/studi/Filme/frueher_Film/3381_The_Wrath_Of_The_Gods_1914\\3381_1_1_TheWrathOfTheGods_1914_DVD_ELAN.eaf'
p1581
sg17
I00
sba(i__main__
Movie
p1582
(dp1583
g3
S'TheDragonPainter'
p1584
sg5
S'//130.60.131.134/studi/Filme/frueher_Film/3382_The_Dragon_Painter_1919/'
p1585
sg7
(lp1586
sg9
(lp1587
I3382
aI1
aI1
asg11
S'frueher_Film/3382_The_Dragon_Painter_1919/'
p1588
sg13
I01
sg14
Nsg15
S'//130.60.131.134/studi/Filme/frueher_Film/3382_The_Dragon_Painter_1919\\3382_1_1_TheDragonPainter_1919_DVD_ELAN.eaf'
p1589
sg17
I00
sba(i__main__
Movie
p1590
(dp1591
g3
S'KiRiKiAcrobatesJaponais'
p1592
sg5
S'//130.60.131.134/studi/Filme/frueher_Film/3385_KiRiKi_Acrobates_Japonais_1907/'
p1593
sg7
(lp1594
sg9
(lp1595
I3385
aI1
aI1
asg11
S'frueher_Film/3385_KiRiKi_Acrobates_Japonais_1907/'
p1596
sg13
I00
sg14
Nsg15
S'//130.60.131.134/studi/Filme/frueher_Film/3385_KiRiKi_Acrobates_Japonais_1907\\3385_1_1_KiRiKiAcrobatesJaponais_1907_DVD_ELAN.eaf'
p1597
sg17
I00
sba(i__main__
Movie
p1598
(dp1599
g3
S'Hecate'
p1600
sg5
S'//130.60.131.134/studi/Filme/spaete_Filme/3387_Hecate_1982/'
p1601
sg7
(lp1602
S'//130.60.131.134/studi/Filme/spaete_Filme/3387_Hecate_1982\\3387_1_1_Hecate_1982_DVD_ELAN_export.txt'
p1603
asg9
(lp1604
I3387
aI1
aI1
asg11
S'spaete_Filme/3387_Hecate_1982/'
p1605
sg13
I01
sg14
Nsg15
S'//130.60.131.134/studi/Filme/spaete_Filme/3387_Hecate_1982\\3387_1_1_Hecate_1982_DVD_ELAN.eaf'
p1606
sg17
I00
sba(i__main__
Movie
p1607
(dp1608
g3
S'AmourDesclave'
p1609
sg5
S'//130.60.131.134/studi/Filme/frueher_Film/3399_Amour_Desclave_1907/'
p1610
sg7
(lp1611
sg9
(lp1612
I3399
aI1
aI1
asg11
S'frueher_Film/3399_Amour_Desclave_1907/'
p1613
sg13
I00
sg14
Nsg15
S'//130.60.131.134/studi/Filme/frueher_Film/3399_Amour_Desclave_1907\\3399_1_1_AmourDesclave_1907_DVD_ELAN.eaf'
p1614
sg17
I00
sba(i__main__
Movie
p1615
(dp1616
g3
S'TerjeVigen'
p1617
sg5
S'//130.60.131.134/studi/Filme/frueher_Film/3401_Terje_Vigen_1917/'
p1618
sg7
(lp1619
sg9
(lp1620
I3401
aI1
aI1
asg11
S'frueher_Film/3401_Terje_Vigen_1917/'
p1621
sg13
I01
sg14
Nsg15
S'//130.60.131.134/studi/Filme/frueher_Film/3401_Terje_Vigen_1917\\3401_1_1_TerjeVigen_1917_DVD_ELAN.eaf'
p1622
sg17
I00
sba(i__main__
Movie
p1623
(dp1624
g3
S'Fruits'
p1625
sg5
S'//130.60.131.134/studi/Filme/frueher_Film/3403_Fruits_1912/'
p1626
sg7
(lp1627
sg9
(lp1628
I3403
aI1
aI1
asg11
S'frueher_Film/3403_Fruits_1912/'
p1629
sg13
I00
sg14
Nsg15
S'//130.60.131.134/studi/Filme/frueher_Film/3403_Fruits_1912\\3403_1_1_Fruits_1912_DVD_ELAN.eaf'
p1630
sg17
I00
sba(i__main__
Movie
p1631
(dp1632
g3
S'FeuMathiasPascal'
p1633
sg5
S'//130.60.131.134/studi/Filme/frueher_Film/3428_Feu_Mathias_Pascal_1924/'
p1634
sg7
(lp1635
S'//130.60.131.134/studi/Filme/frueher_Film/3428_Feu_Mathias_Pascal_1924\\3428_1_1_FeuMathiasPascal_1924_ELAN.txt'
p1636
asg9
(lp1637
I3428
aI1
aI1
asg11
S'frueher_Film/3428_Feu_Mathias_Pascal_1924/'
p1638
sg13
I01
sg14
Nsg15
S'//130.60.131.134/studi/Filme/frueher_Film/3428_Feu_Mathias_Pascal_1924\\3428_1_1_FeuMathiasPascal_1924_ELAN.eaf'
p1639
sg17
I00
sba(i__main__
Movie
p1640
(dp1641
g3
S'HerrAgnesPengar'
p1642
sg5
S'//130.60.131.134/studi/Filme/frueher_Film/3449_Herr_Arnes_Pengar_1919/'
p1643
sg7
(lp1644
sg9
(lp1645
I3449
aI1
aI1
asg11
S'frueher_Film/3449_Herr_Arnes_Pengar_1919/'
p1646
sg13
I01
sg14
Nsg15
S'//130.60.131.134/studi/Filme/frueher_Film/3449_Herr_Arnes_Pengar_1919\\3449_1_1_HerrAgnesPengar_1919_DVD_ELAN.eaf'
p1647
sg17
I00
sba(i__main__
Movie
p1648
(dp1649
g3
S'ZapatasBande'
p1650
sg5
S'//130.60.131.134/studi/Filme/frueher_Film/3457_Zapatas_Bande_1914/'
p1651
sg7
(lp1652
sg9
(lp1653
I3457
aI1
aI1
asg11
S'frueher_Film/3457_Zapatas_Bande_1914/'
p1654
sg13
I01
sg14
Nsg15
S'//130.60.131.134/studi/Filme/frueher_Film/3457_Zapatas_Bande_1914\\3457_1_1_ZapatasBande_1914_DVD_ELAN.eaf'
p1655
sg17
I00
sba(i__main__
Movie
p1656
(dp1657
g3
S'OnTheTown'
p1658
sg5
S'//130.60.131.134/studi/Filme/mittlere_Filme/3458_On_the_Town_1949/'
p1659
sg7
(lp1660
S'//130.60.131.134/studi/Filme/mittlere_Filme/3458_On_the_Town_1949\\3458_1_1_OnTheTown_1949_DVD_ELAN.txt'
p1661
asg9
(lp1662
I3458
aI1
aI1
asg11
S'mittlere_Filme/3458_On_the_Town_1949/'
p1663
sg13
I00
sg14
Nsg15
S'//130.60.131.134/studi/Filme/mittlere_Filme/3458_On_the_Town_1949\\3458_1_1_OnTheTown_1949_DVD_ELAN.eaf'
p1664
sg17
I00
sba(i__main__
Movie
p1665
(dp1666
g3
S'TheGeneral'
p1667
sg5
S'//130.60.131.134/studi/Filme/frueher_Film/3462_The_General_1926/'
p1668
sg7
(lp1669
sg9
(lp1670
I3462
aI1
aI1
asg11
S'frueher_Film/3462_The_General_1926/'
p1671
sg13
I01
sg14
Nsg15
S'//130.60.131.134/studi/Filme/frueher_Film/3462_The_General_1926\\3462_1_1_TheGeneral_1926_DVD_ELAN.eaf'
p1672
sg17
I00
sba(i__main__
Movie
p1673
(dp1674
g3
S'TheInformer'
p1675
sg5
S'//130.60.131.134/studi/Filme/frueher_Film/3463_The_Informer_1929/'
p1676
sg7
(lp1677
sg9
(lp1678
I3463
aI1
aI1
asg11
S'frueher_Film/3463_The_Informer_1929/'
p1679
sg13
I01
sg14
Nsg15
S'//130.60.131.134/studi/Filme/frueher_Film/3463_The_Informer_1929\\3463_1_1_TheInformer_1929_DVD_ELAN.eaf'
p1680
sg17
I00
sba(i__main__
Movie
p1681
(dp1682
g3
S'JeanneDArc'
p1683
sg5
S'//130.60.131.134/studi/Filme/frueher_Film/3469_Jeanne_DArc_1900/'
p1684
sg7
(lp1685
sg9
(lp1686
I3469
aI1
aI1
asg11
S'frueher_Film/3469_Jeanne_DArc_1900/'
p1687
sg13
I00
sg14
Nsg15
S'//130.60.131.134/studi/Filme/frueher_Film/3469_Jeanne_DArc_1900\\3469_1_1_JeanneDArc_1900_DVD_ELAN.eaf'
p1688
sg17
I00
sba(i__main__
Movie
p1689
(dp1690
g3
S'LeVoyageDeGulliverALilliputEtChezLesGeants'
p1691
sg5
S'//130.60.131.134/studi/Filme/frueher_Film/3470_Le_Voyage_De_Gulliver_A_Lilliput_E_t_Chez_Les_Geants_1902/'
p1692
sg7
(lp1693
sg9
(lp1694
I3470
aI1
aI1
asg11
S'frueher_Film/3470_Le_Voyage_De_Gulliver_A_Lilliput_E_t_Chez_Les_Geants_1902/'
p1695
sg13
I00
sg14
Nsg15
S'//130.60.131.134/studi/Filme/frueher_Film/3470_Le_Voyage_De_Gulliver_A_Lilliput_E_t_Chez_Les_Geants_1902\\3470_1_1_LeVoyageDeGulliverALilliputEtChezLesGeants_1902_DVD_ELAN.eaf'
p1696
sg17
I00
sba(i__main__
Movie
p1697
(dp1698
g3
S'Shurayukihime'
p1699
sg5
S'//130.60.131.134/studi/Filme/spaete_Filme/3478_Shurayukihime_1973/'
p1700
sg7
(lp1701
S'//130.60.131.134/studi/Filme/spaete_Filme/3478_Shurayukihime_1973\\3478_1_1_Shurayukihime_1973_DVD_ELAN_export.txt'
p1702
asg9
(lp1703
I3478
aI1
aI1
asg11
S'spaete_Filme/3478_Shurayukihime_1973/'
p1704
sg13
I01
sg14
Nsg15
S'//130.60.131.134/studi/Filme/spaete_Filme/3478_Shurayukihime_1973\\3478_1_1_Shurayukihime_1973_DVD_ELAN.eaf'
p1705
sg17
I00
sba(i__main__
Movie
p1706
(dp1707
g3
S'DaHongDengLongGaoGaoGua'
p1708
sg5
S'//130.60.131.134/studi/Filme/spaete_Filme/3480_Da_HongDengLong_GaoGao_Gua_1991/'
p1709
sg7
(lp1710
S'//130.60.131.134/studi/Filme/spaete_Filme/3480_Da_HongDengLong_GaoGao_Gua_1991\\3480_1_1_DaHongDengLongGaoGaoGua_1991_DVD_ELAN_export.txt'
p1711
asg9
(lp1712
I3480
aI1
aI1
asg11
S'spaete_Filme/3480_Da_HongDengLong_GaoGao_Gua_1991/'
p1713
sg13
I01
sg14
Nsg15
S'//130.60.131.134/studi/Filme/spaete_Filme/3480_Da_HongDengLong_GaoGao_Gua_1991\\3480_1_1_DaHongDengLongGaoGaoGua_1991_DVD_ELAN.eaf'
p1714
sg17
I00
sba(i__main__
Movie
p1715
(dp1716
g3
S'Dyrygent'
p1717
sg5
S'//130.60.131.134/studi/Filme/spaete_Filme/3484_Dyrygent_1979/'
p1718
sg7
(lp1719
S'//130.60.131.134/studi/Filme/spaete_Filme/3484_Dyrygent_1979\\3484_1_1_Dyrygent_1980_DVD_ELAN_export.txt'
p1720
aS'//130.60.131.134/studi/Filme/spaete_Filme/3484_Dyrygent_1979\\3484_1_1_Dyrygent_1980_DVD_ELAN_export.csv'
p1721
aS'//130.60.131.134/studi/Filme/spaete_Filme/3484_Dyrygent_1979\\3484_1_1_Dyrygent_1980_DVD_FCT_snapchots.csv'
p1722
aS'//130.60.131.134/studi/Filme/spaete_Filme/3484_Dyrygent_1979\\3484_1_1_Dyrygent_1980_DVD_FCT_temp.csv'
p1723
asg9
(lp1724
I3484
aI1
aI1
asg11
S'spaete_Filme/3484_Dyrygent_1979/'
p1725
sg13
I01
sg14
Nsg15
S'//130.60.131.134/studi/Filme/spaete_Filme/3484_Dyrygent_1979\\3484_1_1_Dyrygent_1980_DVD_ELAN.eaf'
p1726
sg17
I00
sba(i__main__
Movie
p1727
(dp1728
g3
S'HongGaoliang'
p1729
sg5
S'//130.60.131.134/studi/Filme/spaete_Filme/3488_Hong_Gaoliang_1987/'
p1730
sg7
(lp1731
S'//130.60.131.134/studi/Filme/spaete_Filme/3488_Hong_Gaoliang_1987\\3488_1_1_HongGaoliang_1987_DVD_ELAN.txt'
p1732
asg9
(lp1733
I3488
aI1
aI1
asg11
S'spaete_Filme/3488_Hong_Gaoliang_1987/'
p1734
sg13
I00
sg14
Nsg15
S'//130.60.131.134/studi/Filme/spaete_Filme/3488_Hong_Gaoliang_1987\\ELAN Projektdatei\\3488_1_1_HongGaoliang_1987_DVD_ELAN.eaf'
p1735
sg17
I00
sba(i__main__
Movie
p1736
(dp1737
g3
S'Indiscreet'
p1738
sg5
S'//130.60.131.134/studi/Filme/spaete_Filme/spaete_Filme/'
p1739
sg7
(lp1740
S'//130.60.131.134/studi/Filme/spaete_Filme/spaete_Filme\\3491_1_1_Indiscreet_1957_DVD_ELAN_export.txt'
p1741
asg9
(lp1742
I3491
aI1
aI1
asg11
S'spaete_Filme/spaete_Filme/'
p1743
sg13
I00
sg14
Nsg15
S'//130.60.131.134/studi/Filme/spaete_Filme/spaete_Filme\\3491_1_1_Indiscreet_1957_DVD_ELAN.eaf'
p1744
sg17
I00
sba(i__main__
Movie
p1745
(dp1746
g3
S'Wojna'
p1747
sg5
S'//130.60.131.134/studi/Filme/spaete_Filme/3492_Wojna_Swjatow_1981/'
p1748
sg7
(lp1749
S'//130.60.131.134/studi/Filme/spaete_Filme/3492_Wojna_Swjatow_1981\\3492_1_1_Wojna_Swjatow_1981_DVD_ELAN_export.txt'
p1750
asg9
(lp1751
I3492
aI1
aI1
asg11
S'spaete_Filme/3492_Wojna_Swjatow_1981/'
p1752
sg13
I01
sg14
Nsg15
S'//130.60.131.134/studi/Filme/spaete_Filme/3492_Wojna_Swjatow_1981\\3492_1_1_Wojna_Swjatow_1981_DVD_ELAN.eaf'
p1753
sg17
I00
sba(i__main__
Movie
p1754
(dp1755
g3
S'LaDecimaVittima'
p1756
sg5
S'//130.60.131.134/studi/Filme/spaete_Filme/3493_La_Decima_Vittima_1965/'
p1757
sg7
(lp1758
S'//130.60.131.134/studi/Filme/spaete_Filme/3493_La_Decima_Vittima_1965\\3493_1_1_LaDecimaVittima_1965_DVD_ELAN_export.txt'
p1759
asg9
(lp1760
I3493
aI1
aI1
asg11
S'spaete_Filme/3493_La_Decima_Vittima_1965/'
p1761
sg13
I01
sg14
Nsg15
S'//130.60.131.134/studi/Filme/spaete_Filme/3493_La_Decima_Vittima_1965\\3493_1_1_LaDecimaVittima_1965_DVD_ELAN.eaf'
p1762
sg17
I00
sba(i__main__
Movie
p1763
(dp1764
g3
S'TheLostWorld'
p1765
sg5
S'//130.60.131.134/studi/Filme/frueher_Film/3556_The_Lost_World_1925/'
p1766
sg7
(lp1767
sg9
(lp1768
I3556
aI1
aI1
asg11
S'frueher_Film/3556_The_Lost_World_1925/'
p1769
sg13
I01
sg14
Nsg15
S'//130.60.131.134/studi/Filme/frueher_Film/3556_The_Lost_World_1925\\3556_1_1_TheLostWorld_1925_DVD_ELAN.eaf'
p1770
sg17
I00
sba(i__main__
Movie
p1771
(dp1772
g3
S'DanseursEspagnols'
p1773
sg5
S'//130.60.131.134/studi/Filme/frueher_Film/3569_Danseurs_Espagnols_1898/'
p1774
sg7
(lp1775
sg9
(lp1776
I3569
aI1
aI1
asg11
S'frueher_Film/3569_Danseurs_Espagnols_1898/'
p1777
sg13
I00
sg14
Nsg15
S'//130.60.131.134/studi/Filme/frueher_Film/3569_Danseurs_Espagnols_1898\\3569_1_1_DanseursEspagnols_1898_DVD_ELAN.eaf'
p1778
sg17
I00
sba.