(lp0
(i__main__
Movie
p1
(dp2
S'movie_name'
p3
S'MysteryOfTheWaxMuseum'
p4
sS'folder_path'
p5
S'//130.60.131.134/studi/Filme/frueher_Film/1018_Mystery_Of_The_Wax_Museum_1933/'
p6
sS'segmentation_path'
p7
(lp8
sS'filemaker_ID'
p9
(lp10
I1018
aI1
aI1
asS'relative_path'
p11
S'frueher_Film/1018_Mystery_Of_The_Wax_Museum_1933/'
p12
sS'has_sub_segmentation'
p13
I01
sS'shots'
p14
NsS'elan_path'
p15
S'//130.60.131.134/studi/Filme/frueher_Film/1018_Mystery_Of_The_Wax_Museum_1933\\1018_1_1_MysteryOfTheWaxMuseum_1933_DVD_Elan.eaf'
p16
sS'needs_segmentation'
p17
I00
sba(i__main__
Movie
p18
(dp19
g3
S'HellsAngels'
p20
sg5
S'//130.60.131.134/studi/Filme/frueher_Film/1062_Hells_Angels_1930/'
p21
sg7
(lp22
sg9
(lp23
I1062
aI1
aI3
asg11
S'frueher_Film/1062_Hells_Angels_1930/'
p24
sg13
I01
sg14
Nsg15
S'//130.60.131.134/studi/Filme/frueher_Film/1062_Hells_Angels_1930\\1062_1_3_HellsAngels_1930_DVD_ELAN.eaf'
p25
sg17
I00
sba(i__main__
Movie
p26
(dp27
g3
S'K\xf6rkarlen'
p28
sg5
S'//130.60.131.134/studi/Filme/frueher_Film/1081_K\xf6rkarlen_1921/'
p29
sg7
(lp30
sg9
(lp31
I1081
aI1
aI1
asg11
S'frueher_Film/1081_K\xf6rkarlen_1921/'
p32
sg13
I01
sg14
Nsg15
S'//130.60.131.134/studi/Filme/frueher_Film/1081_K\xf6rkarlen_1921\\1081_1_1_K\xf6rkarlen_1921_DVD_ELAN.eaf'
p33
sg17
I00
sba(i__main__
Movie
p34
(dp35
g3
S'GoldDiggersOfBroadway'
p36
sg5
S'//130.60.131.134/studi/Filme/frueher_Film/142_Gold_Diggers_of_Broadway_1929/'
p37
sg7
(lp38
sg9
(lp39
I142
aI1
aI1
asg11
S'frueher_Film/142_Gold_Diggers_of_Broadway_1929/'
p40
sg13
I00
sg14
Nsg15
S'//130.60.131.134/studi/Filme/frueher_Film/142_Gold_Diggers_of_Broadway_1929\\142_1_1_GoldDiggersOfBroadway_1929_DVD_ELAN.eaf'
p41
sg17
I00
sba(i__main__
Movie
p42
(dp43
g3
S'CosmopolitanLondon'
p44
sg5
S'//130.60.131.134/studi/Filme/frueher_Film/158_Cosmopolitan_London_1924/'
p45
sg7
(lp46
sg9
(lp47
I158
aI1
aI1
asg11
S'frueher_Film/158_Cosmopolitan_London_1924/'
p48
sg13
I00
sg14
Nsg15
S'//130.60.131.134/studi/Filme/frueher_Film/158_Cosmopolitan_London_1924\\CosmopolitanLondon.eaf'
p49
sg17
I00
sba(i__main__
Movie
p50
(dp51
g3
S'Gribiche'
p52
sg5
S'//130.60.131.134/studi/Filme/frueher_Film/161_Gribiche_1926/'
p53
sg7
(lp54
S'//130.60.131.134/studi/Filme/frueher_Film/161_Gribiche_1926\\161_1_1_Gribiche_1926_DVD_ELAN.txt'
p55
asg9
(lp56
I161
aI1
aI1
asg11
S'frueher_Film/161_Gribiche_1926/'
p57
sg13
I01
sg14
Nsg15
S'//130.60.131.134/studi/Filme/frueher_Film/161_Gribiche_1926\\161_1_1_Gribiche_1926_DVD_ELAN.eaf'
p58
sg17
I00
sba(i__main__
Movie
p59
(dp60
g3
S'BrasierArdent'
p61
sg5
S'//130.60.131.134/studi/Filme/frueher_Film/163_Brasier_Ardent_1923/'
p62
sg7
(lp63
sg9
(lp64
I163
aI1
aI1
asg11
S'frueher_Film/163_Brasier_Ardent_1923/'
p65
sg13
I01
sg14
Nsg15
S'//130.60.131.134/studi/Filme/frueher_Film/163_Brasier_Ardent_1923\\163_1_1_BrasierArdent_1923_DVD_ELAN.eaf'
p66
sg17
I00
sba(i__main__
Movie
p67
(dp68
g3
S'Mauprat'
p69
sg5
S'//130.60.131.134/studi/Filme/frueher_Film/164_Mauprat_1926/'
p70
sg7
(lp71
sg9
(lp72
I164
aI1
aI1
asg11
S'frueher_Film/164_Mauprat_1926/'
p73
sg13
I00
sg14
Nsg15
S'//130.60.131.134/studi/Filme/frueher_Film/164_Mauprat_1926\\164_1_1_Mauprat_1926_DVD_Elan.eaf'
p74
sg17
I00
sba(i__main__
Movie
p75
(dp76
g3
S'LeVoyageDansLaLune'
p77
sg5
S'//130.60.131.134/studi/Filme/frueher_Film/166_Le_Voyage_Dans_La_Lune_1902/'
p78
sg7
(lp79
sg9
(lp80
I166
aI1
aI1
asg11
S'frueher_Film/166_Le_Voyage_Dans_La_Lune_1902/'
p81
sg13
I00
sg14
Nsg15
S'//130.60.131.134/studi/Filme/frueher_Film/166_Le_Voyage_Dans_La_Lune_1902\\166_1_1_LeVoyageDansLaLune_1902_DVD_ELAN_UF.eaf'
p82
sg17
I00
sba(i__main__
Movie
p83
(dp84
g3
S'LaRoue'
p85
sg5
S'//130.60.131.134/studi/Filme/frueher_Film/167_La_Roue_1923/167_1_1_LaRoue_1923_DVD/'
p86
sg7
(lp87
sg9
(lp88
I167
aI1
aI1
asg11
S'frueher_Film/167_La_Roue_1923/167_1_1_LaRoue_1923_DVD/'
p89
sg13
I01
sg14
Nsg15
S'//130.60.131.134/studi/Filme/frueher_Film/167_La_Roue_1923/167_1_1_LaRoue_1923_DVD\\167_1_1_LaRoue_1923_DVD_ELAN.eaf'
p90
sg17
I00
sba(i__main__
Movie
p91
(dp92
g3
S'LaRoue'
p93
sg5
S'//130.60.131.134/studi/Filme/frueher_Film/167_La_Roue_1923/167_1_2_LaRoue_1923_DVD/'
p94
sg7
(lp95
sg9
(lp96
I167
aI1
aI2
asg11
S'frueher_Film/167_La_Roue_1923/167_1_2_LaRoue_1923_DVD/'
p97
sg13
I01
sg14
Nsg15
S'//130.60.131.134/studi/Filme/frueher_Film/167_La_Roue_1923/167_1_2_LaRoue_1923_DVD\\167_1_2_LaRoue_1923_DVD_ELAN.eaf'
p98
sg17
I00
sba(i__main__
Movie
p99
(dp100
g3
S'DieFinanzenDesGrossherzogs'
p101
sg5
S'//130.60.131.134/studi/Filme/frueher_Film/169_Die_Finanzen_des_Grossherzogs_1924/'
p102
sg7
(lp103
sg9
(lp104
I169
aI1
aI1
asg11
S'frueher_Film/169_Die_Finanzen_des_Grossherzogs_1924/'
p105
sg13
I01
sg14
Nsg15
S'//130.60.131.134/studi/Filme/frueher_Film/169_Die_Finanzen_des_Grossherzogs_1924\\169_1_1_DieFinanzenDesGrossherzogs_1924_DVD_ELAN.eaf'
p106
sg17
I00
sba(i__main__
Movie
p107
(dp108
g3
S'FlowersofLondon'
p109
sg5
S'//130.60.131.134/studi/Filme/frueher_Film/171_Flowers_of_London_1924/'
p110
sg7
(lp111
sg9
(lp112
I171
aI1
aI1
asg11
S'frueher_Film/171_Flowers_of_London_1924/'
p113
sg13
I01
sg14
Nsg15
S'//130.60.131.134/studi/Filme/frueher_Film/171_Flowers_of_London_1924\\171_1_1_FlowersofLondon_1924_DVD_Elan.eaf'
p114
sg17
I00
sba(i__main__
Movie
p115
(dp116
g3
S'LondonsFreeShows'
p117
sg5
S'//130.60.131.134/studi/Filme/frueher_Film/172_Londons_Free_Shows_1924/'
p118
sg7
(lp119
sg9
(lp120
I172
aI1
aI1
asg11
S'frueher_Film/172_Londons_Free_Shows_1924/'
p121
sg13
I00
sg14
Nsg15
S'//130.60.131.134/studi/Filme/frueher_Film/172_Londons_Free_Shows_1924\\172_1_1_LondonsFreeShows_1924_DVD_Elan.eaf'
p122
sg17
I00
sba(i__main__
Movie
p123
(dp124
g3
S'BargingThroughLondon'
p125
sg5
S'//130.60.131.134/studi/Filme/frueher_Film/173_Barging_Through_London_1924/'
p126
sg7
(lp127
sg9
(lp128
I173
aI1
aI1
asg11
S'frueher_Film/173_Barging_Through_London_1924/'
p129
sg13
I01
sg14
Nsg15
S'//130.60.131.134/studi/Filme/frueher_Film/173_Barging_Through_London_1924\\173_1_1_BargingThroughLondon_1924_DVD_ELAN.eaf'
p130
sg17
I00
sba(i__main__
Movie
p131
(dp132
g3
S'LondonsFreeShows'
p133
sg5
S'//130.60.131.134/studi/Filme/frueher_Film/174_Londons_Sunday_1924/'
p134
sg7
(lp135
sg9
(lp136
I172
aI1
aI1
asg11
S'frueher_Film/174_Londons_Sunday_1924/'
p137
sg13
I00
sg14
Nsg15
S'//130.60.131.134/studi/Filme/frueher_Film/174_Londons_Sunday_1924\\172_1_1_LondonsFreeShows_1924_DVD_Elan.eaf'
p138
sg17
I00
sba(i__main__
Movie
p139
(dp140
g3
S'LondonoftheTrack'
p141
sg5
S'//130.60.131.134/studi/Filme/frueher_Film/175_London_Off_the_Track_1924/'
p142
sg7
(lp143
sg9
(lp144
I175
aI1
aI1
asg11
S'frueher_Film/175_London_Off_the_Track_1924/'
p145
sg13
I00
sg14
Nsg15
S'//130.60.131.134/studi/Filme/frueher_Film/175_London_Off_the_Track_1924\\175_1_1_LondonoftheTrack_1924_DVD_Elan.eaf'
p146
sg17
I00
sba(i__main__
Movie
p147
(dp148
g3
S'Phantom'
p149
sg5
S'//130.60.131.134/studi/Filme/frueher_Film/176_Phantom_1922/'
p150
sg7
(lp151
sg9
(lp152
I176
aI1
aI1
asg11
S'frueher_Film/176_Phantom_1922/'
p153
sg13
I00
sg14
Nsg15
S'//130.60.131.134/studi/Filme/frueher_Film/176_Phantom_1922\\176_1_1_Phantom_1922_DVD_ELAN.eaf'
p154
sg17
I00
sba(i__main__
Movie
p155
(dp156
g3
S'Der'
p157
sg5
S'//130.60.131.134/studi/Filme/frueher_Film/188_Der_m\xfcde_Tod_1921/'
p158
sg7
(lp159
sg9
(lp160
I188
aI1
aI1
asg11
S'frueher_Film/188_Der_m\xfcde_Tod_1921/'
p161
sg13
I00
sg14
Nsg15
S'//130.60.131.134/studi/Filme/frueher_Film/188_Der_m\xfcde_Tod_1921\\188_1_1_Der_Muede_Tod_1921_ELAN.eaf'
p162
sg17
I00
sba(i__main__
Movie
p163
(dp164
g3
S'VoyageSurJupiter'
p165
sg5
S'//130.60.131.134/studi/Filme/frueher_Film/189_Voyage_sur_Jupiter_1909/'
p166
sg7
(lp167
sg9
(lp168
I189
aI1
aI1
asg11
S'frueher_Film/189_Voyage_sur_Jupiter_1909/'
p169
sg13
I00
sg14
Nsg15
S'//130.60.131.134/studi/Filme/frueher_Film/189_Voyage_sur_Jupiter_1909\\189_1_1_VoyageSurJupiter_1909_DVD_ELAN.eaf'
p170
sg17
I00
sba(i__main__
Movie
p171
(dp172
g3
S'ModeDeParis'
p173
sg5
S'//130.60.131.134/studi/Filme/frueher_Film/190_Mode_de_Paris_1926/'
p174
sg7
(lp175
sg9
(lp176
I190
aI1
aI1
asg11
S'frueher_Film/190_Mode_de_Paris_1926/'
p177
sg13
I00
sg14
Nsg15
S'//130.60.131.134/studi/Filme/frueher_Film/190_Mode_de_Paris_1926\\190_1_1_ModeDeParis_1926_DVD_ELAN.eaf'
p178
sg17
I00
sba(i__main__
Movie
p179
(dp180
g3
S'LesRosesMagiques'
p181
sg5
S'//130.60.131.134/studi/Filme/frueher_Film/191_Les_Roses_Magiques_1906/'
p182
sg7
(lp183
sg9
(lp184
I191
aI1
aI1
asg11
S'frueher_Film/191_Les_Roses_Magiques_1906/'
p185
sg13
I00
sg14
Nsg15
S'//130.60.131.134/studi/Filme/frueher_Film/191_Les_Roses_Magiques_1906\\191_1_1_LesRosesMagiques_DVD_ELAN.eaf'
p186
sg17
I00
sba(i__main__
Movie
p187
(dp188
g3
S'SchattenEineNaechtlicheHalluzination'
p189
sg5
S'//130.60.131.134/studi/Filme/frueher_Film/192_Schatten_Eine_naechtliche_Halluzination_1923/'
p190
sg7
(lp191
sg9
(lp192
I192
aI1
aI1
asg11
S'frueher_Film/192_Schatten_Eine_naechtliche_Halluzination_1923/'
p193
sg13
I01
sg14
Nsg15
S'//130.60.131.134/studi/Filme/frueher_Film/192_Schatten_Eine_naechtliche_Halluzination_1923\\192_1_1_SchattenEineNaechtlicheHalluzination_1923_ELAN.eaf'
p194
sg17
I00
sba(i__main__
Movie
p195
(dp196
g3
S'LaVieEtLaPassionDeJesusChrist'
p197
sg5
S'//130.60.131.134/studi/Filme/frueher_Film/194_La_Vie_et_la_Passion_de_Jesus_Christ_1903/'
p198
sg7
(lp199
sg9
(lp200
I194
aI1
aI1
asg11
S'frueher_Film/194_La_Vie_et_la_Passion_de_Jesus_Christ_1903/'
p201
sg13
I00
sg14
Nsg15
S'//130.60.131.134/studi/Filme/frueher_Film/194_La_Vie_et_la_Passion_de_Jesus_Christ_1903\\194_1_1_LaVieEtLaPassionDeJesusChrist_1903_DVD_Elan.eaf'
p202
sg17
I00
sba(i__main__
Movie
p203
(dp204
g3
S'Linhumaine'
p205
sg5
S'//130.60.131.134/studi/Filme/frueher_Film/197_Linhumaine_1923/'
p206
sg7
(lp207
sg9
(lp208
I197
aI1
aI1
asg11
S'frueher_Film/197_Linhumaine_1923/'
p209
sg13
I01
sg14
Nsg15
S'//130.60.131.134/studi/Filme/frueher_Film/197_Linhumaine_1923\\197_1_1_Linhumaine_1923_DVD_Elan.eaf'
p210
sg17
I00
sba(i__main__
Movie
p211
(dp212
g3
S'MortDeMarat'
p213
sg5
S'//130.60.131.134/studi/Filme/frueher_Film/198_Mort_de_Marat_1897/'
p214
sg7
(lp215
sg9
(lp216
I198
aI1
aI1
asg11
S'frueher_Film/198_Mort_de_Marat_1897/'
p217
sg13
I00
sg14
Nsg15
S'//130.60.131.134/studi/Filme/frueher_Film/198_Mort_de_Marat_1897\\198_1_1_MortDeMarat_DVD_ELAN.eaf'
p218
sg17
I00
sba(i__main__
Movie
p219
(dp220
g3
S'RapsodiaSatanica'
p221
sg5
S'//130.60.131.134/studi/Filme/frueher_Film/199_Rapsodia_Satanica_1917/'
p222
sg7
(lp223
sg9
(lp224
I199
aI1
aI1
asg11
S'frueher_Film/199_Rapsodia_Satanica_1917/'
p225
sg13
I01
sg14
Nsg15
S'//130.60.131.134/studi/Filme/frueher_Film/199_Rapsodia_Satanica_1917\\199_1_1_RapsodiaSatanica_1917_ELAN.eaf'
p226
sg17
I00
sba(i__main__
Movie
p227
(dp228
g3
S'Nosferatu'
p229
sg5
S'//130.60.131.134/studi/Filme/frueher_Film/200_Nosferatu_Eine_Symphonie_des_Grauens_1922/'
p230
sg7
(lp231
sg9
(lp232
I200
aI1
aI1
asg11
S'frueher_Film/200_Nosferatu_Eine_Symphonie_des_Grauens_1922/'
p233
sg13
I01
sg14
Nsg15
S'//130.60.131.134/studi/Filme/frueher_Film/200_Nosferatu_Eine_Symphonie_des_Grauens_1922\\200_1_1_Nosferatu_1922_DVD_ELAN.eaf'
p234
sg17
I00
sba(i__main__
Movie
p235
(dp236
g3
S'BenHurATaleOfChrist'
p237
sg5
S'//130.60.131.134/studi/Filme/frueher_Film/201_Ben_Hur_A_Tale_of_Christ_1925/'
p238
sg7
(lp239
sg9
(lp240
I201
aI1
aI1
asg11
S'frueher_Film/201_Ben_Hur_A_Tale_of_Christ_1925/'
p241
sg13
I00
sg14
Nsg15
S'//130.60.131.134/studi/Filme/frueher_Film/201_Ben_Hur_A_Tale_of_Christ_1925\\201_1_1_BenHurATaleOfChrist_1925_DVD_ELAN_UF.eaf'
p242
sg17
I00
sba(i__main__
Movie
p243
(dp244
g3
S'ImBad'
p245
sg5
S'//130.60.131.134/studi/Filme/frueher_Film/2020_Im_Bad_1917/'
p246
sg7
(lp247
S'//130.60.131.134/studi/Filme/frueher_Film/2020_Im_Bad_1917\\2020_1_3_ImBad_1917_ELAN.txt'
p248
asg9
(lp249
I2020
aI1
aI3
asg11
S'frueher_Film/2020_Im_Bad_1917/'
p250
sg13
I00
sg14
Nsg15
S'//130.60.131.134/studi/Filme/frueher_Film/2020_Im_Bad_1917\\2020_1_3_ImBad_1917_ELAN.eaf'
p251
sg17
I00
sba(i__main__
Movie
p252
(dp253
g3
S'LesPapillonsJaponais'
p254
sg5
S'//130.60.131.134/studi/Filme/frueher_Film/202_Les_papillons_japonais_1908/'
p255
sg7
(lp256
sg9
(lp257
I202
aI1
aI1
asg11
S'frueher_Film/202_Les_papillons_japonais_1908/'
p258
sg13
I00
sg14
Nsg15
S'//130.60.131.134/studi/Filme/frueher_Film/202_Les_papillons_japonais_1908\\202_1_1_LesPapillonsJaponais_1908_ELAN.eaf'
p259
sg17
I00
sba(i__main__
Movie
p260
(dp261
g3
S'DieAbenteuerDesPrinzenAchmed'
p262
sg5
S'//130.60.131.134/studi/Filme/frueher_Film/204_Die_Abenteuer_des_Prinzen_Achmed_1925/'
p263
sg7
(lp264
sg9
(lp265
I204
aI1
aI1
asg11
S'frueher_Film/204_Die_Abenteuer_des_Prinzen_Achmed_1925/'
p266
sg13
I01
sg14
Nsg15
S'//130.60.131.134/studi/Filme/frueher_Film/204_Die_Abenteuer_des_Prinzen_Achmed_1925\\204_1_1_DieAbenteuerDesPrinzenAchmed_1925_DVD_ELAN_UF.eaf'
p267
sg17
I00
sba(i__main__
Movie
p268
(dp269
g3
S'AladinOuLLampeMerveilleuse'
p270
sg5
S'//130.60.131.134/studi/Filme/frueher_Film/206_Aladin_Ou_La_Lampe_Merveilleuse_1906/'
p271
sg7
(lp272
sg9
(lp273
I206
aI1
aI1
asg11
S'frueher_Film/206_Aladin_Ou_La_Lampe_Merveilleuse_1906/'
p274
sg13
I01
sg14
Nsg15
S'//130.60.131.134/studi/Filme/frueher_Film/206_Aladin_Ou_La_Lampe_Merveilleuse_1906\\206_1_1_AladinOuLLampeMerveilleuse_1906_DVD_ELAN.eaf'
p275
sg17
I00
sba(i__main__
Movie
p276
(dp277
g3
S'DasCabinetDesDrCaligari'
p278
sg5
S'//130.60.131.134/studi/Filme/frueher_Film/208_Das_Cabinet_des_Dr_Caligari_1919/'
p279
sg7
(lp280
sg9
(lp281
I208
aI1
aI1
asg11
S'frueher_Film/208_Das_Cabinet_des_Dr_Caligari_1919/'
p282
sg13
I00
sg14
Nsg15
S'//130.60.131.134/studi/Filme/frueher_Film/208_Das_Cabinet_des_Dr_Caligari_1919\\208_1_1_DasCabinetDesDrCaligari_1919_DVD_ELAN.eaf'
p283
sg17
I00
sba(i__main__
Movie
p284
(dp285
g3
S'DerStudentvonPrag'
p286
sg5
S'//130.60.131.134/studi/Filme/frueher_Film/211_Der_Student_von_Prag_1913/'
p287
sg7
(lp288
sg9
(lp289
I211
aI1
aI1
asg11
S'frueher_Film/211_Der_Student_von_Prag_1913/'
p290
sg13
I01
sg14
Nsg15
S'//130.60.131.134/studi/Filme/frueher_Film/211_Der_Student_von_Prag_1913\\211_1_1_DerStudentvonPrag_1913_DVD_Elan.eaf'
p291
sg17
I00
sba(i__main__
Movie
p292
(dp293
g3
S'H\xe4xan'
p294
sg5
S'//130.60.131.134/studi/Filme/frueher_Film/217_Haxan_1922/'
p295
sg7
(lp296
sg9
(lp297
I217
aI1
aI1
asg11
S'frueher_Film/217_Haxan_1922/'
p298
sg13
I00
sg14
Nsg15
S'//130.60.131.134/studi/Filme/frueher_Film/217_Haxan_1922\\217_H\xe4xan_1922_DVD_ELAN.eaf'
p299
sg17
I00
sba(i__main__
Movie
p300
(dp301
g3
S'LaRevueDesRevues'
p302
sg5
S'//130.60.131.134/studi/Filme/frueher_Film/219_La_revue_des_revues_1927/'
p303
sg7
(lp304
sg9
(lp305
I219
aI1
aI1
asg11
S'frueher_Film/219_La_revue_des_revues_1927/'
p306
sg13
I00
sg14
Nsg15
S'//130.60.131.134/studi/Filme/frueher_Film/219_La_revue_des_revues_1927\\219_1_1_LaRevueDesRevues_1927_DVD_ELAN.eaf'
p307
sg17
I00
sba(i__main__
Movie
p308
(dp309
g3
S'TheLodger'
p310
sg5
S'//130.60.131.134/studi/Filme/frueher_Film/222_The_Lodger_1926/'
p311
sg7
(lp312
sg9
(lp313
I222
aI1
aI1
asg11
S'frueher_Film/222_The_Lodger_1926/'
p314
sg13
I01
sg14
Nsg15
S'//130.60.131.134/studi/Filme/frueher_Film/222_The_Lodger_1926\\222_1_1_TheLodger_1926_DVD_Elan.eaf'
p315
sg17
I00
sba(i__main__
Movie
p316
(dp317
g3
S'TheFluteOfKrishna'
p318
sg5
S'//130.60.131.134/studi/Filme/frueher_Film/269_The_Flute_Of_Krishna_1926/'
p319
sg7
(lp320
sg9
(lp321
I269
aI1
aI2
asg11
S'frueher_Film/269_The_Flute_Of_Krishna_1926/'
p322
sg13
I00
sg14
Nsg15
S'//130.60.131.134/studi/Filme/frueher_Film/269_The_Flute_Of_Krishna_1926\\269_1_2_TheFluteOfKrishna_1926_DVD_Elan.eaf'
p323
sg17
I00
sba(i__main__
Movie
p324
(dp325
g3
S'JoanTheWoman'
p326
sg5
S'//130.60.131.134/studi/Filme/frueher_Film/26_Joan_the_Woman_1916/'
p327
sg7
(lp328
sg9
(lp329
I26
aI1
aI1
asg11
S'frueher_Film/26_Joan_the_Woman_1916/'
p330
sg13
I01
sg14
Nsg15
S'//130.60.131.134/studi/Filme/frueher_Film/26_Joan_the_Woman_1916\\26_1_1_JoanTheWoman_1916_DVD_ELAN.eaf'
p331
sg17
I00
sba(i__main__
Movie
p332
(dp333
g3
S'Doctor'
p334
sg5
S'//130.60.131.134/studi/Filme/frueher_Film/306_Doctor_X_1932/'
p335
sg7
(lp336
sg9
(lp337
I306
aI1
aI2
asg11
S'frueher_Film/306_Doctor_X_1932/'
p338
sg13
I00
sg14
Nsg15
S'//130.60.131.134/studi/Filme/frueher_Film/306_Doctor_X_1932\\306_1_2_Doctor_X_1932_DVD_ELAN.eaf'
p339
sg17
I00
sba(i__main__
Movie
p340
(dp341
g3
S'Wagon'
p342
sg5
S'//130.60.131.134/studi/Filme/frueher_Film/3076_Wagon_Tracks_1919/'
p343
sg7
(lp344
sg9
(lp345
I3076
aI1
aI1
asg11
S'frueher_Film/3076_Wagon_Tracks_1919/'
p346
sg13
I01
sg14
Nsg15
S'//130.60.131.134/studi/Filme/frueher_Film/3076_Wagon_Tracks_1919\\3076_1_1_Wagon_Tracks_1919_DVD_ELAN.eaf'
p347
sg17
I00
sba(i__main__
Movie
p348
(dp349
g3
S'LaPeineDuTalion'
p350
sg5
S'//130.60.131.134/studi/Filme/frueher_Film/3099_La_Peine_Du_Talion_1906/'
p351
sg7
(lp352
sg9
(lp353
I3099
aI1
aI1
asg11
S'frueher_Film/3099_La_Peine_Du_Talion_1906/'
p354
sg13
I01
sg14
Nsg15
S'//130.60.131.134/studi/Filme/frueher_Film/3099_La_Peine_Du_Talion_1906\\3099_1_1_LaPeineDuTalion_1906_DVD_Elan.eaf'
p355
sg17
I00
sba(i__main__
Movie
p356
(dp357
g3
S'MadameDubarry'
p358
sg5
S'//130.60.131.134/studi/Filme/frueher_Film/3103_Madame_Dubarry_1919/'
p359
sg7
(lp360
sg9
(lp361
I3101
aI1
aI1
asg11
S'frueher_Film/3103_Madame_Dubarry_1919/'
p362
sg13
I01
sg14
Nsg15
S'//130.60.131.134/studi/Filme/frueher_Film/3103_Madame_Dubarry_1919\\3101_1_1_MadameDubarry_1919_DVD_Elan.eaf'
p363
sg17
I00
sba(i__main__
Movie
p364
(dp365
g3
S'DasWachsfigurenkabinett'
p366
sg5
S'//130.60.131.134/studi/Filme/frueher_Film/3104_Das_Wachsfigurenkabinett_1923/'
p367
sg7
(lp368
sg9
(lp369
I3104
aI1
aI1
asg11
S'frueher_Film/3104_Das_Wachsfigurenkabinett_1923/'
p370
sg13
I01
sg14
Nsg15
S'//130.60.131.134/studi/Filme/frueher_Film/3104_Das_Wachsfigurenkabinett_1923\\3104_1_1_DasWachsfigurenkabinett_1923_DVD_Elan.eaf'
p371
sg17
I00
sba(i__main__
Movie
p372
(dp373
g3
S'PosleSmerti'
p374
sg5
S'//130.60.131.134/studi/Filme/frueher_Film/3109_Posle_Smerti_1915/'
p375
sg7
(lp376
sg9
(lp377
I3109
aI1
aI1
asg11
S'frueher_Film/3109_Posle_Smerti_1915/'
p378
sg13
I01
sg14
Nsg15
S'//130.60.131.134/studi/Filme/frueher_Film/3109_Posle_Smerti_1915\\3109_1_1_PosleSmerti_1915_DVD_ELAN.eaf'
p379
sg17
I00
sba(i__main__
Movie
p380
(dp381
g3
S'AliBabaEtLesQuaranteVoleurs'
p382
sg5
S'//130.60.131.134/studi/Filme/frueher_Film/3112_Ali_Baba_et_les_Quarante_Voleurs_1902/'
p383
sg7
(lp384
sg9
(lp385
I3112
aI1
aI1
asg11
S'frueher_Film/3112_Ali_Baba_et_les_Quarante_Voleurs_1902/'
p386
sg13
I00
sg14
Nsg15
S'//130.60.131.134/studi/Filme/frueher_Film/3112_Ali_Baba_et_les_Quarante_Voleurs_1902\\3112_1_1_AliBabaEtLesQuaranteVoleurs_1902_DVD_ELAN.eaf'
p387
sg17
I00
sba(i__main__
Movie
p388
(dp389
g3
S'Salome'
p390
sg5
S'//130.60.131.134/studi/Filme/frueher_Film/3118_Salome_1922/'
p391
sg7
(lp392
sg9
(lp393
I3118
aI1
aI1
asg11
S'frueher_Film/3118_Salome_1922/'
p394
sg13
I01
sg14
Nsg15
S'//130.60.131.134/studi/Filme/frueher_Film/3118_Salome_1922\\3118_1_1_Salome_1922_DVD_ELAN.eaf'
p395
sg17
I00
sba(i__main__
Movie
p396
(dp397
g3
S'SuperstitionAndalouse'
p398
sg5
S'//130.60.131.134/studi/Filme/frueher_Film/3146_Superstition_Andalouse_1912/'
p399
sg7
(lp400
sg9
(lp401
I3146
aI1
aI1
asg11
S'frueher_Film/3146_Superstition_Andalouse_1912/'
p402
sg13
I00
sg14
Nsg15
S'//130.60.131.134/studi/Filme/frueher_Film/3146_Superstition_Andalouse_1912\\3146_1_1_SuperstitionAndalouse_1912_DVD_ELAN.eaf'
p403
sg17
I00
sba(i__main__
Movie
p404
(dp405
g3
S'LesOeufsDePaques'
p406
sg5
S'//130.60.131.134/studi/Filme/frueher_Film/3156_Les_Oeufs_De_Paques_1907/'
p407
sg7
(lp408
sg9
(lp409
I3156
aI1
aI1
asg11
S'frueher_Film/3156_Les_Oeufs_De_Paques_1907/'
p410
sg13
I00
sg14
Nsg15
S'//130.60.131.134/studi/Filme/frueher_Film/3156_Les_Oeufs_De_Paques_1907\\3156_1_1_LesOeufsDePaques_1907_DVD_ELAN.eaf'
p411
sg17
I00
sba(i__main__
Movie
p412
(dp413
g3
S'LoieFuller'
p414
sg5
S'//130.60.131.134/studi/Filme/frueher_Film/3157_Loie_Fuller_1905/'
p415
sg7
(lp416
sg9
(lp417
I3157
aI1
aI1
asg11
S'frueher_Film/3157_Loie_Fuller_1905/'
p418
sg13
I00
sg14
Nsg15
S'//130.60.131.134/studi/Filme/frueher_Film/3157_Loie_Fuller_1905\\3157_1_1_LoieFuller_1905_DVD_ELAN.eaf'
p419
sg17
I00
sba(i__main__
Movie
p420
(dp421
g3
S'UnDrameAuFondDeLaMer'
p422
sg5
S'//130.60.131.134/studi/Filme/frueher_Film/3159_Un_Drame_Au_Fond_De_La_Mer_1901/'
p423
sg7
(lp424
sg9
(lp425
I3159
aI1
aI1
asg11
S'frueher_Film/3159_Un_Drame_Au_Fond_De_La_Mer_1901/'
p426
sg13
I00
sg14
Nsg15
S'//130.60.131.134/studi/Filme/frueher_Film/3159_Un_Drame_Au_Fond_De_La_Mer_1901\\3159_1_1_UnDrameAuFondDeLaMer_1901_DVD_ELAN.eaf'
p427
sg17
I00
sba(i__main__
Movie
p428
(dp429
g3
S'TheLoveCharm'
p430
sg5
S'//130.60.131.134/studi/Filme/frueher_Film/3161_The_Love_Charm_1928/'
p431
sg7
(lp432
sg9
(lp433
I3161
aI1
aI1
asg11
S'frueher_Film/3161_The_Love_Charm_1928/'
p434
sg13
I00
sg14
Nsg15
S'//130.60.131.134/studi/Filme/frueher_Film/3161_The_Love_Charm_1928\\3161_1_1_TheLoveCharm_1928_DVD_ELAN.eaf'
p435
sg17
I00
sba(i__main__
Movie
p436
(dp437
g3
S"L'Atlantide"
p438
sg5
S'//130.60.131.134/studi/Filme/frueher_Film/3165_LAtlantide_1921/'
p439
sg7
(lp440
sg9
(lp441
I3165
aI1
aI1
asg11
S'frueher_Film/3165_LAtlantide_1921/'
p442
sg13
I00
sg14
Nsg15
S"//130.60.131.134/studi/Filme/frueher_Film/3165_LAtlantide_1921\\3165_1_1_L'Atlantide_1921_ELAN.eaf"
p443
sg17
I00
sba(i__main__
Movie
p444
(dp445
g3
S'LaLegendeDuFantome'
p446
sg5
S'//130.60.131.134/studi/Filme/frueher_Film/3180_La_Legende_Du_Fantome_1908/'
p447
sg7
(lp448
sg9
(lp449
I3180
aI1
aI1
asg11
S'frueher_Film/3180_La_Legende_Du_Fantome_1908/'
p450
sg13
I00
sg14
Nsg15
S'//130.60.131.134/studi/Filme/frueher_Film/3180_La_Legende_Du_Fantome_1908\\3180_1_1_LaLegendeDuFantome_1908_DVD_ELAN.eaf'
p451
sg17
I00
sba(i__main__
Movie
p452
(dp453
g3
S'LeRoiDesDollars'
p454
sg5
S'//130.60.131.134/studi/Filme/frueher_Film/3182_Le_Roi_Des_Dollars_1905/'
p455
sg7
(lp456
sg9
(lp457
I3182
aI1
aI1
asg11
S'frueher_Film/3182_Le_Roi_Des_Dollars_1905/'
p458
sg13
I00
sg14
Nsg15
S'//130.60.131.134/studi/Filme/frueher_Film/3182_Le_Roi_Des_Dollars_1905\\3182_1_1_LeRoiDesDollars_1905_DVD_Elan.eaf'
p459
sg17
I00
sba(i__main__
Movie
p460
(dp461
g3
S'LAlbumMerveilleux'
p462
sg5
S'//130.60.131.134/studi/Filme/frueher_Film/3186_LAlbum_Merveilleux_1905/'
p463
sg7
(lp464
sg9
(lp465
I3186
aI1
aI1
asg11
S'frueher_Film/3186_LAlbum_Merveilleux_1905/'
p466
sg13
I00
sg14
Nsg15
S'//130.60.131.134/studi/Filme/frueher_Film/3186_LAlbum_Merveilleux_1905\\3186_LAlbumMerveilleux_1905_DVD_ELAN.eaf'
p467
sg17
I00
sba(i__main__
Movie
p468
(dp469
g3
S'LaPouleAuxOeufsDor'
p470
sg5
S'//130.60.131.134/studi/Filme/frueher_Film/31_La_Poule_Aux_Oeufs_Dor_1905/'
p471
sg7
(lp472
sg9
(lp473
I31
aI1
aI2
asg11
S'frueher_Film/31_La_Poule_Aux_Oeufs_Dor_1905/'
p474
sg13
I00
sg14
Nsg15
S'//130.60.131.134/studi/Filme/frueher_Film/31_La_Poule_Aux_Oeufs_Dor_1905\\31_1_2_LaPouleAuxOeufsDor_1905_ELAN.eaf'
p475
sg17
I00
sba(i__main__
Movie
p476
(dp477
g3
S'Japonaiseries'
p478
sg5
S'//130.60.131.134/studi/Filme/frueher_Film/3229_Japonaiseries_1904/'
p479
sg7
(lp480
sg9
(lp481
I3229
aI1
aI1
asg11
S'frueher_Film/3229_Japonaiseries_1904/'
p482
sg13
I00
sg14
Nsg15
S'//130.60.131.134/studi/Filme/frueher_Film/3229_Japonaiseries_1904\\3229_1_1_Japonaiseries_1904_DVD_Elan.eaf'
p483
sg17
I00
sba(i__main__
Movie
p484
(dp485
g3
S'LaFeePrintemps'
p486
sg5
S'//130.60.131.134/studi/Filme/frueher_Film/3230_La_Fee_Printemps_1906/'
p487
sg7
(lp488
sg9
(lp489
I3230
aI1
aI1
asg11
S'frueher_Film/3230_La_Fee_Printemps_1906/'
p490
sg13
I00
sg14
Nsg15
S'//130.60.131.134/studi/Filme/frueher_Film/3230_La_Fee_Printemps_1906\\3230_1_1_LaFeePrintemps_1906_DVD_ELAN.eaf'
p491
sg17
I00
sba(i__main__
Movie
p492
(dp493
g3
S'LaSorciereNoire'
p494
sg5
S'//130.60.131.134/studi/Filme/frueher_Film/3241_La_Sorciere_Noire_1907/'
p495
sg7
(lp496
sg9
(lp497
I3241
aI1
aI1
asg11
S'frueher_Film/3241_La_Sorciere_Noire_1907/'
p498
sg13
I00
sg14
Nsg15
S'//130.60.131.134/studi/Filme/frueher_Film/3241_La_Sorciere_Noire_1907\\3241_1_1_LaSorciereNoire_1907_DVD_ELAN.eaf'
p499
sg17
I00
sba(i__main__
Movie
p500
(dp501
g3
S'LaBelleAuBoisDormant'
p502
sg5
S'//130.60.131.134/studi/Filme/frueher_Film/3248_La_Belle_Au_Bois_Dormant_1908/'
p503
sg7
(lp504
sg9
(lp505
I3248
aI1
aI1
asg11
S'frueher_Film/3248_La_Belle_Au_Bois_Dormant_1908/'
p506
sg13
I01
sg14
Nsg15
S'//130.60.131.134/studi/Filme/frueher_Film/3248_La_Belle_Au_Bois_Dormant_1908\\3248_1_1_LaBelleAuBoisDormant_1908_DVD_ELAN.eaf'
p507
sg17
I00
sba(i__main__
Movie
p508
(dp509
g3
S'ValseExcentrique'
p510
sg5
S'//130.60.131.134/studi/Filme/frueher_Film/3249_Valse_Excentrique_1903/'
p511
sg7
(lp512
sg9
(lp513
I3249
aI1
aI1
asg11
S'frueher_Film/3249_Valse_Excentrique_1903/'
p514
sg13
I00
sg14
Nsg15
S'//130.60.131.134/studi/Filme/frueher_Film/3249_Valse_Excentrique_1903\\3249_1_1_ValseExcentrique_1903_DVD_ELAN.eaf'
p515
sg17
I00
sba(i__main__
Movie
p516
(dp517
g3
S'Der'
p518
sg5
S'//130.60.131.134/studi/Filme/frueher_Film/3250_Der_Golem_oder_wie_er_in_die_Welt_kam_1920/'
p519
sg7
(lp520
sg9
(lp521
I3250
aI1
aI1
asg11
S'frueher_Film/3250_Der_Golem_oder_wie_er_in_die_Welt_kam_1920/'
p522
sg13
I01
sg14
Nsg15
S'//130.60.131.134/studi/Filme/frueher_Film/3250_Der_Golem_oder_wie_er_in_die_Welt_kam_1920\\3250_1_1_Der_GolemOderWieErInDieWeltKam_1920_DVD_ELAN.eaf'
p523
sg17
I00
sba(i__main__
Movie
p524
(dp525
g3
S'Inferno'
p526
sg5
S'//130.60.131.134/studi/Filme/frueher_Film/3370_LInferno_1911/'
p527
sg7
(lp528
sg9
(lp529
I3370
aI1
aI1
asg11
S'frueher_Film/3370_LInferno_1911/'
p530
sg13
I01
sg14
Nsg15
S'//130.60.131.134/studi/Filme/frueher_Film/3370_LInferno_1911\\3370_1_1_Inferno_1911_DVD_ELAN.eaf'
p531
sg17
I00
sba(i__main__
Movie
p532
(dp533
g3
S'BalletDesSylphides'
p534
sg5
S'//130.60.131.134/studi/Filme/frueher_Film/3380_Ballet_Des_Sylphides_1902/'
p535
sg7
(lp536
sg9
(lp537
I3380
aI1
aI1
asg11
S'frueher_Film/3380_Ballet_Des_Sylphides_1902/'
p538
sg13
I00
sg14
Nsg15
S'//130.60.131.134/studi/Filme/frueher_Film/3380_Ballet_Des_Sylphides_1902\\3380_1_1_BalletDesSylphides_1902_DVD_ELAN.eaf'
p539
sg17
I00
sba(i__main__
Movie
p540
(dp541
g3
S'TheWrathOfTheGods'
p542
sg5
S'//130.60.131.134/studi/Filme/frueher_Film/3381_The_Wrath_Of_The_Gods_1914/'
p543
sg7
(lp544
sg9
(lp545
I3381
aI1
aI1
asg11
S'frueher_Film/3381_The_Wrath_Of_The_Gods_1914/'
p546
sg13
I01
sg14
Nsg15
S'//130.60.131.134/studi/Filme/frueher_Film/3381_The_Wrath_Of_The_Gods_1914\\3381_1_1_TheWrathOfTheGods_1914_DVD_ELAN.eaf'
p547
sg17
I00
sba(i__main__
Movie
p548
(dp549
g3
S'TheDragonPainter'
p550
sg5
S'//130.60.131.134/studi/Filme/frueher_Film/3382_The_Dragon_Painter_1919/'
p551
sg7
(lp552
sg9
(lp553
I3382
aI1
aI1
asg11
S'frueher_Film/3382_The_Dragon_Painter_1919/'
p554
sg13
I01
sg14
Nsg15
S'//130.60.131.134/studi/Filme/frueher_Film/3382_The_Dragon_Painter_1919\\3382_1_1_TheDragonPainter_1919_DVD_ELAN.eaf'
p555
sg17
I00
sba(i__main__
Movie
p556
(dp557
g3
S'KiRiKiAcrobatesJaponais'
p558
sg5
S'//130.60.131.134/studi/Filme/frueher_Film/3385_KiRiKi_Acrobates_Japonais_1907/'
p559
sg7
(lp560
sg9
(lp561
I3385
aI1
aI1
asg11
S'frueher_Film/3385_KiRiKi_Acrobates_Japonais_1907/'
p562
sg13
I00
sg14
Nsg15
S'//130.60.131.134/studi/Filme/frueher_Film/3385_KiRiKi_Acrobates_Japonais_1907\\3385_1_1_KiRiKiAcrobatesJaponais_1907_DVD_ELAN.eaf'
p563
sg17
I00
sba(i__main__
Movie
p564
(dp565
g3
S'AmourDesclave'
p566
sg5
S'//130.60.131.134/studi/Filme/frueher_Film/3399_Amour_Desclave_1907/'
p567
sg7
(lp568
sg9
(lp569
I3399
aI1
aI1
asg11
S'frueher_Film/3399_Amour_Desclave_1907/'
p570
sg13
I00
sg14
Nsg15
S'//130.60.131.134/studi/Filme/frueher_Film/3399_Amour_Desclave_1907\\3399_1_1_AmourDesclave_1907_DVD_ELAN.eaf'
p571
sg17
I00
sba(i__main__
Movie
p572
(dp573
g3
S'TerjeVigen'
p574
sg5
S'//130.60.131.134/studi/Filme/frueher_Film/3401_Terje_Vigen_1917/'
p575
sg7
(lp576
sg9
(lp577
I3401
aI1
aI1
asg11
S'frueher_Film/3401_Terje_Vigen_1917/'
p578
sg13
I01
sg14
Nsg15
S'//130.60.131.134/studi/Filme/frueher_Film/3401_Terje_Vigen_1917\\3401_1_1_TerjeVigen_1917_DVD_ELAN.eaf'
p579
sg17
I00
sba(i__main__
Movie
p580
(dp581
g3
S'Fruits'
p582
sg5
S'//130.60.131.134/studi/Filme/frueher_Film/3403_Fruits_1912/'
p583
sg7
(lp584
sg9
(lp585
I3403
aI1
aI1
asg11
S'frueher_Film/3403_Fruits_1912/'
p586
sg13
I00
sg14
Nsg15
S'//130.60.131.134/studi/Filme/frueher_Film/3403_Fruits_1912\\3403_1_1_Fruits_1912_DVD_ELAN.eaf'
p587
sg17
I00
sba(i__main__
Movie
p588
(dp589
g3
S'FeuMathiasPascal'
p590
sg5
S'//130.60.131.134/studi/Filme/frueher_Film/3428_Feu_Mathias_Pascal_1924/'
p591
sg7
(lp592
S'//130.60.131.134/studi/Filme/frueher_Film/3428_Feu_Mathias_Pascal_1924\\3428_1_1_FeuMathiasPascal_1924_ELAN.txt'
p593
asg9
(lp594
I3428
aI1
aI1
asg11
S'frueher_Film/3428_Feu_Mathias_Pascal_1924/'
p595
sg13
I01
sg14
Nsg15
S'//130.60.131.134/studi/Filme/frueher_Film/3428_Feu_Mathias_Pascal_1924\\3428_1_1_FeuMathiasPascal_1924_ELAN.eaf'
p596
sg17
I00
sba(i__main__
Movie
p597
(dp598
g3
S'HerrAgnesPengar'
p599
sg5
S'//130.60.131.134/studi/Filme/frueher_Film/3449_Herr_Arnes_Pengar_1919/'
p600
sg7
(lp601
sg9
(lp602
I3449
aI1
aI1
asg11
S'frueher_Film/3449_Herr_Arnes_Pengar_1919/'
p603
sg13
I01
sg14
Nsg15
S'//130.60.131.134/studi/Filme/frueher_Film/3449_Herr_Arnes_Pengar_1919\\3449_1_1_HerrAgnesPengar_1919_DVD_ELAN.eaf'
p604
sg17
I00
sba(i__main__
Movie
p605
(dp606
g3
S'ZapatasBande'
p607
sg5
S'//130.60.131.134/studi/Filme/frueher_Film/3457_Zapatas_Bande_1914/'
p608
sg7
(lp609
sg9
(lp610
I3457
aI1
aI1
asg11
S'frueher_Film/3457_Zapatas_Bande_1914/'
p611
sg13
I01
sg14
Nsg15
S'//130.60.131.134/studi/Filme/frueher_Film/3457_Zapatas_Bande_1914\\3457_1_1_ZapatasBande_1914_DVD_ELAN.eaf'
p612
sg17
I00
sba(i__main__
Movie
p613
(dp614
g3
S'TheGeneral'
p615
sg5
S'//130.60.131.134/studi/Filme/frueher_Film/3462_The_General_1926/'
p616
sg7
(lp617
sg9
(lp618
I3462
aI1
aI1
asg11
S'frueher_Film/3462_The_General_1926/'
p619
sg13
I01
sg14
Nsg15
S'//130.60.131.134/studi/Filme/frueher_Film/3462_The_General_1926\\3462_1_1_TheGeneral_1926_DVD_ELAN.eaf'
p620
sg17
I00
sba(i__main__
Movie
p621
(dp622
g3
S'TheInformer'
p623
sg5
S'//130.60.131.134/studi/Filme/frueher_Film/3463_The_Informer_1929/'
p624
sg7
(lp625
sg9
(lp626
I3463
aI1
aI1
asg11
S'frueher_Film/3463_The_Informer_1929/'
p627
sg13
I01
sg14
Nsg15
S'//130.60.131.134/studi/Filme/frueher_Film/3463_The_Informer_1929\\3463_1_1_TheInformer_1929_DVD_ELAN.eaf'
p628
sg17
I00
sba(i__main__
Movie
p629
(dp630
g3
S'JeanneDArc'
p631
sg5
S'//130.60.131.134/studi/Filme/frueher_Film/3469_Jeanne_DArc_1900/'
p632
sg7
(lp633
sg9
(lp634
I3469
aI1
aI1
asg11
S'frueher_Film/3469_Jeanne_DArc_1900/'
p635
sg13
I00
sg14
Nsg15
S'//130.60.131.134/studi/Filme/frueher_Film/3469_Jeanne_DArc_1900\\3469_1_1_JeanneDArc_1900_DVD_ELAN.eaf'
p636
sg17
I00
sba(i__main__
Movie
p637
(dp638
g3
S'LeVoyageDeGulliverALilliputEtChezLesGeants'
p639
sg5
S'//130.60.131.134/studi/Filme/frueher_Film/3470_Le_Voyage_De_Gulliver_A_Lilliput_E_t_Chez_Les_Geants_1902/'
p640
sg7
(lp641
sg9
(lp642
I3470
aI1
aI1
asg11
S'frueher_Film/3470_Le_Voyage_De_Gulliver_A_Lilliput_E_t_Chez_Les_Geants_1902/'
p643
sg13
I00
sg14
Nsg15
S'//130.60.131.134/studi/Filme/frueher_Film/3470_Le_Voyage_De_Gulliver_A_Lilliput_E_t_Chez_Les_Geants_1902\\3470_1_1_LeVoyageDeGulliverALilliputEtChezLesGeants_1902_DVD_ELAN.eaf'
p644
sg17
I00
sba(i__main__
Movie
p645
(dp646
g3
S'Nerven'
p647
sg5
S'//130.60.131.134/studi/Filme/frueher_Film/350_Nerven_1919/'
p648
sg7
(lp649
sg9
(lp650
I350
aI1
aI1
asg11
S'frueher_Film/350_Nerven_1919/'
p651
sg13
I01
sg14
Nsg15
S'//130.60.131.134/studi/Filme/frueher_Film/350_Nerven_1919\\350_1_1_Nerven_1919_DVD_ELAN.eaf'
p652
sg17
I00
sba(i__main__
Movie
p653
(dp654
g3
S'TheLostWorld'
p655
sg5
S'//130.60.131.134/studi/Filme/frueher_Film/3556_The_Lost_World_1925/'
p656
sg7
(lp657
sg9
(lp658
I3556
aI1
aI1
asg11
S'frueher_Film/3556_The_Lost_World_1925/'
p659
sg13
I01
sg14
Nsg15
S'//130.60.131.134/studi/Filme/frueher_Film/3556_The_Lost_World_1925\\3556_1_1_TheLostWorld_1925_DVD_ELAN.eaf'
p660
sg17
I00
sba(i__main__
Movie
p661
(dp662
g3
S'DanseursEspagnols'
p663
sg5
S'//130.60.131.134/studi/Filme/frueher_Film/3569_Danseurs_Espagnols_1898/'
p664
sg7
(lp665
sg9
(lp666
I3569
aI1
aI1
asg11
S'frueher_Film/3569_Danseurs_Espagnols_1898/'
p667
sg13
I00
sg14
Nsg15
S'//130.60.131.134/studi/Filme/frueher_Film/3569_Danseurs_Espagnols_1898\\3569_1_1_DanseursEspagnols_1898_DVD_ELAN.eaf'
p668
sg17
I00
sba(i__main__
Movie
p669
(dp670
g3
S'MetamorphoseDuPapillon'
p671
sg5
S'//130.60.131.134/studi/Filme/frueher_Film/362_Metamorphose_Du_Papillon_1904/'
p672
sg7
(lp673
sg9
(lp674
I362
aI1
aI1
asg11
S'frueher_Film/362_Metamorphose_Du_Papillon_1904/'
p675
sg13
I00
sg14
Nsg15
S'//130.60.131.134/studi/Filme/frueher_Film/362_Metamorphose_Du_Papillon_1904\\362_1_1_MetamorphoseDuPapillon_1904_DVD_ELAN.eaf'
p676
sg17
I00
sba(i__main__
Movie
p677
(dp678
g3
S'CyranoDeBergerac'
p679
sg5
S'//130.60.131.134/studi/Filme/frueher_Film/364_Cyrano_De_Bergerac_1923/'
p680
sg7
(lp681
sg9
(lp682
I364
aI1
aI1
asg11
S'frueher_Film/364_Cyrano_De_Bergerac_1923/'
p683
sg13
I00
sg14
Nsg15
S'//130.60.131.134/studi/Filme/frueher_Film/364_Cyrano_De_Bergerac_1923\\364_1_1_CyranoDeBergerac_1923_DVD_ELAN.eaf'
p684
sg17
I00
sba(i__main__
Movie
p685
(dp686
g3
S'LePalaisDesMilleEtUneNuits'
p687
sg5
S'//130.60.131.134/studi/Filme/frueher_Film/37_Le_Palais_Des_Mille_Et_Une_Nuits_1905/'
p688
sg7
(lp689
sg9
(lp690
I37
aI1
aI1
asg11
S'frueher_Film/37_Le_Palais_Des_Mille_Et_Une_Nuits_1905/'
p691
sg13
I00
sg14
Nsg15
S'//130.60.131.134/studi/Filme/frueher_Film/37_Le_Palais_Des_Mille_Et_Une_Nuits_1905\\37_1_1_LePalaisDesMilleEtUneNuits_1905_DVD_ELAN.eaf'
p692
sg17
I00
sba(i__main__
Movie
p693
(dp694
g3
S'Redskin'
p695
sg5
S'//130.60.131.134/studi/Filme/frueher_Film/39_Redskin_1929/'
p696
sg7
(lp697
sg9
(lp698
I39
aI1
aI2
asg11
S'frueher_Film/39_Redskin_1929/'
p699
sg13
I00
sg14
Nsg15
S'//130.60.131.134/studi/Filme/frueher_Film/39_Redskin_1929\\39_1_2_Redskin_1929_DVD_ELAN.eaf'
p700
sg17
I00
sba(i__main__
Movie
p701
(dp702
g3
S'Maerchenwald'
p703
sg5
S'//130.60.131.134/studi/Filme/frueher_Film/409_Maerchenwald_1919/'
p704
sg7
(lp705
S'//130.60.131.134/studi/Filme/frueher_Film/409_Maerchenwald_1919\\409_1_2_Maerchenwald_1919_ELAN_BF.txt'
p706
asg9
(lp707
I409
aI1
aI2
asg11
S'frueher_Film/409_Maerchenwald_1919/'
p708
sg13
I00
sg14
Nsg15
S'//130.60.131.134/studi/Filme/frueher_Film/409_Maerchenwald_1919\\409_1_2_Maerchenwald_1919_ELAN_BF.eaf'
p709
sg17
I00
sba(i__main__
Movie
p710
(dp711
g3
S'TheEpicOfEverest'
p712
sg5
S'//130.60.131.134/studi/Filme/frueher_Film/411_The_Epic_of_Everest_1924/'
p713
sg7
(lp714
sg9
(lp715
I411
aI1
aI1
asg11
S'frueher_Film/411_The_Epic_of_Everest_1924/'
p716
sg13
I00
sg14
Nsg15
S'//130.60.131.134/studi/Filme/frueher_Film/411_The_Epic_of_Everest_1924\\411_1_1_TheEpicOfEverest_1924_DVD_Elan.eaf'
p717
sg17
I00
sba(i__main__
Movie
p718
(dp719
g3
S'TheGreatWhiteSilence'
p720
sg5
S'//130.60.131.134/studi/Filme/frueher_Film/412_The_Great_White_Silence_1924/'
p721
sg7
(lp722
sg9
(lp723
I412
aI1
aI1
asg11
S'frueher_Film/412_The_Great_White_Silence_1924/'
p724
sg13
I00
sg14
Nsg15
S'//130.60.131.134/studi/Filme/frueher_Film/412_The_Great_White_Silence_1924\\412_1_1_TheGreatWhiteSilence_1924_DVD_Elan.eaf'
p725
sg17
I00
sba(i__main__
Movie
p726
(dp727
g3
S'TheRedLantern'
p728
sg5
S'//130.60.131.134/studi/Filme/frueher_Film/47_The_Red_Lantern_1919/'
p729
sg7
(lp730
sg9
(lp731
I47
aI1
aI1
asg11
S'frueher_Film/47_The_Red_Lantern_1919/'
p732
sg13
I01
sg14
Nsg15
S'//130.60.131.134/studi/Filme/frueher_Film/47_The_Red_Lantern_1919\\47_1_1_TheRedLantern_1919_DVD_ELAN.eaf'
p733
sg17
I00
sba(i__main__
Movie
p734
(dp735
g3
S'TheTollOfTheSea'
p736
sg5
S'//130.60.131.134/studi/Filme/frueher_Film/51_The_Toll_of_the_Sea_1922/'
p737
sg7
(lp738
sg9
(lp739
I51
aI1
aI1
asg11
S'frueher_Film/51_The_Toll_of_the_Sea_1922/'
p740
sg13
I00
sg14
Nsg15
S'//130.60.131.134/studi/Filme/frueher_Film/51_The_Toll_of_the_Sea_1922\\51_1_1_TheTollOfTheSea_1922_DVD_ELAN.eaf'
p741
sg17
I00
sba(i__main__
Movie
p742
(dp743
g3
S'ThePhantomoftheOpera'
p744
sg5
S'//130.60.131.134/studi/Filme/frueher_Film/52_The_Phantom_of_the_Opera_1925/'
p745
sg7
(lp746
sg9
(lp747
I52
aI1
aI1
asg11
S'frueher_Film/52_The_Phantom_of_the_Opera_1925/'
p748
sg13
I01
sg14
Nsg15
S'//130.60.131.134/studi/Filme/frueher_Film/52_The_Phantom_of_the_Opera_1925\\52_1_1_ThePhantomoftheOpera_1925_DVD_Elan.eaf'
p749
sg17
I00
sba(i__main__
Movie
p750
(dp751
g3
S'TheBlackPirate'
p752
sg5
S'//130.60.131.134/studi/Filme/frueher_Film/53_The_Black_Pirate_1926/'
p753
sg7
(lp754
sg9
(lp755
I53
aI1
aI1
asg11
S'frueher_Film/53_The_Black_Pirate_1926/'
p756
sg13
I01
sg14
Nsg15
S'//130.60.131.134/studi/Filme/frueher_Film/53_The_Black_Pirate_1926\\53_1_1_TheBlackPirate_1926_DVD_Elan.eaf'
p757
sg17
I00
sba(i__main__
Movie
p758
(dp759
g3
S'Whoopee'
p760
sg5
S'//130.60.131.134/studi/Filme/frueher_Film/574_Whoopee_1930/'
p761
sg7
(lp762
sg9
(lp763
I574
aI1
aI1
asg11
S'frueher_Film/574_Whoopee_1930/'
p764
sg13
I00
sg14
Nsg15
S'//130.60.131.134/studi/Filme/frueher_Film/574_Whoopee_1930\\574_1_1_Whoopee_1930_ELAN.eaf'
p765
sg17
I00
sba(i__main__
Movie
p766
(dp767
g3
S'Die'
p768
sg5
S'//130.60.131.134/studi/Filme/frueher_Film/576_Die_Freudlose_Gasse_1925/'
p769
sg7
(lp770
sg9
(lp771
I576
aI1
aI1
asg11
S'frueher_Film/576_Die_Freudlose_Gasse_1925/'
p772
sg13
I00
sg14
Nsg15
S'//130.60.131.134/studi/Filme/frueher_Film/576_Die_Freudlose_Gasse_1925\\576_1_1_Die_Freudlose_Gasse_1925_ELAN.eaf'
p773
sg17
I00
sba(i__main__
Movie
p774
(dp775
g3
S'TheThiefOfBagdad'
p776
sg5
S'//130.60.131.134/studi/Filme/frueher_Film/613_The_Thief_Of_Bagdad_1924/'
p777
sg7
(lp778
sg9
(lp779
I613
aI1
aI1
asg11
S'frueher_Film/613_The_Thief_Of_Bagdad_1924/'
p780
sg13
I01
sg14
Nsg15
S'//130.60.131.134/studi/Filme/frueher_Film/613_The_Thief_Of_Bagdad_1924\\613_1_1_TheThiefOfBagdad_1924_DVD_ELAN.eaf'
p781
sg17
I00
sba(i__main__
Movie
p782
(dp783
g3
S'Erotikon'
p784
sg5
S'//130.60.131.134/studi/Filme/frueher_Film/614_Erotikon_1920/'
p785
sg7
(lp786
sg9
(lp787
I614
aI1
aI1
asg11
S'frueher_Film/614_Erotikon_1920/'
p788
sg13
I01
sg14
Nsg15
S'//130.60.131.134/studi/Filme/frueher_Film/614_Erotikon_1920\\614_1_1_Erotikon_1920_DVD_ELAN.eaf'
p789
sg17
I00
sba(i__main__
Movie
p790
(dp791
g3
S'BehindTheDoor'
p792
sg5
S'//130.60.131.134/studi/Filme/frueher_Film/616_Behind_The_Door_1919/'
p793
sg7
(lp794
sg9
(lp795
I616
aI1
aI1
asg11
S'frueher_Film/616_Behind_The_Door_1919/'
p796
sg13
I01
sg14
Nsg15
S'//130.60.131.134/studi/Filme/frueher_Film/616_Behind_The_Door_1919\\616_1_1_BehindTheDoor_1919_DVD_ELAN.eaf'
p797
sg17
I00
sba(i__main__
Movie
p798
(dp799
g3
S'LaDanseDuDiable'
p800
sg5
S'//130.60.131.134/studi/Filme/frueher_Film/640_La_Danse_Du_Diable_1904/'
p801
sg7
(lp802
sg9
(lp803
I640
aI1
aI1
asg11
S'frueher_Film/640_La_Danse_Du_Diable_1904/'
p804
sg13
I00
sg14
Nsg15
S'//130.60.131.134/studi/Filme/frueher_Film/640_La_Danse_Du_Diable_1904\\640_1_1_LaDanseDuDiable_1904_DVD_Elan.eaf'
p805
sg17
I00
sba(i__main__
Movie
p806
(dp807
g3
S'LaFeeAuxFleurs'
p808
sg5
S'//130.60.131.134/studi/Filme/frueher_Film/641_La_Fee_Aux_Fleurs_1905/'
p809
sg7
(lp810
sg9
(lp811
I641
aI1
aI4
asg11
S'frueher_Film/641_La_Fee_Aux_Fleurs_1905/'
p812
sg13
I00
sg14
Nsg15
S'//130.60.131.134/studi/Filme/frueher_Film/641_La_Fee_Aux_Fleurs_1905\\641_1_4_LaFeeAuxFleurs_1905_DVD_ELAN.eaf'
p813
sg17
I00
sba(i__main__
Movie
p814
(dp815
g3
S'LePiedDeMouton'
p816
sg5
S'//130.60.131.134/studi/Filme/frueher_Film/642_Le_Pied_De_Mouton_1907/'
p817
sg7
(lp818
sg9
(lp819
I642
aI1
aI1
asg11
S'frueher_Film/642_Le_Pied_De_Mouton_1907/'
p820
sg13
I00
sg14
Nsg15
S'//130.60.131.134/studi/Filme/frueher_Film/642_Le_Pied_De_Mouton_1907\\642_1_1_LePiedDeMouton_1907_DVD_ELAN.eaf'
p821
sg17
I00
sba(i__main__
Movie
p822
(dp823
g3
S'AssuntaSpina'
p824
sg5
S'//130.60.131.134/studi/Filme/frueher_Film/699_Assunta_Spina_1915/'
p825
sg7
(lp826
sg9
(lp827
I699
aI1
aI1
asg11
S'frueher_Film/699_Assunta_Spina_1915/'
p828
sg13
I01
sg14
Nsg15
S'//130.60.131.134/studi/Filme/frueher_Film/699_Assunta_Spina_1915\\699_1_1_AssuntaSpina_1915_DVD_ELAN.eaf'
p829
sg17
I00
sba(i__main__
Movie
p830
(dp831
g3
S'RobinHood'
p832
sg5
S'//130.60.131.134/studi/Filme/frueher_Film/751_Robin_Hood_1922/'
p833
sg7
(lp834
sg9
(lp835
I751
aI1
aI1
asg11
S'frueher_Film/751_Robin_Hood_1922/'
p836
sg13
I01
sg14
Nsg15
S'//130.60.131.134/studi/Filme/frueher_Film/751_Robin_Hood_1922\\751_1_1_RobinHood_1922_DVD_Elan.eaf'
p837
sg17
I00
sba(i__main__
Movie
p838
(dp839
g3
S'TheGoldenBeetle'
p840
sg5
S'//130.60.131.134/studi/Filme/frueher_Film/779_The_Golden_Beetle_1907/'
p841
sg7
(lp842
sg9
(lp843
I779
aI1
aI1
asg11
S'frueher_Film/779_The_Golden_Beetle_1907/'
p844
sg13
I00
sg14
Nsg15
S'//130.60.131.134/studi/Filme/frueher_Film/779_The_Golden_Beetle_1907\\779_1_1_TheGoldenBeetle_1907_DVD_Elan.eaf'
p845
sg17
I00
sba(i__main__
Movie
p846
(dp847
g3
S'TheGreatTrainRobbery'
p848
sg5
S'//130.60.131.134/studi/Filme/frueher_Film/788_The_Great_Train_Robbery_1903/'
p849
sg7
(lp850
sg9
(lp851
I788
aI1
aI1
asg11
S'frueher_Film/788_The_Great_Train_Robbery_1903/'
p852
sg13
I00
sg14
Nsg15
S'//130.60.131.134/studi/Filme/frueher_Film/788_The_Great_Train_Robbery_1903\\788_1_1_TheGreatTrainRobbery_1903_DVD_Elan.eaf'
p853
sg17
I00
sba(i__main__
Movie
p854
(dp855
g3
S'ElNegro'
p856
sg5
S'//130.60.131.134/studi/Filme/frueher_Film/830_El_Negro_Que_Tenia_El_Alma_Blanca_1927/'
p857
sg7
(lp858
sg9
(lp859
I830
aI1
aI1
asg11
S'frueher_Film/830_El_Negro_Que_Tenia_El_Alma_Blanca_1927/'
p860
sg13
I01
sg14
Nsg15
S'//130.60.131.134/studi/Filme/frueher_Film/830_El_Negro_Que_Tenia_El_Alma_Blanca_1927\\830_1_1_ElNegro_1927_DVD_ELAN.eaf'
p861
sg17
I00
sba(i__main__
Movie
p862
(dp863
g3
S'Intolerance'
p864
sg5
S'//130.60.131.134/studi/Filme/frueher_Film/832_Intolerance_1916/'
p865
sg7
(lp866
sg9
(lp867
I832
aI1
aI1
asg11
S'frueher_Film/832_Intolerance_1916/'
p868
sg13
I01
sg14
Nsg15
S'//130.60.131.134/studi/Filme/frueher_Film/832_Intolerance_1916\\832_1_1_Intolerance_1916_DVD_Elan.eaf'
p869
sg17
I00
sba(i__main__
Movie
p870
(dp871
g3
S'AliceInWonderland'
p872
sg5
S'//130.60.131.134/studi/Filme/frueher_Film/851_Alice_In_Wonderland_1915/'
p873
sg7
(lp874
sg9
(lp875
I851
aI1
aI1
asg11
S'frueher_Film/851_Alice_In_Wonderland_1915/'
p876
sg13
I01
sg14
Nsg15
S'//130.60.131.134/studi/Filme/frueher_Film/851_Alice_In_Wonderland_1915\\851_1_1_AliceInWonderland_1915_DVD_ELAN.eaf'
p877
sg17
I00
sba(i__main__
Movie
p878
(dp879
g3
S'DieNibelungen'
p880
sg5
S'//130.60.131.134/studi/Filme/frueher_Film/854_Die_Nibelungen_1924/854_1_1_DieNibelungen_1924_DVD/'
p881
sg7
(lp882
sg9
(lp883
I854
aI1
aI1
asg11
S'frueher_Film/854_Die_Nibelungen_1924/854_1_1_DieNibelungen_1924_DVD/'
p884
sg13
I01
sg14
Nsg15
S'//130.60.131.134/studi/Filme/frueher_Film/854_Die_Nibelungen_1924/854_1_1_DieNibelungen_1924_DVD\\854_1_1_DieNibelungen_1924_DVD_ELAN.eaf'
p885
sg17
I00
sba(i__main__
Movie
p886
(dp887
g3
S'DieNibelungen'
p888
sg5
S'//130.60.131.134/studi/Filme/frueher_Film/854_Die_Nibelungen_1924/854_2_1_DieNibelungen_1924_DVD/'
p889
sg7
(lp890
sg9
(lp891
I854
aI2
aI1
asg11
S'frueher_Film/854_Die_Nibelungen_1924/854_2_1_DieNibelungen_1924_DVD/'
p892
sg13
I01
sg14
Nsg15
S'//130.60.131.134/studi/Filme/frueher_Film/854_Die_Nibelungen_1924/854_2_1_DieNibelungen_1924_DVD\\854_2_1_DieNibelungen_1924_DVD_ELAN.eaf'
p893
sg17
I00
sba(i__main__
Movie
p894
(dp895
g3
S'Ildfluen'
p896
sg5
S'//130.60.131.134/studi/Filme/frueher_Film/855_Ildfluen_1913/'
p897
sg7
(lp898
sg9
(lp899
I855
aI1
aI1
asg11
S'frueher_Film/855_Ildfluen_1913/'
p900
sg13
I00
sg14
Nsg15
S'//130.60.131.134/studi/Filme/frueher_Film/855_Ildfluen_1913\\855_1_1_Ildfluen_1913_ELAN.eaf'
p901
sg17
I00
sba(i__main__
Movie
p902
(dp903
g3
S'Napoleon'
p904
sg5
S'//130.60.131.134/studi/Filme/frueher_Film/860_Napoleon_1927/860_1_1_Napoleon_1927/'
p905
sg7
(lp906
sg9
(lp907
I860
aI1
aI1
asg11
S'frueher_Film/860_Napoleon_1927/860_1_1_Napoleon_1927/'
p908
sg13
I00
sg14
Nsg15
S'//130.60.131.134/studi/Filme/frueher_Film/860_Napoleon_1927/860_1_1_Napoleon_1927\\860_1_1_Napoleon_1927_Disc1_ELAN.eaf'
p909
sg17
I00
sba(i__main__
Movie
p910
(dp911
g3
S'Napoleon'
p912
sg5
S'//130.60.131.134/studi/Filme/frueher_Film/860_Napoleon_1927/860_1_2_Napoleon_1927/'
p913
sg7
(lp914
sg9
(lp915
I860
aI1
aI2
asg11
S'frueher_Film/860_Napoleon_1927/860_1_2_Napoleon_1927/'
p916
sg13
I00
sg14
Nsg15
S'//130.60.131.134/studi/Filme/frueher_Film/860_Napoleon_1927/860_1_2_Napoleon_1927\\860_1_2_Napoleon_1927_Disc2_ELAN.eaf'
p917
sg17
I00
sba(i__main__
Movie
p918
(dp919
g3
S'Napoleon'
p920
sg5
S'//130.60.131.134/studi/Filme/frueher_Film/860_Napoleon_1927/860_1_3_Napoleon_1927/'
p921
sg7
(lp922
sg9
(lp923
I860
aI1
aI3
asg11
S'frueher_Film/860_Napoleon_1927/860_1_3_Napoleon_1927/'
p924
sg13
I00
sg14
Nsg15
S'//130.60.131.134/studi/Filme/frueher_Film/860_Napoleon_1927/860_1_3_Napoleon_1927\\860_1_3_Napoleon_1927_Disc3_ELAN.eaf'
p925
sg17
I00
sba(i__main__
Movie
p926
(dp927
g3
S'Napoleon'
p928
sg5
S'//130.60.131.134/studi/Filme/frueher_Film/860_Napoleon_1927/860_1_4_Napoleon_1927/'
p929
sg7
(lp930
sg9
(lp931
I860
aI1
aI4
asg11
S'frueher_Film/860_Napoleon_1927/860_1_4_Napoleon_1927/'
p932
sg13
I00
sg14
Nsg15
S'//130.60.131.134/studi/Filme/frueher_Film/860_Napoleon_1927/860_1_4_Napoleon_1927\\860_1_4_Napoleon_1927_Disc4_ELAN.eaf'
p933
sg17
I00
sba(i__main__
Movie
p934
(dp935
g3
S'LeFaune'
p936
sg5
S'//130.60.131.134/studi/Filme/frueher_Film/863_Le_Faune_1908/'
p937
sg7
(lp938
sg9
(lp939
I863
aI1
aI1
asg11
S'frueher_Film/863_Le_Faune_1908/'
p940
sg13
I00
sg14
Nsg15
S'//130.60.131.134/studi/Filme/frueher_Film/863_Le_Faune_1908\\863_1_1_LeFaune_1908_DVD_Elan.eaf'
p941
sg17
I00
sba(i__main__
Movie
p942
(dp943
g3
S'TheOpenRoad'
p944
sg5
S'//130.60.131.134/studi/Filme/frueher_Film/878_The_Open_Road_1925/'
p945
sg7
(lp946
sg9
(lp947
I878
aI1
aI1
asg11
S'frueher_Film/878_The_Open_Road_1925/'
p948
sg13
I00
sg14
Nsg15
S'//130.60.131.134/studi/Filme/frueher_Film/878_The_Open_Road_1925\\878_1_1_TheOpenRoad_1925_DVD_ELAN.eaf'
p949
sg17
I00
sba(i__main__
Movie
p950
(dp951
g3
S'YolandaAndTheThief'
p952
sg5
S'//130.60.131.134/studi/Filme/mittlere_Filme/1038_Yolanda_and_the_Thief_1945/'
p953
sg7
(lp954
S'//130.60.131.134/studi/Filme/mittlere_Filme/1038_Yolanda_and_the_Thief_1945\\1038_1_1_YolandaAndTheThief_1945_DVD_ELAN.txt'
p955
asg9
(lp956
I1038
aI1
aI1
asg11
S'mittlere_Filme/1038_Yolanda_and_the_Thief_1945/'
p957
sg13
I01
sg14
Nsg15
S'//130.60.131.134/studi/Filme/mittlere_Filme/1038_Yolanda_and_the_Thief_1945\\1038_1_1_YolandaAndTheThief_1945_DVD_ELAN.eaf'
p958
sg17
I00
sba(i__main__
Movie
p959
(dp960
g3
S'BlancheFury'
p961
sg5
S'//130.60.131.134/studi/Filme/mittlere_Filme/105_Blanche_Fury_1948/'
p962
sg7
(lp963
sg9
(lp964
I105
aI1
aI1
asg11
S'mittlere_Filme/105_Blanche_Fury_1948/'
p965
sg13
I00
sg14
Nsg15
S'//130.60.131.134/studi/Filme/mittlere_Filme/105_Blanche_Fury_1948\\105_1_1_BlancheFury_1948_DVD_ELAN.eaf'
p966
sg17
I00
sba(i__main__
Movie
p967
(dp968
g3
S'LeaveHerToHeaven'
p969
sg5
S'//130.60.131.134/studi/Filme/mittlere_Filme/107_Leave_Her_to_Heaven_1945/'
p970
sg7
(lp971
sg9
(lp972
I107
aI1
aI1
asg11
S'mittlere_Filme/107_Leave_Her_to_Heaven_1945/'
p973
sg13
I01
sg14
Nsg15
S'//130.60.131.134/studi/Filme/mittlere_Filme/107_Leave_Her_to_Heaven_1945\\107_1_1_LeaveHerToHeaven_1945_DVD_ELAN_BF.eaf'
p974
sg17
I00
sba(i__main__
Movie
p975
(dp976
g3
S'NightAndDay'
p977
sg5
S'//130.60.131.134/studi/Filme/mittlere_Filme/1110_Night_and_Day_1946/'
p978
sg7
(lp979
sg9
(lp980
I1110
aI1
aI1
asg11
S'mittlere_Filme/1110_Night_and_Day_1946/'
p981
sg13
I01
sg14
Nsg15
S'//130.60.131.134/studi/Filme/mittlere_Filme/1110_Night_and_Day_1946\\1110_1_1_NightAndDay_1946_DVD_ELAN.eaf'
p982
sg17
I00
sba(i__main__
Movie
p983
(dp984
g3
S'ImmerBereit'
p985
sg5
S'//130.60.131.134/studi/Filme/mittlere_Filme/1169_Immer_bereit_1950/'
p986
sg7
(lp987
S'//130.60.131.134/studi/Filme/mittlere_Filme/1169_Immer_bereit_1950\\1169_1_1_ImmerBereit_1950_DVD_ELAN.txt'
p988
asg9
(lp989
I1169
aI1
aI1
asg11
S'mittlere_Filme/1169_Immer_bereit_1950/'
p990
sg13
I00
sg14
Nsg15
S'//130.60.131.134/studi/Filme/mittlere_Filme/1169_Immer_bereit_1950\\1169_1_1_ImmerBereit_1950_DVD_ELAN.eaf'
p991
sg17
I00
sba(i__main__
Movie
p992
(dp993
g3
S'TeethOfSteel'
p994
sg5
S'//130.60.131.134/studi/Filme/mittlere_Filme/1213_Teeth_of_Steel_1942/'
p995
sg7
(lp996
S'//130.60.131.134/studi/Filme/mittlere_Filme/1213_Teeth_of_Steel_1942\\1213_1_1_TeethOfSteel_1942_DVD_ELAN.txt'
p997
asg9
(lp998
I1213
aI1
aI1
asg11
S'mittlere_Filme/1213_Teeth_of_Steel_1942/'
p999
sg13
I00
sg14
Nsg15
S'//130.60.131.134/studi/Filme/mittlere_Filme/1213_Teeth_of_Steel_1942\\1213_1_1_TeethOfSteel_1942_DVD_ELAN.eaf'
p1000
sg17
I00
sba(i__main__
Movie
p1001
(dp1002
g3
S'TheThiefOfBagdad'
p1003
sg5
S'//130.60.131.134/studi/Filme/mittlere_Filme/122_The_Thief_of_Bagdad_1940/'
p1004
sg7
(lp1005
S'//130.60.131.134/studi/Filme/mittlere_Filme/122_The_Thief_of_Bagdad_1940\\122_1_1_TheThiefOfBagdad_1940_DVD_ELAN.txt'
p1006
asg9
(lp1007
I122
aI1
aI1
asg11
S'mittlere_Filme/122_The_Thief_of_Bagdad_1940/'
p1008
sg13
I01
sg14
Nsg15
S'//130.60.131.134/studi/Filme/mittlere_Filme/122_The_Thief_of_Bagdad_1940\\122_1_1_ELAN_Projektdatei\\122_1_1_TheThiefOfBagdad_1940_DVD_ELAN.eaf'
p1009
sg17
I00
sba(i__main__
Movie
p1010
(dp1011
g3
S'TheCoronationOfTheirMajestiesKingGeorgeVIAndQueenElizabeth'
p1012
sg5
S'//130.60.131.134/studi/Filme/mittlere_Filme/1230_The_Coronation_of_Their_Majesties_King_George_VI_and_Queen_Elizabeth_1937/'
p1013
sg7
(lp1014
S'//130.60.131.134/studi/Filme/mittlere_Filme/1230_The_Coronation_of_Their_Majesties_King_George_VI_and_Queen_Elizabeth_1937\\1230_1_1_TheCoronationOfTheirMajestiesKingGeorgeVIAndQueenElizabeth_1937_DVD_ELAN.txt'
p1015
asg9
(lp1016
I1230
aI1
aI1
asg11
S'mittlere_Filme/1230_The_Coronation_of_Their_Majesties_King_George_VI_and_Queen_Elizabeth_1937/'
p1017
sg13
I00
sg14
Nsg15
S'//130.60.131.134/studi/Filme/mittlere_Filme/1230_The_Coronation_of_Their_Majesties_King_George_VI_and_Queen_Elizabeth_1937\\1230_1_1_TheCoronationOfTheirMajestiesKingGeorgeVIAndQueenElizabeth_1937_DVD_ELAN.eaf'
p1018
sg17
I00
sba(i__main__
Movie
p1019
(dp1020
g3
S'TheRiver'
p1021
sg5
S'//130.60.131.134/studi/Filme/mittlere_Filme/1278_The_River_1951/'
p1022
sg7
(lp1023
S'//130.60.131.134/studi/Filme/mittlere_Filme/1278_The_River_1951\\1278_1_1_TheRiver_1951_DVD_ELAN.txt'
p1024
asg9
(lp1025
I1278
aI1
aI1
asg11
S'mittlere_Filme/1278_The_River_1951/'
p1026
sg13
I00
sg14
Nsg15
S'//130.60.131.134/studi/Filme/mittlere_Filme/1278_The_River_1951\\1278_1_1_TheRiver_1951_DVD_ELAN.eaf'
p1027
sg17
I00
sba(i__main__
Movie
p1028
(dp1029
g3
S'TheFourFeathers'
p1030
sg5
S'//130.60.131.134/studi/Filme/mittlere_Filme/127_The_Four_Feathers_1939/'
p1031
sg7
(lp1032
sg9
(lp1033
I127
aI1
aI1
asg11
S'mittlere_Filme/127_The_Four_Feathers_1939/'
p1034
sg13
I01
sg14
Nsg15
S'//130.60.131.134/studi/Filme/mittlere_Filme/127_The_Four_Feathers_1939\\127_1_1_TheFourFeathers_1939_DVD_ELAN.eaf'
p1035
sg17
I00
sba(i__main__
Movie
p1036
(dp1037
g3
S'WingsOfTheMorning'
p1038
sg5
S'//130.60.131.134/studi/Filme/mittlere_Filme/13_Wings_of_the_Morning_1937/'
p1039
sg7
(lp1040
S'//130.60.131.134/studi/Filme/mittlere_Filme/13_Wings_of_the_Morning_1937\\13_1_2_WingsOfTheMorning_1937_DVD_ELAN.txt'
p1041
asg9
(lp1042
I13
aI1
aI2
asg11
S'mittlere_Filme/13_Wings_of_the_Morning_1937/'
p1043
sg13
I01
sg14
Nsg15
S'//130.60.131.134/studi/Filme/mittlere_Filme/13_Wings_of_the_Morning_1937\\13_1_2_WingsOfTheMorning_1937_DVD_ELAN.eaf'
p1044
sg17
I00
sba(i__main__
Movie
p1045
(dp1046
g3
S'TheWaroftheWorlds'
p1047
sg5
S'//130.60.131.134/studi/Filme/mittlere_Filme/143_The_War_of_the_Worlds_1953/'
p1048
sg7
(lp1049
sg9
(lp1050
I143
aI1
aI1
asg11
S'mittlere_Filme/143_The_War_of_the_Worlds_1953/'
p1051
sg13
I01
sg14
Nsg15
S'//130.60.131.134/studi/Filme/mittlere_Filme/143_The_War_of_the_Worlds_1953\\143_1_1_TheWaroftheWorlds_1953_DVD_ELAN.eaf'
p1052
sg17
I00
sba(i__main__
Movie
p1053
(dp1054
g3
S'Brigadoon'
p1055
sg5
S'//130.60.131.134/studi/Filme/mittlere_Filme/1475_Brigadoon_1954/'
p1056
sg7
(lp1057
S'//130.60.131.134/studi/Filme/mittlere_Filme/1475_Brigadoon_1954\\1475_1_1_Brigadoon_1954_DVD_ELAN.txt'
p1058
asg9
(lp1059
I1475
aI1
aI1
asg11
S'mittlere_Filme/1475_Brigadoon_1954/'
p1060
sg13
I00
sg14
Nsg15
S'//130.60.131.134/studi/Filme/mittlere_Filme/1475_Brigadoon_1954\\1475_1_1_Brigadoon_1954_DVD_ELAN.eaf'
p1061
sg17
I00
sba(i__main__
Movie
p1062
(dp1063
g3
S'RiverOfNoReturn'
p1064
sg5
S'//130.60.131.134/studi/Filme/mittlere_Filme/1713_Maske_in_Blau_1953/'
p1065
sg7
(lp1066
S'//130.60.131.134/studi/Filme/mittlere_Filme/1713_Maske_in_Blau_1953\\3372_1_1_RiverOfNoReturn_1954_DVD_ELAN.txt'
p1067
asg9
(lp1068
I3372
aI1
aI1
asg11
S'mittlere_Filme/1713_Maske_in_Blau_1953/'
p1069
sg13
I00
sg14
Nsg15
S'//130.60.131.134/studi/Filme/mittlere_Filme/1713_Maske_in_Blau_1953\\3372_1_1_RiverOfNoReturn_1954_DVD_ELAN.eaf'
p1070
sg17
I00
sba(i__main__
Movie
p1071
(dp1072
g3
S'FrauenSindDochBessereDiplomaten'
p1073
sg5
S'//130.60.131.134/studi/Filme/mittlere_Filme/177_Frauen_sind_doch_bessere_Diplomaten_1941/'
p1074
sg7
(lp1075
S'//130.60.131.134/studi/Filme/mittlere_Filme/177_Frauen_sind_doch_bessere_Diplomaten_1941\\177_1_1_FrauenSindDochBessereDiplomaten_1941_DVD_ELAN.txt'
p1076
asg9
(lp1077
I177
aI1
aI1
asg11
S'mittlere_Filme/177_Frauen_sind_doch_bessere_Diplomaten_1941/'
p1078
sg13
I01
sg14
Nsg15
S'//130.60.131.134/studi/Filme/mittlere_Filme/177_Frauen_sind_doch_bessere_Diplomaten_1941\\ELAN_Projektdatei\\177_1_1_FrauenSindDochBessereDiplomaten_1941_DVD_ELAN.eaf'
p1079
sg17
I00
sba(i__main__
Movie
p1080
(dp1081
g3
S'TheRedShoes'
p1082
sg5
S'//130.60.131.134/studi/Filme/mittlere_Filme/180_The_Red_Shoes_1948/'
p1083
sg7
(lp1084
S'//130.60.131.134/studi/Filme/mittlere_Filme/180_The_Red_Shoes_1948\\180_1_1_TheRedShoes_1948_DVD_ELAN.txt'
p1085
asg9
(lp1086
I180
aI1
aI1
asg11
S'mittlere_Filme/180_The_Red_Shoes_1948/'
p1087
sg13
I00
sg14
Nsg15
S'//130.60.131.134/studi/Filme/mittlere_Filme/180_The_Red_Shoes_1948\\ELAN_Projektdatei\\180_1_1_TheRedShoes_1948_DVD_ELAN.eaf'
p1088
sg17
I00
sba(i__main__
Movie
p1089
(dp1090
g3
S'SheWhoreAYellowRibbon'
p1091
sg5
S'//130.60.131.134/studi/Filme/mittlere_Filme/181_She_Wore_A_Yellow_Ribbon_1949/'
p1092
sg7
(lp1093
sg9
(lp1094
I181
aI1
aI1
asg11
S'mittlere_Filme/181_She_Wore_A_Yellow_Ribbon_1949/'
p1095
sg13
I00
sg14
Nsg15
S'//130.60.131.134/studi/Filme/mittlere_Filme/181_She_Wore_A_Yellow_Ribbon_1949\\181_1_1_SheWhoreAYellowRibbon_1949_DVD_ELAN.eaf'
p1096
sg17
I00
sba(i__main__
Movie
p1097
(dp1098
g3
S'MakingFashion'
p1099
sg5
S'//130.60.131.134/studi/Filme/mittlere_Filme/182_Making_Fashion_1938/'
p1100
sg7
(lp1101
S'//130.60.131.134/studi/Filme/mittlere_Filme/182_Making_Fashion_1938\\182_1_2_MakingFashion_1938_DVD_ELAN.txt'
p1102
asg9
(lp1103
I182
aI1
aI2
asg11
S'mittlere_Filme/182_Making_Fashion_1938/'
p1104
sg13
I00
sg14
Nsg15
S'//130.60.131.134/studi/Filme/mittlere_Filme/182_Making_Fashion_1938\\ELAN_Projektdatei\\182_1_2_MakingFashion_1938_DVD_ELAN.eaf'
p1105
sg17
I00
sba(i__main__
Movie
p1106
(dp1107
g3
S'Kolberg'
p1108
sg5
S'//130.60.131.134/studi/Filme/mittlere_Filme/183_Kolberg_1945/'
p1109
sg7
(lp1110
S'//130.60.131.134/studi/Filme/mittlere_Filme/183_Kolberg_1945\\183_1_3_Kolberg_1945_DVD_ELAN.txt'
p1111
asg9
(lp1112
I183
aI1
aI3
asg11
S'mittlere_Filme/183_Kolberg_1945/'
p1113
sg13
I00
sg14
Nsg15
S'//130.60.131.134/studi/Filme/mittlere_Filme/183_Kolberg_1945\\183_1_3_Kolberg_1945_DVD_ELAN.eaf'
p1114
sg17
I00
sba(i__main__
Movie
p1115
(dp1116
g3
S'BlackNarcissus'
p1117
sg5
S'//130.60.131.134/studi/Filme/mittlere_Filme/184_Black_Narcissus_1947/'
p1118
sg7
(lp1119
S'//130.60.131.134/studi/Filme/mittlere_Filme/184_Black_Narcissus_1947\\184_1_1_BlackNarcissus_1947_DVD_ELAN_BF.txt'
p1120
asg9
(lp1121
I184
aI1
aI1
asg11
S'mittlere_Filme/184_Black_Narcissus_1947/'
p1122
sg13
I00
sg14
Nsg15
S'//130.60.131.134/studi/Filme/mittlere_Filme/184_Black_Narcissus_1947\\184_1_1_BlackNarcissus_1947_DVD_ELAN_BF.eaf'
p1123
sg17
I00
sba(i__main__
Movie
p1124
(dp1125
g3
S'TheAdventuresOfRobinHood'
p1126
sg5
S'//130.60.131.134/studi/Filme/mittlere_Filme/185_The_Adventures_of_Robin_Hood_1938/'
p1127
sg7
(lp1128
S'//130.60.131.134/studi/Filme/mittlere_Filme/185_The_Adventures_of_Robin_Hood_1938\\185_1_1_TheAdventuresOfRobinHood_1938_DVD_ELAN.txt'
p1129
asg9
(lp1130
I185
aI1
aI1
asg11
S'mittlere_Filme/185_The_Adventures_of_Robin_Hood_1938/'
p1131
sg13
I00
sg14
Nsg15
S'//130.60.131.134/studi/Filme/mittlere_Filme/185_The_Adventures_of_Robin_Hood_1938\\ELAN_Projektdatei\\185_1_1_TheAdventuresOfRobinHood_1938_DVD_ELAN.eaf'
p1132
sg17
I00
sba(i__main__
Movie
p1133
(dp1134
g3
S'TheLongLongTrailer'
p1135
sg5
S'//130.60.131.134/studi/Filme/mittlere_Filme/1866_The_Long_Long_Trailer_1953/'
p1136
sg7
(lp1137
S'//130.60.131.134/studi/Filme/mittlere_Filme/1866_The_Long_Long_Trailer_1953\\1866_1_1_TheLongLongTrailer_1953_DVD_ELAN.txt'
p1138
asg9
(lp1139
I1866
aI1
aI1
asg11
S'mittlere_Filme/1866_The_Long_Long_Trailer_1953/'
p1140
sg13
I01
sg14
Nsg15
S'//130.60.131.134/studi/Filme/mittlere_Filme/1866_The_Long_Long_Trailer_1953\\1866_1_1_TheLongLongTrailer_1953_DVD_ELAN.eaf'
p1141
sg17
I00
sba(i__main__
Movie
p1142
(dp1143
g3
S'Muenchhausen'
p1144
sg5
S'//130.60.131.134/studi/Filme/mittlere_Filme/186_Muenchhausen_1943/'
p1145
sg7
(lp1146
S'//130.60.131.134/studi/Filme/mittlere_Filme/186_Muenchhausen_1943\\186_1_1_Muenchhausen_1943_DVD_ELAN.txt'
p1147
asg9
(lp1148
I186
aI1
aI1
asg11
S'mittlere_Filme/186_Muenchhausen_1943/'
p1149
sg13
I00
sg14
Nsg15
S'//130.60.131.134/studi/Filme/mittlere_Filme/186_Muenchhausen_1943\\ELAN_Projektdatei\\186_1_1_Muenchhausen_1943_DVD_ELAN.eaf'
p1150
sg17
I00
sba(i__main__
Movie
p1151
(dp1152
g3
S'BloodAndSand'
p1153
sg5
S'//130.60.131.134/studi/Filme/mittlere_Filme/18_Blood_and_Sand_1941/'
p1154
sg7
(lp1155
S'//130.60.131.134/studi/Filme/mittlere_Filme/18_Blood_and_Sand_1941\\18_1_1_BloodAndSand_1941_DVD_ELAN.txt'
p1156
asg9
(lp1157
I18
aI1
aI1
asg11
S'mittlere_Filme/18_Blood_and_Sand_1941/'
p1158
sg13
I00
sg14
Nsg15
S'//130.60.131.134/studi/Filme/mittlere_Filme/18_Blood_and_Sand_1941\\ELAN Projektdatei\\18_1_1_BloodAndSand_1941_DVD_ELAN_VR.eaf'
p1159
sg17
I00
sba(i__main__
Movie
p1160
(dp1161
g3
S'Immensee'
p1162
sg5
S'//130.60.131.134/studi/Filme/mittlere_Filme/223_Immensee_1943/'
p1163
sg7
(lp1164
S'//130.60.131.134/studi/Filme/mittlere_Filme/223_Immensee_1943\\223_1_1_Immensee_1943_DVD_ELAN.txt'
p1165
asg9
(lp1166
I223
aI1
aI1
asg11
S'mittlere_Filme/223_Immensee_1943/'
p1167
sg13
I01
sg14
Nsg15
S'//130.60.131.134/studi/Filme/mittlere_Filme/223_Immensee_1943\\ELAN_Projektdatei\\223_1_1_Immensee_1943_DVD_ELAN.eaf'
p1168
sg17
I00
sba(i__main__
Movie
p1169
(dp1170
g3
S'Opfergang'
p1171
sg5
S'//130.60.131.134/studi/Filme/mittlere_Filme/224_Opfergang_1944/'
p1172
sg7
(lp1173
S'//130.60.131.134/studi/Filme/mittlere_Filme/224_Opfergang_1944\\224_1_1_Opfergang_1944_DVD_ELAN.txt'
p1174
asg9
(lp1175
I224
aI1
aI1
asg11
S'mittlere_Filme/224_Opfergang_1944/'
p1176
sg13
I01
sg14
Nsg15
S'//130.60.131.134/studi/Filme/mittlere_Filme/224_Opfergang_1944\\224_1_1_ELAN_Projektdatei\\224_1_1_Opfergang_1944_DVD_ELAN.eaf'
p1177
sg17
I00
sba(i__main__
Movie
p1178
(dp1179
g3
S'NewYork'
p1180
sg5
S'//130.60.131.134/studi/Filme/mittlere_Filme/225_New_York_1938/'
p1181
sg7
(lp1182
S'//130.60.131.134/studi/Filme/mittlere_Filme/225_New_York_1938\\225_1_1_NewYork_1938_DVD_ELAN.txt'
p1183
asg9
(lp1184
I225
aI1
aI1
asg11
S'mittlere_Filme/225_New_York_1938/'
p1185
sg13
I00
sg14
Nsg15
S'//130.60.131.134/studi/Filme/mittlere_Filme/225_New_York_1938\\225_1_1_NewYork_1938_DVD_ELAN.eaf'
p1186
sg17
I00
sba(i__main__
Movie
p1187
(dp1188
g3
S'JeunesFemmesPrenantLeThe'
p1189
sg5
S'//130.60.131.134/studi/Filme/mittlere_Filme/226_Jeunes_femmes_prenant_le_the_1937/'
p1190
sg7
(lp1191
S'//130.60.131.134/studi/Filme/mittlere_Filme/226_Jeunes_femmes_prenant_le_the_1937\\226_1_1_JeunesFemmesPrenantLeThe_1937_DVD_ELAN.txt'
p1192
asg9
(lp1193
I226
aI1
aI1
asg11
S'mittlere_Filme/226_Jeunes_femmes_prenant_le_the_1937/'
p1194
sg13
I00
sg14
Nsg15
S'//130.60.131.134/studi/Filme/mittlere_Filme/226_Jeunes_femmes_prenant_le_the_1937\\ELAN_Projektdatei\\226_1_1_JeunesFemmesPrenantLeThe_1937_DVD_ELAN.eaf'
p1195
sg17
I00
sba(i__main__
Movie
p1196
(dp1197
g3
S'SnowWhiteAndTheSevenDwarfs'
p1198
sg5
S'//130.60.131.134/studi/Filme/mittlere_Filme/228_Snow_White_And_The_Seven_Dwarfs_1937/'
p1199
sg7
(lp1200
sg9
(lp1201
I228
aI1
aI1
asg11
S'mittlere_Filme/228_Snow_White_And_The_Seven_Dwarfs_1937/'
p1202
sg13
I01
sg14
Nsg15
S'//130.60.131.134/studi/Filme/mittlere_Filme/228_Snow_White_And_The_Seven_Dwarfs_1937\\228_1_1_SnowWhiteAndTheSevenDwarfs_1937_DVD_ELAN.eaf'
p1203
sg17
I00
sba(i__main__
Movie
p1204
(dp1205
g3
S'MeetMeinStLouis'
p1206
sg5
S'//130.60.131.134/studi/Filme/mittlere_Filme/230_Meet_Me_in_St_Louis_1944/'
p1207
sg7
(lp1208
S'//130.60.131.134/studi/Filme/mittlere_Filme/230_Meet_Me_in_St_Louis_1944\\230_1_1_MeetMeinStLouis_1944_DVD_exp.txt'
p1209
asg9
(lp1210
I230
aI1
aI1
asg11
S'mittlere_Filme/230_Meet_Me_in_St_Louis_1944/'
p1211
sg13
I00
sg14
Nsg15
S'//130.60.131.134/studi/Filme/mittlere_Filme/230_Meet_Me_in_St_Louis_1944\\230_1_1_MeetMeinStLouis_1944_DVD_ELAN_BF.eaf'
p1212
sg17
I00
sba(i__main__
Movie
p1213
(dp1214
g3
S'TheTrailOfTheLonesomePine'
p1215
sg5
S'//130.60.131.134/studi/Filme/mittlere_Filme/231_The_Trail_of_the_Lonesome_Pine_1936/'
p1216
sg7
(lp1217
S'//130.60.131.134/studi/Filme/mittlere_Filme/231_The_Trail_of_the_Lonesome_Pine_1936\\231_1_1_TheTrailOfTheLonesomePine_1936_DVD_ELAN.txt'
p1218
asg9
(lp1219
I231
aI1
aI1
asg11
S'mittlere_Filme/231_The_Trail_of_the_Lonesome_Pine_1936/'
p1220
sg13
I01
sg14
Nsg15
S'//130.60.131.134/studi/Filme/mittlere_Filme/231_The_Trail_of_the_Lonesome_Pine_1936\\231_1_1_TheTrailOfTheLonesomePine_1936_DVD_ELAN.eaf'
p1221
sg17
I00
sba(i__main__
Movie
p1222
(dp1223
g3
S'TheTalesOfHoffmann'
p1224
sg5
S'//130.60.131.134/studi/Filme/mittlere_Filme/237_The_Tales_of_Hoffmann_1951/'
p1225
sg7
(lp1226
S'//130.60.131.134/studi/Filme/mittlere_Filme/237_The_Tales_of_Hoffmann_1951\\237_1_2_TheTalesOfHoffmann_1951_DVD_ELAN_BF.txt'
p1227
asg9
(lp1228
I237
aI1
aI2
asg11
S'mittlere_Filme/237_The_Tales_of_Hoffmann_1951/'
p1229
sg13
I00
sg14
Nsg15
S'//130.60.131.134/studi/Filme/mittlere_Filme/237_The_Tales_of_Hoffmann_1951\\237_1_2_TheTalesOfHoffmann_1951_DVD_ELAN_BF.eaf'
p1230
sg17
I00
sba(i__main__
Movie
p1231
(dp1232
g3
S'AnAmericanInParis'
p1233
sg5
S'//130.60.131.134/studi/Filme/mittlere_Filme/249_An_American_in_Paris_1951/'
p1234
sg7
(lp1235
S'//130.60.131.134/studi/Filme/mittlere_Filme/249_An_American_in_Paris_1951\\249_1_1_AnAmericanInParis_1951_DVD_ELAN.txt'
p1236
asg9
(lp1237
I249
aI1
aI1
asg11
S'mittlere_Filme/249_An_American_in_Paris_1951/'
p1238
sg13
I00
sg14
Nsg15
S'//130.60.131.134/studi/Filme/mittlere_Filme/249_An_American_in_Paris_1951\\249_1_1_AnAmericanInParis_1951_DVD_ELAN.eaf'
p1239
sg17
I00
sba(i__main__
Movie
p1240
(dp1241
g3
S'ImWeissenRoessl'
p1242
sg5
S'//130.60.131.134/studi/Filme/mittlere_Filme/2564_Im_Weissen_Roessl_1952/'
p1243
sg7
(lp1244
S'//130.60.131.134/studi/Filme/mittlere_Filme/2564_Im_Weissen_Roessl_1952\\2564_1_1_ImWeissenRoessl_1952_DVD_ELAN.txt'
p1245
asg9
(lp1246
I2564
aI1
aI1
asg11
S'mittlere_Filme/2564_Im_Weissen_Roessl_1952/'
p1247
sg13
I01
sg14
Nsg15
S'//130.60.131.134/studi/Filme/mittlere_Filme/2564_Im_Weissen_Roessl_1952\\2564_1_1_ImWeissenRoessl_1952_DVD_ELAN.eaf'
p1248
sg17
I00
sba(i__main__
Movie
p1249
(dp1250
g3
S'GentlemenPreferBlondes'
p1251
sg5
S'//130.60.131.134/studi/Filme/mittlere_Filme/256_Gentlemen_Prefer_Blondes_1953/'
p1252
sg7
(lp1253
sg9
(lp1254
I256
aI1
aI1
asg11
S'mittlere_Filme/256_Gentlemen_Prefer_Blondes_1953/'
p1255
sg13
I00
sg14
Nsg15
S'//130.60.131.134/studi/Filme/mittlere_Filme/256_Gentlemen_Prefer_Blondes_1953\\256_1_1GentlemenPreferBlondes_1953_DVD.eaf'
p1256
sg17
I00
sba(i__main__
Movie
p1257
(dp1258
g3
S'JohnnyGuitar'
p1259
sg5
S'//130.60.131.134/studi/Filme/mittlere_Filme/258_Johnny_Guitar_1954/'
p1260
sg7
(lp1261
S'//130.60.131.134/studi/Filme/mittlere_Filme/258_Johnny_Guitar_1954\\258_1_1_JohnnyGuitar_1954_DVD_ELAN.txt'
p1262
asg9
(lp1263
I258
aI1
aI1
asg11
S'mittlere_Filme/258_Johnny_Guitar_1954/'
p1264
sg13
I01
sg14
Nsg15
S'//130.60.131.134/studi/Filme/mittlere_Filme/258_Johnny_Guitar_1954\\ELAN_Projektdatei\\258_1_1_JohnnyGuitar_1954_DVD_ELAN.eaf'
p1265
sg17
I00
sba(i__main__
Movie
p1266
(dp1267
g3
S'JourDeFete'
p1268
sg5
S'//130.60.131.134/studi/Filme/mittlere_Filme/25_Jour_de_fete_1949/'
p1269
sg7
(lp1270
S'//130.60.131.134/studi/Filme/mittlere_Filme/25_Jour_de_fete_1949\\25_1_1_JourDeFete_1949_DVD_ELAN.txt'
p1271
asg9
(lp1272
I25
aI1
aI1
asg11
S'mittlere_Filme/25_Jour_de_fete_1949/'
p1273
sg13
I00
sg14
Nsg15
S'//130.60.131.134/studi/Filme/mittlere_Filme/25_Jour_de_fete_1949\\ELAN_Projektdatei\\25_1_1_JourDeFete_1949_DVD_ELAN.eaf'
p1274
sg17
I00
sba(i__main__
Movie
p1275
(dp1276
g3
S'TheGardenOfAllah'
p1277
sg5
S'//130.60.131.134/studi/Filme/mittlere_Filme/266_The_Garden_of_Allah_1936/'
p1278
sg7
(lp1279
S'//130.60.131.134/studi/Filme/mittlere_Filme/266_The_Garden_of_Allah_1936\\266_1_2_TheGardenOfAllah_1936_DVD_ELAN.txt'
p1280
asg9
(lp1281
I266
aI1
aI2
asg11
S'mittlere_Filme/266_The_Garden_of_Allah_1936/'
p1282
sg13
I00
sg14
Nsg15
S'//130.60.131.134/studi/Filme/mittlere_Filme/266_The_Garden_of_Allah_1936\\266_1_2_TheGardenOfAllah_1936_DVD_ELAN.eaf'
p1283
sg17
I00
sba(i__main__
Movie
p1284
(dp1285
g3
S'Senso'
p1286
sg5
S'//130.60.131.134/studi/Filme/mittlere_Filme/268_Senso_1954/'
p1287
sg7
(lp1288
sg9
(lp1289
I268
aI1
aI1
asg11
S'mittlere_Filme/268_Senso_1954/'
p1290
sg13
I01
sg14
Nsg15
S'//130.60.131.134/studi/Filme/mittlere_Filme/268_Senso_1954\\268_1_1_Senso_1954_DVD_ELAN.eaf'
p1291
sg17
I00
sba(i__main__
Movie
p1292
(dp1293
g3
S'MoulinRouge'
p1294
sg5
S'//130.60.131.134/studi/Filme/mittlere_Filme/27_Moulin_Rouge_1952/'
p1295
sg7
(lp1296
sg9
(lp1297
I27
aI1
aI1
asg11
S'mittlere_Filme/27_Moulin_Rouge_1952/'
p1298
sg13
I01
sg14
Nsg15
S'//130.60.131.134/studi/Filme/mittlere_Filme/27_Moulin_Rouge_1952\\27_1_1_MoulinRouge_1952_DVD.eaf'
p1299
sg17
I00
sba(i__main__
Movie
p1300
(dp1301
g3
S'HeavenCanWait'
p1302
sg5
S'//130.60.131.134/studi/Filme/mittlere_Filme/289_Heaven_Can_Wait_1943/'
p1303
sg7
(lp1304
S'//130.60.131.134/studi/Filme/mittlere_Filme/289_Heaven_Can_Wait_1943\\289_1_1_HeavenCanWait_1943_DVD_ELAN.txt'
p1305
asg9
(lp1306
I289
aI1
aI1
asg11
S'mittlere_Filme/289_Heaven_Can_Wait_1943/'
p1307
sg13
I00
sg14
Nsg15
S'//130.60.131.134/studi/Filme/mittlere_Filme/289_Heaven_Can_Wait_1943\\289_1_1_ELAN_Projektdatei\\289_1_1_HeavenCanWait_1943_DVD_ELAN.eaf'
p1308
sg17
I00
sba(i__main__
Movie
p1309
(dp1310
g3
S'DasKalteHerz'
p1311
sg5
S'//130.60.131.134/studi/Filme/mittlere_Filme/293_Das_kalte_Herz_1950/'
p1312
sg7
(lp1313
S'//130.60.131.134/studi/Filme/mittlere_Filme/293_Das_kalte_Herz_1950\\ELAN_Projektdatei\\293_1_1_DasKalteHerz_1950_DVD_ELAN.txt'
p1314
asg9
(lp1315
I293
aI1
aI1
asg11
S'mittlere_Filme/293_Das_kalte_Herz_1950/'
p1316
sg13
I01
sg14
Nsg15
S'//130.60.131.134/studi/Filme/mittlere_Filme/293_Das_kalte_Herz_1950\\ELAN_Projektdatei\\293_1_1_DasKalteHerz_1950_DVD_ELAN.eaf'
p1317
sg17
I00
sba(i__main__
Movie
p1318
(dp1319
g3
S'TheBlackSwan'
p1320
sg5
S'//130.60.131.134/studi/Filme/mittlere_Filme/299_The_Black_Swan_1942/'
p1321
sg7
(lp1322
sg9
(lp1323
I299
aI1
aI1
asg11
S'mittlere_Filme/299_The_Black_Swan_1942/'
p1324
sg13
I00
sg14
Nsg15
S'//130.60.131.134/studi/Filme/mittlere_Filme/299_The_Black_Swan_1942\\299_1_1_TheBlackSwan_1942_DVD_ELAN.eaf'
p1325
sg17
I00
sba(i__main__
Movie
p1326
(dp1327
g3
S'FlightToMars'
p1328
sg5
S'//130.60.131.134/studi/Filme/mittlere_Filme/2_Flight_to_Mars_1951/'
p1329
sg7
(lp1330
sg9
(lp1331
I2
aI1
aI1
asg11
S'mittlere_Filme/2_Flight_to_Mars_1951/'
p1332
sg13
I01
sg14
Nsg15
S'//130.60.131.134/studi/Filme/mittlere_Filme/2_Flight_to_Mars_1951\\2_1_1_FlightToMars_1951_DVD_ELAN.eaf'
p1333
sg17
I00
sba(i__main__
Movie
p1334
(dp1335
g3
S'Steel'
p1336
sg5
S'//130.60.131.134/studi/Filme/mittlere_Filme/300_Steel_1945/'
p1337
sg7
(lp1338
S'//130.60.131.134/studi/Filme/mittlere_Filme/300_Steel_1945\\300_1_2_Steel_1945_DVD_ELAN.txt'
p1339
asg9
(lp1340
I300
aI1
aI2
asg11
S'mittlere_Filme/300_Steel_1945/'
p1341
sg13
I00
sg14
Nsg15
S'//130.60.131.134/studi/Filme/mittlere_Filme/300_Steel_1945\\300_1_2_Steel_1945_DVD_ELAN.eaf'
p1342
sg17
I00
sba(i__main__
Movie
p1343
(dp1344
g3
S'Rope'
p1345
sg5
S'//130.60.131.134/studi/Filme/mittlere_Filme/301_Rope_1948/'
p1346
sg7
(lp1347
S'//130.60.131.134/studi/Filme/mittlere_Filme/301_Rope_1948\\301_1_2_Rope_1948_DVD_ELAN.txt'
p1348
asg9
(lp1349
I301
aI1
aI2
asg11
S'mittlere_Filme/301_Rope_1948/'
p1350
sg13
I01
sg14
Nsg15
S'//130.60.131.134/studi/Filme/mittlere_Filme/301_Rope_1948\\301_1_2_ELAN_Projektdatei\\301_1_2_Rope_1948_DVD_ELAN.eaf'
p1351
sg17
I00
sba(i__main__
Movie
p1352
(dp1353
g3
S'TroopingTheColour'
p1354
sg5
S'//130.60.131.134/studi/Filme/mittlere_Filme/3133_Trooping_the_Colour_1937/'
p1355
sg7
(lp1356
S'//130.60.131.134/studi/Filme/mittlere_Filme/3133_Trooping_the_Colour_1937\\3133_1_1_TroopingTheColour_1937_DVD_ELAN.txt'
p1357
asg9
(lp1358
I3133
aI1
aI1
asg11
S'mittlere_Filme/3133_Trooping_the_Colour_1937/'
p1359
sg13
I00
sg14
Nsg15
S'//130.60.131.134/studi/Filme/mittlere_Filme/3133_Trooping_the_Colour_1937\\3133_1_1_TroopingTheColour_1937_DVD_ELAN.eaf'
p1360
sg17
I00
sba(i__main__
Movie
p1361
(dp1362
g3
S'TheRoyalOccasion'
p1363
sg5
S'//130.60.131.134/studi/Filme/mittlere_Filme/3139_The_Royal_Occasion_1953/'
p1364
sg7
(lp1365
S'//130.60.131.134/studi/Filme/mittlere_Filme/3139_The_Royal_Occasion_1953\\3139_1_1_TheRoyalOccasion_1953_DVD_ELAN.txt'
p1366
asg9
(lp1367
I3139
aI1
aI1
asg11
S'mittlere_Filme/3139_The_Royal_Occasion_1953/'
p1368
sg13
I00
sg14
Nsg15
S'//130.60.131.134/studi/Filme/mittlere_Filme/3139_The_Royal_Occasion_1953\\3139_1_1_TheRoyalOccasion_1953_DVD_ELAN.eaf'
p1369
sg17
I00
sba(i__main__
Movie
p1370
(dp1371
g3
S'BrokenArrow'
p1372
sg5
S'//130.60.131.134/studi/Filme/mittlere_Filme/314_Broken_Arrow_1950/'
p1373
sg7
(lp1374
sg9
(lp1375
I314
aI1
aI1
asg11
S'mittlere_Filme/314_Broken_Arrow_1950/'
p1376
sg13
I00
sg14
Nsg15
S'//130.60.131.134/studi/Filme/mittlere_Filme/314_Broken_Arrow_1950\\314_1_1_BrokenArrow_1950_DVD_ELAN.eaf'
p1377
sg17
I00
sba(i__main__
Movie
p1378
(dp1379
g3
S'ThePirate'
p1380
sg5
S'//130.60.131.134/studi/Filme/mittlere_Filme/3151_The_Pirate_1949/'
p1381
sg7
(lp1382
sg9
(lp1383
I3151
aI1
aI1
asg11
S'mittlere_Filme/3151_The_Pirate_1949/'
p1384
sg13
I01
sg14
Nsg15
S'//130.60.131.134/studi/Filme/mittlere_Filme/3151_The_Pirate_1949\\3151_1_1_ThePirate_1949_DVD_ELAN.eaf'
p1385
sg17
I00
sba(i__main__
Movie
p1386
(dp1387
g3
S'WesternUnion'
p1388
sg5
S'//130.60.131.134/studi/Filme/mittlere_Filme/3170_Western_Union_1941/'
p1389
sg7
(lp1390
S'//130.60.131.134/studi/Filme/mittlere_Filme/3170_Western_Union_1941\\3170_1_1_WesternUnion_1941_DVD_ELAN.txt'
p1391
asg9
(lp1392
I3170
aI1
aI1
asg11
S'mittlere_Filme/3170_Western_Union_1941/'
p1393
sg13
I00
sg14
Nsg15
S'//130.60.131.134/studi/Filme/mittlere_Filme/3170_Western_Union_1941\\3170_1_1_WesternUnion_1941_DVD_ELAN.eaf'
p1394
sg17
I00
sba(i__main__
Movie
p1395
(dp1396
g3
S'LaFiestaDeSantaBarbara'
p1397
sg5
S'//130.60.131.134/studi/Filme/mittlere_Filme/3172_La_Fiesta_de_Santa_Barbara_1935/'
p1398
sg7
(lp1399
S'//130.60.131.134/studi/Filme/mittlere_Filme/3172_La_Fiesta_de_Santa_Barbara_1935\\3172_1_1_LaFiestaDeSantaBarbara_1935_DVD_ELAN.txt'
p1400
asg9
(lp1401
I3172
aI1
aI1
asg11
S'mittlere_Filme/3172_La_Fiesta_de_Santa_Barbara_1935/'
p1402
sg13
I00
sg14
Nsg15
S'//130.60.131.134/studi/Filme/mittlere_Filme/3172_La_Fiesta_de_Santa_Barbara_1935\\3172_1_1_LaFiestaDeSantaBarbara_1935_DVD_ELAN.eaf'
p1403
sg17
I00
sba(i__main__
Movie
p1404
(dp1405
g3
S'FarewellTopsails'
p1406
sg5
S'//130.60.131.134/studi/Filme/mittlere_Filme/323_Farewell_Topsails_1937/'
p1407
sg7
(lp1408
S'//130.60.131.134/studi/Filme/mittlere_Filme/323_Farewell_Topsails_1937\\323_1_1_FarewellTopsails_1937_DVD_ELAN.txt'
p1409
asg9
(lp1410
I323
aI1
aI1
asg11
S'mittlere_Filme/323_Farewell_Topsails_1937/'
p1411
sg13
I00
sg14
Nsg15
S'//130.60.131.134/studi/Filme/mittlere_Filme/323_Farewell_Topsails_1937\\ELAN_Projektdatei\\323_1_1_FarewellTopsails_1937_DVD_ELAN.eaf'
p1412
sg17
I00
sba(i__main__
Movie
p1413
(dp1414
g3
S'DiveBomber'
p1415
sg5
S'//130.60.131.134/studi/Filme/mittlere_Filme/324_Dive_Bomber_1941/'
p1416
sg7
(lp1417
S'//130.60.131.134/studi/Filme/mittlere_Filme/324_Dive_Bomber_1941\\324_1_1_DiveBomber_1941_DVD_ELAN.txt'
p1418
asg9
(lp1419
I324
aI1
aI1
asg11
S'mittlere_Filme/324_Dive_Bomber_1941/'
p1420
sg13
I01
sg14
Nsg15
S'//130.60.131.134/studi/Filme/mittlere_Filme/324_Dive_Bomber_1941\\324_1_1_DiveBomber_1941_DVD_ELAN.eaf'
p1421
sg17
I00
sba(i__main__
Movie
p1422
(dp1423
g3
S'RiverOfNoReturn'
p1424
sg5
S'//130.60.131.134/studi/Filme/mittlere_Filme/3372_River_of_No_Return_1954/'
p1425
sg7
(lp1426
S'//130.60.131.134/studi/Filme/mittlere_Filme/3372_River_of_No_Return_1954\\3372_1_1_RiverOfNoReturn_1954_DVD_ELAN.txt'
p1427
asg9
(lp1428
I3372
aI1
aI1
asg11
S'mittlere_Filme/3372_River_of_No_Return_1954/'
p1429
sg13
I00
sg14
Nsg15
S'//130.60.131.134/studi/Filme/mittlere_Filme/3372_River_of_No_Return_1954\\3372_1_1_RiverOfNoReturn_1954_DVD_ELAN.eaf'
p1430
sg17
I00
sba(i__main__
Movie
p1431
(dp1432
g3
S'DrCyclops'
p1433
sg5
S'//130.60.131.134/studi/Filme/mittlere_Filme/3377_Dr_Cyclops_1940/'
p1434
sg7
(lp1435
S'//130.60.131.134/studi/Filme/mittlere_Filme/3377_Dr_Cyclops_1940\\3377_1_1_DrCyclops_1940_DVD_ELAN.txt'
p1436
asg9
(lp1437
I3377
aI1
aI1
asg11
S'mittlere_Filme/3377_Dr_Cyclops_1940/'
p1438
sg13
I00
sg14
Nsg15
S'//130.60.131.134/studi/Filme/mittlere_Filme/3377_Dr_Cyclops_1940\\3377_1_1_DrCyclops_1940_DVD_ELAN.eaf'
p1439
sg17
I00
sba(i__main__
Movie
p1440
(dp1441
g3
S'DesertFury'
p1442
sg5
S'//130.60.131.134/studi/Filme/mittlere_Filme/3378_Desert_Fury_1947/'
p1443
sg7
(lp1444
sg9
(lp1445
I3378
aI1
aI1
asg11
S'mittlere_Filme/3378_Desert_Fury_1947/'
p1446
sg13
I01
sg14
Nsg15
S'//130.60.131.134/studi/Filme/mittlere_Filme/3378_Desert_Fury_1947\\3378_1_1_DesertFury_1947_DVD_ELAN.eaf'
p1447
sg17
I00
sba(i__main__
Movie
p1448
(dp1449
g3
S'Fantasia '
p1450
sg5
S'//130.60.131.134/studi/Filme/mittlere_Filme/343_Fantasia _1940/'
p1451
sg7
(lp1452
sg9
(lp1453
I343
aI1
aI1
asg11
S'mittlere_Filme/343_Fantasia _1940/'
p1454
sg13
I01
sg14
Nsg15
S'//130.60.131.134/studi/Filme/mittlere_Filme/343_Fantasia _1940\\343_1_1_Fantasia _1940_DVD_ELAN.eaf'
p1455
sg17
I00
sba(i__main__
Movie
p1456
(dp1457
g3
S'TheLifeAndDeathOfColonelBlimp'
p1458
sg5
S'//130.60.131.134/studi/Filme/mittlere_Filme/344_The_Life_and_Death_of_Colonel_Blimp_1943/'
p1459
sg7
(lp1460
sg9
(lp1461
I344
aI1
aI1
asg11
S'mittlere_Filme/344_The_Life_and_Death_of_Colonel_Blimp_1943/'
p1462
sg13
I01
sg14
Nsg15
S'//130.60.131.134/studi/Filme/mittlere_Filme/344_The_Life_and_Death_of_Colonel_Blimp_1943\\344_1_1_TheLifeAndDeathOfColonelBlimp_1943_DVD_ELAN.eaf'
p1463
sg17
I00
sba(i__main__
Movie
p1464
(dp1465
g3
S'OnTheTown'
p1466
sg5
S'//130.60.131.134/studi/Filme/mittlere_Filme/3458_On_the_Town_1949/'
p1467
sg7
(lp1468
S'//130.60.131.134/studi/Filme/mittlere_Filme/3458_On_the_Town_1949\\3458_1_1_OnTheTown_1949_DVD_ELAN.txt'
p1469
asg9
(lp1470
I3458
aI1
aI1
asg11
S'mittlere_Filme/3458_On_the_Town_1949/'
p1471
sg13
I00
sg14
Nsg15
S'//130.60.131.134/studi/Filme/mittlere_Filme/3458_On_the_Town_1949\\3458_1_1_OnTheTown_1949_DVD_ELAN.eaf'
p1472
sg17
I00
sba(i__main__
Movie
p1473
(dp1474
g3
S'TheFarm'
p1475
sg5
S'//130.60.131.134/studi/Filme/mittlere_Filme/345_The_Farm_1938/'
p1476
sg7
(lp1477
S'//130.60.131.134/studi/Filme/mittlere_Filme/345_The_Farm_1938\\345_1_1_TheFarm_1938_DVD_ELAN.txt'
p1478
asg9
(lp1479
I345
aI1
aI1
asg11
S'mittlere_Filme/345_The_Farm_1938/'
p1480
sg13
I00
sg14
Nsg15
S'//130.60.131.134/studi/Filme/mittlere_Filme/345_The_Farm_1938\\ELAN_Projektdatei\\345_1_1_TheFarm_1938_DVD_ELAN.eaf'
p1481
sg17
I00
sba(i__main__
Movie
p1482
(dp1483
g3
S'UnderCapricorn'
p1484
sg5
S'//130.60.131.134/studi/Filme/mittlere_Filme/353_Under_Capricorn_1949/'
p1485
sg7
(lp1486
sg9
(lp1487
I353
aI1
aI1
asg11
S'mittlere_Filme/353_Under_Capricorn_1949/'
p1488
sg13
I00
sg14
Nsg15
S'//130.60.131.134/studi/Filme/mittlere_Filme/353_Under_Capricorn_1949\\353_1_1_UnderCapricorn_1949_DVD_ELAN.eaf'
p1489
sg17
I00
sba(i__main__
Movie
p1490
(dp1491
g3
S'LassieComeHome'
p1492
sg5
S'//130.60.131.134/studi/Filme/mittlere_Filme/369_Lassie_Come_Home_1943/'
p1493
sg7
(lp1494
sg9
(lp1495
I369
aI1
aI1
asg11
S'mittlere_Filme/369_Lassie_Come_Home_1943/'
p1496
sg13
I01
sg14
Nsg15
S'//130.60.131.134/studi/Filme/mittlere_Filme/369_Lassie_Come_Home_1943\\369_1_1_LassieComeHome_1943_DVD_ELAN.eaf'
p1497
sg17
I00
sba(i__main__
Movie
p1498
(dp1499
g3
S'TheGangSAllHere'
p1500
sg5
S'//130.60.131.134/studi/Filme/mittlere_Filme/371_The_Gang_S_All_Here_1943/'
p1501
sg7
(lp1502
S'//130.60.131.134/studi/Filme/mittlere_Filme/371_The_Gang_S_All_Here_1943\\371_1_1_TheGangSAllHere_1943_Bluray_ELAN_BF.txt'
p1503
asg9
(lp1504
I371
aI1
aI1
asg11
S'mittlere_Filme/371_The_Gang_S_All_Here_1943/'
p1505
sg13
I00
sg14
Nsg15
S'//130.60.131.134/studi/Filme/mittlere_Filme/371_The_Gang_S_All_Here_1943\\371_1_1_TheGangSAllHere_1943_Bluray_ELAN_BF.eaf'
p1506
sg17
I00
sba(i__main__
Movie
p1507
(dp1508
g3
S'TheMikado'
p1509
sg5
S'//130.60.131.134/studi/Filme/mittlere_Filme/377_The_Mikado_1939/'
p1510
sg7
(lp1511
S'//130.60.131.134/studi/Filme/mittlere_Filme/377_The_Mikado_1939\\377_1_1_TheMikado_1939_DVD_ELAN.txt'
p1512
asg9
(lp1513
I377
aI1
aI1
asg11
S'mittlere_Filme/377_The_Mikado_1939/'
p1514
sg13
I00
sg14
Nsg15
S'//130.60.131.134/studi/Filme/mittlere_Filme/377_The_Mikado_1939\\ELAN_Projektdatei\\377_1_1_TheMikado_1939_DVD_ELAN.eaf'
p1515
sg17
I00
sba(i__main__
Movie
p1516
(dp1517
g3
S'WesternApproaches'
p1518
sg5
S'//130.60.131.134/studi/Filme/mittlere_Filme/382_Western_Approaches_1944/'
p1519
sg7
(lp1520
S'//130.60.131.134/studi/Filme/mittlere_Filme/382_Western_Approaches_1944\\382_1_1_WesternApproaches_1944_DVD_ELAN.txt'
p1521
asg9
(lp1522
I382
aI1
aI1
asg11
S'mittlere_Filme/382_Western_Approaches_1944/'
p1523
sg13
I00
sg14
Nsg15
S'//130.60.131.134/studi/Filme/mittlere_Filme/382_Western_Approaches_1944\\382_1_1_WesternApproaches_1944_DVD_ELAN.eaf'
p1524
sg17
I00
sba(i__main__
Movie
p1525
(dp1526
g3
S'BlitheSpirit'
p1527
sg5
S'//130.60.131.134/studi/Filme/mittlere_Filme/383_Blithe_Spirit_1945/'
p1528
sg7
(lp1529
S'//130.60.131.134/studi/Filme/mittlere_Filme/383_Blithe_Spirit_1945\\383_1_1_BlitheSpirit_1945_DVD_ELAN.txt'
p1530
asg9
(lp1531
I383
aI1
aI1
asg11
S'mittlere_Filme/383_Blithe_Spirit_1945/'
p1532
sg13
I01
sg14
Nsg15
S'//130.60.131.134/studi/Filme/mittlere_Filme/383_Blithe_Spirit_1945\\ELAN_Projektdatei\\383_1_1_BlitheSpirit_1945_DVD_ELAN.eaf'
p1533
sg17
I00
sba(i__main__
Movie
p1534
(dp1535
g3
S'AMatterOfLifeAndDeath'
p1536
sg5
S'//130.60.131.134/studi/Filme/mittlere_Filme/386_A_Matter_of_Life_and_Death_1946/'
p1537
sg7
(lp1538
S'//130.60.131.134/studi/Filme/mittlere_Filme/386_A_Matter_of_Life_and_Death_1946\\386_1_1_AMatterOfLifeAndDeath_1946_DVD_ELAN.txt'
p1539
asg9
(lp1540
I386
aI1
aI1
asg11
S'mittlere_Filme/386_A_Matter_of_Life_and_Death_1946/'
p1541
sg13
I00
sg14
Nsg15
S'//130.60.131.134/studi/Filme/mittlere_Filme/386_A_Matter_of_Life_and_Death_1946\\386_1_1_AMatterOfLifeAndDeath_1946_DVD_ELAN.eaf'
p1542
sg17
I00
sba(i__main__
Movie
p1543
(dp1544
g3
S'DrumsAlongTheMohawk'
p1545
sg5
S'//130.60.131.134/studi/Filme/mittlere_Filme/391_Drums_along_the_Mohawk_1939/'
p1546
sg7
(lp1547
S'//130.60.131.134/studi/Filme/mittlere_Filme/391_Drums_along_the_Mohawk_1939\\391_1_1_DrumsAlongTheMohawk_1939_DVD_ELAN.txt'
p1548
asg9
(lp1549
I391
aI1
aI1
asg11
S'mittlere_Filme/391_Drums_along_the_Mohawk_1939/'
p1550
sg13
I00
sg14
Nsg15
S'//130.60.131.134/studi/Filme/mittlere_Filme/391_Drums_along_the_Mohawk_1939\\391_1_1_DrumsAlongTheMohawk_1939_DVD_ELAN.eaf'
p1551
sg17
I00
sba(i__main__
Movie
p1552
(dp1553
g3
S'ThePrivateLivesOfElizabethAndEssex'
p1554
sg5
S'//130.60.131.134/studi/Filme/mittlere_Filme/392_The_Private_Lives_of_Elizabeth_and_Essex_1939/'
p1555
sg7
(lp1556
S'//130.60.131.134/studi/Filme/mittlere_Filme/392_The_Private_Lives_of_Elizabeth_and_Essex_1939\\329_1_1_ThePrivateLivesOfElizabethAndEssex_1939_DVD_ELAN_BF.txt'
p1557
asg9
(lp1558
I329
aI1
aI1
asg11
S'mittlere_Filme/392_The_Private_Lives_of_Elizabeth_and_Essex_1939/'
p1559
sg13
I01
sg14
Nsg15
S'//130.60.131.134/studi/Filme/mittlere_Filme/392_The_Private_Lives_of_Elizabeth_and_Essex_1939\\329_1_1_ThePrivateLivesOfElizabethAndEssex_1939_DVD_ELAN_BF.eaf'
p1560
sg17
I00
sba(i__main__
Movie
p1561
(dp1562
g3
S'Wilson'
p1563
sg5
S'//130.60.131.134/studi/Filme/mittlere_Filme/394_Wilson_1944/'
p1564
sg7
(lp1565
sg9
(lp1566
I394
aI1
aI1
asg11
S'mittlere_Filme/394_Wilson_1944/'
p1567
sg13
I01
sg14
Nsg15
S'//130.60.131.134/studi/Filme/mittlere_Filme/394_Wilson_1944\\394_1_1_Wilson_1944_DVD_ELAN.eaf'
p1568
sg17
I00
sba(i__main__
Movie
p1569
(dp1570
g3
S'TheQuietMan'
p1571
sg5
S'//130.60.131.134/studi/Filme/mittlere_Filme/399_The_Quiet_Man_1952/'
p1572
sg7
(lp1573
S'//130.60.131.134/studi/Filme/mittlere_Filme/399_The_Quiet_Man_1952\\399_1_1_TheQuietMan_1992_DVD_ELAN_BF_exp.txt'
p1574
asg9
(lp1575
I399
aI1
aI1
asg11
S'mittlere_Filme/399_The_Quiet_Man_1952/'
p1576
sg13
I00
sg14
Nsg15
S'//130.60.131.134/studi/Filme/mittlere_Filme/399_The_Quiet_Man_1952\\399_1_1_TheQuietMan_1992_DVD_ELAN_BF.eaf'
p1577
sg17
I00
sba(i__main__
Movie
p1578
(dp1579
g3
S'Shane'
p1580
sg5
S'//130.60.131.134/studi/Filme/mittlere_Filme/400_Shane_1953/'
p1581
sg7
(lp1582
S'//130.60.131.134/studi/Filme/mittlere_Filme/400_Shane_1953\\400_1_1_Shane_1953_DVD_ELAN.txt'
p1583
asg9
(lp1584
I400
aI1
aI1
asg11
S'mittlere_Filme/400_Shane_1953/'
p1585
sg13
I00
sg14
Nsg15
S'//130.60.131.134/studi/Filme/mittlere_Filme/400_Shane_1953\\400_1_1_Shane_1953_DVD_ELAN.eaf'
p1586
sg17
I00
sba(i__main__
Movie
p1587
(dp1588
g3
S'DieGoldeneStadt'
p1589
sg5
S'//130.60.131.134/studi/Filme/mittlere_Filme/417_Die_goldene_Stadt_1942/'
p1590
sg7
(lp1591
S'//130.60.131.134/studi/Filme/mittlere_Filme/417_Die_goldene_Stadt_1942\\417_1_1_DieGoldeneStadt_1942_DVD_ELAN.txt'
p1592
asg9
(lp1593
I417
aI1
aI1
asg11
S'mittlere_Filme/417_Die_goldene_Stadt_1942/'
p1594
sg13
I00
sg14
Nsg15
S'//130.60.131.134/studi/Filme/mittlere_Filme/417_Die_goldene_Stadt_1942\\417_1_1_DieGoldeneStadt_1942_DVD_ELAN.eaf'
p1595
sg17
I00
sba(i__main__
Movie
p1596
(dp1597
g3
S'GrosseFreiheitNr7'
p1598
sg5
S'//130.60.131.134/studi/Filme/mittlere_Filme/429_Grosse_Freiheit_Nr_7_1944/'
p1599
sg7
(lp1600
sg9
(lp1601
I429
aI1
aI1
asg11
S'mittlere_Filme/429_Grosse_Freiheit_Nr_7_1944/'
p1602
sg13
I01
sg14
Nsg15
S'//130.60.131.134/studi/Filme/mittlere_Filme/429_Grosse_Freiheit_Nr_7_1944\\429_1_1_GrosseFreiheitNr7_1944_DVD_ELAN.eaf'
p1603
sg17
I00
sba(i__main__
Movie
p1604
(dp1605
g3
S'AStarIsBorn'
p1606
sg5
S'//130.60.131.134/studi/Filme/mittlere_Filme/434_A_Star_Is_Born_1954/'
p1607
sg7
(lp1608
sg9
(lp1609
I434
aI1
aI1
asg11
S'mittlere_Filme/434_A_Star_Is_Born_1954/'
p1610
sg13
I01
sg14
Nsg15
S'//130.60.131.134/studi/Filme/mittlere_Filme/434_A_Star_Is_Born_1954\\434_1_1_AStarIsBorn_1954_DVD_ELAN.eaf'
p1611
sg17
I00
sba(i__main__
Movie
p1612
(dp1613
g3
S'DieFrauMeinerTraeume'
p1614
sg5
S'//130.60.131.134/studi/Filme/mittlere_Filme/435_Die_Frau_meiner_Traeume_1944/'
p1615
sg7
(lp1616
S'//130.60.131.134/studi/Filme/mittlere_Filme/435_Die_Frau_meiner_Traeume_1944\\435_1_1_DieFrauMeinerTraeume_1944_DVD_ELAN.txt'
p1617
asg9
(lp1618
I435
aI1
aI1
asg11
S'mittlere_Filme/435_Die_Frau_meiner_Traeume_1944/'
p1619
sg13
I00
sg14
Nsg15
S'//130.60.131.134/studi/Filme/mittlere_Filme/435_Die_Frau_meiner_Traeume_1944\\435_1_1_DieFrauMeinerTraeume_1944_DVD_ELAN.eaf'
p1620
sg17
I00
sba(i__main__
Movie
p1621
(dp1622
g3
S'AStarIsBorn'
p1623
sg5
S'//130.60.131.134/studi/Filme/mittlere_Filme/43_A_Star_Is_Born_1937/'
p1624
sg7
(lp1625
sg9
(lp1626
I43
aI1
aI1
asg11
S'mittlere_Filme/43_A_Star_Is_Born_1937/'
p1627
sg13
I01
sg14
Nsg15
S'//130.60.131.134/studi/Filme/mittlere_Filme/43_A_Star_Is_Born_1937\\43_1_1_AStarIsBorn_1937_DVD_ELAN.eaf'
p1628
sg17
I00
sba(i__main__
Movie
p1629
(dp1630
g3
S'DownArgentineWay'
p1631
sg5
S'//130.60.131.134/studi/Filme/mittlere_Filme/442_Down_Argentine_Way_1940/'
p1632
sg7
(lp1633
sg9
(lp1634
I442
aI1
aI1
asg11
S'mittlere_Filme/442_Down_Argentine_Way_1940/'
p1635
sg13
I01
sg14
Nsg15
S'//130.60.131.134/studi/Filme/mittlere_Filme/442_Down_Argentine_Way_1940\\442_1_1_DownArgentineWay_1940_DVD_ELAN.eaf'
p1636
sg17
I00
sba(i__main__
Movie
p1637
(dp1638
g3
S'AnnieGetYourGun'
p1639
sg5
S'//130.60.131.134/studi/Filme/mittlere_Filme/474_Annie_Get_Your_Gun_1950/'
p1640
sg7
(lp1641
S'//130.60.131.134/studi/Filme/mittlere_Filme/474_Annie_Get_Your_Gun_1950\\474_1_1_AnnieGetYourGun_1950_DVD_ELAN.txt'
p1642
asg9
(lp1643
I474
aI1
aI1
asg11
S'mittlere_Filme/474_Annie_Get_Your_Gun_1950/'
p1644
sg13
I00
sg14
Nsg15
S'//130.60.131.134/studi/Filme/mittlere_Filme/474_Annie_Get_Your_Gun_1950\\474_1_1_AnnieGetYourGun_1950_DVD_ELAN.eaf'
p1645
sg17
I00
sba(i__main__
Movie
p1646
(dp1647
g3
S'MillionDollarMermaid'
p1648
sg5
S'//130.60.131.134/studi/Filme/mittlere_Filme/483_Million_Dollar_Mermaid_1952/'
p1649
sg7
(lp1650
S'//130.60.131.134/studi/Filme/mittlere_Filme/483_Million_Dollar_Mermaid_1952\\483_1_1_MillionDollarMermaid_1952_DVD_ELAN_BF_exp.txt'
p1651
asg9
(lp1652
I483
aI1
aI1
asg11
S'mittlere_Filme/483_Million_Dollar_Mermaid_1952/'
p1653
sg13
I00
sg14
Nsg15
S'//130.60.131.134/studi/Filme/mittlere_Filme/483_Million_Dollar_Mermaid_1952\\483_1_1_MillionDollarMermaid_1952_DVD_ELAN_BF.eaf'
p1654
sg17
I00
sba(i__main__
Movie
p1655
(dp1656
g3
S'TheRobe'
p1657
sg5
S'//130.60.131.134/studi/Filme/mittlere_Filme/488_The_Robe_1953/'
p1658
sg7
(lp1659
S'//130.60.131.134/studi/Filme/mittlere_Filme/488_The_Robe_1953\\488_1_1_TheRobe_1953_DVD_ELAN.txt'
p1660
asg9
(lp1661
I488
aI1
aI1
asg11
S'mittlere_Filme/488_The_Robe_1953/'
p1662
sg13
I00
sg14
Nsg15
S'//130.60.131.134/studi/Filme/mittlere_Filme/488_The_Robe_1953\\488_1_1_TheRobe_1953_DVD_ELAN.eaf'
p1663
sg17
I00
sba(i__main__
Movie
p1664
(dp1665
g3
S'LaCucaracha'
p1666
sg5
S'//130.60.131.134/studi/Filme/mittlere_Filme/48_La_Cucaracha_1934/'
p1667
sg7
(lp1668
sg9
(lp1669
I48
aI1
aI1
asg11
S'mittlere_Filme/48_La_Cucaracha_1934/'
p1670
sg13
I00
sg14
Nsg15
S'//130.60.131.134/studi/Filme/mittlere_Filme/48_La_Cucaracha_1934\\ELAN_Projektdatei\\48_1_1_LaCucaracha_1934_DVD_ELAN.eaf'
p1671
sg17
I00
sba(i__main__
Movie
p1672
(dp1673
g3
S'RearWindow'
p1674
sg5
S'//130.60.131.134/studi/Filme/mittlere_Filme/490_Rear_Window_1954/'
p1675
sg7
(lp1676
sg9
(lp1677
I490
aI1
aI1
asg11
S'mittlere_Filme/490_Rear_Window_1954/'
p1678
sg13
I01
sg14
Nsg15
S'//130.60.131.134/studi/Filme/mittlere_Filme/490_Rear_Window_1954\\490_1_1_RearWindow_1954_DVD_ELAN.eaf'
p1679
sg17
I00
sba(i__main__
Movie
p1680
(dp1681
g3
S'SevenBridesForSevenBrothers'
p1682
sg5
S'//130.60.131.134/studi/Filme/mittlere_Filme/491_Seven_Brides_for_Seven_Brothers_1954/'
p1683
sg7
(lp1684
S'//130.60.131.134/studi/Filme/mittlere_Filme/491_Seven_Brides_for_Seven_Brothers_1954\\491_1_1_SevenBridesForSevenBrothers_1954_DVD_ELAN.txt'
p1685
asg9
(lp1686
I491
aI1
aI1
asg11
S'mittlere_Filme/491_Seven_Brides_for_Seven_Brothers_1954/'
p1687
sg13
I01
sg14
Nsg15
S'//130.60.131.134/studi/Filme/mittlere_Filme/491_Seven_Brides_for_Seven_Brothers_1954\\491_1_1_SevenBridesForSevenBrothers_1954_DVD_ELAN.eaf'
p1688
sg17
I00
sba(i__main__
Movie
p1689
(dp1690
g3
S'SinginInTheRain'
p1691
sg5
S'//130.60.131.134/studi/Filme/mittlere_Filme/546_Singin_in_the_Rain_1952/'
p1692
sg7
(lp1693
S'//130.60.131.134/studi/Filme/mittlere_Filme/546_Singin_in_the_Rain_1952\\546_1_1_SinginInTheRain_1952_DVD_ELAN.txt'
p1694
asg9
(lp1695
I546
aI1
aI1
asg11
S'mittlere_Filme/546_Singin_in_the_Rain_1952/'
p1696
sg13
I00
sg14
Nsg15
S'//130.60.131.134/studi/Filme/mittlere_Filme/546_Singin_in_the_Rain_1952\\546_1_1_SinginInTheRain_1952_DVD_ELAN.eaf'
p1697
sg17
I00
sba(i__main__
Movie
p1698
(dp1699
g3
S'TheBoldCaballero'
p1700
sg5
S'//130.60.131.134/studi/Filme/mittlere_Filme/548_The_Bold_Caballero_1936/'
p1701
sg7
(lp1702
S'//130.60.131.134/studi/Filme/mittlere_Filme/548_The_Bold_Caballero_1936\\548_1_1_TheBoldCaballero_1936_DVD_ELAN.txt'
p1703
asg9
(lp1704
I548
aI1
aI1
asg11
S'mittlere_Filme/548_The_Bold_Caballero_1936/'
p1705
sg13
I00
sg14
Nsg15
S'//130.60.131.134/studi/Filme/mittlere_Filme/548_The_Bold_Caballero_1936\\548_1_1_TheBoldCaballero_1936_DVD_ELAN.eaf'
p1706
sg17
I00
sba(i__main__
Movie
p1707
(dp1708
g3
S'OutCaliforniaWay'
p1709
sg5
S'//130.60.131.134/studi/Filme/mittlere_Filme/550_Out_California_Way_1946/'
p1710
sg7
(lp1711
S'//130.60.131.134/studi/Filme/mittlere_Filme/550_Out_California_Way_1946\\550_1_1_OutCaliforniaWay_1946_DVD_ELAN.txt'
p1712
asg9
(lp1713
I550
aI1
aI1
asg11
S'mittlere_Filme/550_Out_California_Way_1946/'
p1714
sg13
I00
sg14
Nsg15
S'//130.60.131.134/studi/Filme/mittlere_Filme/550_Out_California_Way_1946\\550_1_1_OutCaliforniaWay_1946_DVD_ELAN.eaf'
p1715
sg17
I00
sba(i__main__
Movie
p1716
(dp1717
g3
S'TheGoldwynFollies'
p1718
sg5
S'//130.60.131.134/studi/Filme/mittlere_Filme/553_The_Goldwyn_Follies_1938/'
p1719
sg7
(lp1720
sg9
(lp1721
I553
aI1
aI1
asg11
S'mittlere_Filme/553_The_Goldwyn_Follies_1938/'
p1722
sg13
I01
sg14
Nsg15
S'//130.60.131.134/studi/Filme/mittlere_Filme/553_The_Goldwyn_Follies_1938\\553_1_1_TheGoldwynFollies_1938_DVD_ELAN.eaf'
p1723
sg17
I00
sba(i__main__
Movie
p1724
(dp1725
g3
S'NothingSacred'
p1726
sg5
S'//130.60.131.134/studi/Filme/mittlere_Filme/561_Nothing_Sacred_1937/'
p1727
sg7
(lp1728
S'//130.60.131.134/studi/Filme/mittlere_Filme/561_Nothing_Sacred_1937\\561_1_1_NothingSacred_1937_DVD_ELAN.txt'
p1729
asg9
(lp1730
I561
aI1
aI1
asg11
S'mittlere_Filme/561_Nothing_Sacred_1937/'
p1731
sg13
I00
sg14
Nsg15
S'//130.60.131.134/studi/Filme/mittlere_Filme/561_Nothing_Sacred_1937\\561_1_1_NothingSacred_1937_DVD_ELAN.eaf'
p1732
sg17
I00
sba(i__main__
Movie
p1733
(dp1734
g3
S'InvadersFromMars'
p1735
sg5
S'//130.60.131.134/studi/Filme/mittlere_Filme/620_Invaders_from_Mars_1953/'
p1736
sg7
(lp1737
S'//130.60.131.134/studi/Filme/mittlere_Filme/620_Invaders_from_Mars_1953\\620_1_1_InvadersFromMars_1953_DVD_ELAN.txt'
p1738
asg9
(lp1739
I620
aI1
aI1
asg11
S'mittlere_Filme/620_Invaders_from_Mars_1953/'
p1740
sg13
I01
sg14
Nsg15
S'//130.60.131.134/studi/Filme/mittlere_Filme/620_Invaders_from_Mars_1953\\620_1_1_InvadersFromMars_1953_DVD_ELAN.eaf'
p1741
sg17
I00
sba(i__main__
Movie
p1742
(dp1743
g3
S'DestinationMoon'
p1744
sg5
S'//130.60.131.134/studi/Filme/mittlere_Filme/622_Destination_Moon_1950/'
p1745
sg7
(lp1746
sg9
(lp1747
I622
aI1
aI1
asg11
S'mittlere_Filme/622_Destination_Moon_1950/'
p1748
sg13
I01
sg14
Nsg15
S'//130.60.131.134/studi/Filme/mittlere_Filme/622_Destination_Moon_1950\\622_1_1_DestinationMoon_1950_DVD_ELAN.eaf'
p1749
sg17
I00
sba(i__main__
Movie
p1750
(dp1751
g3
S'HenryV'
p1752
sg5
S'//130.60.131.134/studi/Filme/mittlere_Filme/62_Henry_V_1944/'
p1753
sg7
(lp1754
sg9
(lp1755
I62
aI1
aI1
asg11
S'mittlere_Filme/62_Henry_V_1944/'
p1756
sg13
I01
sg14
Nsg15
S'//130.60.131.134/studi/Filme/mittlere_Filme/62_Henry_V_1944\\62_1_1_HenryV_1944_DVD_ELAN.eaf'
p1757
sg17
I00
sba(i__main__
Movie
p1758
(dp1759
g3
S'BeckySharp'
p1760
sg5
S'//130.60.131.134/studi/Filme/mittlere_Filme/63_Becky_Sharp_1935/'
p1761
sg7
(lp1762
sg9
(lp1763
I63
aI1
aI2
asg11
S'mittlere_Filme/63_Becky_Sharp_1935/'
p1764
sg13
I01
sg14
Nsg15
S'//130.60.131.134/studi/Filme/mittlere_Filme/63_Becky_Sharp_1935\\63_1_2_BeckySharp_1935_DVD_ELAN.eaf'
p1765
sg17
I00
sba(i__main__
Movie
p1766
(dp1767
g3
S'FlowersAndTrees'
p1768
sg5
S'//130.60.131.134/studi/Filme/mittlere_Filme/81_Flowers_and_Trees_1932/'
p1769
sg7
(lp1770
sg9
(lp1771
I81
aI1
aI1
asg11
S'mittlere_Filme/81_Flowers_and_Trees_1932/'
p1772
sg13
I00
sg14
Nsg15
S'//130.60.131.134/studi/Filme/mittlere_Filme/81_Flowers_and_Trees_1932\\81_1_1_FlowersAndTrees_1932_DVD_ELAN.eaf'
p1773
sg17
I00
sba(i__main__
Movie
p1774
(dp1775
g3
S'Schwarzwaldmaedel'
p1776
sg5
S'//130.60.131.134/studi/Filme/mittlere_Filme/821_Schwarzwaldmaedel_1950/'
p1777
sg7
(lp1778
S'//130.60.131.134/studi/Filme/mittlere_Filme/821_Schwarzwaldmaedel_1950\\821_1_2_Schwarzwaldmaedel_1950_DVD_ELAN.txt'
p1779
asg9
(lp1780
I821
aI1
aI2
asg11
S'mittlere_Filme/821_Schwarzwaldmaedel_1950/'
p1781
sg13
I01
sg14
Nsg15
S'//130.60.131.134/studi/Filme/mittlere_Filme/821_Schwarzwaldmaedel_1950\\821_1_2_Schwarzwaldmaedel_1950_DVD_ELAN.eaf'
p1782
sg17
I00
sba(i__main__
Movie
p1783
(dp1784
g3
S'Frauenschicksale'
p1785
sg5
S'//130.60.131.134/studi/Filme/mittlere_Filme/840_Frauenschicksale_1952/'
p1786
sg7
(lp1787
S'//130.60.131.134/studi/Filme/mittlere_Filme/840_Frauenschicksale_1952\\840_1_1_Frauenschicksale_1952_DVD_ELAN.txt'
p1788
asg9
(lp1789
I840
aI1
aI1
asg11
S'mittlere_Filme/840_Frauenschicksale_1952/'
p1790
sg13
I00
sg14
Nsg15
S'//130.60.131.134/studi/Filme/mittlere_Filme/840_Frauenschicksale_1952\\840_1_1_Frauenschicksale_1952_DVD_ELAN.eaf'
p1791
sg17
I00
sba(i__main__
Movie
p1792
(dp1793
g3
S'FrenchCancan'
p1794
sg5
S'//130.60.131.134/studi/Filme/mittlere_Filme/864_French_Cancan_1954/'
p1795
sg7
(lp1796
sg9
(lp1797
I864
aI1
aI1
asg11
S'mittlere_Filme/864_French_Cancan_1954/'
p1798
sg13
I01
sg14
Nsg15
S'//130.60.131.134/studi/Filme/mittlere_Filme/864_French_Cancan_1954\\864_1_1_FrenchCancan_1954_DVD.eaf'
p1799
sg17
I00
sba(i__main__
Movie
p1800
(dp1801
g3
S'TheWizardOfOz'
p1802
sg5
S'//130.60.131.134/studi/Filme/mittlere_Filme/87_The_Wizard_of_Oz_1939/'
p1803
sg7
(lp1804
sg9
(lp1805
I87
aI1
aI1
asg11
S'mittlere_Filme/87_The_Wizard_of_Oz_1939/'
p1806
sg13
I01
sg14
Nsg15
S'//130.60.131.134/studi/Filme/mittlere_Filme/87_The_Wizard_of_Oz_1939\\87_1_1_TheWizardOfOz_1939_DVD_ELAN.eaf'
p1807
sg17
I00
sba(i__main__
Movie
p1808
(dp1809
g3
S'MaerkischeFahrt'
p1810
sg5
S'//130.60.131.134/studi/Filme/mittlere_Filme/891_Maerkische_Fahrt_1942/'
p1811
sg7
(lp1812
S'//130.60.131.134/studi/Filme/mittlere_Filme/891_Maerkische_Fahrt_1942\\891_1_3_MaerkischeFahrt_1942_DVD_ELAN.txt'
p1813
asg9
(lp1814
I891
aI1
aI3
asg11
S'mittlere_Filme/891_Maerkische_Fahrt_1942/'
p1815
sg13
I00
sg14
Nsg15
S'//130.60.131.134/studi/Filme/mittlere_Filme/891_Maerkische_Fahrt_1942\\891_1_3_MaerkischeFahrt_1942_DVD_ELAN.eaf'
p1816
sg17
I00
sba(i__main__
Movie
p1817
(dp1818
g3
S'GoneWithTheWind'
p1819
sg5
S'//130.60.131.134/studi/Filme/mittlere_Filme/8_Gone_With_The_Wind_1940/8_1_1_Gone with the Wind_1940_DVD/'
p1820
sg7
(lp1821
sg9
(lp1822
I8
aI1
aI1
asg11
S'mittlere_Filme/8_Gone_With_The_Wind_1940/8_1_1_Gone with the Wind_1940_DVD/'
p1823
sg13
I00
sg14
Nsg15
S'//130.60.131.134/studi/Filme/mittlere_Filme/8_Gone_With_The_Wind_1940/8_1_1_Gone with the Wind_1940_DVD\\8_1_1_GoneWithTheWind_Part1_1940_DVD_ELAN.eaf'
p1824
sg17
I00
sba(i__main__
Movie
p1825
(dp1826
g3
S'GoneWithTheWind'
p1827
sg5
S'//130.60.131.134/studi/Filme/mittlere_Filme/8_Gone_With_The_Wind_1940/8_1_2_Gone with the Wind_1940_DVD/'
p1828
sg7
(lp1829
sg9
(lp1830
I8
aI1
aI2
asg11
S'mittlere_Filme/8_Gone_With_The_Wind_1940/8_1_2_Gone with the Wind_1940_DVD/'
p1831
sg13
I00
sg14
Nsg15
S'//130.60.131.134/studi/Filme/mittlere_Filme/8_Gone_With_The_Wind_1940/8_1_2_Gone with the Wind_1940_DVD\\8_1_2_GoneWithTheWind_Part2_1940_DVD_ELAN.eaf'
p1832
sg17
I00
sba(i__main__
Movie
p1833
(dp1834
g3
S'DodgeCity'
p1835
sg5
S'//130.60.131.134/studi/Filme/mittlere_Filme/948_Dodge_City_1939/'
p1836
sg7
(lp1837
sg9
(lp1838
I948
aI1
aI1
asg11
S'mittlere_Filme/948_Dodge_City_1939/'
p1839
sg13
I00
sg14
Nsg15
S'//130.60.131.134/studi/Filme/mittlere_Filme/948_Dodge_City_1939\\948_1_1_DodgeCity_1939_DVD_ELAN.eaf'
p1840
sg17
I00
sba(i__main__
Movie
p1841
(dp1842
g3
S'ParisOnParade'
p1843
sg5
S'//130.60.131.134/studi/Filme/mittlere_Filme/959_Paris_on_Parade_1938/'
p1844
sg7
(lp1845
S'//130.60.131.134/studi/Filme/mittlere_Filme/959_Paris_on_Parade_1938\\959_1_1_ParisOnParade_1938_DVD_ELAN.txt'
p1846
asg9
(lp1847
I959
aI1
aI1
asg11
S'mittlere_Filme/959_Paris_on_Parade_1938/'
p1848
sg13
I00
sg14
Nsg15
S'//130.60.131.134/studi/Filme/mittlere_Filme/959_Paris_on_Parade_1938\\959_1_1_ParisOnParade_1938_DVD_ELAN.eaf'
p1849
sg17
I00
sba(i__main__
Movie
p1850
(dp1851
g3
S'DeuxOuTroisChosesQueJeSaisDElle'
p1852
sg5
S'//130.60.131.134/studi/Filme/spaete_Filme/102_Deux_ou_trois_choses_que_je_sais_d_elle_1966/'
p1853
sg7
(lp1854
S'//130.60.131.134/studi/Filme/spaete_Filme/102_Deux_ou_trois_choses_que_je_sais_d_elle_1966\\102_1_1_DeuxOuTroisChosesQueJeSaisDElle_1966_DVD_ELAN.txt'
p1855
asg9
(lp1856
I102
aI1
aI1
asg11
S'spaete_Filme/102_Deux_ou_trois_choses_que_je_sais_d_elle_1966/'
p1857
sg13
I01
sg14
Nsg15
S'//130.60.131.134/studi/Filme/spaete_Filme/102_Deux_ou_trois_choses_que_je_sais_d_elle_1966\\ELAN Projektdatei\\102_1_1_DeuxOuTroisChosesQueJeSaisDElle_1966_DVD_ELAN.eaf'
p1858
sg17
I00
sba(i__main__
Movie
p1859
(dp1860
g3
S'Marnie'
p1861
sg5
S'//130.60.131.134/studi/Filme/spaete_Filme/103_Marnie_1964/'
p1862
sg7
(lp1863
S'//130.60.131.134/studi/Filme/spaete_Filme/103_Marnie_1964\\103_Marnie_1964_DVD_ELAN_Export.txt'
p1864
asg9
(lp1865
I103
aI1
aI1
asg11
S'spaete_Filme/103_Marnie_1964/'
p1866
sg13
I01
sg14
Nsg15
S'//130.60.131.134/studi/Filme/spaete_Filme/103_Marnie_1964\\103_1_1_Marnie_1964_DVD_ELAN.eaf'
p1867
sg17
I00
sba(i__main__
Movie
p1868
(dp1869
g3
S'PalJoey'
p1870
sg5
S'//130.60.131.134/studi/Filme/spaete_Filme/104_Pal_Joey_1957/'
p1871
sg7
(lp1872
S'//130.60.131.134/studi/Filme/spaete_Filme/104_Pal_Joey_1957\\104_1_1_PalJoey_1957_DVD_ELAN.txt'
p1873
asg9
(lp1874
I104
aI1
aI1
asg11
S'spaete_Filme/104_Pal_Joey_1957/'
p1875
sg13
I00
sg14
Nsg15
S'//130.60.131.134/studi/Filme/spaete_Filme/104_Pal_Joey_1957\\ELAN Projektdatei\\104_1_1_PalJoey_1957_DVD_ELAN.eaf'
p1876
sg17
I00
sba(i__main__
Movie
p1877
(dp1878
g3
S'LeMepris'
p1879
sg5
S'//130.60.131.134/studi/Filme/spaete_Filme/108_Le_Mepris_1964/'
p1880
sg7
(lp1881
S'//130.60.131.134/studi/Filme/spaete_Filme/108_Le_Mepris_1964\\108_1_1_LeMepris_DVD_ELAN_BF.txt'
p1882
asg9
(lp1883
I108
aI1
aI1
asg11
S'spaete_Filme/108_Le_Mepris_1964/'
p1884
sg13
I00
sg14
Nsg15
S'//130.60.131.134/studi/Filme/spaete_Filme/108_Le_Mepris_1964\\108_1_1_LeMepris_DVD_ELAN_BF.eaf'
p1885
sg17
I00
sba(i__main__
Movie
p1886
(dp1887
g3
S'ThePiano'
p1888
sg5
S'//130.60.131.134/studi/Filme/spaete_Filme/1142_The_Piano_1993/'
p1889
sg7
(lp1890
sg9
(lp1891
I1142
aI1
aI1
asg11
S'spaete_Filme/1142_The_Piano_1993/'
p1892
sg13
I01
sg14
Nsg15
S'//130.60.131.134/studi/Filme/spaete_Filme/1142_The_Piano_1993\\1142_1_1_ThePiano_1993_DVD_ELAN.eaf'
p1893
sg17
I00
sba(i__main__
Movie
p1894
(dp1895
g3
S'HallucinationsImagesduMondeVisionnaire'
p1896
sg5
S'//130.60.131.134/studi/Filme/spaete_Filme/116_HallucinationsImagesduMondeVisionnaire_1963/'
p1897
sg7
(lp1898
sg9
(lp1899
I116
aI1
aI1
asg11
S'spaete_Filme/116_HallucinationsImagesduMondeVisionnaire_1963/'
p1900
sg13
I01
sg14
Nsg15
S'//130.60.131.134/studi/Filme/spaete_Filme/116_HallucinationsImagesduMondeVisionnaire_1963\\116_1_1_HallucinationsImagesduMondeVisionnaire_1963_Medfilm_ELAN.eaf'
p1901
sg17
I00
sba(i__main__
Movie
p1902
(dp1903
g3
S'TheGodfather'
p1904
sg5
S'//130.60.131.134/studi/Filme/spaete_Filme/1242_The_Godfather_1972/'
p1905
sg7
(lp1906
S'//130.60.131.134/studi/Filme/spaete_Filme/1242_The_Godfather_1972\\1242_1_1_TheGodfather_1972_DVD_ELAN.txt'
p1907
asg9
(lp1908
I1242
aI1
aI1
asg11
S'spaete_Filme/1242_The_Godfather_1972/'
p1909
sg13
I01
sg14
Nsg15
S'//130.60.131.134/studi/Filme/spaete_Filme/1242_The_Godfather_1972\\ELAN Projektdatei\\1242_1_1_TheGodfather_1972_DVD_ELAN.eaf'
p1910
sg17
I00
sba(i__main__
Movie
p1911
(dp1912
g3
S'DontLookNow'
p1913
sg5
S'//130.60.131.134/studi/Filme/spaete_Filme/124_Dont_Look_Now_1974/'
p1914
sg7
(lp1915
S'//130.60.131.134/studi/Filme/spaete_Filme/124_Dont_Look_Now_1974\\124_DontLookNow_1974_DVD_ELAN_Export_2.txt'
p1916
asg9
(lp1917
I124
aI1
aI1
asg11
S'spaete_Filme/124_Dont_Look_Now_1974/'
p1918
sg13
I01
sg14
Nsg15
S'//130.60.131.134/studi/Filme/spaete_Filme/124_Dont_Look_Now_1974\\124_1_1_DontLookNow_1973_DVD_ELAN.eaf'
p1919
sg17
I00
sba(i__main__
Movie
p1920
(dp1921
g3
S'HallucinationsLaPerceptionetlImaginaire'
p1922
sg5
S'//130.60.131.134/studi/Filme/spaete_Filme/128_HallucinationsLaPerceptionetlImaginaire_1964/'
p1923
sg7
(lp1924
sg9
(lp1925
I128
aI1
aI1
asg11
S'spaete_Filme/128_HallucinationsLaPerceptionetlImaginaire_1964/'
p1926
sg13
I00
sg14
Nsg15
S'//130.60.131.134/studi/Filme/spaete_Filme/128_HallucinationsLaPerceptionetlImaginaire_1964\\128_1_1_HallucinationsLaPerceptionetlImaginaire_1964_Medfilm_ELAN.eaf'
p1927
sg17
I00
sba(i__main__
Movie
p1928
(dp1929
g3
S'TheLivingDaylights'
p1930
sg5
S'//130.60.131.134/studi/Filme/spaete_Filme/1296_The_Living_Daylights_1987/'
p1931
sg7
(lp1932
S'//130.60.131.134/studi/Filme/spaete_Filme/1296_The_Living_Daylights_1987\\1296_1_1_TheLivingDaylights_1987_DVD_ELAN.txt'
p1933
asg9
(lp1934
I1296
aI1
aI1
asg11
S'spaete_Filme/1296_The_Living_Daylights_1987/'
p1935
sg13
I00
sg14
Nsg15
S'//130.60.131.134/studi/Filme/spaete_Filme/1296_The_Living_Daylights_1987\\ELAN Projektdatei\\1296_1_1_TheLivingDaylights_1987_DVD_ELAN.eaf'
p1936
sg17
I00
sba(i__main__
Movie
p1937
(dp1938
g3
S'Aliens'
p1939
sg5
S'//130.60.131.134/studi/Filme/spaete_Filme/1307_Aliens_1986/'
p1940
sg7
(lp1941
S'//130.60.131.134/studi/Filme/spaete_Filme/1307_Aliens_1986\\1307_1_1_Aliens_1986_DVD_ELAN.txt'
p1942
asg9
(lp1943
I1307
aI1
aI1
asg11
S'spaete_Filme/1307_Aliens_1986/'
p1944
sg13
I00
sg14
Nsg15
S'//130.60.131.134/studi/Filme/spaete_Filme/1307_Aliens_1986\\ELAN Projektdatei\\1307_1_1_Aliens_1986_DVD_ELAN.eaf'
p1945
sg17
I00
sba(i__main__
Movie
p1946
(dp1947
g3
S'Batman'
p1948
sg5
S'//130.60.131.134/studi/Filme/spaete_Filme/1318_Batman_1989/'
p1949
sg7
(lp1950
S'//130.60.131.134/studi/Filme/spaete_Filme/1318_Batman_1989\\1318_1_1_Batman_1989_DVD_ELAN.txt'
p1951
asg9
(lp1952
I1318
aI1
aI1
asg11
S'spaete_Filme/1318_Batman_1989/'
p1953
sg13
I00
sg14
Nsg15
S'//130.60.131.134/studi/Filme/spaete_Filme/1318_Batman_1989\\ELAN Projektdatei\\1318_1_1_Batman_1989_DVD_ELAN.eaf'
p1954
sg17
I00
sba(i__main__
Movie
p1955
(dp1956
g3
S'OutOfAfrica'
p1957
sg5
S'//130.60.131.134/studi/Filme/spaete_Filme/1381_Out_Of_Africa_1985/'
p1958
sg7
(lp1959
S'//130.60.131.134/studi/Filme/spaete_Filme/1381_Out_Of_Africa_1985\\1381_1_1_OutOfAfrica_1985_DVD_ELAN.txt'
p1960
asg9
(lp1961
I1381
aI1
aI1
asg11
S'spaete_Filme/1381_Out_Of_Africa_1985/'
p1962
sg13
I00
sg14
Nsg15
S'//130.60.131.134/studi/Filme/spaete_Filme/1381_Out_Of_Africa_1985\\ELAN Projektdatei\\1381_1_1_OutOfAfrica_1985_DVD_ELAN.eaf'
p1963
sg17
I00
sba(i__main__
Movie
p1964
(dp1965
g3
S'StarWarsV'
p1966
sg5
S'//130.60.131.134/studi/Filme/spaete_Filme/1400_Star_Wars_V_1980/'
p1967
sg7
(lp1968
sg9
(lp1969
I1400
aI1
aI1
asg11
S'spaete_Filme/1400_Star_Wars_V_1980/'
p1970
sg13
I01
sg14
Nsg15
S'//130.60.131.134/studi/Filme/spaete_Filme/1400_Star_Wars_V_1980\\1400_1_1_StarWarsV_1980_DVD_ELAN.eaf'
p1971
sg17
I00
sba(i__main__
Movie
p1972
(dp1973
g3
S'TheFrenchConnection'
p1974
sg5
S'//130.60.131.134/studi/Filme/spaete_Filme/1408_The_French_Connection_1971/'
p1975
sg7
(lp1976
S'//130.60.131.134/studi/Filme/spaete_Filme/1408_The_French_Connection_1971\\1408_1_1_TheFrenchConnection_1971_DVD_ELAN_export.txt'
p1977
aS'//130.60.131.134/studi/Filme/spaete_Filme/1408_The_French_Connection_1971\\1510_1_1_DasBoot_1981_DVD_ELAN_export.txt'
p1978
asg9
(lp1979
I1408
aI1
aI1
asg11
S'spaete_Filme/1408_The_French_Connection_1971/'
p1980
sg13
I01
sg14
Nsg15
S'//130.60.131.134/studi/Filme/spaete_Filme/1408_The_French_Connection_1971\\1408_1_1_TheFrenchConnection_1971_DVD_ELAN.eaf'
p1981
sg17
I00
sba(i__main__
Movie
p1982
(dp1983
g3
S'CloseEncountersoftheThirdKind'
p1984
sg5
S'//130.60.131.134/studi/Filme/spaete_Filme/149_Close_Encounters_of_the_Third_Kind_1977/'
p1985
sg7
(lp1986
sg9
(lp1987
I149
aI1
aI1
asg11
S'spaete_Filme/149_Close_Encounters_of_the_Third_Kind_1977/'
p1988
sg13
I01
sg14
Nsg15
S'//130.60.131.134/studi/Filme/spaete_Filme/149_Close_Encounters_of_the_Third_Kind_1977\\149_1_1_CloseEncountersoftheThirdKind_1977_DVD_ELAN.eaf'
p1989
sg17
I00
sba(i__main__
Movie
p1990
(dp1991
g3
S'UneFemmeEstUneFemme'
p1992
sg5
S'//130.60.131.134/studi/Filme/spaete_Filme/14_Une_Femme_est_une_Femme_1961/'
p1993
sg7
(lp1994
S'//130.60.131.134/studi/Filme/spaete_Filme/14_Une_Femme_est_une_Femme_1961\\14_1_1_UneFemmeEstUneFemme_1961_DVD_ELAN_BF.txt'
p1995
asg9
(lp1996
I14
aI1
aI1
asg11
S'spaete_Filme/14_Une_Femme_est_une_Femme_1961/'
p1997
sg13
I00
sg14
Nsg15
S'//130.60.131.134/studi/Filme/spaete_Filme/14_Une_Femme_est_une_Femme_1961\\14_1_1_UneFemmeEstUneFemme_1961_DVD_ELAN_BF.eaf'
p1998
sg17
I00
sba(i__main__
Movie
p1999
(dp2000
g3
S'DasBoot'
p2001
sg5
S'//130.60.131.134/studi/Filme/spaete_Filme/1510_Das_Boot_1981/'
p2002
sg7
(lp2003
S'//130.60.131.134/studi/Filme/spaete_Filme/1510_Das_Boot_1981\\1510_1_1_DasBoot_1981_DVD_ELAN_export.txt'
p2004
aS'//130.60.131.134/studi/Filme/spaete_Filme/1510_Das_Boot_1981\\1510_1_1_DasBoot_1981_DVD_ELAN_export.csv'
p2005
aS'//130.60.131.134/studi/Filme/spaete_Filme/1510_Das_Boot_1981\\1510_1_1_DasBoot_1981_DVD_FCT_snapchots.csv'
p2006
aS'//130.60.131.134/studi/Filme/spaete_Filme/1510_Das_Boot_1981\\1510_1_1_DasBoot_1981_DVD_FCT_temp.csv'
p2007
asg9
(lp2008
I1510
aI1
aI1
asg11
S'spaete_Filme/1510_Das_Boot_1981/'
p2009
sg13
I01
sg14
Nsg15
S'//130.60.131.134/studi/Filme/spaete_Filme/1510_Das_Boot_1981\\1510_1_1_DasBoot_1981_DVD_ELAN.eaf'
p2010
sg17
I00
sba(i__main__
Movie
p2011
(dp2012
g3
S'DaysOfHeaven'
p2013
sg5
S'//130.60.131.134/studi/Filme/spaete_Filme/1517_Days_of_Heaven_1978/'
p2014
sg7
(lp2015
S'//130.60.131.134/studi/Filme/spaete_Filme/1517_Days_of_Heaven_1978\\1517_1_1_DaysOfHeaven_1978_DVD_ELAN.txt'
p2016
asg9
(lp2017
I1517
aI1
aI1
asg11
S'spaete_Filme/1517_Days_of_Heaven_1978/'
p2018
sg13
I00
sg14
Nsg15
S'//130.60.131.134/studi/Filme/spaete_Filme/1517_Days_of_Heaven_1978\\ELAN Projektdatei\\1517_1_1_DaysOfHeaven_1978_DVD_ELAN.eaf'
p2019
sg17
I00
sba(i__main__
Movie
p2020
(dp2021
g3
S'DickTracy'
p2022
sg5
S'//130.60.131.134/studi/Filme/spaete_Filme/1535_Dick_Tracy_1990/'
p2023
sg7
(lp2024
S'//130.60.131.134/studi/Filme/spaete_Filme/1535_Dick_Tracy_1990\\1535_1_1_DickTracy_1990_DVD_ELAN_2.txt'
p2025
asg9
(lp2026
I1535
aI1
aI1
asg11
S'spaete_Filme/1535_Dick_Tracy_1990/'
p2027
sg13
I01
sg14
Nsg15
S'//130.60.131.134/studi/Filme/spaete_Filme/1535_Dick_Tracy_1990\\1535_1_1_DickTracy_1990_DVD_ELAN.eaf'
p2028
sg17
I00
sba(i__main__
Movie
p2029
(dp2030
g3
S'DieEheDerMariaBraun'
p2031
sg5
S'//130.60.131.134/studi/Filme/spaete_Filme/1537_Die_Ehe_Der_Maria_Braun_1979/'
p2032
sg7
(lp2033
S'//130.60.131.134/studi/Filme/spaete_Filme/1537_Die_Ehe_Der_Maria_Braun_1979\\1537_1_1_DieEheDerMariaBraun_1979_DVD_ELAN_export.txt'
p2034
asg9
(lp2035
I1537
aI1
aI1
asg11
S'spaete_Filme/1537_Die_Ehe_Der_Maria_Braun_1979/'
p2036
sg13
I00
sg14
Nsg15
S'//130.60.131.134/studi/Filme/spaete_Filme/1537_Die_Ehe_Der_Maria_Braun_1979\\1537_1_1_DieEheDerMariaBraun_1979_DVD_ELAN.eaf'
p2037
sg17
I00
sba(i__main__
Movie
p2038
(dp2039
g3
S'Eolomea'
p2040
sg5
S'//130.60.131.134/studi/Filme/spaete_Filme/1563_Eolomea_1972/'
p2041
sg7
(lp2042
S'//130.60.131.134/studi/Filme/spaete_Filme/1563_Eolomea_1972\\1563_1_1_Eolomea_1972_DVD_ELAN.txt'
p2043
asg9
(lp2044
I1563
aI1
aI1
asg11
S'spaete_Filme/1563_Eolomea_1972/'
p2045
sg13
I01
sg14
Nsg15
S'//130.60.131.134/studi/Filme/spaete_Filme/1563_Eolomea_1972\\ELAN Projektdatei\\1563_1_1_Eolomea_1972_DVD_ELAN.eaf'
p2046
sg17
I00
sba(i__main__
Movie
p2047
(dp2048
g3
S'Flashdance'
p2049
sg5
S'//130.60.131.134/studi/Filme/spaete_Filme/1574_Flashdance_1983/'
p2050
sg7
(lp2051
S'//130.60.131.134/studi/Filme/spaete_Filme/1574_Flashdance_1983\\1574_1_1_Flashdance_1983_DVD_ELAN.txt'
p2052
asg9
(lp2053
I1574
aI1
aI1
asg11
S'spaete_Filme/1574_Flashdance_1983/'
p2054
sg13
I00
sg14
Nsg15
S'//130.60.131.134/studi/Filme/spaete_Filme/1574_Flashdance_1983\\ELAN Projektdatei\\1574_1_1_Flashdance_1983_DVD_ELAN.eaf'
p2055
sg17
I00
sba(i__main__
Movie
p2056
(dp2057
g3
S'TroisCouleursBlue'
p2058
sg5
S'//130.60.131.134/studi/Filme/spaete_Filme/15_Trois_couleurs_Blue_1993/'
p2059
sg7
(lp2060
S'//130.60.131.134/studi/Filme/spaete_Filme/15_Trois_couleurs_Blue_1993\\15_1_1_TroisCouleursBlue_1993_DVD_ELAN_2_Export_ELAN.txt'
p2061
asg9
(lp2062
I15
aI1
aI1
asg11
S'spaete_Filme/15_Trois_couleurs_Blue_1993/'
p2063
sg13
I01
sg14
Nsg15
S'//130.60.131.134/studi/Filme/spaete_Filme/15_Trois_couleurs_Blue_1993\\15_1_1_TroisCouleursBlue_1993_DVD_ELAN_2_JK.eaf'
p2064
sg17
I00
sba(i__main__
Movie
p2065
(dp2066
g3
S'LaDoubleVieDeVeronique'
p2067
sg5
S'//130.60.131.134/studi/Filme/spaete_Filme/1654_La_double_vie_de_Veronique_1991/'
p2068
sg7
(lp2069
S'//130.60.131.134/studi/Filme/spaete_Filme/1654_La_double_vie_de_Veronique_1991\\1654_1_1_LaDoubleVieDeVeronique_1991_DVD_ELAN.txt'
p2070
asg9
(lp2071
I1654
aI1
aI1
asg11
S'spaete_Filme/1654_La_double_vie_de_Veronique_1991/'
p2072
sg13
I00
sg14
Nsg15
S'//130.60.131.134/studi/Filme/spaete_Filme/1654_La_double_vie_de_Veronique_1991\\ELAN Projektdatei\\1654_1_1_LaDoubleVieDeVeronique_1991_DVD_ELAN.eaf'
p2073
sg17
I00
sba(i__main__
Movie
p2074
(dp2075
g3
S'LeDernierMetro'
p2076
sg5
S'//130.60.131.134/studi/Filme/spaete_Filme/1669_Le_Dernier_Metro_1980/'
p2077
sg7
(lp2078
S'//130.60.131.134/studi/Filme/spaete_Filme/1669_Le_Dernier_Metro_1980\\1669_1_1_LeDernierMetro_1980_DVD_ELAN_export.txt'
p2079
asg9
(lp2080
I1669
aI1
aI1
asg11
S'spaete_Filme/1669_Le_Dernier_Metro_1980/'
p2081
sg13
I01
sg14
Nsg15
S'//130.60.131.134/studi/Filme/spaete_Filme/1669_Le_Dernier_Metro_1980\\1669_1_1_LeDernierMetro_1980_DVD_ELAN.eaf'
p2082
sg17
I00
sba(i__main__
Movie
p2083
(dp2084
g3
S'AgeofInnocence'
p2085
sg5
S'//130.60.131.134/studi/Filme/spaete_Filme/16_Age_of_Innocence_1993/'
p2086
sg7
(lp2087
sg9
(lp2088
I16
aI1
aI1
asg11
S'spaete_Filme/16_Age_of_Innocence_1993/'
p2089
sg13
I00
sg14
Nsg15
S'//130.60.131.134/studi/Filme/spaete_Filme/16_Age_of_Innocence_1993\\16_1_1_AgeofInnocence_1993_DVD_ELAN.eaf'
p2090
sg17
I00
sba(i__main__
Movie
p2091
(dp2092
g3
S'CeraUnaVoltaIlWest'
p2093
sg5
S'//130.60.131.134/studi/Filme/spaete_Filme/1746_Cera_Una_Volta_Il_West_1968/'
p2094
sg7
(lp2095
S'//130.60.131.134/studi/Filme/spaete_Filme/1746_Cera_Una_Volta_Il_West_1968\\1746_1_1_CeraUnaVoltaIlWest_1968_DVD_ELAN_export.txt'
p2096
asg9
(lp2097
I1746
aI1
aI1
asg11
S'spaete_Filme/1746_Cera_Una_Volta_Il_West_1968/'
p2098
sg13
I01
sg14
Nsg15
S'//130.60.131.134/studi/Filme/spaete_Filme/1746_Cera_Una_Volta_Il_West_1968\\1746_1_1_CeraUnaVoltaIlWest_1968_DVD_ELAN.eaf'
p2099
sg17
I00
sba(i__main__
Movie
p2100
(dp2101
g3
S'Ran'
p2102
sg5
S'//130.60.131.134/studi/Filme/spaete_Filme/1774_Ran_1985/'
p2103
sg7
(lp2104
S'//130.60.131.134/studi/Filme/spaete_Filme/1774_Ran_1985\\1774_1_1_Ran_1985_DVD_ELAN_export.txt'
p2105
asg9
(lp2106
I1774
aI1
aI1
asg11
S'spaete_Filme/1774_Ran_1985/'
p2107
sg13
I01
sg14
Nsg15
S'//130.60.131.134/studi/Filme/spaete_Filme/1774_Ran_1985\\1774_1_1_Ran_1985_DVD_ELAN.eaf'
p2108
sg17
I00
sba(i__main__
Movie
p2109
(dp2110
g3
S'TheLastEmperor'
p2111
sg5
S'//130.60.131.134/studi/Filme/spaete_Filme/1860_The_Last_Emperor_1987/'
p2112
sg7
(lp2113
S'//130.60.131.134/studi/Filme/spaete_Filme/1860_The_Last_Emperor_1987\\1860_1_1_TheLastEmperor_1987_BluRay_ELAN.txt'
p2114
asg9
(lp2115
I1860
aI1
aI1
asg11
S'spaete_Filme/1860_The_Last_Emperor_1987/'
p2116
sg13
I01
sg14
Nsg15
S'//130.60.131.134/studi/Filme/spaete_Filme/1860_The_Last_Emperor_1987\\ELAN Projektdatei\\1860_1_1_TheLastEmperor_1987_BluRay_ELAN.eaf'
p2117
sg17
I00
sba(i__main__
Movie
p2118
(dp2119
g3
S'TheManWhoFellToEarth'
p2120
sg5
S'//130.60.131.134/studi/Filme/spaete_Filme/1868_The_Man_Who_Fell_To_Earth_1976/'
p2121
sg7
(lp2122
S'//130.60.131.134/studi/Filme/spaete_Filme/1868_The_Man_Who_Fell_To_Earth_1976\\1868_1_1_TheManWhoFellToEarth_1976_DVD_ELAN_export.txt'
p2123
asg9
(lp2124
I1868
aI1
aI1
asg11
S'spaete_Filme/1868_The_Man_Who_Fell_To_Earth_1976/'
p2125
sg13
I01
sg14
Nsg15
S'//130.60.131.134/studi/Filme/spaete_Filme/1868_The_Man_Who_Fell_To_Earth_1976\\1868_1_1_TheManWhoFellToEarth_1976_DVD_ELAN.eaf'
p2126
sg17
I00
sba(i__main__
Movie
p2127
(dp2128
g3
S'SilenceLambs'
p2129
sg5
S'//130.60.131.134/studi/Filme/spaete_Filme/1880_SilenceLambs_1991/'
p2130
sg7
(lp2131
sg9
(lp2132
I1880
aI1
aI1
asg11
S'spaete_Filme/1880_SilenceLambs_1991/'
p2133
sg13
I01
sg14
Nsg15
S'//130.60.131.134/studi/Filme/spaete_Filme/1880_SilenceLambs_1991\\1880_1_1_SilenceLambs_1991_DVD_ELAN.eaf'
p2134
sg17
I00
sba(i__main__
Movie
p2135
(dp2136
g3
S'UnaGiornataParticolare'
p2137
sg5
S'//130.60.131.134/studi/Filme/spaete_Filme/1908_UnaGiornataParticolare_1977/'
p2138
sg7
(lp2139
sg9
(lp2140
I1908
aI1
aI1
asg11
S'spaete_Filme/1908_UnaGiornataParticolare_1977/'
p2141
sg13
I01
sg14
Nsg15
S'//130.60.131.134/studi/Filme/spaete_Filme/1908_UnaGiornataParticolare_1977\\1908_1_1_UnaGiornataParticolare_1977.eaf'
p2142
sg17
I00
sba(i__main__
Movie
p2143
(dp2144
g3
S'THX1138'
p2145
sg5
S'//130.60.131.134/studi/Filme/spaete_Filme/1976_THX_1138_1971/'
p2146
sg7
(lp2147
S'//130.60.131.134/studi/Filme/spaete_Filme/1976_THX_1138_1971\\1976_1_1_THX1138_1971_DVD_ELAN_export.txt'
p2148
asg9
(lp2149
I1976
aI1
aI1
asg11
S'spaete_Filme/1976_THX_1138_1971/'
p2150
sg13
I01
sg14
Nsg15
S'//130.60.131.134/studi/Filme/spaete_Filme/1976_THX_1138_1971\\1976_1_1_THX1138_1971_DVD_ELAN.eaf'
p2151
sg17
I00
sba(i__main__
Movie
p2152
(dp2153
g3
S'IlDesertoRosso'
p2154
sg5
S'//130.60.131.134/studi/Filme/spaete_Filme/203_Il_Deserto_Rosso_1964/'
p2155
sg7
(lp2156
sg9
(lp2157
I203
aI1
aI1
asg11
S'spaete_Filme/203_Il_Deserto_Rosso_1964/'
p2158
sg13
I00
sg14
Nsg15
S'//130.60.131.134/studi/Filme/spaete_Filme/203_Il_Deserto_Rosso_1964\\203_1_1_IlDesertoRosso_1964_DVD_ELAN.eaf'
p2159
sg17
I00
sba(i__main__
Movie
p2160
(dp2161
g3
S'Vertigo'
p2162
sg5
S'//130.60.131.134/studi/Filme/spaete_Filme/205_Vertigo_1958/'
p2163
sg7
(lp2164
S'//130.60.131.134/studi/Filme/spaete_Filme/205_Vertigo_1958\\205_1_1_Vertigo_1958_DVD_ELAN_Export.txt'
p2165
asg9
(lp2166
I205
aI1
aI1
asg11
S'spaete_Filme/205_Vertigo_1958/'
p2167
sg13
I01
sg14
Nsg15
S'//130.60.131.134/studi/Filme/spaete_Filme/205_Vertigo_1958\\205_1_1_Vertigo_1958_DVD_ELAN.eaf'
p2168
sg17
I00
sba(i__main__
Movie
p2169
(dp2170
g3
S'IWantYou'
p2171
sg5
S'//130.60.131.134/studi/Filme/spaete_Filme/207_I_Want_You_1998/'
p2172
sg7
(lp2173
S'//130.60.131.134/studi/Filme/spaete_Filme/207_I_Want_You_1998\\207_1_1_IWantYou_1998_DVD_ELAN.txt'
p2174
asg9
(lp2175
I207
aI1
aI1
asg11
S'spaete_Filme/207_I_Want_You_1998/'
p2176
sg13
I01
sg14
Nsg15
S'//130.60.131.134/studi/Filme/spaete_Filme/207_I_Want_You_1998\\ELAN Projektdatei\\207_1_1_IWantYou_1998_DVD_ELAN.eaf'
p2177
sg17
I00
sba(i__main__
Movie
p2178
(dp2179
g3
S'Suspiria'
p2180
sg5
S'//130.60.131.134/studi/Filme/spaete_Filme/209_Suspiria_1977/'
p2181
sg7
(lp2182
S'//130.60.131.134/studi/Filme/spaete_Filme/209_Suspiria_1977\\209_1_1_Suspiria_1977_DVD_ELAN.txt'
p2183
asg9
(lp2184
I209
aI1
aI1
asg11
S'spaete_Filme/209_Suspiria_1977/'
p2185
sg13
I01
sg14
Nsg15
S'//130.60.131.134/studi/Filme/spaete_Filme/209_Suspiria_1977\\ELAN Projektdatei\\209_1_1_Suspiria_1977_DVD_ELAN.eaf'
p2186
sg17
I00
sba(i__main__
Movie
p2187
(dp2188
g3
S'ChungHingSamIam'
p2189
sg5
S'//130.60.131.134/studi/Filme/spaete_Filme/210_Chung_Hing_sam_Iam_1996/'
p2190
sg7
(lp2191
S'//130.60.131.134/studi/Filme/spaete_Filme/210_Chung_Hing_sam_Iam_1996\\210_1_1_ChungHingSamIam_1996_DVD_ELAN_Export.txt'
p2192
asg9
(lp2193
I210
aI1
aI1
asg11
S'spaete_Filme/210_Chung_Hing_sam_Iam_1996/'
p2194
sg13
I01
sg14
Nsg15
S'//130.60.131.134/studi/Filme/spaete_Filme/210_Chung_Hing_sam_Iam_1996\\210_1_1_ChungHingSamIam_1996_DVD_ELAN.eaf'
p2195
sg17
I00
sba(i__main__
Movie
p2196
(dp2197
g3
S'SoloSunny'
p2198
sg5
S'//130.60.131.134/studi/Filme/spaete_Filme/212_Solo_Sunny_1980/'
p2199
sg7
(lp2200
S'//130.60.131.134/studi/Filme/spaete_Filme/212_Solo_Sunny_1980\\212_SoloSunny_1980_DVD_ELAN_Export.txt'
p2201
asg9
(lp2202
I212
aI1
aI1
asg11
S'spaete_Filme/212_Solo_Sunny_1980/'
p2203
sg13
I01
sg14
Nsg15
S'//130.60.131.134/studi/Filme/spaete_Filme/212_Solo_Sunny_1980\\212_1_1_SoloSunny_1980_DVD_ELAN.eaf'
p2204
sg17
I00
sba(i__main__
Movie
p2205
(dp2206
g3
S'TheCookTheThiefHisWifeAndHerLover'
p2207
sg5
S'//130.60.131.134/studi/Filme/spaete_Filme/215_The_Cook_the_Thief_His_Wife_and_Her_Lover_1990/'
p2208
sg7
(lp2209
S'//130.60.131.134/studi/Filme/spaete_Filme/215_The_Cook_the_Thief_His_Wife_and_Her_Lover_1990\\215_1_1_TheCookTheThiefHisWifeAndHerLover_1990_DVD_ELAN_Export2.txt'
p2210
asg9
(lp2211
I215
aI1
aI1
asg11
S'spaete_Filme/215_The_Cook_the_Thief_His_Wife_and_Her_Lover_1990/'
p2212
sg13
I01
sg14
Nsg15
S'//130.60.131.134/studi/Filme/spaete_Filme/215_The_Cook_the_Thief_His_Wife_and_Her_Lover_1990\\215_1_1_TheCookTheThiefHisWifeAndHerLover_1990_DVD_ELAN.eaf'
p2213
sg17
I00
sba(i__main__
Movie
p2214
(dp2215
g3
S'LesParapuiesDeCherbourg'
p2216
sg5
S'//130.60.131.134/studi/Filme/spaete_Filme/216_Les_parapluies_de_Cherbourg_1964/'
p2217
sg7
(lp2218
sg9
(lp2219
I216
aI1
aI1
asg11
S'spaete_Filme/216_Les_parapluies_de_Cherbourg_1964/'
p2220
sg13
I00
sg14
Nsg15
S'//130.60.131.134/studi/Filme/spaete_Filme/216_Les_parapluies_de_Cherbourg_1964\\216_1_1_LesParapuiesDeCherbourg_1964_DVD.eaf'
p2221
sg17
I00
sba(i__main__
Movie
p2222
(dp2223
g3
S'ApocalypseNow'
p2224
sg5
S'//130.60.131.134/studi/Filme/spaete_Filme/218_Apocalypse_Now_1979/'
p2225
sg7
(lp2226
S'//130.60.131.134/studi/Filme/spaete_Filme/218_Apocalypse_Now_1979\\218_1_1_ApocalypseNow_1979_DVD_ELAN_2-export.txt'
p2227
aS'//130.60.131.134/studi/Filme/spaete_Filme/218_Apocalypse_Now_1979\\218_1_1_ApocalypseNow_1979_DVD_ELAN_2-export.csv'
p2228
aS'//130.60.131.134/studi/Filme/spaete_Filme/218_Apocalypse_Now_1979\\218_1_1_ApocalypseNow_1979_DVD_FCT_snapchots.csv'
p2229
aS'//130.60.131.134/studi/Filme/spaete_Filme/218_Apocalypse_Now_1979\\218_1_1_ApocalypseNow_1979_DVD_FCT_temp.csv'
p2230
asg9
(lp2231
I218
aI1
aI1
asg11
S'spaete_Filme/218_Apocalypse_Now_1979/'
p2232
sg13
I01
sg14
Nsg15
S'//130.60.131.134/studi/Filme/spaete_Filme/218_Apocalypse_Now_1979\\218_1_1_ApocalypseNow_1979_DVD_ELAN_2.eaf'
p2233
sg17
I00
sba(i__main__
Movie
p2234
(dp2235
g3
S'ImitationOfLife'
p2236
sg5
S'//130.60.131.134/studi/Filme/spaete_Filme/21_Imitation_of_Life_1959/'
p2237
sg7
(lp2238
sg9
(lp2239
I21
aI1
aI1
asg11
S'spaete_Filme/21_Imitation_of_Life_1959/'
p2240
sg13
I00
sg14
Nsg15
S'//130.60.131.134/studi/Filme/spaete_Filme/21_Imitation_of_Life_1959\\21_1_1_ImitationOfLife_15072016_BF.eaf'
p2241
sg17
I00
sba(i__main__
Movie
p2242
(dp2243
g3
S'NarayamaBushiko'
p2244
sg5
S'//130.60.131.134/studi/Filme/spaete_Filme/227_NarayamaBushiko_1958/'
p2245
sg7
(lp2246
S'//130.60.131.134/studi/Filme/spaete_Filme/227_NarayamaBushiko_1958\\227_1_1_NarayamaBushiko_1958_DVD_ELAN_Export.txt'
p2247
asg9
(lp2248
I227
aI1
aI1
asg11
S'spaete_Filme/227_NarayamaBushiko_1958/'
p2249
sg13
I01
sg14
Nsg15
S'//130.60.131.134/studi/Filme/spaete_Filme/227_NarayamaBushiko_1958\\227_1_1_NarayamaBushiko_1958_DVD_ELAN.eaf'
p2250
sg17
I00
sba(i__main__
Movie
p2251
(dp2252
g3
S'Jigokumon'
p2253
sg5
S'//130.60.131.134/studi/Filme/spaete_Filme/229_Jigokumon_1953/'
p2254
sg7
(lp2255
sg9
(lp2256
I229
aI1
aI1
asg11
S'spaete_Filme/229_Jigokumon_1953/'
p2257
sg13
I01
sg14
Nsg15
S'//130.60.131.134/studi/Filme/spaete_Filme/229_Jigokumon_1953\\229_1_1_Jigokumon_1953_BF.eaf'
p2258
sg17
I00
sba(i__main__
Movie
p2259
(dp2260
g3
S'Stalker'
p2261
sg5
S'//130.60.131.134/studi/Filme/spaete_Filme/23_Stalker_1980/'
p2262
sg7
(lp2263
S'//130.60.131.134/studi/Filme/spaete_Filme/23_Stalker_1980\\023_1_1_Stalker_1980_DVD_ELAN_Export.txt'
p2264
asg9
(lp2265
I23
aI1
aI1
asg11
S'spaete_Filme/23_Stalker_1980/'
p2266
sg13
I01
sg14
Nsg15
S'//130.60.131.134/studi/Filme/spaete_Filme/23_Stalker_1980\\023_1_1_Stalker_1980_DVD_ELAN.eaf'
p2267
sg17
I00
sba(i__main__
Movie
p2268
(dp2269
g3
S'IntheMoodforLove'
p2270
sg5
S'//130.60.131.134/studi/Filme/spaete_Filme/240_In_the_Mood_for_Love_2000/'
p2271
sg7
(lp2272
sg9
(lp2273
I240
aI1
aI1
asg11
S'spaete_Filme/240_In_the_Mood_for_Love_2000/'
p2274
sg13
I01
sg14
Nsg15
S'//130.60.131.134/studi/Filme/spaete_Filme/240_In_the_Mood_for_Love_2000\\240_1_1_IntheMoodforLove_2000_ELAN.eaf'
p2275
sg17
I00
sba(i__main__
Movie
p2276
(dp2277
g3
S'AllThatHeavenAllows'
p2278
sg5
S'//130.60.131.134/studi/Filme/spaete_Filme/241_All_That_Heaven_Allows_1955/'
p2279
sg7
(lp2280
sg9
(lp2281
I241
aI1
aI1
asg11
S'spaete_Filme/241_All_That_Heaven_Allows_1955/'
p2282
sg13
I00
sg14
Nsg15
S'//130.60.131.134/studi/Filme/spaete_Filme/241_All_That_Heaven_Allows_1955\\241_1_1_AllThatHeavenAllows_1955_DVD_ELAN_BF.eaf'
p2283
sg17
I00
sba(i__main__
Movie
p2284
(dp2285
g3
S'BlueVelvet'
p2286
sg5
S'//130.60.131.134/studi/Filme/spaete_Filme/244_Blue_Velvet_1986/'
p2287
sg7
(lp2288
sg9
(lp2289
I244
aI1
aI1
asg11
S'spaete_Filme/244_Blue_Velvet_1986/'
p2290
sg13
I01
sg14
Nsg15
S'//130.60.131.134/studi/Filme/spaete_Filme/244_Blue_Velvet_1986\\244_1_1_BlueVelvet_1986_DVD_ELAN.eaf'
p2291
sg17
I00
sba(i__main__
Movie
p2292
(dp2293
g3
S'SayatNova'
p2294
sg5
S'//130.60.131.134/studi/Filme/spaete_Filme/246_Sayat_Nova_1969/'
p2295
sg7
(lp2296
sg9
(lp2297
I246
aI1
aI1
asg11
S'spaete_Filme/246_Sayat_Nova_1969/'
p2298
sg13
I00
sg14
Nsg15
S'//130.60.131.134/studi/Filme/spaete_Filme/246_Sayat_Nova_1969\\246_1_1_SayatNova_1969_DVD_ELAN.eaf'
p2299
sg17
I00
sba(i__main__
Movie
p2300
(dp2301
g3
S'MonOncle'
p2302
sg5
S'//130.60.131.134/studi/Filme/spaete_Filme/254_MonOncle_1958/'
p2303
sg7
(lp2304
S'//130.60.131.134/studi/Filme/spaete_Filme/254_MonOncle_1958\\254_1_1_MonOncle_1958_DVD_ELAN_Export.txt'
p2305
asg9
(lp2306
I254
aI1
aI1
asg11
S'spaete_Filme/254_MonOncle_1958/'
p2307
sg13
I01
sg14
Nsg15
S'//130.60.131.134/studi/Filme/spaete_Filme/254_MonOncle_1958\\254_1_1_MonOncle_1958_DVD_ELAN.eaf'
p2308
sg17
I00
sba(i__main__
Movie
p2309
(dp2310
g3
S'Lola'
p2311
sg5
S'//130.60.131.134/studi/Filme/spaete_Filme/255_Lola_1981/'
p2312
sg7
(lp2313
sg9
(lp2314
I255
aI1
aI1
asg11
S'spaete_Filme/255_Lola_1981/'
p2315
sg13
I01
sg14
Nsg15
S'//130.60.131.134/studi/Filme/spaete_Filme/255_Lola_1981\\255_1_1_Lola_1981_DVD_ELAN.eaf'
p2316
sg17
I00
sba(i__main__
Movie
p2317
(dp2318
g3
S'Viskningarochrop'
p2319
sg5
S'//130.60.131.134/studi/Filme/spaete_Filme/259_Viskningar_och_rop_1972/'
p2320
sg7
(lp2321
S'//130.60.131.134/studi/Filme/spaete_Filme/259_Viskningar_och_rop_1972\\259_1_1_Viskningarochrop_1972_DVD_ELAN_Export2.txt'
p2322
asg9
(lp2323
I259
aI1
aI1
asg11
S'spaete_Filme/259_Viskningar_och_rop_1972/'
p2324
sg13
I00
sg14
Nsg15
S'//130.60.131.134/studi/Filme/spaete_Filme/259_Viskningar_och_rop_1972\\259_1_1_Viskningarochrop_1972_DVD_ELAN.eaf'
p2325
sg17
I00
sba(i__main__
Movie
p2326
(dp2327
g3
S'FunnyFace'
p2328
sg5
S'//130.60.131.134/studi/Filme/spaete_Filme/260_FunnyFace_1957/'
p2329
sg7
(lp2330
sg9
(lp2331
I260
aI1
aI1
asg11
S'spaete_Filme/260_FunnyFace_1957/'
p2332
sg13
I00
sg14
Nsg15
S'//130.60.131.134/studi/Filme/spaete_Filme/260_FunnyFace_1957\\260_1_1_FunnyFace_1957.eaf'
p2333
sg17
I00
sba(i__main__
Movie
p2334
(dp2335
g3
S'SeiDonnePerLAssassino'
p2336
sg5
S'//130.60.131.134/studi/Filme/spaete_Filme/261_SeiDonnePerLAssassino_1964/'
p2337
sg7
(lp2338
S'//130.60.131.134/studi/Filme/spaete_Filme/261_SeiDonnePerLAssassino_1964\\261_1_1_SeiDonnePerLAssassino_1964_DVD_ELAN_BF.txt'
p2339
aS'//130.60.131.134/studi/Filme/spaete_Filme/261_SeiDonnePerLAssassino_1964\\261_1_1_SeiDonnePerLAssassino_1964_DVD_ELAN_BF_korr2.txt'
p2340
asg9
(lp2341
I261
aI1
aI1
asg11
S'spaete_Filme/261_SeiDonnePerLAssassino_1964/'
p2342
sg13
I00
sg14
Nsg15
S'//130.60.131.134/studi/Filme/spaete_Filme/261_SeiDonnePerLAssassino_1964\\261_1_1_SeiDonnePerLAssassino_1964_DVD_ELAN_BF_korr2.eaf'
p2343
sg17
I00
sba(i__main__
Movie
p2344
(dp2345
g3
S'IlMisteroDiOberwald'
p2346
sg5
S'//130.60.131.134/studi/Filme/spaete_Filme/277_Il_mistero_di_Oberwald_1981/'
p2347
sg7
(lp2348
S'//130.60.131.134/studi/Filme/spaete_Filme/277_Il_mistero_di_Oberwald_1981\\277_1_1_IlMisteroDiOberwald_1981_DVD.txt'
p2349
asg9
(lp2350
I277
aI1
aI1
asg11
S'spaete_Filme/277_Il_mistero_di_Oberwald_1981/'
p2351
sg13
I00
sg14
Nsg15
S'//130.60.131.134/studi/Filme/spaete_Filme/277_Il_mistero_di_Oberwald_1981\\277_1_1_IlMisteroDiOberwald_1981_DVD.eaf'
p2352
sg17
I00
sba(i__main__
Movie
p2353
(dp2354
g3
S'Possession'
p2355
sg5
S'//130.60.131.134/studi/Filme/spaete_Filme/278_Possession_1981/'
p2356
sg7
(lp2357
sg9
(lp2358
I278
aI1
aI1
asg11
S'spaete_Filme/278_Possession_1981/'
p2359
sg13
I01
sg14
Nsg15
S'//130.60.131.134/studi/Filme/spaete_Filme/278_Possession_1981\\278_1_1_Possession_1981_DVD_ELAN.eaf'
p2360
sg17
I00
sba(i__main__
Movie
p2361
(dp2362
g3
S'Kika'
p2363
sg5
S'//130.60.131.134/studi/Filme/spaete_Filme/280_Kika_1990/'
p2364
sg7
(lp2365
S'//130.60.131.134/studi/Filme/spaete_Filme/280_Kika_1990\\280_1_1_Kika_1993_DVD_ELAN_export.txt'
p2366
asg9
(lp2367
I280
aI1
aI1
asg11
S'spaete_Filme/280_Kika_1990/'
p2368
sg13
I01
sg14
Nsg15
S'//130.60.131.134/studi/Filme/spaete_Filme/280_Kika_1990\\280_1_1_Kika_1993_DVD_ELAN.eaf'
p2369
sg17
I00
sba(i__main__
Movie
p2370
(dp2371
g3
S'NorthByNorthwest'
p2372
sg5
S'//130.60.131.134/studi/Filme/spaete_Filme/282_NorthByNorthwest_1959/'
p2373
sg7
(lp2374
S'//130.60.131.134/studi/Filme/spaete_Filme/282_NorthByNorthwest_1959\\282_1_3_NorthByNorthwest_1959_BD_ELAN_BF.txt'
p2375
asg9
(lp2376
I282
aI1
aI3
asg11
S'spaete_Filme/282_NorthByNorthwest_1959/'
p2377
sg13
I00
sg14
Nsg15
S'//130.60.131.134/studi/Filme/spaete_Filme/282_NorthByNorthwest_1959\\282_1_3_NorthByNorthwest_1959_BD_ELAN_BF.eaf'
p2378
sg17
I00
sba(i__main__
Movie
p2379
(dp2380
g3
S'ToCatchAThief'
p2381
sg5
S'//130.60.131.134/studi/Filme/spaete_Filme/287_To_Catch_A_Thief_1955/'
p2382
sg7
(lp2383
S'//130.60.131.134/studi/Filme/spaete_Filme/287_To_Catch_A_Thief_1955\\287_1_1_ToCatchAThief_1955_Bluray_ELAN_BF.txt'
p2384
asg9
(lp2385
I287
aI1
aI1
asg11
S'spaete_Filme/287_To_Catch_A_Thief_1955/'
p2386
sg13
I00
sg14
Nsg15
S'//130.60.131.134/studi/Filme/spaete_Filme/287_To_Catch_A_Thief_1955\\287_1_1_ToCatchAThief_1955_Bluray_ELAN_BF.eaf'
p2387
sg17
I00
sba(i__main__
Movie
p2388
(dp2389
g3
S'SignaleEinWeltraumabenteuer'
p2390
sg5
S'//130.60.131.134/studi/Filme/spaete_Filme/2887_Signale_Ein_Weltraumabenteuer_1970/'
p2391
sg7
(lp2392
S'//130.60.131.134/studi/Filme/spaete_Filme/2887_Signale_Ein_Weltraumabenteuer_1970\\2887_1_1_SignaleEinWeltraumabenteuer_1970_DVD_ELAN_export.txt'
p2393
asg9
(lp2394
I2887
aI1
aI1
asg11
S'spaete_Filme/2887_Signale_Ein_Weltraumabenteuer_1970/'
p2395
sg13
I01
sg14
Nsg15
S'//130.60.131.134/studi/Filme/spaete_Filme/2887_Signale_Ein_Weltraumabenteuer_1970\\2887_1_1_SignaleEinWeltraumabenteuer_1970_DVD_ELAN.eaf'
p2396
sg17
I00
sba(i__main__
Movie
p2397
(dp2398
g3
S'Spartacus'
p2399
sg5
S'//130.60.131.134/studi/Filme/spaete_Filme/291_Spartacus_1960/'
p2400
sg7
(lp2401
sg9
(lp2402
I291
aI1
aI1
asg11
S'spaete_Filme/291_Spartacus_1960/'
p2403
sg13
I00
sg14
Nsg15
S'//130.60.131.134/studi/Filme/spaete_Filme/291_Spartacus_1960\\291_1_1_Spartacus_1960_DVD_ELAN.eaf'
p2404
sg17
I00
sba(i__main__
Movie
p2405
(dp2406
g3
S'ModestyBlaise'
p2407
sg5
S'//130.60.131.134/studi/Filme/spaete_Filme/3085_Modesty_Blaise_1965/'
p2408
sg7
(lp2409
S'//130.60.131.134/studi/Filme/spaete_Filme/3085_Modesty_Blaise_1965\\3085_1_1_ModestyBlaise_1965_DVD_ELAN_BF.txt'
p2410
asg9
(lp2411
I3085
aI1
aI1
asg11
S'spaete_Filme/3085_Modesty_Blaise_1965/'
p2412
sg13
I00
sg14
Nsg15
S'//130.60.131.134/studi/Filme/spaete_Filme/3085_Modesty_Blaise_1965\\3085_1_1_ModestyBlaise_1965_DVD_ELAN_BF.eaf'
p2413
sg17
I00
sba(i__main__
Movie
p2414
(dp2415
g3
S'Frenzy'
p2416
sg5
S'//130.60.131.134/studi/Filme/spaete_Filme/3093_Frenzy_1972/'
p2417
sg7
(lp2418
sg9
(lp2419
I3093
aI1
aI1
asg11
S'spaete_Filme/3093_Frenzy_1972/'
p2420
sg13
I01
sg14
Nsg15
S'//130.60.131.134/studi/Filme/spaete_Filme/3093_Frenzy_1972\\3093_1_1_Frenzy_1972_DVD_ELAN.eaf'
p2421
sg17
I00
sba(i__main__
Movie
p2422
(dp2423
g3
S'KyuketsukiGokemidoro'
p2424
sg5
S'//130.60.131.134/studi/Filme/spaete_Filme/3100_Kyuketsuki_Gokemidoro_1968/'
p2425
sg7
(lp2426
S'//130.60.131.134/studi/Filme/spaete_Filme/3100_Kyuketsuki_Gokemidoro_1968\\3100_1_1_KyuketsukiGokemidoro_1968_DVD_ELAN_export.txt'
p2427
asg9
(lp2428
I3100
aI1
aI1
asg11
S'spaete_Filme/3100_Kyuketsuki_Gokemidoro_1968/'
p2429
sg13
I01
sg14
Nsg15
S'//130.60.131.134/studi/Filme/spaete_Filme/3100_Kyuketsuki_Gokemidoro_1968\\3100_1_1_KyuketsukiGokemidoro_1968_DVD_ELAN.eaf'
p2430
sg17
I00
sba(i__main__
Movie
p2431
(dp2432
g3
S'KnochuDaisenso'
p2433
sg5
S'//130.60.131.134/studi/Filme/spaete_Filme/3101_Knochu_daisenso_1968/'
p2434
sg7
(lp2435
S'//130.60.131.134/studi/Filme/spaete_Filme/3101_Knochu_daisenso_1968\\3101_1_1_KnochuDaisenso_1968_DVD_ELAN_export.txt'
p2436
asg9
(lp2437
I3101
aI1
aI1
asg11
S'spaete_Filme/3101_Knochu_daisenso_1968/'
p2438
sg13
I01
sg14
Nsg15
S'//130.60.131.134/studi/Filme/spaete_Filme/3101_Knochu_daisenso_1968\\3101_1_1_KnochuDaisenso_1968_DVD_ELAN.eaf'
p2439
sg17
I00
sba(i__main__
Movie
p2440
(dp2441
g3
S'DerWegzudenSternen'
p2442
sg5
S'//130.60.131.134/studi/Filme/spaete_Filme/3102_DerWegzudenSternen_1957/'
p2443
sg7
(lp2444
S'//130.60.131.134/studi/Filme/spaete_Filme/3102_DerWegzudenSternen_1957\\3102_1_1_DerWegzudenSternen_1957_DVD_ELAN_export.txt'
p2445
asg9
(lp2446
I3102
aI1
aI1
asg11
S'spaete_Filme/3102_DerWegzudenSternen_1957/'
p2447
sg13
I01
sg14
Nsg15
S'//130.60.131.134/studi/Filme/spaete_Filme/3102_DerWegzudenSternen_1957\\3102_1_1_DerWegzudenSternen_1957_DVD_ELAN.eaf'
p2448
sg17
I00
sba(i__main__
Movie
p2449
(dp2450
g3
S'OtrokiVoVselennoy'
p2451
sg5
S'//130.60.131.134/studi/Filme/spaete_Filme/3137_Otroki_Vo_Vselennoy_1975/'
p2452
sg7
(lp2453
S'//130.60.131.134/studi/Filme/spaete_Filme/3137_Otroki_Vo_Vselennoy_1975\\3137_1_1_OtrokiVoVselennoy_1975_DVD_ELAN.txt'
p2454
asg9
(lp2455
I3137
aI1
aI1
asg11
S'spaete_Filme/3137_Otroki_Vo_Vselennoy_1975/'
p2456
sg13
I00
sg14
Nsg15
S'//130.60.131.134/studi/Filme/spaete_Filme/3137_Otroki_Vo_Vselennoy_1975\\ELAN Projektdatei\\3137_1_1_OtrokiVoVselennoy_1975_DVD_ELAN.eaf'
p2457
sg17
I00
sba(i__main__
Movie
p2458
(dp2459
g3
S'TheShelteringSky'
p2460
sg5
S'//130.60.131.134/studi/Filme/spaete_Filme/3144_The_Sheltering_Sky_1990/'
p2461
sg7
(lp2462
S'//130.60.131.134/studi/Filme/spaete_Filme/3144_The_Sheltering_Sky_1990\\3144_1_1_TheShelteringSky_1990_DVD_ELAN_export.txt'
p2463
asg9
(lp2464
I3144
aI1
aI1
asg11
S'spaete_Filme/3144_The_Sheltering_Sky_1990/'
p2465
sg13
I01
sg14
Nsg15
S'//130.60.131.134/studi/Filme/spaete_Filme/3144_The_Sheltering_Sky_1990\\3144_1_1_TheShelteringSky_1990_DVD_ELAN.eaf'
p2466
sg17
I00
sba(i__main__
Movie
p2467
(dp2468
g3
S'TheExorcist'
p2469
sg5
S'//130.60.131.134/studi/Filme/spaete_Filme/3145_TheExorcist_1973/'
p2470
sg7
(lp2471
S'//130.60.131.134/studi/Filme/spaete_Filme/3145_TheExorcist_1973\\3145_1_1_TheExorcist_1973_DVD_ELAN.txt'
p2472
asg9
(lp2473
I3145
aI1
aI1
asg11
S'spaete_Filme/3145_TheExorcist_1973/'
p2474
sg13
I01
sg14
Nsg15
S'//130.60.131.134/studi/Filme/spaete_Filme/3145_TheExorcist_1973\\3145_1_1_TheExorcist_1973_DVD_ELAN.eaf'
p2475
sg17
I00
sba(i__main__
Movie
p2476
(dp2477
g3
S'TheBlueLagoon'
p2478
sg5
S'//130.60.131.134/studi/Filme/spaete_Filme/3153_TheBlueLagoon_1980/'
p2479
sg7
(lp2480
S'//130.60.131.134/studi/Filme/spaete_Filme/3153_TheBlueLagoon_1980\\3153_1_1_TheBlueLagoon_1980_DVD_ELAN.txt'
p2481
asg9
(lp2482
I3153
aI1
aI1
asg11
S'spaete_Filme/3153_TheBlueLagoon_1980/'
p2483
sg13
I00
sg14
Nsg15
S'//130.60.131.134/studi/Filme/spaete_Filme/3153_TheBlueLagoon_1980\\3153_1_1_TheBlueLagoon_1980_DVD_ELAN.eaf'
p2484
sg17
I00
sba(i__main__
Movie
p2485
(dp2486
g3
S'TopGun'
p2487
sg5
S'//130.60.131.134/studi/Filme/spaete_Filme/3154_TopGun_1986/'
p2488
sg7
(lp2489
sg9
(lp2490
I3154
aI1
aI1
asg11
S'spaete_Filme/3154_TopGun_1986/'
p2491
sg13
I01
sg14
Nsg15
S'//130.60.131.134/studi/Filme/spaete_Filme/3154_TopGun_1986\\3154_1_1_TopGun_1986.eaf'
p2492
sg17
I00
sba(i__main__
Movie
p2493
(dp2494
g3
S'PlayTime'
p2495
sg5
S'//130.60.131.134/studi/Filme/spaete_Filme/315_Playtime_1967/'
p2496
sg7
(lp2497
sg9
(lp2498
I315
aI1
aI1
asg11
S'spaete_Filme/315_Playtime_1967/'
p2499
sg13
I01
sg14
Nsg15
S'//130.60.131.134/studi/Filme/spaete_Filme/315_Playtime_1967\\315_1_1_PlayTime_1967_DVD_ELAN.eaf'
p2500
sg17
I00
sba(i__main__
Movie
p2501
(dp2502
g3
S'TheShining'
p2503
sg5
S'//130.60.131.134/studi/Filme/spaete_Filme/316_TheShining_1980/'
p2504
sg7
(lp2505
sg9
(lp2506
I316
aI1
aI1
asg11
S'spaete_Filme/316_TheShining_1980/'
p2507
sg13
I01
sg14
Nsg15
S'//130.60.131.134/studi/Filme/spaete_Filme/316_TheShining_1980\\316_1_1_TheShining_1980_DVD_ELAN.eaf'
p2508
sg17
I00
sba(i__main__
Movie
p2509
(dp2510
g3
S'Hoehenfeuer'
p2511
sg5
S'//130.60.131.134/studi/Filme/spaete_Filme/3185_Hoehenfeuer_1985/'
p2512
sg7
(lp2513
S'//130.60.131.134/studi/Filme/spaete_Filme/3185_Hoehenfeuer_1985\\3185_1_1_Hoehenfeuer_1985_DVD_ELAN_export.txt'
p2514
asg9
(lp2515
I3185
aI1
aI1
asg11
S'spaete_Filme/3185_Hoehenfeuer_1985/'
p2516
sg13
I01
sg14
Nsg15
S'//130.60.131.134/studi/Filme/spaete_Filme/3185_Hoehenfeuer_1985\\3185_1_1_Hoehenfeuer_1985_DVD_ELAN.eaf'
p2517
sg17
I00
sba(i__main__
Movie
p2518
(dp2519
g3
S'Bilitis'
p2520
sg5
S'//130.60.131.134/studi/Filme/spaete_Filme/3231_Bilitis_1977/'
p2521
sg7
(lp2522
S'//130.60.131.134/studi/Filme/spaete_Filme/3231_Bilitis_1977\\3231_1_1_Bilitis_1977_DVD_ELAN_export.txt'
p2523
asg9
(lp2524
I3231
aI1
aI1
asg11
S'spaete_Filme/3231_Bilitis_1977/'
p2525
sg13
I01
sg14
Nsg15
S'//130.60.131.134/studi/Filme/spaete_Filme/3231_Bilitis_1977\\3231_1_1_Bilitis_1977_DVD_ELAN.eaf'
p2526
sg17
I00
sba(i__main__
Movie
p2527
(dp2528
g3
S'StarTrekVITheUndiscoveredCountry'
p2529
sg5
S'//130.60.131.134/studi/Filme/spaete_Filme/3243_Star_Trek_VI_The_Undiscovered_Country_1991/'
p2530
sg7
(lp2531
S'//130.60.131.134/studi/Filme/spaete_Filme/3243_Star_Trek_VI_The_Undiscovered_Country_1991\\3243_1_1_StarTrekVITheUndiscoveredCountry_1991_DVD_ELAN_export.txt'
p2532
asg9
(lp2533
I3243
aI1
aI1
asg11
S'spaete_Filme/3243_Star_Trek_VI_The_Undiscovered_Country_1991/'
p2534
sg13
I01
sg14
Nsg15
S'//130.60.131.134/studi/Filme/spaete_Filme/3243_Star_Trek_VI_The_Undiscovered_Country_1991\\3243_1_1_StarTrekVITheUndiscoveredCountry_1991_DVD_ELAN.eaf'
p2535
sg17
I00
sba(i__main__
Movie
p2536
(dp2537
g3
S'TschelowekAmfibija'
p2538
sg5
S'//130.60.131.134/studi/Filme/spaete_Filme/3244_Tschelowek_Amfibija_1963/'
p2539
sg7
(lp2540
S'//130.60.131.134/studi/Filme/spaete_Filme/3244_Tschelowek_Amfibija_1963\\3244_1_1_TschelowekAmfibija_1963_DVD_ELAN_export.txt'
p2541
asg9
(lp2542
I3244
aI1
aI1
asg11
S'spaete_Filme/3244_Tschelowek_Amfibija_1963/'
p2543
sg13
I01
sg14
Nsg15
S'//130.60.131.134/studi/Filme/spaete_Filme/3244_Tschelowek_Amfibija_1963\\3244_1_1_TschelowekAmfibija_1963_DVD_ELAN.eaf'
p2544
sg17
I00
sba(i__main__
Movie
p2545
(dp2546
g3
S'TotalRecall'
p2547
sg5
S'//130.60.131.134/studi/Filme/spaete_Filme/328_TotalRecall_1990_DVD/'
p2548
sg7
(lp2549
sg9
(lp2550
I328
aI1
aI1
asg11
S'spaete_Filme/328_TotalRecall_1990_DVD/'
p2551
sg13
I01
sg14
Nsg15
S'//130.60.131.134/studi/Filme/spaete_Filme/328_TotalRecall_1990_DVD\\328_1_1_TotalRecall_1990_DVD_ELAN.eaf'
p2552
sg17
I00
sba(i__main__
Movie
p2553
(dp2554
g3
S'BladeRunner'
p2555
sg5
S'//130.60.131.134/studi/Filme/spaete_Filme/329_Blade_Runner_1982/'
p2556
sg7
(lp2557
S'//130.60.131.134/studi/Filme/spaete_Filme/329_Blade_Runner_1982\\329_1_1_BladeRunner_1982_DVD_ELAN_export2.txt'
p2558
asg9
(lp2559
I329
aI1
aI1
asg11
S'spaete_Filme/329_Blade_Runner_1982/'
p2560
sg13
I01
sg14
Nsg15
S'//130.60.131.134/studi/Filme/spaete_Filme/329_Blade_Runner_1982\\329_1_1_BladeRunner_1982_DVD_ELAN.eaf'
p2561
sg17
I00
sba(i__main__
Movie
p2562
(dp2563
g3
S'CriaCuervos'
p2564
sg5
S'//130.60.131.134/studi/Filme/spaete_Filme/335_Cria_Cuervos_1976/'
p2565
sg7
(lp2566
sg9
(lp2567
I335
aI1
aI1
asg11
S'spaete_Filme/335_Cria_Cuervos_1976/'
p2568
sg13
I01
sg14
Nsg15
S'//130.60.131.134/studi/Filme/spaete_Filme/335_Cria_Cuervos_1976\\335_1_1_CriaCuervos_1976_DVD.eaf'
p2569
sg17
I00
sba(i__main__
Movie
p2570
(dp2571
g3
S"L'uccelloDallePiumeDiCristallo"
p2572
sg5
S"//130.60.131.134/studi/Filme/spaete_Filme/3369_L'uccello_Dalle_Piume_Di_Cristallo_1970/"
p2573
sg7
(lp2574
S"//130.60.131.134/studi/Filme/spaete_Filme/3369_L'uccello_Dalle_Piume_Di_Cristallo_1970\\3369_1_1_L'uccelloDallePiumeDiCristallo_1970_DVD_ELAN_export.txt"
p2575
asg9
(lp2576
I3369
aI1
aI1
asg11
S"spaete_Filme/3369_L'uccello_Dalle_Piume_Di_Cristallo_1970/"
p2577
sg13
I01
sg14
Nsg15
S"//130.60.131.134/studi/Filme/spaete_Filme/3369_L'uccello_Dalle_Piume_Di_Cristallo_1970\\3369_1_1_L'uccelloDallePiumeDiCristallo_1970_DVD_ELAN.eaf"
p2578
sg17
I00
sba(i__main__
Movie
p2579
(dp2580
g3
S'Matador'
p2581
sg5
S'//130.60.131.134/studi/Filme/spaete_Filme/336_Matador_1986/'
p2582
sg7
(lp2583
S'//130.60.131.134/studi/Filme/spaete_Filme/336_Matador_1986\\336_1_1_Matador_1986_ELAN.txt'
p2584
asg9
(lp2585
I336
aI1
aI1
asg11
S'spaete_Filme/336_Matador_1986/'
p2586
sg13
I01
sg14
Nsg15
S'//130.60.131.134/studi/Filme/spaete_Filme/336_Matador_1986\\ELAN Projektdatei\\336_1_1_Matador_1986_ELAN.eaf'
p2587
sg17
I00
sba(i__main__
Movie
p2588
(dp2589
g3
S'MujeresAlBorde'
p2590
sg5
S'//130.60.131.134/studi/Filme/spaete_Filme/337_Mujeres_Al_Borde_De_Un_Ataque_De_Nervios_1988/'
p2591
sg7
(lp2592
sg9
(lp2593
I337
aI1
aI1
asg11
S'spaete_Filme/337_Mujeres_Al_Borde_De_Un_Ataque_De_Nervios_1988/'
p2594
sg13
I01
sg14
Nsg15
S'//130.60.131.134/studi/Filme/spaete_Filme/337_Mujeres_Al_Borde_De_Un_Ataque_De_Nervios_1988\\337_1_1_MujeresAlBorde_1988_DVD_ELAN.eaf'
p2595
sg17
I00
sba(i__main__
Movie
p2596
(dp2597
g3
S'Hecate'
p2598
sg5
S'//130.60.131.134/studi/Filme/spaete_Filme/3387_Hecate_1982/'
p2599
sg7
(lp2600
S'//130.60.131.134/studi/Filme/spaete_Filme/3387_Hecate_1982\\3387_1_1_Hecate_1982_DVD_ELAN_export.txt'
p2601
asg9
(lp2602
I3387
aI1
aI1
asg11
S'spaete_Filme/3387_Hecate_1982/'
p2603
sg13
I01
sg14
Nsg15
S'//130.60.131.134/studi/Filme/spaete_Filme/3387_Hecate_1982\\3387_1_1_Hecate_1982_DVD_ELAN.eaf'
p2604
sg17
I00
sba(i__main__
Movie
p2605
(dp2606
g3
S'TaxiDriver'
p2607
sg5
S'//130.60.131.134/studi/Filme/spaete_Filme/338_TaxiDriver_1978/'
p2608
sg7
(lp2609
S'//130.60.131.134/studi/Filme/spaete_Filme/338_TaxiDriver_1978\\338_1_1_TaxiDriver_1976_DVD_ELAN.txt'
p2610
asg9
(lp2611
I338
aI1
aI1
asg11
S'spaete_Filme/338_TaxiDriver_1978/'
p2612
sg13
I00
sg14
Nsg15
S'//130.60.131.134/studi/Filme/spaete_Filme/338_TaxiDriver_1978\\338_1_1_TaxiDriver_1976_DVD_ELAN.eaf'
p2613
sg17
I00
sba(i__main__
Movie
p2614
(dp2615
g3
S'Shurayukihime'
p2616
sg5
S'//130.60.131.134/studi/Filme/spaete_Filme/3478_Shurayukihime_1973/'
p2617
sg7
(lp2618
S'//130.60.131.134/studi/Filme/spaete_Filme/3478_Shurayukihime_1973\\3478_1_1_Shurayukihime_1973_DVD_ELAN_export.txt'
p2619
asg9
(lp2620
I3478
aI1
aI1
asg11
S'spaete_Filme/3478_Shurayukihime_1973/'
p2621
sg13
I01
sg14
Nsg15
S'//130.60.131.134/studi/Filme/spaete_Filme/3478_Shurayukihime_1973\\3478_1_1_Shurayukihime_1973_DVD_ELAN.eaf'
p2622
sg17
I00
sba(i__main__
Movie
p2623
(dp2624
g3
S'DaHongDengLongGaoGaoGua'
p2625
sg5
S'//130.60.131.134/studi/Filme/spaete_Filme/3480_Da_HongDengLong_GaoGao_Gua_1991/'
p2626
sg7
(lp2627
S'//130.60.131.134/studi/Filme/spaete_Filme/3480_Da_HongDengLong_GaoGao_Gua_1991\\3480_1_1_DaHongDengLongGaoGaoGua_1991_DVD_ELAN_export.txt'
p2628
asg9
(lp2629
I3480
aI1
aI1
asg11
S'spaete_Filme/3480_Da_HongDengLong_GaoGao_Gua_1991/'
p2630
sg13
I01
sg14
Nsg15
S'//130.60.131.134/studi/Filme/spaete_Filme/3480_Da_HongDengLong_GaoGao_Gua_1991\\3480_1_1_DaHongDengLongGaoGaoGua_1991_DVD_ELAN.eaf'
p2631
sg17
I00
sba(i__main__
Movie
p2632
(dp2633
g3
S'Dyrygent'
p2634
sg5
S'//130.60.131.134/studi/Filme/spaete_Filme/3484_Dyrygent_1979/'
p2635
sg7
(lp2636
S'//130.60.131.134/studi/Filme/spaete_Filme/3484_Dyrygent_1979\\3484_1_1_Dyrygent_1980_DVD_ELAN_export.txt'
p2637
aS'//130.60.131.134/studi/Filme/spaete_Filme/3484_Dyrygent_1979\\3484_1_1_Dyrygent_1980_DVD_ELAN_export.csv'
p2638
aS'//130.60.131.134/studi/Filme/spaete_Filme/3484_Dyrygent_1979\\3484_1_1_Dyrygent_1980_DVD_FCT_snapchots.csv'
p2639
aS'//130.60.131.134/studi/Filme/spaete_Filme/3484_Dyrygent_1979\\3484_1_1_Dyrygent_1980_DVD_FCT_temp.csv'
p2640
asg9
(lp2641
I3484
aI1
aI1
asg11
S'spaete_Filme/3484_Dyrygent_1979/'
p2642
sg13
I01
sg14
Nsg15
S'//130.60.131.134/studi/Filme/spaete_Filme/3484_Dyrygent_1979\\3484_1_1_Dyrygent_1980_DVD_ELAN.eaf'
p2643
sg17
I00
sba(i__main__
Movie
p2644
(dp2645
g3
S'HongGaoliang'
p2646
sg5
S'//130.60.131.134/studi/Filme/spaete_Filme/3488_Hong_Gaoliang_1987/'
p2647
sg7
(lp2648
S'//130.60.131.134/studi/Filme/spaete_Filme/3488_Hong_Gaoliang_1987\\3488_1_1_HongGaoliang_1987_DVD_ELAN.txt'
p2649
asg9
(lp2650
I3488
aI1
aI1
asg11
S'spaete_Filme/3488_Hong_Gaoliang_1987/'
p2651
sg13
I00
sg14
Nsg15
S'//130.60.131.134/studi/Filme/spaete_Filme/3488_Hong_Gaoliang_1987\\ELAN Projektdatei\\3488_1_1_HongGaoliang_1987_DVD_ELAN.eaf'
p2652
sg17
I00
sba(i__main__
Movie
p2653
(dp2654
g3
S'RosemarysBaby'
p2655
sg5
S'//130.60.131.134/studi/Filme/spaete_Filme/348_Rosemarys_Baby_1968/'
p2656
sg7
(lp2657
S'//130.60.131.134/studi/Filme/spaete_Filme/348_Rosemarys_Baby_1968\\348_1_1_RosemarysBaby_1968_DVD_ELAN_Export1.txt'
p2658
asg9
(lp2659
I348
aI1
aI1
asg11
S'spaete_Filme/348_Rosemarys_Baby_1968/'
p2660
sg13
I01
sg14
Nsg15
S'//130.60.131.134/studi/Filme/spaete_Filme/348_Rosemarys_Baby_1968\\348_1_1_RosemarysBaby_1968_DVD_ELAN.eaf'
p2661
sg17
I00
sba(i__main__
Movie
p2662
(dp2663
g3
S'Indiscreet'
p2664
sg5
S'//130.60.131.134/studi/Filme/spaete_Filme/3491_Indiscreet_1957/'
p2665
sg7
(lp2666
S'//130.60.131.134/studi/Filme/spaete_Filme/3491_Indiscreet_1957\\3491_1_1_Indiscreet_1957_DVD_ELAN_export.txt'
p2667
asg9
(lp2668
I3491
aI1
aI1
asg11
S'spaete_Filme/3491_Indiscreet_1957/'
p2669
sg13
I00
sg14
Nsg15
S'//130.60.131.134/studi/Filme/spaete_Filme/3491_Indiscreet_1957\\3491_1_1_Indiscreet_1957_DVD_ELAN.eaf'
p2670
sg17
I00
sba(i__main__
Movie
p2671
(dp2672
g3
S'Wojna'
p2673
sg5
S'//130.60.131.134/studi/Filme/spaete_Filme/3492_Wojna_Swjatow_1981/'
p2674
sg7
(lp2675
S'//130.60.131.134/studi/Filme/spaete_Filme/3492_Wojna_Swjatow_1981\\3492_1_1_Wojna_Swjatow_1981_DVD_ELAN_export.txt'
p2676
asg9
(lp2677
I3492
aI1
aI1
asg11
S'spaete_Filme/3492_Wojna_Swjatow_1981/'
p2678
sg13
I01
sg14
Nsg15
S'//130.60.131.134/studi/Filme/spaete_Filme/3492_Wojna_Swjatow_1981\\3492_1_1_Wojna_Swjatow_1981_DVD_ELAN.eaf'
p2679
sg17
I00
sba(i__main__
Movie
p2680
(dp2681
g3
S'LaDecimaVittima'
p2682
sg5
S'//130.60.131.134/studi/Filme/spaete_Filme/3493_La_Decima_Vittima_1965/'
p2683
sg7
(lp2684
S'//130.60.131.134/studi/Filme/spaete_Filme/3493_La_Decima_Vittima_1965\\3493_1_1_LaDecimaVittima_1965_DVD_ELAN_export.txt'
p2685
asg9
(lp2686
I3493
aI1
aI1
asg11
S'spaete_Filme/3493_La_Decima_Vittima_1965/'
p2687
sg13
I01
sg14
Nsg15
S'//130.60.131.134/studi/Filme/spaete_Filme/3493_La_Decima_Vittima_1965\\3493_1_1_LaDecimaVittima_1965_DVD_ELAN.eaf'
p2688
sg17
I00
sba(i__main__
Movie
p2689
(dp2690
g3
S'Cyclo'
p2691
sg5
S'//130.60.131.134/studi/Filme/spaete_Filme/365_Cyclo_1995/'
p2692
sg7
(lp2693
S'//130.60.131.134/studi/Filme/spaete_Filme/365_Cyclo_1995\\365_1_1_Cyclo_1995_DVD_ELAN.txt'
p2694
asg9
(lp2695
I365
aI1
aI1
asg11
S'spaete_Filme/365_Cyclo_1995/'
p2696
sg13
I01
sg14
Nsg15
S'//130.60.131.134/studi/Filme/spaete_Filme/365_Cyclo_1995\\ELAN Projektdatei\\365_1_1_Cyclo_1995_DVD_ELAN.eaf'
p2697
sg17
I00
sba(i__main__
Movie
p2698
(dp2699
g3
S'Solayaris'
p2700
sg5
S'//130.60.131.134/studi/Filme/spaete_Filme/366_Solayaris_1972/'
p2701
sg7
(lp2702
S'//130.60.131.134/studi/Filme/spaete_Filme/366_Solayaris_1972\\366_1_1_Solayaris_1972_DVD_ELAN_export.txt'
p2703
asg9
(lp2704
I366
aI1
aI1
asg11
S'spaete_Filme/366_Solayaris_1972/'
p2705
sg13
I01
sg14
Nsg15
S'//130.60.131.134/studi/Filme/spaete_Filme/366_Solayaris_1972\\366_1_1_Solayaris_1972_DVD_ELAN.eaf'
p2706
sg17
I00
sba(i__main__
Movie
p2707
(dp2708
g3
S'DeepEnd'
p2709
sg5
S'//130.60.131.134/studi/Filme/spaete_Filme/367_Deep_End_1970/'
p2710
sg7
(lp2711
S'//130.60.131.134/studi/Filme/spaete_Filme/367_Deep_End_1970\\367_1_1_DeepEnd_1970_DVD_ELAN_Export.txt'
p2712
asg9
(lp2713
I367
aI1
aI1
asg11
S'spaete_Filme/367_Deep_End_1970/'
p2714
sg13
I01
sg14
Nsg15
S'//130.60.131.134/studi/Filme/spaete_Filme/367_Deep_End_1970\\367_1_1_DeepEnd_1970_DVD_ELAN.eaf'
p2715
sg17
I00
sba(i__main__
Movie
p2716
(dp2717
g3
S'TheTrip'
p2718
sg5
S'//130.60.131.134/studi/Filme/spaete_Filme/373_TheTrip_1967/'
p2719
sg7
(lp2720
sg9
(lp2721
I373
aI1
aI1
asg11
S'spaete_Filme/373_TheTrip_1967/'
p2722
sg13
I01
sg14
Nsg15
S'//130.60.131.134/studi/Filme/spaete_Filme/373_TheTrip_1967\\373_1_1_TheTrip_1967_ELAN.eaf'
p2723
sg17
I00
sba(i__main__
Movie
p2724
(dp2725
g3
S'Fahrenheit451'
p2726
sg5
S'//130.60.131.134/studi/Filme/spaete_Filme/374_Fahrenheit_451_1966/'
p2727
sg7
(lp2728
S'//130.60.131.134/studi/Filme/spaete_Filme/374_Fahrenheit_451_1966\\374_1_1_Fahrenheit451_1966_DVD_ELAN_Export.txt'
p2729
asg9
(lp2730
I374
aI1
aI1
asg11
S'spaete_Filme/374_Fahrenheit_451_1966/'
p2731
sg13
I01
sg14
Nsg15
S'//130.60.131.134/studi/Filme/spaete_Filme/374_Fahrenheit_451_1966\\374_1_1_Fahrenheit451_1966_DVD_ELAN.eaf'
p2732
sg17
I00
sba(i__main__
Movie
p2733
(dp2734
g3
S'IlConformista'
p2735
sg5
S'//130.60.131.134/studi/Filme/spaete_Filme/403_Il_Conformista_1970/'
p2736
sg7
(lp2737
S'//130.60.131.134/studi/Filme/spaete_Filme/403_Il_Conformista_1970\\403_1_1_IlConformista_1970_DVD_ELAN_Export.txt'
p2738
asg9
(lp2739
I403
aI1
aI1
asg11
S'spaete_Filme/403_Il_Conformista_1970/'
p2740
sg13
I01
sg14
Nsg15
S'//130.60.131.134/studi/Filme/spaete_Filme/403_Il_Conformista_1970\\403_1_1_IlConformista_1970_DVD_ELAN.eaf'
p2741
sg17
I00
sba(i__main__
Movie
p2742
(dp2743
g3
S'HalluciantionsConcertoMecaniquepourlaFolie'
p2744
sg5
S'//130.60.131.134/studi/Filme/spaete_Filme/415_HallucinationsConcerto_1963/'
p2745
sg7
(lp2746
sg9
(lp2747
I415
aI1
aI1
asg11
S'spaete_Filme/415_HallucinationsConcerto_1963/'
p2748
sg13
I00
sg14
Nsg15
S'//130.60.131.134/studi/Filme/spaete_Filme/415_HallucinationsConcerto_1963\\415_1_1_HalluciantionsConcertoMecaniquepourlaFolie_1963_Medfilm_ELAN.eaf'
p2749
sg17
I00
sba(i__main__
Movie
p2750
(dp2751
g3
S'ErnstThaelmannSohnSeinerKlasse'
p2752
sg5
S'//130.60.131.134/studi/Filme/spaete_Filme/418_Ernst_Thaelmann_Sohn_seiner_Klasse_1954/'
p2753
sg7
(lp2754
sg9
(lp2755
I418
aI1
aI1
asg11
S'spaete_Filme/418_Ernst_Thaelmann_Sohn_seiner_Klasse_1954/'
p2756
sg13
I01
sg14
Nsg15
S'//130.60.131.134/studi/Filme/spaete_Filme/418_Ernst_Thaelmann_Sohn_seiner_Klasse_1954\\418_1_1_ErnstThaelmannSohnSeinerKlasse_1954_DVD_ELAN.eaf'
p2757
sg17
I00
sba(i__main__
Movie
p2758
(dp2759
g3
S'BlowUp'
p2760
sg5
S'//130.60.131.134/studi/Filme/spaete_Filme/432_Blow_Up_1966/'
p2761
sg7
(lp2762
S'//130.60.131.134/studi/Filme/spaete_Filme/432_Blow_Up_1966\\432_1_1_BlowUp_1966_DVD_ELAN_Export2.txt'
p2763
asg9
(lp2764
I432
aI1
aI1
asg11
S'spaete_Filme/432_Blow_Up_1966/'
p2765
sg13
I01
sg14
Nsg15
S'//130.60.131.134/studi/Filme/spaete_Filme/432_Blow_Up_1966\\432_1_1_BlowUp_1966_DVD_ELAN.eaf'
p2766
sg17
I00
sba(i__main__
Movie
p2767
(dp2768
g3
S'Alien'
p2769
sg5
S'//130.60.131.134/studi/Filme/spaete_Filme/436_Alien_1979/'
p2770
sg7
(lp2771
S'//130.60.131.134/studi/Filme/spaete_Filme/436_Alien_1979\\436_1_1_Alien_1979_DVD_ELAN_Export.txt'
p2772
asg9
(lp2773
I436
aI1
aI1
asg11
S'spaete_Filme/436_Alien_1979/'
p2774
sg13
I01
sg14
Nsg15
S'//130.60.131.134/studi/Filme/spaete_Filme/436_Alien_1979\\436_1_1_Alien_1979_DVD_ELAN.eaf'
p2775
sg17
I00
sba(i__main__
Movie
p2776
(dp2777
g3
S'RebelWithoutACause'
p2778
sg5
S'//130.60.131.134/studi/Filme/spaete_Filme/437_Rebel_Without_A_Cause_1955/'
p2779
sg7
(lp2780
S'//130.60.131.134/studi/Filme/spaete_Filme/437_Rebel_Without_A_Cause_1955\\437_1_1_RebelWithoutACause_1955_DVD_ELAN_2_export.txt'
p2781
asg9
(lp2782
I437
aI1
aI1
asg11
S'spaete_Filme/437_Rebel_Without_A_Cause_1955/'
p2783
sg13
I01
sg14
Nsg15
S'//130.60.131.134/studi/Filme/spaete_Filme/437_Rebel_Without_A_Cause_1955\\437_1_1_RebelWithoutACause_1955_DVD_ELAN_2.eaf'
p2784
sg17
I00
sba(i__main__
Movie
p2785
(dp2786
g3
S'LoverComeBack'
p2787
sg5
S'//130.60.131.134/studi/Filme/spaete_Filme/4_Lover_Come_Back_1961/'
p2788
sg7
(lp2789
S'//130.60.131.134/studi/Filme/spaete_Filme/4_Lover_Come_Back_1961\\4_1_1_Lover_Come_Back_1961_DVD_ELAN_export.txt'
p2790
asg9
(lp2791
I4
aI1
aI1
asg11
S'spaete_Filme/4_Lover_Come_Back_1961/'
p2792
sg13
I01
sg14
Nsg15
S'//130.60.131.134/studi/Filme/spaete_Filme/4_Lover_Come_Back_1961\\4_1_1_LoverComeBack_1961_DVD_ELAN.eaf'
p2793
sg17
I00
sba(i__main__
Movie
p2794
(dp2795
g3
S'Gigi'
p2796
sg5
S'//130.60.131.134/studi/Filme/spaete_Filme/504_Gigi_1958/'
p2797
sg7
(lp2798
S'//130.60.131.134/studi/Filme/spaete_Filme/504_Gigi_1958\\504_1_1_Gigi_1958_DVD_ELAN.txt'
p2799
asg9
(lp2800
I504
aI1
aI1
asg11
S'spaete_Filme/504_Gigi_1958/'
p2801
sg13
I00
sg14
Nsg15
S'//130.60.131.134/studi/Filme/spaete_Filme/504_Gigi_1958\\ELAN Projektdatei\\504_1_1_Gigi_1958_DVD_ELAN.eaf'
p2802
sg17
I00
sba(i__main__
Movie
p2803
(dp2804
g3
S'WestSideStory'
p2805
sg5
S'//130.60.131.134/studi/Filme/spaete_Filme/520_West_Side_Story_1961/'
p2806
sg7
(lp2807
S'//130.60.131.134/studi/Filme/spaete_Filme/520_West_Side_Story_1961\\520_1_1_WestSideStory_1961_ELAN.txt'
p2808
asg9
(lp2809
I520
aI1
aI1
asg11
S'spaete_Filme/520_West_Side_Story_1961/'
p2810
sg13
I01
sg14
Nsg15
S'//130.60.131.134/studi/Filme/spaete_Filme/520_West_Side_Story_1961\\ELAN Projektdatei\\520_1_1_WestSideStory_1961_DVD_ELAN.eaf'
p2811
sg17
I00
sba(i__main__
Movie
p2812
(dp2813
g3
S'LawrenceOfArabia'
p2814
sg5
S'//130.60.131.134/studi/Filme/spaete_Filme/523_Lawrence_of_Arabia_1962/'
p2815
sg7
(lp2816
S'//130.60.131.134/studi/Filme/spaete_Filme/523_Lawrence_of_Arabia_1962\\523_1_1_LawrenceOfArabia_1962_Bluray_ELAN_export.txt'
p2817
asg9
(lp2818
I523
aI1
aI1
asg11
S'spaete_Filme/523_Lawrence_of_Arabia_1962/'
p2819
sg13
I01
sg14
Nsg15
S'//130.60.131.134/studi/Filme/spaete_Filme/523_Lawrence_of_Arabia_1962\\523_1_1_LawrenceOfArabia_1962_Bluray_ELAN.eaf'
p2820
sg17
I00
sba(i__main__
Movie
p2821
(dp2822
g3
S'MaryPoppins'
p2823
sg5
S'//130.60.131.134/studi/Filme/spaete_Filme/533_Mary_Poppins_1964/'
p2824
sg7
(lp2825
S'//130.60.131.134/studi/Filme/spaete_Filme/533_Mary_Poppins_1964\\533_1_1_MaryPoppins_1964_DVD_ELAN.txt'
p2826
asg9
(lp2827
I533
aI1
aI1
asg11
S'spaete_Filme/533_Mary_Poppins_1964/'
p2828
sg13
I00
sg14
Nsg15
S'//130.60.131.134/studi/Filme/spaete_Filme/533_Mary_Poppins_1964\\ELAN Projektdatei\\533_1_1_MaryPoppins_1964_DVD_ELAN.eaf'
p2829
sg17
I00
sba(i__main__
Movie
p2830
(dp2831
g3
S'FantasticVoyage'
p2832
sg5
S'//130.60.131.134/studi/Filme/spaete_Filme/541_Fantastic_Voyage_1966/'
p2833
sg7
(lp2834
S'//130.60.131.134/studi/Filme/spaete_Filme/541_Fantastic_Voyage_1966\\541_1_1_FantasticVoyage_1966_DVD_ELAN_export.txt'
p2835
asg9
(lp2836
I541
aI1
aI1
asg11
S'spaete_Filme/541_Fantastic_Voyage_1966/'
p2837
sg13
I01
sg14
Nsg15
S'//130.60.131.134/studi/Filme/spaete_Filme/541_Fantastic_Voyage_1966\\541_1_1_FantasticVoyage_1966_DVD_ELAN.eaf'
p2838
sg17
I00
sba(i__main__
Movie
p2839
(dp2840
g3
S'Goldfinger'
p2841
sg5
S'//130.60.131.134/studi/Filme/spaete_Filme/629_Goldfinger_1964/'
p2842
sg7
(lp2843
S'//130.60.131.134/studi/Filme/spaete_Filme/629_Goldfinger_1964\\629_Goldfinger_1964_DVD_ELAN_Export.txt'
p2844
asg9
(lp2845
I629
aI1
aI1
asg11
S'spaete_Filme/629_Goldfinger_1964/'
p2846
sg13
I01
sg14
Nsg15
S'//130.60.131.134/studi/Filme/spaete_Filme/629_Goldfinger_1964\\629_1_1_Goldfinger_1964_DVD_ELAN.eaf'
p2847
sg17
I00
sba(i__main__
Movie
p2848
(dp2849
g3
S'PierrotLeFou'
p2850
sg5
S'//130.60.131.134/studi/Filme/spaete_Filme/69_Pierrot_le_Fou_1965/'
p2851
sg7
(lp2852
S'//130.60.131.134/studi/Filme/spaete_Filme/69_Pierrot_le_Fou_1965\\69_PierrotLeFou_1965_DVD_ELAN_BF.txt'
p2853
asg9
(lp2854
I69
aI1
aI1
asg11
S'spaete_Filme/69_Pierrot_le_Fou_1965/'
p2855
sg13
I00
sg14
Nsg15
S'//130.60.131.134/studi/Filme/spaete_Filme/69_Pierrot_le_Fou_1965\\69_1_1_PierrotLeFou_1965_DVD_ELAN_BF_korr.eaf'
p2856
sg17
I00
sba(i__main__
Movie
p2857
(dp2858
g3
S'LolaMontes'
p2859
sg5
S'//130.60.131.134/studi/Filme/spaete_Filme/70_Lola_Montes_1955/'
p2860
sg7
(lp2861
S'//130.60.131.134/studi/Filme/spaete_Filme/70_Lola_Montes_1955\\70_1_1_LolaMontes_1955_DVD_ELAN_Export.txt'
p2862
asg9
(lp2863
I70
aI1
aI1
asg11
S'spaete_Filme/70_Lola_Montes_1955/'
p2864
sg13
I01
sg14
Nsg15
S'//130.60.131.134/studi/Filme/spaete_Filme/70_Lola_Montes_1955\\70_1_1_LolaMontes_1955_DVD_ELAN.eaf'
p2865
sg17
I00
sba(i__main__
Movie
p2866
(dp2867
g3
S'Higanbana'
p2868
sg5
S'//130.60.131.134/studi/Filme/spaete_Filme/73_Higanbana_1958/'
p2869
sg7
(lp2870
S'//130.60.131.134/studi/Filme/spaete_Filme/73_Higanbana_1958\\73_1_1_Higanbana_1958_DVD_ELAN.txt'
p2871
asg9
(lp2872
I73
aI1
aI1
asg11
S'spaete_Filme/73_Higanbana_1958/'
p2873
sg13
I00
sg14
Nsg15
S'//130.60.131.134/studi/Filme/spaete_Filme/73_Higanbana_1958\\ELAN Projektdatei\\73_1_1_Higanbana_1958_DVD_ELAN.eaf'
p2874
sg17
I00
sba(i__main__
Movie
p2875
(dp2876
g3
S'Jaws'
p2877
sg5
S'//130.60.131.134/studi/Filme/spaete_Filme/750_Jaws_1975/'
p2878
sg7
(lp2879
S'//130.60.131.134/studi/Filme/spaete_Filme/750_Jaws_1975\\750_1_1_Jaws_1975_DVD_ELAN_export.txt'
p2880
asg9
(lp2881
I750
aI1
aI1
asg11
S'spaete_Filme/750_Jaws_1975/'
p2882
sg13
I01
sg14
Nsg15
S'//130.60.131.134/studi/Filme/spaete_Filme/750_Jaws_1975\\750_1_1_Jaws_1975_DVD_ELAN.eaf'
p2883
sg17
I00
sba(i__main__
Movie
p2884
(dp2885
g3
S'DasParfum'
p2886
sg5
S'//130.60.131.134/studi/Filme/spaete_Filme/766_DasParfum_2006/'
p2887
sg7
(lp2888
sg9
(lp2889
I766
aI1
aI1
asg11
S'spaete_Filme/766_DasParfum_2006/'
p2890
sg13
I01
sg14
Nsg15
S'//130.60.131.134/studi/Filme/spaete_Filme/766_DasParfum_2006\\766_1_1_DasParfum_2006_DVD_ELAN.eaf'
p2891
sg17
I00
sba(i__main__
Movie
p2892
(dp2893
g3
S'TheBoyWhoTurnedYellow'
p2894
sg5
S'//130.60.131.134/studi/Filme/spaete_Filme/811_TheBoyWhoTurnedYellow_1972/'
p2895
sg7
(lp2896
sg9
(lp2897
I811
aI1
aI1
asg11
S'spaete_Filme/811_TheBoyWhoTurnedYellow_1972/'
p2898
sg13
I01
sg14
Nsg15
S'//130.60.131.134/studi/Filme/spaete_Filme/811_TheBoyWhoTurnedYellow_1972\\811_1_1_TheBoyWhoTurnedYellow_1972_DVD_ELAN.eaf'
p2899
sg17
I00
sba(i__main__
Movie
p2900
(dp2901
g3
S'DieGeschichteVomKleinenMuck'
p2902
sg5
S'//130.60.131.134/studi/Filme/spaete_Filme/817_Die_Geschichte_vom_kleinen_Muck_1953/'
p2903
sg7
(lp2904
S'//130.60.131.134/studi/Filme/spaete_Filme/817_Die_Geschichte_vom_kleinen_Muck_1953\\ELAN_Projektdatei\\817_1_1_DieGeschichteVomKleinenMuck_1953_DVD_ELAN.txt'
p2905
aS'//130.60.131.134/studi/Filme/spaete_Filme/817_Die_Geschichte_vom_kleinen_Muck_1953\\ELAN_Projektdatei\\817_1_1_DieGeschichteVomKleinenMuck_1953_DVD_ELAN.csv'
p2906
asg9
(lp2907
I817
aI1
aI1
asg11
S'spaete_Filme/817_Die_Geschichte_vom_kleinen_Muck_1953/'
p2908
sg13
I01
sg14
Nsg15
S'//130.60.131.134/studi/Filme/spaete_Filme/817_Die_Geschichte_vom_kleinen_Muck_1953\\ELAN_Projektdatei\\817_1_1_DieGeschichteVomKleinenMuck_1953_DVD_ELAN.eaf'
p2909
sg17
I00
sba(i__main__
Movie
p2910
(dp2911
g3
S'DasWirtshausImSpessart'
p2912
sg5
S'//130.60.131.134/studi/Filme/spaete_Filme/820_Das_Wirtshaus_im_Spessart_1957/'
p2913
sg7
(lp2914
S'//130.60.131.134/studi/Filme/spaete_Filme/820_Das_Wirtshaus_im_Spessart_1957\\820_1_2_DasWirtshausImSpessart_1957_DVD_ELAN_export.txt'
p2915
asg9
(lp2916
I820
aI1
aI2
asg11
S'spaete_Filme/820_Das_Wirtshaus_im_Spessart_1957/'
p2917
sg13
I01
sg14
Nsg15
S'//130.60.131.134/studi/Filme/spaete_Filme/820_Das_Wirtshaus_im_Spessart_1957\\820_1_2_DasWirtshausImSpessart_1957_DVD_ELAN.eaf'
p2918
sg17
I00
sba(i__main__
Movie
p2919
(dp2920
g3
S'ITreVoltiDellaPaura'
p2921
sg5
S'//130.60.131.134/studi/Filme/spaete_Filme/825_I_tre_volti_della_paura_1963/'
p2922
sg7
(lp2923
S'//130.60.131.134/studi/Filme/spaete_Filme/825_I_tre_volti_della_paura_1963\\825_1_1_ITreVoltiDellaPaura_DVD_ELAN_BF.txt'
p2924
asg9
(lp2925
I825
aI1
aI1
asg11
S'spaete_Filme/825_I_tre_volti_della_paura_1963/'
p2926
sg13
I01
sg14
Nsg15
S'//130.60.131.134/studi/Filme/spaete_Filme/825_I_tre_volti_della_paura_1963\\825_1_1_ITreVoltiDellaPaura_DVD_ELAN_BF_Kopie.eaf'
p2927
sg17
I00
sba(i__main__
Movie
p2928
(dp2929
g3
S'IlBuonoIlBruttoIlCattivo'
p2930
sg5
S'//130.60.131.134/studi/Filme/spaete_Filme/826_Il_Buono_il_brutto_il_cattivo_1966/'
p2931
sg7
(lp2932
sg9
(lp2933
I826
aI1
aI1
asg11
S'spaete_Filme/826_Il_Buono_il_brutto_il_cattivo_1966/'
p2934
sg13
I00
sg14
Nsg15
S'//130.60.131.134/studi/Filme/spaete_Filme/826_Il_Buono_il_brutto_il_cattivo_1966\\826_1_1_IlBuonoIlBruttoIlCattivo_1966_DVD_ELAN.eaf'
p2935
sg17
I00
sba(i__main__
Movie
p2936
(dp2937
g3
S'DraughtmansContract'
p2938
sg5
S'//130.60.131.134/studi/Filme/spaete_Filme/831_Draughtmans_Contract_1982/'
p2939
sg7
(lp2940
S'//130.60.131.134/studi/Filme/spaete_Filme/831_Draughtmans_Contract_1982\\831_1_1_DraughtmansContract_1982_DVD_ELAN_export.txt'
p2941
asg9
(lp2942
I831
aI1
aI1
asg11
S'spaete_Filme/831_Draughtmans_Contract_1982/'
p2943
sg13
I01
sg14
Nsg15
S'//130.60.131.134/studi/Filme/spaete_Filme/831_Draughtmans_Contract_1982\\831_1_1_DraughtmansContract_1982_DVD_ELAN.eaf'
p2944
sg17
I00
sba(i__main__
Movie
p2945
(dp2946
g3
S'DerSchweigendeStern'
p2947
sg5
S'//130.60.131.134/studi/Filme/spaete_Filme/838_Der_schweigende_Stern_1960/'
p2948
sg7
(lp2949
sg9
(lp2950
I838
aI1
aI1
asg11
S'spaete_Filme/838_Der_schweigende_Stern_1960/'
p2951
sg13
I01
sg14
Nsg15
S'//130.60.131.134/studi/Filme/spaete_Filme/838_Der_schweigende_Stern_1960\\838_1_1_DerSchweigendeStern_1960_DVD_ELAN_Projektdatei\\838_1_1_DerSchweigendeStern_1960_ELAN.eaf'
p2952
sg17
I00
sba(i__main__
Movie
p2953
(dp2954
g3
S'ParisTexas'
p2955
sg5
S'//130.60.131.134/studi/Filme/spaete_Filme/852_Paris_Texas_1984/'
p2956
sg7
(lp2957
sg9
(lp2958
I852
aI1
aI1
asg11
S'spaete_Filme/852_Paris_Texas_1984/'
p2959
sg13
I00
sg14
Nsg15
S'//130.60.131.134/studi/Filme/spaete_Filme/852_Paris_Texas_1984\\852_1_1_ParisTexas_1984_DVD_ELAN_BF.eaf'
p2960
sg17
I00
sba(i__main__
Movie
p2961
(dp2962
g3
S'DieBlechtrommel'
p2963
sg5
S'//130.60.131.134/studi/Filme/spaete_Filme/876_Die_Blechtrommel_1979/'
p2964
sg7
(lp2965
S'//130.60.131.134/studi/Filme/spaete_Filme/876_Die_Blechtrommel_1979\\876_1_1_DieBlechtrommel_1979_DVD_ELAN.txt'
p2966
asg9
(lp2967
I876
aI1
aI1
asg11
S'spaete_Filme/876_Die_Blechtrommel_1979/'
p2968
sg13
I01
sg14
Nsg15
S'//130.60.131.134/studi/Filme/spaete_Filme/876_Die_Blechtrommel_1979\\ELAN Projektdatei\\876_1_1_DieBlechtrommel_1979_DVD_ELAN.eaf'
p2969
sg17
I00
sba(i__main__
Movie
p2970
(dp2971
g3
S'HaroldAndMaude'
p2972
sg5
S'//130.60.131.134/studi/Filme/spaete_Filme/879_Harold_and_Maude_1971/'
p2973
sg7
(lp2974
S'//130.60.131.134/studi/Filme/spaete_Filme/879_Harold_and_Maude_1971\\879_1_1_HaroldAndMaude_1971_DVD_ELAN_export.txt'
p2975
asg9
(lp2976
I879
aI1
aI1
asg11
S'spaete_Filme/879_Harold_and_Maude_1971/'
p2977
sg13
I01
sg14
Nsg15
S'//130.60.131.134/studi/Filme/spaete_Filme/879_Harold_and_Maude_1971\\879_1_1_HaroldAndMaude_1971_DVD_ELAN.eaf'
p2978
sg17
I00
sba(i__main__
Movie
p2979
(dp2980
g3
S'LaGrandeBouffe'
p2981
sg5
S'//130.60.131.134/studi/Filme/spaete_Filme/897_La_Grande_Bouffe_1973/'
p2982
sg7
(lp2983
sg9
(lp2984
I897
aI1
aI2
asg11
S'spaete_Filme/897_La_Grande_Bouffe_1973/'
p2985
sg13
I00
sg14
Nsg15
S'//130.60.131.134/studi/Filme/spaete_Filme/897_La_Grande_Bouffe_1973\\897_1_2_LaGrandeBouffe_1973_DVD_ELAN.eaf'
p2986
sg17
I00
sba(i__main__
Movie
p2987
(dp2988
g3
S'MorteAVenezia'
p2989
sg5
S'//130.60.131.134/studi/Filme/spaete_Filme/902_MorteAVenezia_1971/'
p2990
sg7
(lp2991
S'//130.60.131.134/studi/Filme/spaete_Filme/902_MorteAVenezia_1971\\902_1_1_MorteAVenezia_1971_DVD_ELAN_BF.txt'
p2992
asg9
(lp2993
I902
aI1
aI1
asg11
S'spaete_Filme/902_MorteAVenezia_1971/'
p2994
sg13
I00
sg14
Nsg15
S'//130.60.131.134/studi/Filme/spaete_Filme/902_MorteAVenezia_1971\\902_1_1_MorteAVenezia_1971_DVD_ELAN_BF.eaf'
p2995
sg17
I00
sba(i__main__
Movie
p2996
(dp2997
g3
S'TulitikkutehtaanTytto'
p2998
sg5
S'//130.60.131.134/studi/Filme/spaete_Filme/931_Tulitikkutehtaan_Tytto_1990/'
p2999
sg7
(lp3000
S'//130.60.131.134/studi/Filme/spaete_Filme/931_Tulitikkutehtaan_Tytto_1990\\1400_1_1_StarWarsV_1980_DVD_ELAN_export.txt'
p3001
aS'//130.60.131.134/studi/Filme/spaete_Filme/931_Tulitikkutehtaan_Tytto_1990\\931_1_1_TulitikkutehtaanTytto_1990_DVD_ELAN_export2.txt'
p3002
asg9
(lp3003
I931
aI1
aI1
asg11
S'spaete_Filme/931_Tulitikkutehtaan_Tytto_1990/'
p3004
sg13
I00
sg14
Nsg15
S'//130.60.131.134/studi/Filme/spaete_Filme/931_Tulitikkutehtaan_Tytto_1990\\931_1_1_TulitikkutehtaanTytto_1990_DVD_ELAN.eaf'
p3005
sg17
I00
sba(i__main__
Movie
p3006
(dp3007
g3
S'2001ASpaceOdyssey'
p3008
sg5
S'//130.60.131.134/studi/Filme/spaete_Filme/96_2001_A_Space_Odyssey_1968/'
p3009
sg7
(lp3010
S'//130.60.131.134/studi/Filme/spaete_Filme/96_2001_A_Space_Odyssey_1968\\96_1_1_2001ASpaceOdyssey_1968_DVD_ELAN_Export1.txt'
p3011
asg9
(lp3012
I96
aI1
aI1
asg11
S'spaete_Filme/96_2001_A_Space_Odyssey_1968/'
p3013
sg13
I01
sg14
Nsg15
S'//130.60.131.134/studi/Filme/spaete_Filme/96_2001_A_Space_Odyssey_1968\\96_1_1_2001ASpaceOdyssey_1968_DVD_ELAN.eaf'
p3014
sg17
I00
sba(i__main__
Movie
p3015
(dp3016
g3
S'Indiscreet'
p3017
sg5
S'//130.60.131.134/studi/Filme/spaete_Filme/spaete_Filme/'
p3018
sg7
(lp3019
S'//130.60.131.134/studi/Filme/spaete_Filme/spaete_Filme\\3491_1_1_Indiscreet_1957_DVD_ELAN_export.txt'
p3020
asg9
(lp3021
I3491
aI1
aI1
asg11
S'spaete_Filme/spaete_Filme/'
p3022
sg13
I00
sg14
Nsg15
S'//130.60.131.134/studi/Filme/spaete_Filme/spaete_Filme\\3491_1_1_Indiscreet_1957_DVD_ELAN.eaf'
p3023
sg17
I00
sba.