(lp0
(i__main__
Movie
p1
(dp2
S'movie_name'
p3
S'LaRevueDesRevues'
p4
sS'folder_path'
p5
S'//130.60.131.134/studi/Filme/frueher_Film/219_La_revue_des_revues_1927/'
p6
sS'segmentation_path'
p7
S'//130.60.131.134/fiwi_datenbank/SEGM/219_1_1_SEGM.txt'
p8
sS'filemaker_ID'
p9
(lp10
I219
aI1
aI1
asS'relative_path'
p11
S'frueher_Film/219_La_revue_des_revues_1927/'
p12
sS'has_sub_segmentation'
p13
I00
sS'shots'
p14
(lp15
(i__main__
Shot
p16
(dp17
S'segment_shot_id'
p18
S'1'
p19
sg3
S''
p20
sS'segment_id'
p21
I2
sg9
g10
sS'global_shot_id'
p22
I-1
sS'source_type'
p23
g20
sS'time'
p24
(I0
I0
I0
I0
tp25
sS'path'
p26
S'//130.60.131.134/fiwi_datenbank/SCR_SOURCE/Masterdatenbank alt Export Einzelbilder/FIWI/SCR/219_1_1/002/1/002_01.jpg'
p27
sS'movie_year'
p28
g20
sS'subsegment'
p29
g20
sS'has_subsegment'
p30
I00
sS'shot_id'
p31
I-1
sba(i__main__
Shot
p32
(dp33
g18
S'10'
p34
sg3
g20
sg21
I2
sg9
g10
sg22
I-1
sg23
g20
sg24
(I0
I0
I0
I0
tp35
sg26
S'//130.60.131.134/fiwi_datenbank/SCR_SOURCE/Masterdatenbank alt Export Einzelbilder/FIWI/SCR/219_1_1/002/10/002_10.jpg'
p36
sg28
g20
sg29
g20
sg30
I00
sg31
I-1
sba(i__main__
Shot
p37
(dp38
g18
S'2'
p39
sg3
g20
sg21
I2
sg9
g10
sg22
I-1
sg23
g20
sg24
(I0
I0
I0
I0
tp40
sg26
S'//130.60.131.134/fiwi_datenbank/SCR_SOURCE/Masterdatenbank alt Export Einzelbilder/FIWI/SCR/219_1_1/002/2/002_02.jpg'
p41
sg28
g20
sg29
g20
sg30
I00
sg31
I-1
sba(i__main__
Shot
p42
(dp43
g18
S'3'
p44
sg3
g20
sg21
I2
sg9
g10
sg22
I-1
sg23
g20
sg24
(I0
I0
I0
I0
tp45
sg26
S'//130.60.131.134/fiwi_datenbank/SCR_SOURCE/Masterdatenbank alt Export Einzelbilder/FIWI/SCR/219_1_1/002/3/002_03.jpg'
p46
sg28
g20
sg29
g20
sg30
I00
sg31
I-1
sba(i__main__
Shot
p47
(dp48
g18
S'4'
p49
sg3
g20
sg21
I2
sg9
g10
sg22
I-1
sg23
g20
sg24
(I0
I0
I0
I0
tp50
sg26
S'//130.60.131.134/fiwi_datenbank/SCR_SOURCE/Masterdatenbank alt Export Einzelbilder/FIWI/SCR/219_1_1/002/4/002_04.jpg'
p51
sg28
g20
sg29
g20
sg30
I00
sg31
I-1
sba(i__main__
Shot
p52
(dp53
g18
S'5'
p54
sg3
g20
sg21
I2
sg9
g10
sg22
I-1
sg23
g20
sg24
(I0
I0
I0
I0
tp55
sg26
S'//130.60.131.134/fiwi_datenbank/SCR_SOURCE/Masterdatenbank alt Export Einzelbilder/FIWI/SCR/219_1_1/002/5/002_05.jpg'
p56
sg28
g20
sg29
g20
sg30
I00
sg31
I-1
sba(i__main__
Shot
p57
(dp58
g18
S'6'
p59
sg3
g20
sg21
I2
sg9
g10
sg22
I-1
sg23
g20
sg24
(I0
I0
I0
I0
tp60
sg26
S'//130.60.131.134/fiwi_datenbank/SCR_SOURCE/Masterdatenbank alt Export Einzelbilder/FIWI/SCR/219_1_1/002/6/002_06.jpg'
p61
sg28
g20
sg29
g20
sg30
I00
sg31
I-1
sba(i__main__
Shot
p62
(dp63
g18
S'7'
p64
sg3
g20
sg21
I2
sg9
g10
sg22
I-1
sg23
g20
sg24
(I0
I0
I0
I0
tp65
sg26
S'//130.60.131.134/fiwi_datenbank/SCR_SOURCE/Masterdatenbank alt Export Einzelbilder/FIWI/SCR/219_1_1/002/7/002_07.jpg'
p66
sg28
g20
sg29
g20
sg30
I00
sg31
I-1
sba(i__main__
Shot
p67
(dp68
g18
S'8'
p69
sg3
g20
sg21
I2
sg9
g10
sg22
I-1
sg23
g20
sg24
(I0
I0
I0
I0
tp70
sg26
S'//130.60.131.134/fiwi_datenbank/SCR_SOURCE/Masterdatenbank alt Export Einzelbilder/FIWI/SCR/219_1_1/002/8/002_08.jpg'
p71
sg28
g20
sg29
g20
sg30
I00
sg31
I-1
sba(i__main__
Shot
p72
(dp73
g18
S'9'
p74
sg3
g20
sg21
I2
sg9
g10
sg22
I-1
sg23
g20
sg24
(I0
I0
I0
I0
tp75
sg26
S'//130.60.131.134/fiwi_datenbank/SCR_SOURCE/Masterdatenbank alt Export Einzelbilder/FIWI/SCR/219_1_1/002/9/002_09.jpg'
p76
sg28
g20
sg29
g20
sg30
I00
sg31
I-1
sba(i__main__
Shot
p77
(dp78
g18
S'1'
p79
sg3
g20
sg21
I3
sg9
g10
sg22
I-1
sg23
g20
sg24
(I0
I0
I0
I0
tp80
sg26
S'//130.60.131.134/fiwi_datenbank/SCR_SOURCE/Masterdatenbank alt Export Einzelbilder/FIWI/SCR/219_1_1/003/1/003_01.jpg'
p81
sg28
g20
sg29
g20
sg30
I00
sg31
I-1
sba(i__main__
Shot
p82
(dp83
g18
S'10'
p84
sg3
g20
sg21
I3
sg9
g10
sg22
I-1
sg23
g20
sg24
(I0
I0
I0
I0
tp85
sg26
S'//130.60.131.134/fiwi_datenbank/SCR_SOURCE/Masterdatenbank alt Export Einzelbilder/FIWI/SCR/219_1_1/003/10/003_10.jpg'
p86
sg28
g20
sg29
g20
sg30
I00
sg31
I-1
sba(i__main__
Shot
p87
(dp88
g18
S'11'
p89
sg3
g20
sg21
I3
sg9
g10
sg22
I-1
sg23
g20
sg24
(I0
I0
I0
I0
tp90
sg26
S'//130.60.131.134/fiwi_datenbank/SCR_SOURCE/Masterdatenbank alt Export Einzelbilder/FIWI/SCR/219_1_1/003/11/003_11.jpg'
p91
sg28
g20
sg29
g20
sg30
I00
sg31
I-1
sba(i__main__
Shot
p92
(dp93
g18
S'12'
p94
sg3
g20
sg21
I3
sg9
g10
sg22
I-1
sg23
g20
sg24
(I0
I0
I0
I0
tp95
sg26
S'//130.60.131.134/fiwi_datenbank/SCR_SOURCE/Masterdatenbank alt Export Einzelbilder/FIWI/SCR/219_1_1/003/12/003_12.jpg'
p96
sg28
g20
sg29
g20
sg30
I00
sg31
I-1
sba(i__main__
Shot
p97
(dp98
g18
S'13'
p99
sg3
g20
sg21
I3
sg9
g10
sg22
I-1
sg23
g20
sg24
(I0
I0
I0
I0
tp100
sg26
S'//130.60.131.134/fiwi_datenbank/SCR_SOURCE/Masterdatenbank alt Export Einzelbilder/FIWI/SCR/219_1_1/003/13/003_13.jpg'
p101
sg28
g20
sg29
g20
sg30
I00
sg31
I-1
sba(i__main__
Shot
p102
(dp103
g18
S'14'
p104
sg3
g20
sg21
I3
sg9
g10
sg22
I-1
sg23
g20
sg24
(I0
I0
I0
I0
tp105
sg26
S'//130.60.131.134/fiwi_datenbank/SCR_SOURCE/Masterdatenbank alt Export Einzelbilder/FIWI/SCR/219_1_1/003/14/003_14.jpg'
p106
sg28
g20
sg29
g20
sg30
I00
sg31
I-1
sba(i__main__
Shot
p107
(dp108
g18
S'2'
p109
sg3
g20
sg21
I3
sg9
g10
sg22
I-1
sg23
g20
sg24
(I0
I0
I0
I0
tp110
sg26
S'//130.60.131.134/fiwi_datenbank/SCR_SOURCE/Masterdatenbank alt Export Einzelbilder/FIWI/SCR/219_1_1/003/2/003_02.jpg'
p111
sg28
g20
sg29
g20
sg30
I00
sg31
I-1
sba(i__main__
Shot
p112
(dp113
g18
S'3'
p114
sg3
g20
sg21
I3
sg9
g10
sg22
I-1
sg23
g20
sg24
(I0
I0
I0
I0
tp115
sg26
S'//130.60.131.134/fiwi_datenbank/SCR_SOURCE/Masterdatenbank alt Export Einzelbilder/FIWI/SCR/219_1_1/003/3/003_03.jpg'
p116
sg28
g20
sg29
g20
sg30
I00
sg31
I-1
sba(i__main__
Shot
p117
(dp118
g18
S'4'
p119
sg3
g20
sg21
I3
sg9
g10
sg22
I-1
sg23
g20
sg24
(I0
I0
I0
I0
tp120
sg26
S'//130.60.131.134/fiwi_datenbank/SCR_SOURCE/Masterdatenbank alt Export Einzelbilder/FIWI/SCR/219_1_1/003/4/003_04.jpg'
p121
sg28
g20
sg29
g20
sg30
I00
sg31
I-1
sba(i__main__
Shot
p122
(dp123
g18
S'5'
p124
sg3
g20
sg21
I3
sg9
g10
sg22
I-1
sg23
g20
sg24
(I0
I0
I0
I0
tp125
sg26
S'//130.60.131.134/fiwi_datenbank/SCR_SOURCE/Masterdatenbank alt Export Einzelbilder/FIWI/SCR/219_1_1/003/5/003_05.jpg'
p126
sg28
g20
sg29
g20
sg30
I00
sg31
I-1
sba(i__main__
Shot
p127
(dp128
g18
S'6'
p129
sg3
g20
sg21
I3
sg9
g10
sg22
I-1
sg23
g20
sg24
(I0
I0
I0
I0
tp130
sg26
S'//130.60.131.134/fiwi_datenbank/SCR_SOURCE/Masterdatenbank alt Export Einzelbilder/FIWI/SCR/219_1_1/003/6/003_06.jpg'
p131
sg28
g20
sg29
g20
sg30
I00
sg31
I-1
sba(i__main__
Shot
p132
(dp133
g18
S'7'
p134
sg3
g20
sg21
I3
sg9
g10
sg22
I-1
sg23
g20
sg24
(I0
I0
I0
I0
tp135
sg26
S'//130.60.131.134/fiwi_datenbank/SCR_SOURCE/Masterdatenbank alt Export Einzelbilder/FIWI/SCR/219_1_1/003/7/003_07.jpg'
p136
sg28
g20
sg29
g20
sg30
I00
sg31
I-1
sba(i__main__
Shot
p137
(dp138
g18
S'8'
p139
sg3
g20
sg21
I3
sg9
g10
sg22
I-1
sg23
g20
sg24
(I0
I0
I0
I0
tp140
sg26
S'//130.60.131.134/fiwi_datenbank/SCR_SOURCE/Masterdatenbank alt Export Einzelbilder/FIWI/SCR/219_1_1/003/8/003_08.jpg'
p141
sg28
g20
sg29
g20
sg30
I00
sg31
I-1
sba(i__main__
Shot
p142
(dp143
g18
S'9'
p144
sg3
g20
sg21
I3
sg9
g10
sg22
I-1
sg23
g20
sg24
(I0
I0
I0
I0
tp145
sg26
S'//130.60.131.134/fiwi_datenbank/SCR_SOURCE/Masterdatenbank alt Export Einzelbilder/FIWI/SCR/219_1_1/003/9/003_09.jpg'
p146
sg28
g20
sg29
g20
sg30
I00
sg31
I-1
sba(i__main__
Shot
p147
(dp148
g18
S'1'
p149
sg3
g20
sg21
I4
sg9
g10
sg22
I-1
sg23
g20
sg24
(I0
I0
I0
I0
tp150
sg26
S'//130.60.131.134/fiwi_datenbank/SCR_SOURCE/Masterdatenbank alt Export Einzelbilder/FIWI/SCR/219_1_1/004/1/004_01.jpg'
p151
sg28
g20
sg29
g20
sg30
I00
sg31
I-1
sba(i__main__
Shot
p152
(dp153
g18
S'10'
p154
sg3
g20
sg21
I4
sg9
g10
sg22
I-1
sg23
g20
sg24
(I0
I0
I0
I0
tp155
sg26
S'//130.60.131.134/fiwi_datenbank/SCR_SOURCE/Masterdatenbank alt Export Einzelbilder/FIWI/SCR/219_1_1/004/10/004_10.jpg'
p156
sg28
g20
sg29
g20
sg30
I00
sg31
I-1
sba(i__main__
Shot
p157
(dp158
g18
S'11'
p159
sg3
g20
sg21
I4
sg9
g10
sg22
I-1
sg23
g20
sg24
(I0
I0
I0
I0
tp160
sg26
S'//130.60.131.134/fiwi_datenbank/SCR_SOURCE/Masterdatenbank alt Export Einzelbilder/FIWI/SCR/219_1_1/004/11/004_11.jpg'
p161
sg28
g20
sg29
g20
sg30
I00
sg31
I-1
sba(i__main__
Shot
p162
(dp163
g18
S'12'
p164
sg3
g20
sg21
I4
sg9
g10
sg22
I-1
sg23
g20
sg24
(I0
I0
I0
I0
tp165
sg26
S'//130.60.131.134/fiwi_datenbank/SCR_SOURCE/Masterdatenbank alt Export Einzelbilder/FIWI/SCR/219_1_1/004/12/004_12.jpg'
p166
sg28
g20
sg29
g20
sg30
I00
sg31
I-1
sba(i__main__
Shot
p167
(dp168
g18
S'2'
p169
sg3
g20
sg21
I4
sg9
g10
sg22
I-1
sg23
g20
sg24
(I0
I0
I0
I0
tp170
sg26
S'//130.60.131.134/fiwi_datenbank/SCR_SOURCE/Masterdatenbank alt Export Einzelbilder/FIWI/SCR/219_1_1/004/2/004_02.jpg'
p171
sg28
g20
sg29
g20
sg30
I00
sg31
I-1
sba(i__main__
Shot
p172
(dp173
g18
S'3'
p174
sg3
g20
sg21
I4
sg9
g10
sg22
I-1
sg23
g20
sg24
(I0
I0
I0
I0
tp175
sg26
S'//130.60.131.134/fiwi_datenbank/SCR_SOURCE/Masterdatenbank alt Export Einzelbilder/FIWI/SCR/219_1_1/004/3/004_03.jpg'
p176
sg28
g20
sg29
g20
sg30
I00
sg31
I-1
sba(i__main__
Shot
p177
(dp178
g18
S'4'
p179
sg3
g20
sg21
I4
sg9
g10
sg22
I-1
sg23
g20
sg24
(I0
I0
I0
I0
tp180
sg26
S'//130.60.131.134/fiwi_datenbank/SCR_SOURCE/Masterdatenbank alt Export Einzelbilder/FIWI/SCR/219_1_1/004/4/004_04.jpg'
p181
sg28
g20
sg29
g20
sg30
I00
sg31
I-1
sba(i__main__
Shot
p182
(dp183
g18
S'5'
p184
sg3
g20
sg21
I4
sg9
g10
sg22
I-1
sg23
g20
sg24
(I0
I0
I0
I0
tp185
sg26
S'//130.60.131.134/fiwi_datenbank/SCR_SOURCE/Masterdatenbank alt Export Einzelbilder/FIWI/SCR/219_1_1/004/5/004_05.jpg'
p186
sg28
g20
sg29
g20
sg30
I00
sg31
I-1
sba(i__main__
Shot
p187
(dp188
g18
S'6'
p189
sg3
g20
sg21
I4
sg9
g10
sg22
I-1
sg23
g20
sg24
(I0
I0
I0
I0
tp190
sg26
S'//130.60.131.134/fiwi_datenbank/SCR_SOURCE/Masterdatenbank alt Export Einzelbilder/FIWI/SCR/219_1_1/004/6/004_06.jpg'
p191
sg28
g20
sg29
g20
sg30
I00
sg31
I-1
sba(i__main__
Shot
p192
(dp193
g18
S'7'
p194
sg3
g20
sg21
I4
sg9
g10
sg22
I-1
sg23
g20
sg24
(I0
I0
I0
I0
tp195
sg26
S'//130.60.131.134/fiwi_datenbank/SCR_SOURCE/Masterdatenbank alt Export Einzelbilder/FIWI/SCR/219_1_1/004/7/004_07.jpg'
p196
sg28
g20
sg29
g20
sg30
I00
sg31
I-1
sba(i__main__
Shot
p197
(dp198
g18
S'8'
p199
sg3
g20
sg21
I4
sg9
g10
sg22
I-1
sg23
g20
sg24
(I0
I0
I0
I0
tp200
sg26
S'//130.60.131.134/fiwi_datenbank/SCR_SOURCE/Masterdatenbank alt Export Einzelbilder/FIWI/SCR/219_1_1/004/8/004_08.jpg'
p201
sg28
g20
sg29
g20
sg30
I00
sg31
I-1
sba(i__main__
Shot
p202
(dp203
g18
S'9'
p204
sg3
g20
sg21
I4
sg9
g10
sg22
I-1
sg23
g20
sg24
(I0
I0
I0
I0
tp205
sg26
S'//130.60.131.134/fiwi_datenbank/SCR_SOURCE/Masterdatenbank alt Export Einzelbilder/FIWI/SCR/219_1_1/004/9/004_09.jpg'
p206
sg28
g20
sg29
g20
sg30
I00
sg31
I-1
sba(i__main__
Shot
p207
(dp208
g18
S'1'
p209
sg3
g20
sg21
I5
sg9
g10
sg22
I-1
sg23
g20
sg24
(I0
I0
I0
I0
tp210
sg26
S'//130.60.131.134/fiwi_datenbank/SCR_SOURCE/Masterdatenbank alt Export Einzelbilder/FIWI/SCR/219_1_1/005/1/005_01.jpg'
p211
sg28
g20
sg29
g20
sg30
I00
sg31
I-1
sba(i__main__
Shot
p212
(dp213
g18
S'2'
p214
sg3
g20
sg21
I5
sg9
g10
sg22
I-1
sg23
g20
sg24
(I0
I0
I0
I0
tp215
sg26
S'//130.60.131.134/fiwi_datenbank/SCR_SOURCE/Masterdatenbank alt Export Einzelbilder/FIWI/SCR/219_1_1/005/2/005_02.jpg'
p216
sg28
g20
sg29
g20
sg30
I00
sg31
I-1
sba(i__main__
Shot
p217
(dp218
g18
S'3'
p219
sg3
g20
sg21
I5
sg9
g10
sg22
I-1
sg23
g20
sg24
(I0
I0
I0
I0
tp220
sg26
S'//130.60.131.134/fiwi_datenbank/SCR_SOURCE/Masterdatenbank alt Export Einzelbilder/FIWI/SCR/219_1_1/005/3/005_03.jpg'
p221
sg28
g20
sg29
g20
sg30
I00
sg31
I-1
sba(i__main__
Shot
p222
(dp223
g18
S'4'
p224
sg3
g20
sg21
I5
sg9
g10
sg22
I-1
sg23
g20
sg24
(I0
I0
I0
I0
tp225
sg26
S'//130.60.131.134/fiwi_datenbank/SCR_SOURCE/Masterdatenbank alt Export Einzelbilder/FIWI/SCR/219_1_1/005/4/005_04.jpg'
p226
sg28
g20
sg29
g20
sg30
I00
sg31
I-1
sba(i__main__
Shot
p227
(dp228
g18
S'5'
p229
sg3
g20
sg21
I5
sg9
g10
sg22
I-1
sg23
g20
sg24
(I0
I0
I0
I0
tp230
sg26
S'//130.60.131.134/fiwi_datenbank/SCR_SOURCE/Masterdatenbank alt Export Einzelbilder/FIWI/SCR/219_1_1/005/5/005_05.jpg'
p231
sg28
g20
sg29
g20
sg30
I00
sg31
I-1
sba(i__main__
Shot
p232
(dp233
g18
S'6'
p234
sg3
g20
sg21
I5
sg9
g10
sg22
I-1
sg23
g20
sg24
(I0
I0
I0
I0
tp235
sg26
S'//130.60.131.134/fiwi_datenbank/SCR_SOURCE/Masterdatenbank alt Export Einzelbilder/FIWI/SCR/219_1_1/005/6/005_06.jpg'
p236
sg28
g20
sg29
g20
sg30
I00
sg31
I-1
sba(i__main__
Shot
p237
(dp238
g18
S'7'
p239
sg3
g20
sg21
I5
sg9
g10
sg22
I-1
sg23
g20
sg24
(I0
I0
I0
I0
tp240
sg26
S'//130.60.131.134/fiwi_datenbank/SCR_SOURCE/Masterdatenbank alt Export Einzelbilder/FIWI/SCR/219_1_1/005/7/005_07.jpg'
p241
sg28
g20
sg29
g20
sg30
I00
sg31
I-1
sba(i__main__
Shot
p242
(dp243
g18
S'8'
p244
sg3
g20
sg21
I5
sg9
g10
sg22
I-1
sg23
g20
sg24
(I0
I0
I0
I0
tp245
sg26
S'//130.60.131.134/fiwi_datenbank/SCR_SOURCE/Masterdatenbank alt Export Einzelbilder/FIWI/SCR/219_1_1/005/8/005_08.jpg'
p246
sg28
g20
sg29
g20
sg30
I00
sg31
I-1
sba(i__main__
Shot
p247
(dp248
g18
S'1'
p249
sg3
g20
sg21
I6
sg9
g10
sg22
I-1
sg23
g20
sg24
(I0
I0
I0
I0
tp250
sg26
S'//130.60.131.134/fiwi_datenbank/SCR_SOURCE/Masterdatenbank alt Export Einzelbilder/FIWI/SCR/219_1_1/006/1/006_01.jpg'
p251
sg28
g20
sg29
g20
sg30
I00
sg31
I-1
sba(i__main__
Shot
p252
(dp253
g18
S'10'
p254
sg3
g20
sg21
I6
sg9
g10
sg22
I-1
sg23
g20
sg24
(I0
I0
I0
I0
tp255
sg26
S'//130.60.131.134/fiwi_datenbank/SCR_SOURCE/Masterdatenbank alt Export Einzelbilder/FIWI/SCR/219_1_1/006/10/006_10.jpg'
p256
sg28
g20
sg29
g20
sg30
I00
sg31
I-1
sba(i__main__
Shot
p257
(dp258
g18
S'11'
p259
sg3
g20
sg21
I6
sg9
g10
sg22
I-1
sg23
g20
sg24
(I0
I0
I0
I0
tp260
sg26
S'//130.60.131.134/fiwi_datenbank/SCR_SOURCE/Masterdatenbank alt Export Einzelbilder/FIWI/SCR/219_1_1/006/11/006_11.jpg'
p261
sg28
g20
sg29
g20
sg30
I00
sg31
I-1
sba(i__main__
Shot
p262
(dp263
g18
S'12'
p264
sg3
g20
sg21
I6
sg9
g10
sg22
I-1
sg23
g20
sg24
(I0
I0
I0
I0
tp265
sg26
S'//130.60.131.134/fiwi_datenbank/SCR_SOURCE/Masterdatenbank alt Export Einzelbilder/FIWI/SCR/219_1_1/006/12/006_12.jpg'
p266
sg28
g20
sg29
g20
sg30
I00
sg31
I-1
sba(i__main__
Shot
p267
(dp268
g18
S'13'
p269
sg3
g20
sg21
I6
sg9
g10
sg22
I-1
sg23
g20
sg24
(I0
I0
I0
I0
tp270
sg26
S'//130.60.131.134/fiwi_datenbank/SCR_SOURCE/Masterdatenbank alt Export Einzelbilder/FIWI/SCR/219_1_1/006/13/006_13.jpg'
p271
sg28
g20
sg29
g20
sg30
I00
sg31
I-1
sba(i__main__
Shot
p272
(dp273
g18
S'14'
p274
sg3
g20
sg21
I6
sg9
g10
sg22
I-1
sg23
g20
sg24
(I0
I0
I0
I0
tp275
sg26
S'//130.60.131.134/fiwi_datenbank/SCR_SOURCE/Masterdatenbank alt Export Einzelbilder/FIWI/SCR/219_1_1/006/14/006_14.jpg'
p276
sg28
g20
sg29
g20
sg30
I00
sg31
I-1
sba(i__main__
Shot
p277
(dp278
g18
S'15'
p279
sg3
g20
sg21
I6
sg9
g10
sg22
I-1
sg23
g20
sg24
(I0
I0
I0
I0
tp280
sg26
S'//130.60.131.134/fiwi_datenbank/SCR_SOURCE/Masterdatenbank alt Export Einzelbilder/FIWI/SCR/219_1_1/006/15/006_15.jpg'
p281
sg28
g20
sg29
g20
sg30
I00
sg31
I-1
sba(i__main__
Shot
p282
(dp283
g18
S'16'
p284
sg3
g20
sg21
I6
sg9
g10
sg22
I-1
sg23
g20
sg24
(I0
I0
I0
I0
tp285
sg26
S'//130.60.131.134/fiwi_datenbank/SCR_SOURCE/Masterdatenbank alt Export Einzelbilder/FIWI/SCR/219_1_1/006/16/006_16.jpg'
p286
sg28
g20
sg29
g20
sg30
I00
sg31
I-1
sba(i__main__
Shot
p287
(dp288
g18
S'17'
p289
sg3
g20
sg21
I6
sg9
g10
sg22
I-1
sg23
g20
sg24
(I0
I0
I0
I0
tp290
sg26
S'//130.60.131.134/fiwi_datenbank/SCR_SOURCE/Masterdatenbank alt Export Einzelbilder/FIWI/SCR/219_1_1/006/17/006_17.jpg'
p291
sg28
g20
sg29
g20
sg30
I00
sg31
I-1
sba(i__main__
Shot
p292
(dp293
g18
S'18'
p294
sg3
g20
sg21
I6
sg9
g10
sg22
I-1
sg23
g20
sg24
(I0
I0
I0
I0
tp295
sg26
S'//130.60.131.134/fiwi_datenbank/SCR_SOURCE/Masterdatenbank alt Export Einzelbilder/FIWI/SCR/219_1_1/006/18/006_18.jpg'
p296
sg28
g20
sg29
g20
sg30
I00
sg31
I-1
sba(i__main__
Shot
p297
(dp298
g18
S'19'
p299
sg3
g20
sg21
I6
sg9
g10
sg22
I-1
sg23
g20
sg24
(I0
I0
I0
I0
tp300
sg26
S'//130.60.131.134/fiwi_datenbank/SCR_SOURCE/Masterdatenbank alt Export Einzelbilder/FIWI/SCR/219_1_1/006/19/006_19.jpg'
p301
sg28
g20
sg29
g20
sg30
I00
sg31
I-1
sba(i__main__
Shot
p302
(dp303
g18
S'2'
p304
sg3
g20
sg21
I6
sg9
g10
sg22
I-1
sg23
g20
sg24
(I0
I0
I0
I0
tp305
sg26
S'//130.60.131.134/fiwi_datenbank/SCR_SOURCE/Masterdatenbank alt Export Einzelbilder/FIWI/SCR/219_1_1/006/2/006_02.jpg'
p306
sg28
g20
sg29
g20
sg30
I00
sg31
I-1
sba(i__main__
Shot
p307
(dp308
g18
S'20'
p309
sg3
g20
sg21
I6
sg9
g10
sg22
I-1
sg23
g20
sg24
(I0
I0
I0
I0
tp310
sg26
S'//130.60.131.134/fiwi_datenbank/SCR_SOURCE/Masterdatenbank alt Export Einzelbilder/FIWI/SCR/219_1_1/006/20/006_20.jpg'
p311
sg28
g20
sg29
g20
sg30
I00
sg31
I-1
sba(i__main__
Shot
p312
(dp313
g18
S'21'
p314
sg3
g20
sg21
I6
sg9
g10
sg22
I-1
sg23
g20
sg24
(I0
I0
I0
I0
tp315
sg26
S'//130.60.131.134/fiwi_datenbank/SCR_SOURCE/Masterdatenbank alt Export Einzelbilder/FIWI/SCR/219_1_1/006/21/006_21.jpg'
p316
sg28
g20
sg29
g20
sg30
I00
sg31
I-1
sba(i__main__
Shot
p317
(dp318
g18
S'22'
p319
sg3
g20
sg21
I6
sg9
g10
sg22
I-1
sg23
g20
sg24
(I0
I0
I0
I0
tp320
sg26
S'//130.60.131.134/fiwi_datenbank/SCR_SOURCE/Masterdatenbank alt Export Einzelbilder/FIWI/SCR/219_1_1/006/22/006_22.jpg'
p321
sg28
g20
sg29
g20
sg30
I00
sg31
I-1
sba(i__main__
Shot
p322
(dp323
g18
S'23'
p324
sg3
g20
sg21
I6
sg9
g10
sg22
I-1
sg23
g20
sg24
(I0
I0
I0
I0
tp325
sg26
S'//130.60.131.134/fiwi_datenbank/SCR_SOURCE/Masterdatenbank alt Export Einzelbilder/FIWI/SCR/219_1_1/006/23/006_23.jpg'
p326
sg28
g20
sg29
g20
sg30
I00
sg31
I-1
sba(i__main__
Shot
p327
(dp328
g18
S'24'
p329
sg3
g20
sg21
I6
sg9
g10
sg22
I-1
sg23
g20
sg24
(I0
I0
I0
I0
tp330
sg26
S'//130.60.131.134/fiwi_datenbank/SCR_SOURCE/Masterdatenbank alt Export Einzelbilder/FIWI/SCR/219_1_1/006/24/006_24.jpg'
p331
sg28
g20
sg29
g20
sg30
I00
sg31
I-1
sba(i__main__
Shot
p332
(dp333
g18
S'3'
p334
sg3
g20
sg21
I6
sg9
g10
sg22
I-1
sg23
g20
sg24
(I0
I0
I0
I0
tp335
sg26
S'//130.60.131.134/fiwi_datenbank/SCR_SOURCE/Masterdatenbank alt Export Einzelbilder/FIWI/SCR/219_1_1/006/3/006_03.jpg'
p336
sg28
g20
sg29
g20
sg30
I00
sg31
I-1
sba(i__main__
Shot
p337
(dp338
g18
S'4'
p339
sg3
g20
sg21
I6
sg9
g10
sg22
I-1
sg23
g20
sg24
(I0
I0
I0
I0
tp340
sg26
S'//130.60.131.134/fiwi_datenbank/SCR_SOURCE/Masterdatenbank alt Export Einzelbilder/FIWI/SCR/219_1_1/006/4/006_04.jpg'
p341
sg28
g20
sg29
g20
sg30
I00
sg31
I-1
sba(i__main__
Shot
p342
(dp343
g18
S'5'
p344
sg3
g20
sg21
I6
sg9
g10
sg22
I-1
sg23
g20
sg24
(I0
I0
I0
I0
tp345
sg26
S'//130.60.131.134/fiwi_datenbank/SCR_SOURCE/Masterdatenbank alt Export Einzelbilder/FIWI/SCR/219_1_1/006/5/006_05.jpg'
p346
sg28
g20
sg29
g20
sg30
I00
sg31
I-1
sba(i__main__
Shot
p347
(dp348
g18
S'6'
p349
sg3
g20
sg21
I6
sg9
g10
sg22
I-1
sg23
g20
sg24
(I0
I0
I0
I0
tp350
sg26
S'//130.60.131.134/fiwi_datenbank/SCR_SOURCE/Masterdatenbank alt Export Einzelbilder/FIWI/SCR/219_1_1/006/6/006_06.jpg'
p351
sg28
g20
sg29
g20
sg30
I00
sg31
I-1
sba(i__main__
Shot
p352
(dp353
g18
S'7'
p354
sg3
g20
sg21
I6
sg9
g10
sg22
I-1
sg23
g20
sg24
(I0
I0
I0
I0
tp355
sg26
S'//130.60.131.134/fiwi_datenbank/SCR_SOURCE/Masterdatenbank alt Export Einzelbilder/FIWI/SCR/219_1_1/006/7/006_07.jpg'
p356
sg28
g20
sg29
g20
sg30
I00
sg31
I-1
sba(i__main__
Shot
p357
(dp358
g18
S'8'
p359
sg3
g20
sg21
I6
sg9
g10
sg22
I-1
sg23
g20
sg24
(I0
I0
I0
I0
tp360
sg26
S'//130.60.131.134/fiwi_datenbank/SCR_SOURCE/Masterdatenbank alt Export Einzelbilder/FIWI/SCR/219_1_1/006/8/006_08.jpg'
p361
sg28
g20
sg29
g20
sg30
I00
sg31
I-1
sba(i__main__
Shot
p362
(dp363
g18
S'9'
p364
sg3
g20
sg21
I6
sg9
g10
sg22
I-1
sg23
g20
sg24
(I0
I0
I0
I0
tp365
sg26
S'//130.60.131.134/fiwi_datenbank/SCR_SOURCE/Masterdatenbank alt Export Einzelbilder/FIWI/SCR/219_1_1/006/9/006_09.jpg'
p366
sg28
g20
sg29
g20
sg30
I00
sg31
I-1
sba(i__main__
Shot
p367
(dp368
g18
S'1'
p369
sg3
g20
sg21
I7
sg9
g10
sg22
I-1
sg23
g20
sg24
(I0
I0
I0
I0
tp370
sg26
S'//130.60.131.134/fiwi_datenbank/SCR_SOURCE/Masterdatenbank alt Export Einzelbilder/FIWI/SCR/219_1_1/007/1/007_01.jpg'
p371
sg28
g20
sg29
g20
sg30
I00
sg31
I-1
sba(i__main__
Shot
p372
(dp373
g18
S'2'
p374
sg3
g20
sg21
I7
sg9
g10
sg22
I-1
sg23
g20
sg24
(I0
I0
I0
I0
tp375
sg26
S'//130.60.131.134/fiwi_datenbank/SCR_SOURCE/Masterdatenbank alt Export Einzelbilder/FIWI/SCR/219_1_1/007/2/007_02.jpg'
p376
sg28
g20
sg29
g20
sg30
I00
sg31
I-1
sba(i__main__
Shot
p377
(dp378
g18
S'3'
p379
sg3
g20
sg21
I7
sg9
g10
sg22
I-1
sg23
g20
sg24
(I0
I0
I0
I0
tp380
sg26
S'//130.60.131.134/fiwi_datenbank/SCR_SOURCE/Masterdatenbank alt Export Einzelbilder/FIWI/SCR/219_1_1/007/3/007_03.jpg'
p381
sg28
g20
sg29
g20
sg30
I00
sg31
I-1
sba(i__main__
Shot
p382
(dp383
g18
S'4'
p384
sg3
g20
sg21
I7
sg9
g10
sg22
I-1
sg23
g20
sg24
(I0
I0
I0
I0
tp385
sg26
S'//130.60.131.134/fiwi_datenbank/SCR_SOURCE/Masterdatenbank alt Export Einzelbilder/FIWI/SCR/219_1_1/007/4/007_04.jpg'
p386
sg28
g20
sg29
g20
sg30
I00
sg31
I-1
sba(i__main__
Shot
p387
(dp388
g18
S'5'
p389
sg3
g20
sg21
I7
sg9
g10
sg22
I-1
sg23
g20
sg24
(I0
I0
I0
I0
tp390
sg26
S'//130.60.131.134/fiwi_datenbank/SCR_SOURCE/Masterdatenbank alt Export Einzelbilder/FIWI/SCR/219_1_1/007/5/007_05.jpg'
p391
sg28
g20
sg29
g20
sg30
I00
sg31
I-1
sba(i__main__
Shot
p392
(dp393
g18
S'6'
p394
sg3
g20
sg21
I7
sg9
g10
sg22
I-1
sg23
g20
sg24
(I0
I0
I0
I0
tp395
sg26
S'//130.60.131.134/fiwi_datenbank/SCR_SOURCE/Masterdatenbank alt Export Einzelbilder/FIWI/SCR/219_1_1/007/6/007_06.jpg'
p396
sg28
g20
sg29
g20
sg30
I00
sg31
I-1
sba(i__main__
Shot
p397
(dp398
g18
S'7'
p399
sg3
g20
sg21
I7
sg9
g10
sg22
I-1
sg23
g20
sg24
(I0
I0
I0
I0
tp400
sg26
S'//130.60.131.134/fiwi_datenbank/SCR_SOURCE/Masterdatenbank alt Export Einzelbilder/FIWI/SCR/219_1_1/007/7/007_07.jpg'
p401
sg28
g20
sg29
g20
sg30
I00
sg31
I-1
sba(i__main__
Shot
p402
(dp403
g18
S'8'
p404
sg3
g20
sg21
I7
sg9
g10
sg22
I-1
sg23
g20
sg24
(I0
I0
I0
I0
tp405
sg26
S'//130.60.131.134/fiwi_datenbank/SCR_SOURCE/Masterdatenbank alt Export Einzelbilder/FIWI/SCR/219_1_1/007/8/007_08.jpg'
p406
sg28
g20
sg29
g20
sg30
I00
sg31
I-1
sba(i__main__
Shot
p407
(dp408
g18
S'9'
p409
sg3
g20
sg21
I7
sg9
g10
sg22
I-1
sg23
g20
sg24
(I0
I0
I0
I0
tp410
sg26
S'//130.60.131.134/fiwi_datenbank/SCR_SOURCE/Masterdatenbank alt Export Einzelbilder/FIWI/SCR/219_1_1/007/9/007_09.jpg'
p411
sg28
g20
sg29
g20
sg30
I00
sg31
I-1
sba(i__main__
Shot
p412
(dp413
g18
S'1'
p414
sg3
g20
sg21
I8
sg9
g10
sg22
I-1
sg23
g20
sg24
(I0
I0
I0
I0
tp415
sg26
S'//130.60.131.134/fiwi_datenbank/SCR_SOURCE/Masterdatenbank alt Export Einzelbilder/FIWI/SCR/219_1_1/008/1/008_01.jpg'
p416
sg28
g20
sg29
g20
sg30
I00
sg31
I-1
sba(i__main__
Shot
p417
(dp418
g18
S'10'
p419
sg3
g20
sg21
I8
sg9
g10
sg22
I-1
sg23
g20
sg24
(I0
I0
I0
I0
tp420
sg26
S'//130.60.131.134/fiwi_datenbank/SCR_SOURCE/Masterdatenbank alt Export Einzelbilder/FIWI/SCR/219_1_1/008/10/008_10.jpg'
p421
sg28
g20
sg29
g20
sg30
I00
sg31
I-1
sba(i__main__
Shot
p422
(dp423
g18
S'2'
p424
sg3
g20
sg21
I8
sg9
g10
sg22
I-1
sg23
g20
sg24
(I0
I0
I0
I0
tp425
sg26
S'//130.60.131.134/fiwi_datenbank/SCR_SOURCE/Masterdatenbank alt Export Einzelbilder/FIWI/SCR/219_1_1/008/2/008_02.jpg'
p426
sg28
g20
sg29
g20
sg30
I00
sg31
I-1
sba(i__main__
Shot
p427
(dp428
g18
S'3'
p429
sg3
g20
sg21
I8
sg9
g10
sg22
I-1
sg23
g20
sg24
(I0
I0
I0
I0
tp430
sg26
S'//130.60.131.134/fiwi_datenbank/SCR_SOURCE/Masterdatenbank alt Export Einzelbilder/FIWI/SCR/219_1_1/008/3/008_03.jpg'
p431
sg28
g20
sg29
g20
sg30
I00
sg31
I-1
sba(i__main__
Shot
p432
(dp433
g18
S'4'
p434
sg3
g20
sg21
I8
sg9
g10
sg22
I-1
sg23
g20
sg24
(I0
I0
I0
I0
tp435
sg26
S'//130.60.131.134/fiwi_datenbank/SCR_SOURCE/Masterdatenbank alt Export Einzelbilder/FIWI/SCR/219_1_1/008/4/008_04.jpg'
p436
sg28
g20
sg29
g20
sg30
I00
sg31
I-1
sba(i__main__
Shot
p437
(dp438
g18
S'5'
p439
sg3
g20
sg21
I8
sg9
g10
sg22
I-1
sg23
g20
sg24
(I0
I0
I0
I0
tp440
sg26
S'//130.60.131.134/fiwi_datenbank/SCR_SOURCE/Masterdatenbank alt Export Einzelbilder/FIWI/SCR/219_1_1/008/5/008_05.jpg'
p441
sg28
g20
sg29
g20
sg30
I00
sg31
I-1
sba(i__main__
Shot
p442
(dp443
g18
S'6'
p444
sg3
g20
sg21
I8
sg9
g10
sg22
I-1
sg23
g20
sg24
(I0
I0
I0
I0
tp445
sg26
S'//130.60.131.134/fiwi_datenbank/SCR_SOURCE/Masterdatenbank alt Export Einzelbilder/FIWI/SCR/219_1_1/008/6/008_06.jpg'
p446
sg28
g20
sg29
g20
sg30
I00
sg31
I-1
sba(i__main__
Shot
p447
(dp448
g18
S'7'
p449
sg3
g20
sg21
I8
sg9
g10
sg22
I-1
sg23
g20
sg24
(I0
I0
I0
I0
tp450
sg26
S'//130.60.131.134/fiwi_datenbank/SCR_SOURCE/Masterdatenbank alt Export Einzelbilder/FIWI/SCR/219_1_1/008/7/008_07.jpg'
p451
sg28
g20
sg29
g20
sg30
I00
sg31
I-1
sba(i__main__
Shot
p452
(dp453
g18
S'8'
p454
sg3
g20
sg21
I8
sg9
g10
sg22
I-1
sg23
g20
sg24
(I0
I0
I0
I0
tp455
sg26
S'//130.60.131.134/fiwi_datenbank/SCR_SOURCE/Masterdatenbank alt Export Einzelbilder/FIWI/SCR/219_1_1/008/8/008_08.jpg'
p456
sg28
g20
sg29
g20
sg30
I00
sg31
I-1
sba(i__main__
Shot
p457
(dp458
g18
S'9'
p459
sg3
g20
sg21
I8
sg9
g10
sg22
I-1
sg23
g20
sg24
(I0
I0
I0
I0
tp460
sg26
S'//130.60.131.134/fiwi_datenbank/SCR_SOURCE/Masterdatenbank alt Export Einzelbilder/FIWI/SCR/219_1_1/008/9/008_09.jpg'
p461
sg28
g20
sg29
g20
sg30
I00
sg31
I-1
sba(i__main__
Shot
p462
(dp463
g18
S'1'
p464
sg3
g20
sg21
I9
sg9
g10
sg22
I-1
sg23
g20
sg24
(I0
I0
I0
I0
tp465
sg26
S'//130.60.131.134/fiwi_datenbank/SCR_SOURCE/Masterdatenbank alt Export Einzelbilder/FIWI/SCR/219_1_1/009/1/009_01.jpg'
p466
sg28
g20
sg29
g20
sg30
I00
sg31
I-1
sba(i__main__
Shot
p467
(dp468
g18
S'10'
p469
sg3
g20
sg21
I9
sg9
g10
sg22
I-1
sg23
g20
sg24
(I0
I0
I0
I0
tp470
sg26
S'//130.60.131.134/fiwi_datenbank/SCR_SOURCE/Masterdatenbank alt Export Einzelbilder/FIWI/SCR/219_1_1/009/10/009_10.jpg'
p471
sg28
g20
sg29
g20
sg30
I00
sg31
I-1
sba(i__main__
Shot
p472
(dp473
g18
S'2'
p474
sg3
g20
sg21
I9
sg9
g10
sg22
I-1
sg23
g20
sg24
(I0
I0
I0
I0
tp475
sg26
S'//130.60.131.134/fiwi_datenbank/SCR_SOURCE/Masterdatenbank alt Export Einzelbilder/FIWI/SCR/219_1_1/009/2/009_02.jpg'
p476
sg28
g20
sg29
g20
sg30
I00
sg31
I-1
sba(i__main__
Shot
p477
(dp478
g18
S'3'
p479
sg3
g20
sg21
I9
sg9
g10
sg22
I-1
sg23
g20
sg24
(I0
I0
I0
I0
tp480
sg26
S'//130.60.131.134/fiwi_datenbank/SCR_SOURCE/Masterdatenbank alt Export Einzelbilder/FIWI/SCR/219_1_1/009/3/009_03.jpg'
p481
sg28
g20
sg29
g20
sg30
I00
sg31
I-1
sba(i__main__
Shot
p482
(dp483
g18
S'4'
p484
sg3
g20
sg21
I9
sg9
g10
sg22
I-1
sg23
g20
sg24
(I0
I0
I0
I0
tp485
sg26
S'//130.60.131.134/fiwi_datenbank/SCR_SOURCE/Masterdatenbank alt Export Einzelbilder/FIWI/SCR/219_1_1/009/4/009_04.jpg'
p486
sg28
g20
sg29
g20
sg30
I00
sg31
I-1
sba(i__main__
Shot
p487
(dp488
g18
S'5'
p489
sg3
g20
sg21
I9
sg9
g10
sg22
I-1
sg23
g20
sg24
(I0
I0
I0
I0
tp490
sg26
S'//130.60.131.134/fiwi_datenbank/SCR_SOURCE/Masterdatenbank alt Export Einzelbilder/FIWI/SCR/219_1_1/009/5/009_05.jpg'
p491
sg28
g20
sg29
g20
sg30
I00
sg31
I-1
sba(i__main__
Shot
p492
(dp493
g18
S'6'
p494
sg3
g20
sg21
I9
sg9
g10
sg22
I-1
sg23
g20
sg24
(I0
I0
I0
I0
tp495
sg26
S'//130.60.131.134/fiwi_datenbank/SCR_SOURCE/Masterdatenbank alt Export Einzelbilder/FIWI/SCR/219_1_1/009/6/009_06.jpg'
p496
sg28
g20
sg29
g20
sg30
I00
sg31
I-1
sba(i__main__
Shot
p497
(dp498
g18
S'7'
p499
sg3
g20
sg21
I9
sg9
g10
sg22
I-1
sg23
g20
sg24
(I0
I0
I0
I0
tp500
sg26
S'//130.60.131.134/fiwi_datenbank/SCR_SOURCE/Masterdatenbank alt Export Einzelbilder/FIWI/SCR/219_1_1/009/7/009_07.jpg'
p501
sg28
g20
sg29
g20
sg30
I00
sg31
I-1
sba(i__main__
Shot
p502
(dp503
g18
S'8'
p504
sg3
g20
sg21
I9
sg9
g10
sg22
I-1
sg23
g20
sg24
(I0
I0
I0
I0
tp505
sg26
S'//130.60.131.134/fiwi_datenbank/SCR_SOURCE/Masterdatenbank alt Export Einzelbilder/FIWI/SCR/219_1_1/009/8/009_08.jpg'
p506
sg28
g20
sg29
g20
sg30
I00
sg31
I-1
sba(i__main__
Shot
p507
(dp508
g18
S'9'
p509
sg3
g20
sg21
I9
sg9
g10
sg22
I-1
sg23
g20
sg24
(I0
I0
I0
I0
tp510
sg26
S'//130.60.131.134/fiwi_datenbank/SCR_SOURCE/Masterdatenbank alt Export Einzelbilder/FIWI/SCR/219_1_1/009/9/009_09.jpg'
p511
sg28
g20
sg29
g20
sg30
I00
sg31
I-1
sba(i__main__
Shot
p512
(dp513
g18
S'1'
p514
sg3
g20
sg21
I10
sg9
g10
sg22
I-1
sg23
g20
sg24
(I0
I0
I0
I0
tp515
sg26
S'//130.60.131.134/fiwi_datenbank/SCR_SOURCE/Masterdatenbank alt Export Einzelbilder/FIWI/SCR/219_1_1/010/1/010_01.jpg'
p516
sg28
g20
sg29
g20
sg30
I00
sg31
I-1
sba(i__main__
Shot
p517
(dp518
g18
S'2'
p519
sg3
g20
sg21
I10
sg9
g10
sg22
I-1
sg23
g20
sg24
(I0
I0
I0
I0
tp520
sg26
S'//130.60.131.134/fiwi_datenbank/SCR_SOURCE/Masterdatenbank alt Export Einzelbilder/FIWI/SCR/219_1_1/010/2/010_02.jpg'
p521
sg28
g20
sg29
g20
sg30
I00
sg31
I-1
sba(i__main__
Shot
p522
(dp523
g18
S'3'
p524
sg3
g20
sg21
I10
sg9
g10
sg22
I-1
sg23
g20
sg24
(I0
I0
I0
I0
tp525
sg26
S'//130.60.131.134/fiwi_datenbank/SCR_SOURCE/Masterdatenbank alt Export Einzelbilder/FIWI/SCR/219_1_1/010/3/010_03.jpg'
p526
sg28
g20
sg29
g20
sg30
I00
sg31
I-1
sba(i__main__
Shot
p527
(dp528
g18
S'4'
p529
sg3
g20
sg21
I10
sg9
g10
sg22
I-1
sg23
g20
sg24
(I0
I0
I0
I0
tp530
sg26
S'//130.60.131.134/fiwi_datenbank/SCR_SOURCE/Masterdatenbank alt Export Einzelbilder/FIWI/SCR/219_1_1/010/4/010_04.jpg'
p531
sg28
g20
sg29
g20
sg30
I00
sg31
I-1
sba(i__main__
Shot
p532
(dp533
g18
S'5'
p534
sg3
g20
sg21
I10
sg9
g10
sg22
I-1
sg23
g20
sg24
(I0
I0
I0
I0
tp535
sg26
S'//130.60.131.134/fiwi_datenbank/SCR_SOURCE/Masterdatenbank alt Export Einzelbilder/FIWI/SCR/219_1_1/010/5/010_05.jpg'
p536
sg28
g20
sg29
g20
sg30
I00
sg31
I-1
sba(i__main__
Shot
p537
(dp538
g18
S'6'
p539
sg3
g20
sg21
I10
sg9
g10
sg22
I-1
sg23
g20
sg24
(I0
I0
I0
I0
tp540
sg26
S'//130.60.131.134/fiwi_datenbank/SCR_SOURCE/Masterdatenbank alt Export Einzelbilder/FIWI/SCR/219_1_1/010/6/010_06.jpg'
p541
sg28
g20
sg29
g20
sg30
I00
sg31
I-1
sba(i__main__
Shot
p542
(dp543
g18
S'7'
p544
sg3
g20
sg21
I10
sg9
g10
sg22
I-1
sg23
g20
sg24
(I0
I0
I0
I0
tp545
sg26
S'//130.60.131.134/fiwi_datenbank/SCR_SOURCE/Masterdatenbank alt Export Einzelbilder/FIWI/SCR/219_1_1/010/7/010_07.jpg'
p546
sg28
g20
sg29
g20
sg30
I00
sg31
I-1
sba(i__main__
Shot
p547
(dp548
g18
S'8'
p549
sg3
g20
sg21
I10
sg9
g10
sg22
I-1
sg23
g20
sg24
(I0
I0
I0
I0
tp550
sg26
S'//130.60.131.134/fiwi_datenbank/SCR_SOURCE/Masterdatenbank alt Export Einzelbilder/FIWI/SCR/219_1_1/010/8/010_08.jpg'
p551
sg28
g20
sg29
g20
sg30
I00
sg31
I-1
sba(i__main__
Shot
p552
(dp553
g18
S'9'
p554
sg3
g20
sg21
I10
sg9
g10
sg22
I-1
sg23
g20
sg24
(I0
I0
I0
I0
tp555
sg26
S'//130.60.131.134/fiwi_datenbank/SCR_SOURCE/Masterdatenbank alt Export Einzelbilder/FIWI/SCR/219_1_1/010/9/010_09.jpg'
p556
sg28
g20
sg29
g20
sg30
I00
sg31
I-1
sba(i__main__
Shot
p557
(dp558
g18
S'1'
p559
sg3
g20
sg21
I11
sg9
g10
sg22
I-1
sg23
g20
sg24
(I0
I0
I0
I0
tp560
sg26
S'//130.60.131.134/fiwi_datenbank/SCR_SOURCE/Masterdatenbank alt Export Einzelbilder/FIWI/SCR/219_1_1/011/1/011_01.jpg'
p561
sg28
g20
sg29
g20
sg30
I00
sg31
I-1
sba(i__main__
Shot
p562
(dp563
g18
S'2'
p564
sg3
g20
sg21
I11
sg9
g10
sg22
I-1
sg23
g20
sg24
(I0
I0
I0
I0
tp565
sg26
S'//130.60.131.134/fiwi_datenbank/SCR_SOURCE/Masterdatenbank alt Export Einzelbilder/FIWI/SCR/219_1_1/011/2/011_02.jpg'
p566
sg28
g20
sg29
g20
sg30
I00
sg31
I-1
sba(i__main__
Shot
p567
(dp568
g18
S'3'
p569
sg3
g20
sg21
I11
sg9
g10
sg22
I-1
sg23
g20
sg24
(I0
I0
I0
I0
tp570
sg26
S'//130.60.131.134/fiwi_datenbank/SCR_SOURCE/Masterdatenbank alt Export Einzelbilder/FIWI/SCR/219_1_1/011/3/011_03.jpg'
p571
sg28
g20
sg29
g20
sg30
I00
sg31
I-1
sba(i__main__
Shot
p572
(dp573
g18
S'4'
p574
sg3
g20
sg21
I11
sg9
g10
sg22
I-1
sg23
g20
sg24
(I0
I0
I0
I0
tp575
sg26
S'//130.60.131.134/fiwi_datenbank/SCR_SOURCE/Masterdatenbank alt Export Einzelbilder/FIWI/SCR/219_1_1/011/4/011_04.jpg'
p576
sg28
g20
sg29
g20
sg30
I00
sg31
I-1
sba(i__main__
Shot
p577
(dp578
g18
S'5'
p579
sg3
g20
sg21
I11
sg9
g10
sg22
I-1
sg23
g20
sg24
(I0
I0
I0
I0
tp580
sg26
S'//130.60.131.134/fiwi_datenbank/SCR_SOURCE/Masterdatenbank alt Export Einzelbilder/FIWI/SCR/219_1_1/011/5/011_05.jpg'
p581
sg28
g20
sg29
g20
sg30
I00
sg31
I-1
sba(i__main__
Shot
p582
(dp583
g18
S'6'
p584
sg3
g20
sg21
I11
sg9
g10
sg22
I-1
sg23
g20
sg24
(I0
I0
I0
I0
tp585
sg26
S'//130.60.131.134/fiwi_datenbank/SCR_SOURCE/Masterdatenbank alt Export Einzelbilder/FIWI/SCR/219_1_1/011/6/011_06.jpg'
p586
sg28
g20
sg29
g20
sg30
I00
sg31
I-1
sba(i__main__
Shot
p587
(dp588
g18
S'7'
p589
sg3
g20
sg21
I11
sg9
g10
sg22
I-1
sg23
g20
sg24
(I0
I0
I0
I0
tp590
sg26
S'//130.60.131.134/fiwi_datenbank/SCR_SOURCE/Masterdatenbank alt Export Einzelbilder/FIWI/SCR/219_1_1/011/7/011_07.jpg'
p591
sg28
g20
sg29
g20
sg30
I00
sg31
I-1
sba(i__main__
Shot
p592
(dp593
g18
S'8'
p594
sg3
g20
sg21
I11
sg9
g10
sg22
I-1
sg23
g20
sg24
(I0
I0
I0
I0
tp595
sg26
S'//130.60.131.134/fiwi_datenbank/SCR_SOURCE/Masterdatenbank alt Export Einzelbilder/FIWI/SCR/219_1_1/011/8/011_08.jpg'
p596
sg28
g20
sg29
g20
sg30
I00
sg31
I-1
sba(i__main__
Shot
p597
(dp598
g18
S'1'
p599
sg3
g20
sg21
I12
sg9
g10
sg22
I-1
sg23
g20
sg24
(I0
I0
I0
I0
tp600
sg26
S'//130.60.131.134/fiwi_datenbank/SCR_SOURCE/Masterdatenbank alt Export Einzelbilder/FIWI/SCR/219_1_1/012/1/012_01.jpg'
p601
sg28
g20
sg29
g20
sg30
I00
sg31
I-1
sba(i__main__
Shot
p602
(dp603
g18
S'10'
p604
sg3
g20
sg21
I12
sg9
g10
sg22
I-1
sg23
g20
sg24
(I0
I0
I0
I0
tp605
sg26
S'//130.60.131.134/fiwi_datenbank/SCR_SOURCE/Masterdatenbank alt Export Einzelbilder/FIWI/SCR/219_1_1/012/10/012_10.jpg'
p606
sg28
g20
sg29
g20
sg30
I00
sg31
I-1
sba(i__main__
Shot
p607
(dp608
g18
S'11'
p609
sg3
g20
sg21
I12
sg9
g10
sg22
I-1
sg23
g20
sg24
(I0
I0
I0
I0
tp610
sg26
S'//130.60.131.134/fiwi_datenbank/SCR_SOURCE/Masterdatenbank alt Export Einzelbilder/FIWI/SCR/219_1_1/012/11/012_11.jpg'
p611
sg28
g20
sg29
g20
sg30
I00
sg31
I-1
sba(i__main__
Shot
p612
(dp613
g18
S'12'
p614
sg3
g20
sg21
I12
sg9
g10
sg22
I-1
sg23
g20
sg24
(I0
I0
I0
I0
tp615
sg26
S'//130.60.131.134/fiwi_datenbank/SCR_SOURCE/Masterdatenbank alt Export Einzelbilder/FIWI/SCR/219_1_1/012/12/012_12.jpg'
p616
sg28
g20
sg29
g20
sg30
I00
sg31
I-1
sba(i__main__
Shot
p617
(dp618
g18
S'2'
p619
sg3
g20
sg21
I12
sg9
g10
sg22
I-1
sg23
g20
sg24
(I0
I0
I0
I0
tp620
sg26
S'//130.60.131.134/fiwi_datenbank/SCR_SOURCE/Masterdatenbank alt Export Einzelbilder/FIWI/SCR/219_1_1/012/2/012_02.jpg'
p621
sg28
g20
sg29
g20
sg30
I00
sg31
I-1
sba(i__main__
Shot
p622
(dp623
g18
S'3'
p624
sg3
g20
sg21
I12
sg9
g10
sg22
I-1
sg23
g20
sg24
(I0
I0
I0
I0
tp625
sg26
S'//130.60.131.134/fiwi_datenbank/SCR_SOURCE/Masterdatenbank alt Export Einzelbilder/FIWI/SCR/219_1_1/012/3/012_03.jpg'
p626
sg28
g20
sg29
g20
sg30
I00
sg31
I-1
sba(i__main__
Shot
p627
(dp628
g18
S'4'
p629
sg3
g20
sg21
I12
sg9
g10
sg22
I-1
sg23
g20
sg24
(I0
I0
I0
I0
tp630
sg26
S'//130.60.131.134/fiwi_datenbank/SCR_SOURCE/Masterdatenbank alt Export Einzelbilder/FIWI/SCR/219_1_1/012/4/012_04.jpg'
p631
sg28
g20
sg29
g20
sg30
I00
sg31
I-1
sba(i__main__
Shot
p632
(dp633
g18
S'5'
p634
sg3
g20
sg21
I12
sg9
g10
sg22
I-1
sg23
g20
sg24
(I0
I0
I0
I0
tp635
sg26
S'//130.60.131.134/fiwi_datenbank/SCR_SOURCE/Masterdatenbank alt Export Einzelbilder/FIWI/SCR/219_1_1/012/5/012_05.jpg'
p636
sg28
g20
sg29
g20
sg30
I00
sg31
I-1
sba(i__main__
Shot
p637
(dp638
g18
S'6'
p639
sg3
g20
sg21
I12
sg9
g10
sg22
I-1
sg23
g20
sg24
(I0
I0
I0
I0
tp640
sg26
S'//130.60.131.134/fiwi_datenbank/SCR_SOURCE/Masterdatenbank alt Export Einzelbilder/FIWI/SCR/219_1_1/012/6/012_06.jpg'
p641
sg28
g20
sg29
g20
sg30
I00
sg31
I-1
sba(i__main__
Shot
p642
(dp643
g18
S'7'
p644
sg3
g20
sg21
I12
sg9
g10
sg22
I-1
sg23
g20
sg24
(I0
I0
I0
I0
tp645
sg26
S'//130.60.131.134/fiwi_datenbank/SCR_SOURCE/Masterdatenbank alt Export Einzelbilder/FIWI/SCR/219_1_1/012/7/012_07.jpg'
p646
sg28
g20
sg29
g20
sg30
I00
sg31
I-1
sba(i__main__
Shot
p647
(dp648
g18
S'8'
p649
sg3
g20
sg21
I12
sg9
g10
sg22
I-1
sg23
g20
sg24
(I0
I0
I0
I0
tp650
sg26
S'//130.60.131.134/fiwi_datenbank/SCR_SOURCE/Masterdatenbank alt Export Einzelbilder/FIWI/SCR/219_1_1/012/8/012_08.jpg'
p651
sg28
g20
sg29
g20
sg30
I00
sg31
I-1
sba(i__main__
Shot
p652
(dp653
g18
S'9'
p654
sg3
g20
sg21
I12
sg9
g10
sg22
I-1
sg23
g20
sg24
(I0
I0
I0
I0
tp655
sg26
S'//130.60.131.134/fiwi_datenbank/SCR_SOURCE/Masterdatenbank alt Export Einzelbilder/FIWI/SCR/219_1_1/012/9/012_09.jpg'
p656
sg28
g20
sg29
g20
sg30
I00
sg31
I-1
sba(i__main__
Shot
p657
(dp658
g18
S'1'
p659
sg3
g20
sg21
I13
sg9
g10
sg22
I-1
sg23
g20
sg24
(I0
I0
I0
I0
tp660
sg26
S'//130.60.131.134/fiwi_datenbank/SCR_SOURCE/Masterdatenbank alt Export Einzelbilder/FIWI/SCR/219_1_1/013/1/013_01.jpg'
p661
sg28
g20
sg29
g20
sg30
I00
sg31
I-1
sba(i__main__
Shot
p662
(dp663
g18
S'10'
p664
sg3
g20
sg21
I13
sg9
g10
sg22
I-1
sg23
g20
sg24
(I0
I0
I0
I0
tp665
sg26
S'//130.60.131.134/fiwi_datenbank/SCR_SOURCE/Masterdatenbank alt Export Einzelbilder/FIWI/SCR/219_1_1/013/10/013_10.jpg'
p666
sg28
g20
sg29
g20
sg30
I00
sg31
I-1
sba(i__main__
Shot
p667
(dp668
g18
S'11'
p669
sg3
g20
sg21
I13
sg9
g10
sg22
I-1
sg23
g20
sg24
(I0
I0
I0
I0
tp670
sg26
S'//130.60.131.134/fiwi_datenbank/SCR_SOURCE/Masterdatenbank alt Export Einzelbilder/FIWI/SCR/219_1_1/013/11/013_11.jpg'
p671
sg28
g20
sg29
g20
sg30
I00
sg31
I-1
sba(i__main__
Shot
p672
(dp673
g18
S'12'
p674
sg3
g20
sg21
I13
sg9
g10
sg22
I-1
sg23
g20
sg24
(I0
I0
I0
I0
tp675
sg26
S'//130.60.131.134/fiwi_datenbank/SCR_SOURCE/Masterdatenbank alt Export Einzelbilder/FIWI/SCR/219_1_1/013/12/013_12.jpg'
p676
sg28
g20
sg29
g20
sg30
I00
sg31
I-1
sba(i__main__
Shot
p677
(dp678
g18
S'2'
p679
sg3
g20
sg21
I13
sg9
g10
sg22
I-1
sg23
g20
sg24
(I0
I0
I0
I0
tp680
sg26
S'//130.60.131.134/fiwi_datenbank/SCR_SOURCE/Masterdatenbank alt Export Einzelbilder/FIWI/SCR/219_1_1/013/2/013_02.jpg'
p681
sg28
g20
sg29
g20
sg30
I00
sg31
I-1
sba(i__main__
Shot
p682
(dp683
g18
S'3'
p684
sg3
g20
sg21
I13
sg9
g10
sg22
I-1
sg23
g20
sg24
(I0
I0
I0
I0
tp685
sg26
S'//130.60.131.134/fiwi_datenbank/SCR_SOURCE/Masterdatenbank alt Export Einzelbilder/FIWI/SCR/219_1_1/013/3/013_03.jpg'
p686
sg28
g20
sg29
g20
sg30
I00
sg31
I-1
sba(i__main__
Shot
p687
(dp688
g18
S'4'
p689
sg3
g20
sg21
I13
sg9
g10
sg22
I-1
sg23
g20
sg24
(I0
I0
I0
I0
tp690
sg26
S'//130.60.131.134/fiwi_datenbank/SCR_SOURCE/Masterdatenbank alt Export Einzelbilder/FIWI/SCR/219_1_1/013/4/013_04.jpg'
p691
sg28
g20
sg29
g20
sg30
I00
sg31
I-1
sba(i__main__
Shot
p692
(dp693
g18
S'5'
p694
sg3
g20
sg21
I13
sg9
g10
sg22
I-1
sg23
g20
sg24
(I0
I0
I0
I0
tp695
sg26
S'//130.60.131.134/fiwi_datenbank/SCR_SOURCE/Masterdatenbank alt Export Einzelbilder/FIWI/SCR/219_1_1/013/5/013_05.jpg'
p696
sg28
g20
sg29
g20
sg30
I00
sg31
I-1
sba(i__main__
Shot
p697
(dp698
g18
S'6'
p699
sg3
g20
sg21
I13
sg9
g10
sg22
I-1
sg23
g20
sg24
(I0
I0
I0
I0
tp700
sg26
S'//130.60.131.134/fiwi_datenbank/SCR_SOURCE/Masterdatenbank alt Export Einzelbilder/FIWI/SCR/219_1_1/013/6/013_06.jpg'
p701
sg28
g20
sg29
g20
sg30
I00
sg31
I-1
sba(i__main__
Shot
p702
(dp703
g18
S'7'
p704
sg3
g20
sg21
I13
sg9
g10
sg22
I-1
sg23
g20
sg24
(I0
I0
I0
I0
tp705
sg26
S'//130.60.131.134/fiwi_datenbank/SCR_SOURCE/Masterdatenbank alt Export Einzelbilder/FIWI/SCR/219_1_1/013/7/013_07.jpg'
p706
sg28
g20
sg29
g20
sg30
I00
sg31
I-1
sba(i__main__
Shot
p707
(dp708
g18
S'8'
p709
sg3
g20
sg21
I13
sg9
g10
sg22
I-1
sg23
g20
sg24
(I0
I0
I0
I0
tp710
sg26
S'//130.60.131.134/fiwi_datenbank/SCR_SOURCE/Masterdatenbank alt Export Einzelbilder/FIWI/SCR/219_1_1/013/8/013_08.jpg'
p711
sg28
g20
sg29
g20
sg30
I00
sg31
I-1
sba(i__main__
Shot
p712
(dp713
g18
S'9'
p714
sg3
g20
sg21
I13
sg9
g10
sg22
I-1
sg23
g20
sg24
(I0
I0
I0
I0
tp715
sg26
S'//130.60.131.134/fiwi_datenbank/SCR_SOURCE/Masterdatenbank alt Export Einzelbilder/FIWI/SCR/219_1_1/013/9/013_09.jpg'
p716
sg28
g20
sg29
g20
sg30
I00
sg31
I-1
sba(i__main__
Shot
p717
(dp718
g18
S'1'
p719
sg3
g20
sg21
I14
sg9
g10
sg22
I-1
sg23
g20
sg24
(I0
I0
I0
I0
tp720
sg26
S'//130.60.131.134/fiwi_datenbank/SCR_SOURCE/Masterdatenbank alt Export Einzelbilder/FIWI/SCR/219_1_1/014/1/014_01.jpg'
p721
sg28
g20
sg29
g20
sg30
I00
sg31
I-1
sba(i__main__
Shot
p722
(dp723
g18
S'2'
p724
sg3
g20
sg21
I14
sg9
g10
sg22
I-1
sg23
g20
sg24
(I0
I0
I0
I0
tp725
sg26
S'//130.60.131.134/fiwi_datenbank/SCR_SOURCE/Masterdatenbank alt Export Einzelbilder/FIWI/SCR/219_1_1/014/2/014_03.jpg'
p726
sg28
g20
sg29
g20
sg30
I00
sg31
I-1
sba(i__main__
Shot
p727
(dp728
g18
S'3'
p729
sg3
g20
sg21
I14
sg9
g10
sg22
I-1
sg23
g20
sg24
(I0
I0
I0
I0
tp730
sg26
S'//130.60.131.134/fiwi_datenbank/SCR_SOURCE/Masterdatenbank alt Export Einzelbilder/FIWI/SCR/219_1_1/014/3/014_03.jpg'
p731
sg28
g20
sg29
g20
sg30
I00
sg31
I-1
sba(i__main__
Shot
p732
(dp733
g18
S'4'
p734
sg3
g20
sg21
I14
sg9
g10
sg22
I-1
sg23
g20
sg24
(I0
I0
I0
I0
tp735
sg26
S'//130.60.131.134/fiwi_datenbank/SCR_SOURCE/Masterdatenbank alt Export Einzelbilder/FIWI/SCR/219_1_1/014/4/014_04.jpg'
p736
sg28
g20
sg29
g20
sg30
I00
sg31
I-1
sba(i__main__
Shot
p737
(dp738
g18
S'1'
p739
sg3
g20
sg21
I15
sg9
g10
sg22
I-1
sg23
g20
sg24
(I0
I0
I0
I0
tp740
sg26
S'//130.60.131.134/fiwi_datenbank/SCR_SOURCE/Masterdatenbank alt Export Einzelbilder/FIWI/SCR/219_1_1/015/1/015_01.jpg'
p741
sg28
g20
sg29
g20
sg30
I00
sg31
I-1
sba(i__main__
Shot
p742
(dp743
g18
S'2'
p744
sg3
g20
sg21
I15
sg9
g10
sg22
I-1
sg23
g20
sg24
(I0
I0
I0
I0
tp745
sg26
S'//130.60.131.134/fiwi_datenbank/SCR_SOURCE/Masterdatenbank alt Export Einzelbilder/FIWI/SCR/219_1_1/015/2/015_02.jpg'
p746
sg28
g20
sg29
g20
sg30
I00
sg31
I-1
sba(i__main__
Shot
p747
(dp748
g18
S'3'
p749
sg3
g20
sg21
I15
sg9
g10
sg22
I-1
sg23
g20
sg24
(I0
I0
I0
I0
tp750
sg26
S'//130.60.131.134/fiwi_datenbank/SCR_SOURCE/Masterdatenbank alt Export Einzelbilder/FIWI/SCR/219_1_1/015/3/015_03.jpg'
p751
sg28
g20
sg29
g20
sg30
I00
sg31
I-1
sba(i__main__
Shot
p752
(dp753
g18
S'4'
p754
sg3
g20
sg21
I15
sg9
g10
sg22
I-1
sg23
g20
sg24
(I0
I0
I0
I0
tp755
sg26
S'//130.60.131.134/fiwi_datenbank/SCR_SOURCE/Masterdatenbank alt Export Einzelbilder/FIWI/SCR/219_1_1/015/4/015_04.jpg'
p756
sg28
g20
sg29
g20
sg30
I00
sg31
I-1
sba(i__main__
Shot
p757
(dp758
g18
S'5'
p759
sg3
g20
sg21
I15
sg9
g10
sg22
I-1
sg23
g20
sg24
(I0
I0
I0
I0
tp760
sg26
S'//130.60.131.134/fiwi_datenbank/SCR_SOURCE/Masterdatenbank alt Export Einzelbilder/FIWI/SCR/219_1_1/015/5/015_05.jpg'
p761
sg28
g20
sg29
g20
sg30
I00
sg31
I-1
sba(i__main__
Shot
p762
(dp763
g18
S'6'
p764
sg3
g20
sg21
I15
sg9
g10
sg22
I-1
sg23
g20
sg24
(I0
I0
I0
I0
tp765
sg26
S'//130.60.131.134/fiwi_datenbank/SCR_SOURCE/Masterdatenbank alt Export Einzelbilder/FIWI/SCR/219_1_1/015/6/015_06.jpg'
p766
sg28
g20
sg29
g20
sg30
I00
sg31
I-1
sba(i__main__
Shot
p767
(dp768
g18
S'7'
p769
sg3
g20
sg21
I15
sg9
g10
sg22
I-1
sg23
g20
sg24
(I0
I0
I0
I0
tp770
sg26
S'//130.60.131.134/fiwi_datenbank/SCR_SOURCE/Masterdatenbank alt Export Einzelbilder/FIWI/SCR/219_1_1/015/7/015_07.jpg'
p771
sg28
g20
sg29
g20
sg30
I00
sg31
I-1
sba(i__main__
Shot
p772
(dp773
g18
S'1'
p774
sg3
g20
sg21
I16
sg9
g10
sg22
I-1
sg23
g20
sg24
(I0
I0
I0
I0
tp775
sg26
S'//130.60.131.134/fiwi_datenbank/SCR_SOURCE/Masterdatenbank alt Export Einzelbilder/FIWI/SCR/219_1_1/016/1/016_01.jpg'
p776
sg28
g20
sg29
g20
sg30
I00
sg31
I-1
sba(i__main__
Shot
p777
(dp778
g18
S'10'
p779
sg3
g20
sg21
I16
sg9
g10
sg22
I-1
sg23
g20
sg24
(I0
I0
I0
I0
tp780
sg26
S'//130.60.131.134/fiwi_datenbank/SCR_SOURCE/Masterdatenbank alt Export Einzelbilder/FIWI/SCR/219_1_1/016/10/016_10.jpg'
p781
sg28
g20
sg29
g20
sg30
I00
sg31
I-1
sba(i__main__
Shot
p782
(dp783
g18
S'11'
p784
sg3
g20
sg21
I16
sg9
g10
sg22
I-1
sg23
g20
sg24
(I0
I0
I0
I0
tp785
sg26
S'//130.60.131.134/fiwi_datenbank/SCR_SOURCE/Masterdatenbank alt Export Einzelbilder/FIWI/SCR/219_1_1/016/11/016_11.jpg'
p786
sg28
g20
sg29
g20
sg30
I00
sg31
I-1
sba(i__main__
Shot
p787
(dp788
g18
S'12'
p789
sg3
g20
sg21
I16
sg9
g10
sg22
I-1
sg23
g20
sg24
(I0
I0
I0
I0
tp790
sg26
S'//130.60.131.134/fiwi_datenbank/SCR_SOURCE/Masterdatenbank alt Export Einzelbilder/FIWI/SCR/219_1_1/016/12/016_12.jpg'
p791
sg28
g20
sg29
g20
sg30
I00
sg31
I-1
sba(i__main__
Shot
p792
(dp793
g18
S'13'
p794
sg3
g20
sg21
I16
sg9
g10
sg22
I-1
sg23
g20
sg24
(I0
I0
I0
I0
tp795
sg26
S'//130.60.131.134/fiwi_datenbank/SCR_SOURCE/Masterdatenbank alt Export Einzelbilder/FIWI/SCR/219_1_1/016/13/016_13.jpg'
p796
sg28
g20
sg29
g20
sg30
I00
sg31
I-1
sba(i__main__
Shot
p797
(dp798
g18
S'14'
p799
sg3
g20
sg21
I16
sg9
g10
sg22
I-1
sg23
g20
sg24
(I0
I0
I0
I0
tp800
sg26
S'//130.60.131.134/fiwi_datenbank/SCR_SOURCE/Masterdatenbank alt Export Einzelbilder/FIWI/SCR/219_1_1/016/14/016_14.jpg'
p801
sg28
g20
sg29
g20
sg30
I00
sg31
I-1
sba(i__main__
Shot
p802
(dp803
g18
S'15'
p804
sg3
g20
sg21
I16
sg9
g10
sg22
I-1
sg23
g20
sg24
(I0
I0
I0
I0
tp805
sg26
S'//130.60.131.134/fiwi_datenbank/SCR_SOURCE/Masterdatenbank alt Export Einzelbilder/FIWI/SCR/219_1_1/016/15/016_15.jpg'
p806
sg28
g20
sg29
g20
sg30
I00
sg31
I-1
sba(i__main__
Shot
p807
(dp808
g18
S'16'
p809
sg3
g20
sg21
I16
sg9
g10
sg22
I-1
sg23
g20
sg24
(I0
I0
I0
I0
tp810
sg26
S'//130.60.131.134/fiwi_datenbank/SCR_SOURCE/Masterdatenbank alt Export Einzelbilder/FIWI/SCR/219_1_1/016/16/016_16.jpg'
p811
sg28
g20
sg29
g20
sg30
I00
sg31
I-1
sba(i__main__
Shot
p812
(dp813
g18
S'17'
p814
sg3
g20
sg21
I16
sg9
g10
sg22
I-1
sg23
g20
sg24
(I0
I0
I0
I0
tp815
sg26
S'//130.60.131.134/fiwi_datenbank/SCR_SOURCE/Masterdatenbank alt Export Einzelbilder/FIWI/SCR/219_1_1/016/17/016_17.jpg'
p816
sg28
g20
sg29
g20
sg30
I00
sg31
I-1
sba(i__main__
Shot
p817
(dp818
g18
S'18'
p819
sg3
g20
sg21
I16
sg9
g10
sg22
I-1
sg23
g20
sg24
(I0
I0
I0
I0
tp820
sg26
S'//130.60.131.134/fiwi_datenbank/SCR_SOURCE/Masterdatenbank alt Export Einzelbilder/FIWI/SCR/219_1_1/016/18/016_18.jpg'
p821
sg28
g20
sg29
g20
sg30
I00
sg31
I-1
sba(i__main__
Shot
p822
(dp823
g18
S'19'
p824
sg3
g20
sg21
I16
sg9
g10
sg22
I-1
sg23
g20
sg24
(I0
I0
I0
I0
tp825
sg26
S'//130.60.131.134/fiwi_datenbank/SCR_SOURCE/Masterdatenbank alt Export Einzelbilder/FIWI/SCR/219_1_1/016/19/016_19.jpg'
p826
sg28
g20
sg29
g20
sg30
I00
sg31
I-1
sba(i__main__
Shot
p827
(dp828
g18
S'2'
p829
sg3
g20
sg21
I16
sg9
g10
sg22
I-1
sg23
g20
sg24
(I0
I0
I0
I0
tp830
sg26
S'//130.60.131.134/fiwi_datenbank/SCR_SOURCE/Masterdatenbank alt Export Einzelbilder/FIWI/SCR/219_1_1/016/2/016_02.jpg'
p831
sg28
g20
sg29
g20
sg30
I00
sg31
I-1
sba(i__main__
Shot
p832
(dp833
g18
S'20'
p834
sg3
g20
sg21
I16
sg9
g10
sg22
I-1
sg23
g20
sg24
(I0
I0
I0
I0
tp835
sg26
S'//130.60.131.134/fiwi_datenbank/SCR_SOURCE/Masterdatenbank alt Export Einzelbilder/FIWI/SCR/219_1_1/016/20/016_20.jpg'
p836
sg28
g20
sg29
g20
sg30
I00
sg31
I-1
sba(i__main__
Shot
p837
(dp838
g18
S'21'
p839
sg3
g20
sg21
I16
sg9
g10
sg22
I-1
sg23
g20
sg24
(I0
I0
I0
I0
tp840
sg26
S'//130.60.131.134/fiwi_datenbank/SCR_SOURCE/Masterdatenbank alt Export Einzelbilder/FIWI/SCR/219_1_1/016/21/016_21.jpg'
p841
sg28
g20
sg29
g20
sg30
I00
sg31
I-1
sba(i__main__
Shot
p842
(dp843
g18
S'3'
p844
sg3
g20
sg21
I16
sg9
g10
sg22
I-1
sg23
g20
sg24
(I0
I0
I0
I0
tp845
sg26
S'//130.60.131.134/fiwi_datenbank/SCR_SOURCE/Masterdatenbank alt Export Einzelbilder/FIWI/SCR/219_1_1/016/3/016_03.jpg'
p846
sg28
g20
sg29
g20
sg30
I00
sg31
I-1
sba(i__main__
Shot
p847
(dp848
g18
S'4'
p849
sg3
g20
sg21
I16
sg9
g10
sg22
I-1
sg23
g20
sg24
(I0
I0
I0
I0
tp850
sg26
S'//130.60.131.134/fiwi_datenbank/SCR_SOURCE/Masterdatenbank alt Export Einzelbilder/FIWI/SCR/219_1_1/016/4/016_04.jpg'
p851
sg28
g20
sg29
g20
sg30
I00
sg31
I-1
sba(i__main__
Shot
p852
(dp853
g18
S'5'
p854
sg3
g20
sg21
I16
sg9
g10
sg22
I-1
sg23
g20
sg24
(I0
I0
I0
I0
tp855
sg26
S'//130.60.131.134/fiwi_datenbank/SCR_SOURCE/Masterdatenbank alt Export Einzelbilder/FIWI/SCR/219_1_1/016/5/016_05.jpg'
p856
sg28
g20
sg29
g20
sg30
I00
sg31
I-1
sba(i__main__
Shot
p857
(dp858
g18
S'6'
p859
sg3
g20
sg21
I16
sg9
g10
sg22
I-1
sg23
g20
sg24
(I0
I0
I0
I0
tp860
sg26
S'//130.60.131.134/fiwi_datenbank/SCR_SOURCE/Masterdatenbank alt Export Einzelbilder/FIWI/SCR/219_1_1/016/6/016_06.jpg'
p861
sg28
g20
sg29
g20
sg30
I00
sg31
I-1
sba(i__main__
Shot
p862
(dp863
g18
S'7'
p864
sg3
g20
sg21
I16
sg9
g10
sg22
I-1
sg23
g20
sg24
(I0
I0
I0
I0
tp865
sg26
S'//130.60.131.134/fiwi_datenbank/SCR_SOURCE/Masterdatenbank alt Export Einzelbilder/FIWI/SCR/219_1_1/016/7/016_07.jpg'
p866
sg28
g20
sg29
g20
sg30
I00
sg31
I-1
sba(i__main__
Shot
p867
(dp868
g18
S'8'
p869
sg3
g20
sg21
I16
sg9
g10
sg22
I-1
sg23
g20
sg24
(I0
I0
I0
I0
tp870
sg26
S'//130.60.131.134/fiwi_datenbank/SCR_SOURCE/Masterdatenbank alt Export Einzelbilder/FIWI/SCR/219_1_1/016/8/016_08.jpg'
p871
sg28
g20
sg29
g20
sg30
I00
sg31
I-1
sba(i__main__
Shot
p872
(dp873
g18
S'9'
p874
sg3
g20
sg21
I16
sg9
g10
sg22
I-1
sg23
g20
sg24
(I0
I0
I0
I0
tp875
sg26
S'//130.60.131.134/fiwi_datenbank/SCR_SOURCE/Masterdatenbank alt Export Einzelbilder/FIWI/SCR/219_1_1/016/9/016_09.jpg'
p876
sg28
g20
sg29
g20
sg30
I00
sg31
I-1
sba(i__main__
Shot
p877
(dp878
g18
S'1'
p879
sg3
g20
sg21
I17
sg9
g10
sg22
I-1
sg23
g20
sg24
(I0
I0
I0
I0
tp880
sg26
S'//130.60.131.134/fiwi_datenbank/SCR_SOURCE/Masterdatenbank alt Export Einzelbilder/FIWI/SCR/219_1_1/017/1/017_01.jpg'
p881
sg28
g20
sg29
g20
sg30
I00
sg31
I-1
sba(i__main__
Shot
p882
(dp883
g18
S'2'
p884
sg3
g20
sg21
I17
sg9
g10
sg22
I-1
sg23
g20
sg24
(I0
I0
I0
I0
tp885
sg26
S'//130.60.131.134/fiwi_datenbank/SCR_SOURCE/Masterdatenbank alt Export Einzelbilder/FIWI/SCR/219_1_1/017/2/017_02.jpg'
p886
sg28
g20
sg29
g20
sg30
I00
sg31
I-1
sba(i__main__
Shot
p887
(dp888
g18
S'3'
p889
sg3
g20
sg21
I17
sg9
g10
sg22
I-1
sg23
g20
sg24
(I0
I0
I0
I0
tp890
sg26
S'//130.60.131.134/fiwi_datenbank/SCR_SOURCE/Masterdatenbank alt Export Einzelbilder/FIWI/SCR/219_1_1/017/3/017_03.jpg'
p891
sg28
g20
sg29
g20
sg30
I00
sg31
I-1
sba(i__main__
Shot
p892
(dp893
g18
S'4'
p894
sg3
g20
sg21
I17
sg9
g10
sg22
I-1
sg23
g20
sg24
(I0
I0
I0
I0
tp895
sg26
S'//130.60.131.134/fiwi_datenbank/SCR_SOURCE/Masterdatenbank alt Export Einzelbilder/FIWI/SCR/219_1_1/017/4/017_04.jpg'
p896
sg28
g20
sg29
g20
sg30
I00
sg31
I-1
sba(i__main__
Shot
p897
(dp898
g18
S'5'
p899
sg3
g20
sg21
I17
sg9
g10
sg22
I-1
sg23
g20
sg24
(I0
I0
I0
I0
tp900
sg26
S'//130.60.131.134/fiwi_datenbank/SCR_SOURCE/Masterdatenbank alt Export Einzelbilder/FIWI/SCR/219_1_1/017/5/017_05.jpg'
p901
sg28
g20
sg29
g20
sg30
I00
sg31
I-1
sba(i__main__
Shot
p902
(dp903
g18
S'6'
p904
sg3
g20
sg21
I17
sg9
g10
sg22
I-1
sg23
g20
sg24
(I0
I0
I0
I0
tp905
sg26
S'//130.60.131.134/fiwi_datenbank/SCR_SOURCE/Masterdatenbank alt Export Einzelbilder/FIWI/SCR/219_1_1/017/6/017_06.jpg'
p906
sg28
g20
sg29
g20
sg30
I00
sg31
I-1
sba(i__main__
Shot
p907
(dp908
g18
S'7'
p909
sg3
g20
sg21
I17
sg9
g10
sg22
I-1
sg23
g20
sg24
(I0
I0
I0
I0
tp910
sg26
S'//130.60.131.134/fiwi_datenbank/SCR_SOURCE/Masterdatenbank alt Export Einzelbilder/FIWI/SCR/219_1_1/017/7/017_07.jpg'
p911
sg28
g20
sg29
g20
sg30
I00
sg31
I-1
sba(i__main__
Shot
p912
(dp913
g18
S'1'
p914
sg3
g20
sg21
I18
sg9
g10
sg22
I-1
sg23
g20
sg24
(I0
I0
I0
I0
tp915
sg26
S'//130.60.131.134/fiwi_datenbank/SCR_SOURCE/Masterdatenbank alt Export Einzelbilder/FIWI/SCR/219_1_1/018/1/018_01.jpg'
p916
sg28
g20
sg29
g20
sg30
I00
sg31
I-1
sba(i__main__
Shot
p917
(dp918
g18
S'10'
p919
sg3
g20
sg21
I18
sg9
g10
sg22
I-1
sg23
g20
sg24
(I0
I0
I0
I0
tp920
sg26
S'//130.60.131.134/fiwi_datenbank/SCR_SOURCE/Masterdatenbank alt Export Einzelbilder/FIWI/SCR/219_1_1/018/10/018_10.jpg'
p921
sg28
g20
sg29
g20
sg30
I00
sg31
I-1
sba(i__main__
Shot
p922
(dp923
g18
S'11'
p924
sg3
g20
sg21
I18
sg9
g10
sg22
I-1
sg23
g20
sg24
(I0
I0
I0
I0
tp925
sg26
S'//130.60.131.134/fiwi_datenbank/SCR_SOURCE/Masterdatenbank alt Export Einzelbilder/FIWI/SCR/219_1_1/018/11/018_11.jpg'
p926
sg28
g20
sg29
g20
sg30
I00
sg31
I-1
sba(i__main__
Shot
p927
(dp928
g18
S'12'
p929
sg3
g20
sg21
I18
sg9
g10
sg22
I-1
sg23
g20
sg24
(I0
I0
I0
I0
tp930
sg26
S'//130.60.131.134/fiwi_datenbank/SCR_SOURCE/Masterdatenbank alt Export Einzelbilder/FIWI/SCR/219_1_1/018/12/018_12.jpg'
p931
sg28
g20
sg29
g20
sg30
I00
sg31
I-1
sba(i__main__
Shot
p932
(dp933
g18
S'13'
p934
sg3
g20
sg21
I18
sg9
g10
sg22
I-1
sg23
g20
sg24
(I0
I0
I0
I0
tp935
sg26
S'//130.60.131.134/fiwi_datenbank/SCR_SOURCE/Masterdatenbank alt Export Einzelbilder/FIWI/SCR/219_1_1/018/13/018_13.jpg'
p936
sg28
g20
sg29
g20
sg30
I00
sg31
I-1
sba(i__main__
Shot
p937
(dp938
g18
S'14'
p939
sg3
g20
sg21
I18
sg9
g10
sg22
I-1
sg23
g20
sg24
(I0
I0
I0
I0
tp940
sg26
S'//130.60.131.134/fiwi_datenbank/SCR_SOURCE/Masterdatenbank alt Export Einzelbilder/FIWI/SCR/219_1_1/018/14/018_14.jpg'
p941
sg28
g20
sg29
g20
sg30
I00
sg31
I-1
sba(i__main__
Shot
p942
(dp943
g18
S'15'
p944
sg3
g20
sg21
I18
sg9
g10
sg22
I-1
sg23
g20
sg24
(I0
I0
I0
I0
tp945
sg26
S'//130.60.131.134/fiwi_datenbank/SCR_SOURCE/Masterdatenbank alt Export Einzelbilder/FIWI/SCR/219_1_1/018/15/018_15.jpg'
p946
sg28
g20
sg29
g20
sg30
I00
sg31
I-1
sba(i__main__
Shot
p947
(dp948
g18
S'16'
p949
sg3
g20
sg21
I18
sg9
g10
sg22
I-1
sg23
g20
sg24
(I0
I0
I0
I0
tp950
sg26
S'//130.60.131.134/fiwi_datenbank/SCR_SOURCE/Masterdatenbank alt Export Einzelbilder/FIWI/SCR/219_1_1/018/16/018_16.jpg'
p951
sg28
g20
sg29
g20
sg30
I00
sg31
I-1
sba(i__main__
Shot
p952
(dp953
g18
S'17'
p954
sg3
g20
sg21
I18
sg9
g10
sg22
I-1
sg23
g20
sg24
(I0
I0
I0
I0
tp955
sg26
S'//130.60.131.134/fiwi_datenbank/SCR_SOURCE/Masterdatenbank alt Export Einzelbilder/FIWI/SCR/219_1_1/018/17/018_17.jpg'
p956
sg28
g20
sg29
g20
sg30
I00
sg31
I-1
sba(i__main__
Shot
p957
(dp958
g18
S'18'
p959
sg3
g20
sg21
I18
sg9
g10
sg22
I-1
sg23
g20
sg24
(I0
I0
I0
I0
tp960
sg26
S'//130.60.131.134/fiwi_datenbank/SCR_SOURCE/Masterdatenbank alt Export Einzelbilder/FIWI/SCR/219_1_1/018/18/018_18.jpg'
p961
sg28
g20
sg29
g20
sg30
I00
sg31
I-1
sba(i__main__
Shot
p962
(dp963
g18
S'19'
p964
sg3
g20
sg21
I18
sg9
g10
sg22
I-1
sg23
g20
sg24
(I0
I0
I0
I0
tp965
sg26
S'//130.60.131.134/fiwi_datenbank/SCR_SOURCE/Masterdatenbank alt Export Einzelbilder/FIWI/SCR/219_1_1/018/19/018_19.jpg'
p966
sg28
g20
sg29
g20
sg30
I00
sg31
I-1
sba(i__main__
Shot
p967
(dp968
g18
S'2'
p969
sg3
g20
sg21
I18
sg9
g10
sg22
I-1
sg23
g20
sg24
(I0
I0
I0
I0
tp970
sg26
S'//130.60.131.134/fiwi_datenbank/SCR_SOURCE/Masterdatenbank alt Export Einzelbilder/FIWI/SCR/219_1_1/018/2/018_02.jpg'
p971
sg28
g20
sg29
g20
sg30
I00
sg31
I-1
sba(i__main__
Shot
p972
(dp973
g18
S'20'
p974
sg3
g20
sg21
I18
sg9
g10
sg22
I-1
sg23
g20
sg24
(I0
I0
I0
I0
tp975
sg26
S'//130.60.131.134/fiwi_datenbank/SCR_SOURCE/Masterdatenbank alt Export Einzelbilder/FIWI/SCR/219_1_1/018/20/018_20.jpg'
p976
sg28
g20
sg29
g20
sg30
I00
sg31
I-1
sba(i__main__
Shot
p977
(dp978
g18
S'21'
p979
sg3
g20
sg21
I18
sg9
g10
sg22
I-1
sg23
g20
sg24
(I0
I0
I0
I0
tp980
sg26
S'//130.60.131.134/fiwi_datenbank/SCR_SOURCE/Masterdatenbank alt Export Einzelbilder/FIWI/SCR/219_1_1/018/21/018_21.jpg'
p981
sg28
g20
sg29
g20
sg30
I00
sg31
I-1
sba(i__main__
Shot
p982
(dp983
g18
S'22'
p984
sg3
g20
sg21
I18
sg9
g10
sg22
I-1
sg23
g20
sg24
(I0
I0
I0
I0
tp985
sg26
S'//130.60.131.134/fiwi_datenbank/SCR_SOURCE/Masterdatenbank alt Export Einzelbilder/FIWI/SCR/219_1_1/018/22/018_22.jpg'
p986
sg28
g20
sg29
g20
sg30
I00
sg31
I-1
sba(i__main__
Shot
p987
(dp988
g18
S'23'
p989
sg3
g20
sg21
I18
sg9
g10
sg22
I-1
sg23
g20
sg24
(I0
I0
I0
I0
tp990
sg26
S'//130.60.131.134/fiwi_datenbank/SCR_SOURCE/Masterdatenbank alt Export Einzelbilder/FIWI/SCR/219_1_1/018/23/018_23.jpg'
p991
sg28
g20
sg29
g20
sg30
I00
sg31
I-1
sba(i__main__
Shot
p992
(dp993
g18
S'3'
p994
sg3
g20
sg21
I18
sg9
g10
sg22
I-1
sg23
g20
sg24
(I0
I0
I0
I0
tp995
sg26
S'//130.60.131.134/fiwi_datenbank/SCR_SOURCE/Masterdatenbank alt Export Einzelbilder/FIWI/SCR/219_1_1/018/3/018_03.jpg'
p996
sg28
g20
sg29
g20
sg30
I00
sg31
I-1
sba(i__main__
Shot
p997
(dp998
g18
S'4'
p999
sg3
g20
sg21
I18
sg9
g10
sg22
I-1
sg23
g20
sg24
(I0
I0
I0
I0
tp1000
sg26
S'//130.60.131.134/fiwi_datenbank/SCR_SOURCE/Masterdatenbank alt Export Einzelbilder/FIWI/SCR/219_1_1/018/4/018_04.jpg'
p1001
sg28
g20
sg29
g20
sg30
I00
sg31
I-1
sba(i__main__
Shot
p1002
(dp1003
g18
S'5'
p1004
sg3
g20
sg21
I18
sg9
g10
sg22
I-1
sg23
g20
sg24
(I0
I0
I0
I0
tp1005
sg26
S'//130.60.131.134/fiwi_datenbank/SCR_SOURCE/Masterdatenbank alt Export Einzelbilder/FIWI/SCR/219_1_1/018/5/018_05.jpg'
p1006
sg28
g20
sg29
g20
sg30
I00
sg31
I-1
sba(i__main__
Shot
p1007
(dp1008
g18
S'6'
p1009
sg3
g20
sg21
I18
sg9
g10
sg22
I-1
sg23
g20
sg24
(I0
I0
I0
I0
tp1010
sg26
S'//130.60.131.134/fiwi_datenbank/SCR_SOURCE/Masterdatenbank alt Export Einzelbilder/FIWI/SCR/219_1_1/018/6/018_06.jpg'
p1011
sg28
g20
sg29
g20
sg30
I00
sg31
I-1
sba(i__main__
Shot
p1012
(dp1013
g18
S'7'
p1014
sg3
g20
sg21
I18
sg9
g10
sg22
I-1
sg23
g20
sg24
(I0
I0
I0
I0
tp1015
sg26
S'//130.60.131.134/fiwi_datenbank/SCR_SOURCE/Masterdatenbank alt Export Einzelbilder/FIWI/SCR/219_1_1/018/7/018_07.jpg'
p1016
sg28
g20
sg29
g20
sg30
I00
sg31
I-1
sba(i__main__
Shot
p1017
(dp1018
g18
S'8'
p1019
sg3
g20
sg21
I18
sg9
g10
sg22
I-1
sg23
g20
sg24
(I0
I0
I0
I0
tp1020
sg26
S'//130.60.131.134/fiwi_datenbank/SCR_SOURCE/Masterdatenbank alt Export Einzelbilder/FIWI/SCR/219_1_1/018/8/018_08.jpg'
p1021
sg28
g20
sg29
g20
sg30
I00
sg31
I-1
sba(i__main__
Shot
p1022
(dp1023
g18
S'9'
p1024
sg3
g20
sg21
I18
sg9
g10
sg22
I-1
sg23
g20
sg24
(I0
I0
I0
I0
tp1025
sg26
S'//130.60.131.134/fiwi_datenbank/SCR_SOURCE/Masterdatenbank alt Export Einzelbilder/FIWI/SCR/219_1_1/018/9/018_09.jpg'
p1026
sg28
g20
sg29
g20
sg30
I00
sg31
I-1
sba(i__main__
Shot
p1027
(dp1028
g18
S'1'
p1029
sg3
g20
sg21
I19
sg9
g10
sg22
I-1
sg23
g20
sg24
(I0
I0
I0
I0
tp1030
sg26
S'//130.60.131.134/fiwi_datenbank/SCR_SOURCE/Masterdatenbank alt Export Einzelbilder/FIWI/SCR/219_1_1/019/1/019_01.jpg'
p1031
sg28
g20
sg29
g20
sg30
I00
sg31
I-1
sba(i__main__
Shot
p1032
(dp1033
g18
S'10'
p1034
sg3
g20
sg21
I19
sg9
g10
sg22
I-1
sg23
g20
sg24
(I0
I0
I0
I0
tp1035
sg26
S'//130.60.131.134/fiwi_datenbank/SCR_SOURCE/Masterdatenbank alt Export Einzelbilder/FIWI/SCR/219_1_1/019/10/019_10.jpg'
p1036
sg28
g20
sg29
g20
sg30
I00
sg31
I-1
sba(i__main__
Shot
p1037
(dp1038
g18
S'11'
p1039
sg3
g20
sg21
I19
sg9
g10
sg22
I-1
sg23
g20
sg24
(I0
I0
I0
I0
tp1040
sg26
S'//130.60.131.134/fiwi_datenbank/SCR_SOURCE/Masterdatenbank alt Export Einzelbilder/FIWI/SCR/219_1_1/019/11/019_11.jpg'
p1041
sg28
g20
sg29
g20
sg30
I00
sg31
I-1
sba(i__main__
Shot
p1042
(dp1043
g18
S'12'
p1044
sg3
g20
sg21
I19
sg9
g10
sg22
I-1
sg23
g20
sg24
(I0
I0
I0
I0
tp1045
sg26
S'//130.60.131.134/fiwi_datenbank/SCR_SOURCE/Masterdatenbank alt Export Einzelbilder/FIWI/SCR/219_1_1/019/12/019_12.jpg'
p1046
sg28
g20
sg29
g20
sg30
I00
sg31
I-1
sba(i__main__
Shot
p1047
(dp1048
g18
S'13'
p1049
sg3
g20
sg21
I19
sg9
g10
sg22
I-1
sg23
g20
sg24
(I0
I0
I0
I0
tp1050
sg26
S'//130.60.131.134/fiwi_datenbank/SCR_SOURCE/Masterdatenbank alt Export Einzelbilder/FIWI/SCR/219_1_1/019/13/019_13.jpg'
p1051
sg28
g20
sg29
g20
sg30
I00
sg31
I-1
sba(i__main__
Shot
p1052
(dp1053
g18
S'14'
p1054
sg3
g20
sg21
I19
sg9
g10
sg22
I-1
sg23
g20
sg24
(I0
I0
I0
I0
tp1055
sg26
S'//130.60.131.134/fiwi_datenbank/SCR_SOURCE/Masterdatenbank alt Export Einzelbilder/FIWI/SCR/219_1_1/019/14/019_14.jpg'
p1056
sg28
g20
sg29
g20
sg30
I00
sg31
I-1
sba(i__main__
Shot
p1057
(dp1058
g18
S'15'
p1059
sg3
g20
sg21
I19
sg9
g10
sg22
I-1
sg23
g20
sg24
(I0
I0
I0
I0
tp1060
sg26
S'//130.60.131.134/fiwi_datenbank/SCR_SOURCE/Masterdatenbank alt Export Einzelbilder/FIWI/SCR/219_1_1/019/15/019_15.jpg'
p1061
sg28
g20
sg29
g20
sg30
I00
sg31
I-1
sba(i__main__
Shot
p1062
(dp1063
g18
S'16'
p1064
sg3
g20
sg21
I19
sg9
g10
sg22
I-1
sg23
g20
sg24
(I0
I0
I0
I0
tp1065
sg26
S'//130.60.131.134/fiwi_datenbank/SCR_SOURCE/Masterdatenbank alt Export Einzelbilder/FIWI/SCR/219_1_1/019/16/019_16.jpg'
p1066
sg28
g20
sg29
g20
sg30
I00
sg31
I-1
sba(i__main__
Shot
p1067
(dp1068
g18
S'17'
p1069
sg3
g20
sg21
I19
sg9
g10
sg22
I-1
sg23
g20
sg24
(I0
I0
I0
I0
tp1070
sg26
S'//130.60.131.134/fiwi_datenbank/SCR_SOURCE/Masterdatenbank alt Export Einzelbilder/FIWI/SCR/219_1_1/019/17/019_17.jpg'
p1071
sg28
g20
sg29
g20
sg30
I00
sg31
I-1
sba(i__main__
Shot
p1072
(dp1073
g18
S'18'
p1074
sg3
g20
sg21
I19
sg9
g10
sg22
I-1
sg23
g20
sg24
(I0
I0
I0
I0
tp1075
sg26
S'//130.60.131.134/fiwi_datenbank/SCR_SOURCE/Masterdatenbank alt Export Einzelbilder/FIWI/SCR/219_1_1/019/18/019_18.jpg'
p1076
sg28
g20
sg29
g20
sg30
I00
sg31
I-1
sba(i__main__
Shot
p1077
(dp1078
g18
S'19'
p1079
sg3
g20
sg21
I19
sg9
g10
sg22
I-1
sg23
g20
sg24
(I0
I0
I0
I0
tp1080
sg26
S'//130.60.131.134/fiwi_datenbank/SCR_SOURCE/Masterdatenbank alt Export Einzelbilder/FIWI/SCR/219_1_1/019/19/019_19.jpg'
p1081
sg28
g20
sg29
g20
sg30
I00
sg31
I-1
sba(i__main__
Shot
p1082
(dp1083
g18
S'2'
p1084
sg3
g20
sg21
I19
sg9
g10
sg22
I-1
sg23
g20
sg24
(I0
I0
I0
I0
tp1085
sg26
S'//130.60.131.134/fiwi_datenbank/SCR_SOURCE/Masterdatenbank alt Export Einzelbilder/FIWI/SCR/219_1_1/019/2/019_02.jpg'
p1086
sg28
g20
sg29
g20
sg30
I00
sg31
I-1
sba(i__main__
Shot
p1087
(dp1088
g18
S'20'
p1089
sg3
g20
sg21
I19
sg9
g10
sg22
I-1
sg23
g20
sg24
(I0
I0
I0
I0
tp1090
sg26
S'//130.60.131.134/fiwi_datenbank/SCR_SOURCE/Masterdatenbank alt Export Einzelbilder/FIWI/SCR/219_1_1/019/20/019_20.jpg'
p1091
sg28
g20
sg29
g20
sg30
I00
sg31
I-1
sba(i__main__
Shot
p1092
(dp1093
g18
S'21'
p1094
sg3
g20
sg21
I19
sg9
g10
sg22
I-1
sg23
g20
sg24
(I0
I0
I0
I0
tp1095
sg26
S'//130.60.131.134/fiwi_datenbank/SCR_SOURCE/Masterdatenbank alt Export Einzelbilder/FIWI/SCR/219_1_1/019/21/019_21.jpg'
p1096
sg28
g20
sg29
g20
sg30
I00
sg31
I-1
sba(i__main__
Shot
p1097
(dp1098
g18
S'22'
p1099
sg3
g20
sg21
I19
sg9
g10
sg22
I-1
sg23
g20
sg24
(I0
I0
I0
I0
tp1100
sg26
S'//130.60.131.134/fiwi_datenbank/SCR_SOURCE/Masterdatenbank alt Export Einzelbilder/FIWI/SCR/219_1_1/019/22/019_22.jpg'
p1101
sg28
g20
sg29
g20
sg30
I00
sg31
I-1
sba(i__main__
Shot
p1102
(dp1103
g18
S'23'
p1104
sg3
g20
sg21
I19
sg9
g10
sg22
I-1
sg23
g20
sg24
(I0
I0
I0
I0
tp1105
sg26
S'//130.60.131.134/fiwi_datenbank/SCR_SOURCE/Masterdatenbank alt Export Einzelbilder/FIWI/SCR/219_1_1/019/23/019_23.jpg'
p1106
sg28
g20
sg29
g20
sg30
I00
sg31
I-1
sba(i__main__
Shot
p1107
(dp1108
g18
S'24'
p1109
sg3
g20
sg21
I19
sg9
g10
sg22
I-1
sg23
g20
sg24
(I0
I0
I0
I0
tp1110
sg26
S'//130.60.131.134/fiwi_datenbank/SCR_SOURCE/Masterdatenbank alt Export Einzelbilder/FIWI/SCR/219_1_1/019/24/019_24.jpg'
p1111
sg28
g20
sg29
g20
sg30
I00
sg31
I-1
sba(i__main__
Shot
p1112
(dp1113
g18
S'25'
p1114
sg3
g20
sg21
I19
sg9
g10
sg22
I-1
sg23
g20
sg24
(I0
I0
I0
I0
tp1115
sg26
S'//130.60.131.134/fiwi_datenbank/SCR_SOURCE/Masterdatenbank alt Export Einzelbilder/FIWI/SCR/219_1_1/019/25/019_25.jpg'
p1116
sg28
g20
sg29
g20
sg30
I00
sg31
I-1
sba(i__main__
Shot
p1117
(dp1118
g18
S'26'
p1119
sg3
g20
sg21
I19
sg9
g10
sg22
I-1
sg23
g20
sg24
(I0
I0
I0
I0
tp1120
sg26
S'//130.60.131.134/fiwi_datenbank/SCR_SOURCE/Masterdatenbank alt Export Einzelbilder/FIWI/SCR/219_1_1/019/26/019_26.jpg'
p1121
sg28
g20
sg29
g20
sg30
I00
sg31
I-1
sba(i__main__
Shot
p1122
(dp1123
g18
S'3'
p1124
sg3
g20
sg21
I19
sg9
g10
sg22
I-1
sg23
g20
sg24
(I0
I0
I0
I0
tp1125
sg26
S'//130.60.131.134/fiwi_datenbank/SCR_SOURCE/Masterdatenbank alt Export Einzelbilder/FIWI/SCR/219_1_1/019/3/019_03.jpg'
p1126
sg28
g20
sg29
g20
sg30
I00
sg31
I-1
sba(i__main__
Shot
p1127
(dp1128
g18
S'4'
p1129
sg3
g20
sg21
I19
sg9
g10
sg22
I-1
sg23
g20
sg24
(I0
I0
I0
I0
tp1130
sg26
S'//130.60.131.134/fiwi_datenbank/SCR_SOURCE/Masterdatenbank alt Export Einzelbilder/FIWI/SCR/219_1_1/019/4/019_04.jpg'
p1131
sg28
g20
sg29
g20
sg30
I00
sg31
I-1
sba(i__main__
Shot
p1132
(dp1133
g18
S'5'
p1134
sg3
g20
sg21
I19
sg9
g10
sg22
I-1
sg23
g20
sg24
(I0
I0
I0
I0
tp1135
sg26
S'//130.60.131.134/fiwi_datenbank/SCR_SOURCE/Masterdatenbank alt Export Einzelbilder/FIWI/SCR/219_1_1/019/5/019_05.jpg'
p1136
sg28
g20
sg29
g20
sg30
I00
sg31
I-1
sba(i__main__
Shot
p1137
(dp1138
g18
S'6'
p1139
sg3
g20
sg21
I19
sg9
g10
sg22
I-1
sg23
g20
sg24
(I0
I0
I0
I0
tp1140
sg26
S'//130.60.131.134/fiwi_datenbank/SCR_SOURCE/Masterdatenbank alt Export Einzelbilder/FIWI/SCR/219_1_1/019/6/019_06.jpg'
p1141
sg28
g20
sg29
g20
sg30
I00
sg31
I-1
sba(i__main__
Shot
p1142
(dp1143
g18
S'7'
p1144
sg3
g20
sg21
I19
sg9
g10
sg22
I-1
sg23
g20
sg24
(I0
I0
I0
I0
tp1145
sg26
S'//130.60.131.134/fiwi_datenbank/SCR_SOURCE/Masterdatenbank alt Export Einzelbilder/FIWI/SCR/219_1_1/019/7/019_07.jpg'
p1146
sg28
g20
sg29
g20
sg30
I00
sg31
I-1
sba(i__main__
Shot
p1147
(dp1148
g18
S'8'
p1149
sg3
g20
sg21
I19
sg9
g10
sg22
I-1
sg23
g20
sg24
(I0
I0
I0
I0
tp1150
sg26
S'//130.60.131.134/fiwi_datenbank/SCR_SOURCE/Masterdatenbank alt Export Einzelbilder/FIWI/SCR/219_1_1/019/8/019_08.jpg'
p1151
sg28
g20
sg29
g20
sg30
I00
sg31
I-1
sba(i__main__
Shot
p1152
(dp1153
g18
S'9'
p1154
sg3
g20
sg21
I19
sg9
g10
sg22
I-1
sg23
g20
sg24
(I0
I0
I0
I0
tp1155
sg26
S'//130.60.131.134/fiwi_datenbank/SCR_SOURCE/Masterdatenbank alt Export Einzelbilder/FIWI/SCR/219_1_1/019/9/019_09.jpg'
p1156
sg28
g20
sg29
g20
sg30
I00
sg31
I-1
sba(i__main__
Shot
p1157
(dp1158
g18
S'1'
p1159
sg3
g20
sg21
I20
sg9
g10
sg22
I-1
sg23
g20
sg24
(I0
I0
I0
I0
tp1160
sg26
S'//130.60.131.134/fiwi_datenbank/SCR_SOURCE/Masterdatenbank alt Export Einzelbilder/FIWI/SCR/219_1_1/020/1/020_01.jpg'
p1161
sg28
g20
sg29
g20
sg30
I00
sg31
I-1
sba(i__main__
Shot
p1162
(dp1163
g18
S'10'
p1164
sg3
g20
sg21
I20
sg9
g10
sg22
I-1
sg23
g20
sg24
(I0
I0
I0
I0
tp1165
sg26
S'//130.60.131.134/fiwi_datenbank/SCR_SOURCE/Masterdatenbank alt Export Einzelbilder/FIWI/SCR/219_1_1/020/10/020_10.jpg'
p1166
sg28
g20
sg29
g20
sg30
I00
sg31
I-1
sba(i__main__
Shot
p1167
(dp1168
g18
S'2'
p1169
sg3
g20
sg21
I20
sg9
g10
sg22
I-1
sg23
g20
sg24
(I0
I0
I0
I0
tp1170
sg26
S'//130.60.131.134/fiwi_datenbank/SCR_SOURCE/Masterdatenbank alt Export Einzelbilder/FIWI/SCR/219_1_1/020/2/020_02.jpg'
p1171
sg28
g20
sg29
g20
sg30
I00
sg31
I-1
sba(i__main__
Shot
p1172
(dp1173
g18
S'3'
p1174
sg3
g20
sg21
I20
sg9
g10
sg22
I-1
sg23
g20
sg24
(I0
I0
I0
I0
tp1175
sg26
S'//130.60.131.134/fiwi_datenbank/SCR_SOURCE/Masterdatenbank alt Export Einzelbilder/FIWI/SCR/219_1_1/020/3/020_03.jpg'
p1176
sg28
g20
sg29
g20
sg30
I00
sg31
I-1
sba(i__main__
Shot
p1177
(dp1178
g18
S'4'
p1179
sg3
g20
sg21
I20
sg9
g10
sg22
I-1
sg23
g20
sg24
(I0
I0
I0
I0
tp1180
sg26
S'//130.60.131.134/fiwi_datenbank/SCR_SOURCE/Masterdatenbank alt Export Einzelbilder/FIWI/SCR/219_1_1/020/4/020_04.jpg'
p1181
sg28
g20
sg29
g20
sg30
I00
sg31
I-1
sba(i__main__
Shot
p1182
(dp1183
g18
S'5'
p1184
sg3
g20
sg21
I20
sg9
g10
sg22
I-1
sg23
g20
sg24
(I0
I0
I0
I0
tp1185
sg26
S'//130.60.131.134/fiwi_datenbank/SCR_SOURCE/Masterdatenbank alt Export Einzelbilder/FIWI/SCR/219_1_1/020/5/020_05.jpg'
p1186
sg28
g20
sg29
g20
sg30
I00
sg31
I-1
sba(i__main__
Shot
p1187
(dp1188
g18
S'6'
p1189
sg3
g20
sg21
I20
sg9
g10
sg22
I-1
sg23
g20
sg24
(I0
I0
I0
I0
tp1190
sg26
S'//130.60.131.134/fiwi_datenbank/SCR_SOURCE/Masterdatenbank alt Export Einzelbilder/FIWI/SCR/219_1_1/020/6/020_06.jpg'
p1191
sg28
g20
sg29
g20
sg30
I00
sg31
I-1
sba(i__main__
Shot
p1192
(dp1193
g18
S'7'
p1194
sg3
g20
sg21
I20
sg9
g10
sg22
I-1
sg23
g20
sg24
(I0
I0
I0
I0
tp1195
sg26
S'//130.60.131.134/fiwi_datenbank/SCR_SOURCE/Masterdatenbank alt Export Einzelbilder/FIWI/SCR/219_1_1/020/7/020_07.jpg'
p1196
sg28
g20
sg29
g20
sg30
I00
sg31
I-1
sba(i__main__
Shot
p1197
(dp1198
g18
S'8'
p1199
sg3
g20
sg21
I20
sg9
g10
sg22
I-1
sg23
g20
sg24
(I0
I0
I0
I0
tp1200
sg26
S'//130.60.131.134/fiwi_datenbank/SCR_SOURCE/Masterdatenbank alt Export Einzelbilder/FIWI/SCR/219_1_1/020/8/020_08.jpg'
p1201
sg28
g20
sg29
g20
sg30
I00
sg31
I-1
sba(i__main__
Shot
p1202
(dp1203
g18
S'9'
p1204
sg3
g20
sg21
I20
sg9
g10
sg22
I-1
sg23
g20
sg24
(I0
I0
I0
I0
tp1205
sg26
S'//130.60.131.134/fiwi_datenbank/SCR_SOURCE/Masterdatenbank alt Export Einzelbilder/FIWI/SCR/219_1_1/020/9/020_09.jpg'
p1206
sg28
g20
sg29
g20
sg30
I00
sg31
I-1
sba(i__main__
Shot
p1207
(dp1208
g18
S'1'
p1209
sg3
g20
sg21
I21
sg9
g10
sg22
I-1
sg23
g20
sg24
(I0
I0
I0
I0
tp1210
sg26
S'//130.60.131.134/fiwi_datenbank/SCR_SOURCE/Masterdatenbank alt Export Einzelbilder/FIWI/SCR/219_1_1/021/1/021_01.jpg'
p1211
sg28
g20
sg29
g20
sg30
I00
sg31
I-1
sba(i__main__
Shot
p1212
(dp1213
g18
S'10'
p1214
sg3
g20
sg21
I21
sg9
g10
sg22
I-1
sg23
g20
sg24
(I0
I0
I0
I0
tp1215
sg26
S'//130.60.131.134/fiwi_datenbank/SCR_SOURCE/Masterdatenbank alt Export Einzelbilder/FIWI/SCR/219_1_1/021/10/021_10.jpg'
p1216
sg28
g20
sg29
g20
sg30
I00
sg31
I-1
sba(i__main__
Shot
p1217
(dp1218
g18
S'11'
p1219
sg3
g20
sg21
I21
sg9
g10
sg22
I-1
sg23
g20
sg24
(I0
I0
I0
I0
tp1220
sg26
S'//130.60.131.134/fiwi_datenbank/SCR_SOURCE/Masterdatenbank alt Export Einzelbilder/FIWI/SCR/219_1_1/021/11/021_11.jpg'
p1221
sg28
g20
sg29
g20
sg30
I00
sg31
I-1
sba(i__main__
Shot
p1222
(dp1223
g18
S'12'
p1224
sg3
g20
sg21
I21
sg9
g10
sg22
I-1
sg23
g20
sg24
(I0
I0
I0
I0
tp1225
sg26
S'//130.60.131.134/fiwi_datenbank/SCR_SOURCE/Masterdatenbank alt Export Einzelbilder/FIWI/SCR/219_1_1/021/12/021_12.jpg'
p1226
sg28
g20
sg29
g20
sg30
I00
sg31
I-1
sba(i__main__
Shot
p1227
(dp1228
g18
S'13'
p1229
sg3
g20
sg21
I21
sg9
g10
sg22
I-1
sg23
g20
sg24
(I0
I0
I0
I0
tp1230
sg26
S'//130.60.131.134/fiwi_datenbank/SCR_SOURCE/Masterdatenbank alt Export Einzelbilder/FIWI/SCR/219_1_1/021/13/021_13.jpg'
p1231
sg28
g20
sg29
g20
sg30
I00
sg31
I-1
sba(i__main__
Shot
p1232
(dp1233
g18
S'14'
p1234
sg3
g20
sg21
I21
sg9
g10
sg22
I-1
sg23
g20
sg24
(I0
I0
I0
I0
tp1235
sg26
S'//130.60.131.134/fiwi_datenbank/SCR_SOURCE/Masterdatenbank alt Export Einzelbilder/FIWI/SCR/219_1_1/021/14/021_14.jpg'
p1236
sg28
g20
sg29
g20
sg30
I00
sg31
I-1
sba(i__main__
Shot
p1237
(dp1238
g18
S'15'
p1239
sg3
g20
sg21
I21
sg9
g10
sg22
I-1
sg23
g20
sg24
(I0
I0
I0
I0
tp1240
sg26
S'//130.60.131.134/fiwi_datenbank/SCR_SOURCE/Masterdatenbank alt Export Einzelbilder/FIWI/SCR/219_1_1/021/15/021_15.jpg'
p1241
sg28
g20
sg29
g20
sg30
I00
sg31
I-1
sba(i__main__
Shot
p1242
(dp1243
g18
S'16'
p1244
sg3
g20
sg21
I21
sg9
g10
sg22
I-1
sg23
g20
sg24
(I0
I0
I0
I0
tp1245
sg26
S'//130.60.131.134/fiwi_datenbank/SCR_SOURCE/Masterdatenbank alt Export Einzelbilder/FIWI/SCR/219_1_1/021/16/021_16.jpg'
p1246
sg28
g20
sg29
g20
sg30
I00
sg31
I-1
sba(i__main__
Shot
p1247
(dp1248
g18
S'17'
p1249
sg3
g20
sg21
I21
sg9
g10
sg22
I-1
sg23
g20
sg24
(I0
I0
I0
I0
tp1250
sg26
S'//130.60.131.134/fiwi_datenbank/SCR_SOURCE/Masterdatenbank alt Export Einzelbilder/FIWI/SCR/219_1_1/021/17/021_17.jpg'
p1251
sg28
g20
sg29
g20
sg30
I00
sg31
I-1
sba(i__main__
Shot
p1252
(dp1253
g18
S'18'
p1254
sg3
g20
sg21
I21
sg9
g10
sg22
I-1
sg23
g20
sg24
(I0
I0
I0
I0
tp1255
sg26
S'//130.60.131.134/fiwi_datenbank/SCR_SOURCE/Masterdatenbank alt Export Einzelbilder/FIWI/SCR/219_1_1/021/18/021_18.jpg'
p1256
sg28
g20
sg29
g20
sg30
I00
sg31
I-1
sba(i__main__
Shot
p1257
(dp1258
g18
S'19'
p1259
sg3
g20
sg21
I21
sg9
g10
sg22
I-1
sg23
g20
sg24
(I0
I0
I0
I0
tp1260
sg26
S'//130.60.131.134/fiwi_datenbank/SCR_SOURCE/Masterdatenbank alt Export Einzelbilder/FIWI/SCR/219_1_1/021/19/021_19.jpg'
p1261
sg28
g20
sg29
g20
sg30
I00
sg31
I-1
sba(i__main__
Shot
p1262
(dp1263
g18
S'2'
p1264
sg3
g20
sg21
I21
sg9
g10
sg22
I-1
sg23
g20
sg24
(I0
I0
I0
I0
tp1265
sg26
S'//130.60.131.134/fiwi_datenbank/SCR_SOURCE/Masterdatenbank alt Export Einzelbilder/FIWI/SCR/219_1_1/021/2/021_02.jpg'
p1266
sg28
g20
sg29
g20
sg30
I00
sg31
I-1
sba(i__main__
Shot
p1267
(dp1268
g18
S'20'
p1269
sg3
g20
sg21
I21
sg9
g10
sg22
I-1
sg23
g20
sg24
(I0
I0
I0
I0
tp1270
sg26
S'//130.60.131.134/fiwi_datenbank/SCR_SOURCE/Masterdatenbank alt Export Einzelbilder/FIWI/SCR/219_1_1/021/20/021_20.jpg'
p1271
sg28
g20
sg29
g20
sg30
I00
sg31
I-1
sba(i__main__
Shot
p1272
(dp1273
g18
S'3'
p1274
sg3
g20
sg21
I21
sg9
g10
sg22
I-1
sg23
g20
sg24
(I0
I0
I0
I0
tp1275
sg26
S'//130.60.131.134/fiwi_datenbank/SCR_SOURCE/Masterdatenbank alt Export Einzelbilder/FIWI/SCR/219_1_1/021/3/021_03.jpg'
p1276
sg28
g20
sg29
g20
sg30
I00
sg31
I-1
sba(i__main__
Shot
p1277
(dp1278
g18
S'4'
p1279
sg3
g20
sg21
I21
sg9
g10
sg22
I-1
sg23
g20
sg24
(I0
I0
I0
I0
tp1280
sg26
S'//130.60.131.134/fiwi_datenbank/SCR_SOURCE/Masterdatenbank alt Export Einzelbilder/FIWI/SCR/219_1_1/021/4/021_04.jpg'
p1281
sg28
g20
sg29
g20
sg30
I00
sg31
I-1
sba(i__main__
Shot
p1282
(dp1283
g18
S'5'
p1284
sg3
g20
sg21
I21
sg9
g10
sg22
I-1
sg23
g20
sg24
(I0
I0
I0
I0
tp1285
sg26
S'//130.60.131.134/fiwi_datenbank/SCR_SOURCE/Masterdatenbank alt Export Einzelbilder/FIWI/SCR/219_1_1/021/5/021_05.jpg'
p1286
sg28
g20
sg29
g20
sg30
I00
sg31
I-1
sba(i__main__
Shot
p1287
(dp1288
g18
S'6'
p1289
sg3
g20
sg21
I21
sg9
g10
sg22
I-1
sg23
g20
sg24
(I0
I0
I0
I0
tp1290
sg26
S'//130.60.131.134/fiwi_datenbank/SCR_SOURCE/Masterdatenbank alt Export Einzelbilder/FIWI/SCR/219_1_1/021/6/021_06.jpg'
p1291
sg28
g20
sg29
g20
sg30
I00
sg31
I-1
sba(i__main__
Shot
p1292
(dp1293
g18
S'7'
p1294
sg3
g20
sg21
I21
sg9
g10
sg22
I-1
sg23
g20
sg24
(I0
I0
I0
I0
tp1295
sg26
S'//130.60.131.134/fiwi_datenbank/SCR_SOURCE/Masterdatenbank alt Export Einzelbilder/FIWI/SCR/219_1_1/021/7/021_07.jpg'
p1296
sg28
g20
sg29
g20
sg30
I00
sg31
I-1
sba(i__main__
Shot
p1297
(dp1298
g18
S'8'
p1299
sg3
g20
sg21
I21
sg9
g10
sg22
I-1
sg23
g20
sg24
(I0
I0
I0
I0
tp1300
sg26
S'//130.60.131.134/fiwi_datenbank/SCR_SOURCE/Masterdatenbank alt Export Einzelbilder/FIWI/SCR/219_1_1/021/8/021_08.jpg'
p1301
sg28
g20
sg29
g20
sg30
I00
sg31
I-1
sba(i__main__
Shot
p1302
(dp1303
g18
S'9'
p1304
sg3
g20
sg21
I21
sg9
g10
sg22
I-1
sg23
g20
sg24
(I0
I0
I0
I0
tp1305
sg26
S'//130.60.131.134/fiwi_datenbank/SCR_SOURCE/Masterdatenbank alt Export Einzelbilder/FIWI/SCR/219_1_1/021/9/021_09.jpg'
p1306
sg28
g20
sg29
g20
sg30
I00
sg31
I-1
sba(i__main__
Shot
p1307
(dp1308
g18
S'1'
p1309
sg3
g20
sg21
I22
sg9
g10
sg22
I-1
sg23
g20
sg24
(I0
I0
I0
I0
tp1310
sg26
S'//130.60.131.134/fiwi_datenbank/SCR_SOURCE/Masterdatenbank alt Export Einzelbilder/FIWI/SCR/219_1_1/022/1/022_01.jpg'
p1311
sg28
g20
sg29
g20
sg30
I00
sg31
I-1
sba(i__main__
Shot
p1312
(dp1313
g18
S'2'
p1314
sg3
g20
sg21
I22
sg9
g10
sg22
I-1
sg23
g20
sg24
(I0
I0
I0
I0
tp1315
sg26
S'//130.60.131.134/fiwi_datenbank/SCR_SOURCE/Masterdatenbank alt Export Einzelbilder/FIWI/SCR/219_1_1/022/2/022_02.jpg'
p1316
sg28
g20
sg29
g20
sg30
I00
sg31
I-1
sba(i__main__
Shot
p1317
(dp1318
g18
S'3'
p1319
sg3
g20
sg21
I22
sg9
g10
sg22
I-1
sg23
g20
sg24
(I0
I0
I0
I0
tp1320
sg26
S'//130.60.131.134/fiwi_datenbank/SCR_SOURCE/Masterdatenbank alt Export Einzelbilder/FIWI/SCR/219_1_1/022/3/022_03.jpg'
p1321
sg28
g20
sg29
g20
sg30
I00
sg31
I-1
sba(i__main__
Shot
p1322
(dp1323
g18
S'4'
p1324
sg3
g20
sg21
I22
sg9
g10
sg22
I-1
sg23
g20
sg24
(I0
I0
I0
I0
tp1325
sg26
S'//130.60.131.134/fiwi_datenbank/SCR_SOURCE/Masterdatenbank alt Export Einzelbilder/FIWI/SCR/219_1_1/022/4/022_04.jpg'
p1326
sg28
g20
sg29
g20
sg30
I00
sg31
I-1
sba(i__main__
Shot
p1327
(dp1328
g18
S'5'
p1329
sg3
g20
sg21
I22
sg9
g10
sg22
I-1
sg23
g20
sg24
(I0
I0
I0
I0
tp1330
sg26
S'//130.60.131.134/fiwi_datenbank/SCR_SOURCE/Masterdatenbank alt Export Einzelbilder/FIWI/SCR/219_1_1/022/5/022_05.jpg'
p1331
sg28
g20
sg29
g20
sg30
I00
sg31
I-1
sba(i__main__
Shot
p1332
(dp1333
g18
S'6'
p1334
sg3
g20
sg21
I22
sg9
g10
sg22
I-1
sg23
g20
sg24
(I0
I0
I0
I0
tp1335
sg26
S'//130.60.131.134/fiwi_datenbank/SCR_SOURCE/Masterdatenbank alt Export Einzelbilder/FIWI/SCR/219_1_1/022/6/022_06.jpg'
p1336
sg28
g20
sg29
g20
sg30
I00
sg31
I-1
sba(i__main__
Shot
p1337
(dp1338
g18
S'1'
p1339
sg3
g20
sg21
I23
sg9
g10
sg22
I-1
sg23
g20
sg24
(I0
I0
I0
I0
tp1340
sg26
S'//130.60.131.134/fiwi_datenbank/SCR_SOURCE/Masterdatenbank alt Export Einzelbilder/FIWI/SCR/219_1_1/023/1/023_01.jpg'
p1341
sg28
g20
sg29
g20
sg30
I00
sg31
I-1
sba(i__main__
Shot
p1342
(dp1343
g18
S'2'
p1344
sg3
g20
sg21
I23
sg9
g10
sg22
I-1
sg23
g20
sg24
(I0
I0
I0
I0
tp1345
sg26
S'//130.60.131.134/fiwi_datenbank/SCR_SOURCE/Masterdatenbank alt Export Einzelbilder/FIWI/SCR/219_1_1/023/2/023_02.jpg'
p1346
sg28
g20
sg29
g20
sg30
I00
sg31
I-1
sba(i__main__
Shot
p1347
(dp1348
g18
S'3'
p1349
sg3
g20
sg21
I23
sg9
g10
sg22
I-1
sg23
g20
sg24
(I0
I0
I0
I0
tp1350
sg26
S'//130.60.131.134/fiwi_datenbank/SCR_SOURCE/Masterdatenbank alt Export Einzelbilder/FIWI/SCR/219_1_1/023/3/023_03.jpg'
p1351
sg28
g20
sg29
g20
sg30
I00
sg31
I-1
sba(i__main__
Shot
p1352
(dp1353
g18
S'4'
p1354
sg3
g20
sg21
I23
sg9
g10
sg22
I-1
sg23
g20
sg24
(I0
I0
I0
I0
tp1355
sg26
S'//130.60.131.134/fiwi_datenbank/SCR_SOURCE/Masterdatenbank alt Export Einzelbilder/FIWI/SCR/219_1_1/023/4/023_04.jpg'
p1356
sg28
g20
sg29
g20
sg30
I00
sg31
I-1
sba(i__main__
Shot
p1357
(dp1358
g18
S'5'
p1359
sg3
g20
sg21
I23
sg9
g10
sg22
I-1
sg23
g20
sg24
(I0
I0
I0
I0
tp1360
sg26
S'//130.60.131.134/fiwi_datenbank/SCR_SOURCE/Masterdatenbank alt Export Einzelbilder/FIWI/SCR/219_1_1/023/5/023_05.jpg'
p1361
sg28
g20
sg29
g20
sg30
I00
sg31
I-1
sba(i__main__
Shot
p1362
(dp1363
g18
S'1'
p1364
sg3
g20
sg21
I24
sg9
g10
sg22
I-1
sg23
g20
sg24
(I0
I0
I0
I0
tp1365
sg26
S'//130.60.131.134/fiwi_datenbank/SCR_SOURCE/Masterdatenbank alt Export Einzelbilder/FIWI/SCR/219_1_1/024/1/024_01.jpg'
p1366
sg28
g20
sg29
g20
sg30
I00
sg31
I-1
sba(i__main__
Shot
p1367
(dp1368
g18
S'10'
p1369
sg3
g20
sg21
I24
sg9
g10
sg22
I-1
sg23
g20
sg24
(I0
I0
I0
I0
tp1370
sg26
S'//130.60.131.134/fiwi_datenbank/SCR_SOURCE/Masterdatenbank alt Export Einzelbilder/FIWI/SCR/219_1_1/024/10/024_10.jpg'
p1371
sg28
g20
sg29
g20
sg30
I00
sg31
I-1
sba(i__main__
Shot
p1372
(dp1373
g18
S'11'
p1374
sg3
g20
sg21
I24
sg9
g10
sg22
I-1
sg23
g20
sg24
(I0
I0
I0
I0
tp1375
sg26
S'//130.60.131.134/fiwi_datenbank/SCR_SOURCE/Masterdatenbank alt Export Einzelbilder/FIWI/SCR/219_1_1/024/11/024_11.jpg'
p1376
sg28
g20
sg29
g20
sg30
I00
sg31
I-1
sba(i__main__
Shot
p1377
(dp1378
g18
S'12'
p1379
sg3
g20
sg21
I24
sg9
g10
sg22
I-1
sg23
g20
sg24
(I0
I0
I0
I0
tp1380
sg26
S'//130.60.131.134/fiwi_datenbank/SCR_SOURCE/Masterdatenbank alt Export Einzelbilder/FIWI/SCR/219_1_1/024/12/024_12.jpg'
p1381
sg28
g20
sg29
g20
sg30
I00
sg31
I-1
sba(i__main__
Shot
p1382
(dp1383
g18
S'13'
p1384
sg3
g20
sg21
I24
sg9
g10
sg22
I-1
sg23
g20
sg24
(I0
I0
I0
I0
tp1385
sg26
S'//130.60.131.134/fiwi_datenbank/SCR_SOURCE/Masterdatenbank alt Export Einzelbilder/FIWI/SCR/219_1_1/024/13/024_13.jpg'
p1386
sg28
g20
sg29
g20
sg30
I00
sg31
I-1
sba(i__main__
Shot
p1387
(dp1388
g18
S'14'
p1389
sg3
g20
sg21
I24
sg9
g10
sg22
I-1
sg23
g20
sg24
(I0
I0
I0
I0
tp1390
sg26
S'//130.60.131.134/fiwi_datenbank/SCR_SOURCE/Masterdatenbank alt Export Einzelbilder/FIWI/SCR/219_1_1/024/14/024_14.jpg'
p1391
sg28
g20
sg29
g20
sg30
I00
sg31
I-1
sba(i__main__
Shot
p1392
(dp1393
g18
S'15'
p1394
sg3
g20
sg21
I24
sg9
g10
sg22
I-1
sg23
g20
sg24
(I0
I0
I0
I0
tp1395
sg26
S'//130.60.131.134/fiwi_datenbank/SCR_SOURCE/Masterdatenbank alt Export Einzelbilder/FIWI/SCR/219_1_1/024/15/024_15.jpg'
p1396
sg28
g20
sg29
g20
sg30
I00
sg31
I-1
sba(i__main__
Shot
p1397
(dp1398
g18
S'2'
p1399
sg3
g20
sg21
I24
sg9
g10
sg22
I-1
sg23
g20
sg24
(I0
I0
I0
I0
tp1400
sg26
S'//130.60.131.134/fiwi_datenbank/SCR_SOURCE/Masterdatenbank alt Export Einzelbilder/FIWI/SCR/219_1_1/024/2/024_02.jpg'
p1401
sg28
g20
sg29
g20
sg30
I00
sg31
I-1
sba(i__main__
Shot
p1402
(dp1403
g18
S'3'
p1404
sg3
g20
sg21
I24
sg9
g10
sg22
I-1
sg23
g20
sg24
(I0
I0
I0
I0
tp1405
sg26
S'//130.60.131.134/fiwi_datenbank/SCR_SOURCE/Masterdatenbank alt Export Einzelbilder/FIWI/SCR/219_1_1/024/3/024_03.jpg'
p1406
sg28
g20
sg29
g20
sg30
I00
sg31
I-1
sba(i__main__
Shot
p1407
(dp1408
g18
S'4'
p1409
sg3
g20
sg21
I24
sg9
g10
sg22
I-1
sg23
g20
sg24
(I0
I0
I0
I0
tp1410
sg26
S'//130.60.131.134/fiwi_datenbank/SCR_SOURCE/Masterdatenbank alt Export Einzelbilder/FIWI/SCR/219_1_1/024/4/024_04.jpg'
p1411
sg28
g20
sg29
g20
sg30
I00
sg31
I-1
sba(i__main__
Shot
p1412
(dp1413
g18
S'5'
p1414
sg3
g20
sg21
I24
sg9
g10
sg22
I-1
sg23
g20
sg24
(I0
I0
I0
I0
tp1415
sg26
S'//130.60.131.134/fiwi_datenbank/SCR_SOURCE/Masterdatenbank alt Export Einzelbilder/FIWI/SCR/219_1_1/024/5/024_05.jpg'
p1416
sg28
g20
sg29
g20
sg30
I00
sg31
I-1
sba(i__main__
Shot
p1417
(dp1418
g18
S'6'
p1419
sg3
g20
sg21
I24
sg9
g10
sg22
I-1
sg23
g20
sg24
(I0
I0
I0
I0
tp1420
sg26
S'//130.60.131.134/fiwi_datenbank/SCR_SOURCE/Masterdatenbank alt Export Einzelbilder/FIWI/SCR/219_1_1/024/6/024_06.jpg'
p1421
sg28
g20
sg29
g20
sg30
I00
sg31
I-1
sba(i__main__
Shot
p1422
(dp1423
g18
S'7'
p1424
sg3
g20
sg21
I24
sg9
g10
sg22
I-1
sg23
g20
sg24
(I0
I0
I0
I0
tp1425
sg26
S'//130.60.131.134/fiwi_datenbank/SCR_SOURCE/Masterdatenbank alt Export Einzelbilder/FIWI/SCR/219_1_1/024/7/024_07.jpg'
p1426
sg28
g20
sg29
g20
sg30
I00
sg31
I-1
sba(i__main__
Shot
p1427
(dp1428
g18
S'8'
p1429
sg3
g20
sg21
I24
sg9
g10
sg22
I-1
sg23
g20
sg24
(I0
I0
I0
I0
tp1430
sg26
S'//130.60.131.134/fiwi_datenbank/SCR_SOURCE/Masterdatenbank alt Export Einzelbilder/FIWI/SCR/219_1_1/024/8/024_08.jpg'
p1431
sg28
g20
sg29
g20
sg30
I00
sg31
I-1
sba(i__main__
Shot
p1432
(dp1433
g18
S'9'
p1434
sg3
g20
sg21
I24
sg9
g10
sg22
I-1
sg23
g20
sg24
(I0
I0
I0
I0
tp1435
sg26
S'//130.60.131.134/fiwi_datenbank/SCR_SOURCE/Masterdatenbank alt Export Einzelbilder/FIWI/SCR/219_1_1/024/9/024_09.jpg'
p1436
sg28
g20
sg29
g20
sg30
I00
sg31
I-1
sba(i__main__
Shot
p1437
(dp1438
g18
S'1'
p1439
sg3
g20
sg21
I25
sg9
g10
sg22
I-1
sg23
g20
sg24
(I0
I0
I0
I0
tp1440
sg26
S'//130.60.131.134/fiwi_datenbank/SCR_SOURCE/Masterdatenbank alt Export Einzelbilder/FIWI/SCR/219_1_1/025/1/025_01.jpg'
p1441
sg28
g20
sg29
g20
sg30
I00
sg31
I-1
sba(i__main__
Shot
p1442
(dp1443
g18
S'10'
p1444
sg3
g20
sg21
I25
sg9
g10
sg22
I-1
sg23
g20
sg24
(I0
I0
I0
I0
tp1445
sg26
S'//130.60.131.134/fiwi_datenbank/SCR_SOURCE/Masterdatenbank alt Export Einzelbilder/FIWI/SCR/219_1_1/025/10/025_15.jpg'
p1446
sg28
g20
sg29
g20
sg30
I00
sg31
I-1
sba(i__main__
Shot
p1447
(dp1448
g18
S'11'
p1449
sg3
g20
sg21
I25
sg9
g10
sg22
I-1
sg23
g20
sg24
(I0
I0
I0
I0
tp1450
sg26
S'//130.60.131.134/fiwi_datenbank/SCR_SOURCE/Masterdatenbank alt Export Einzelbilder/FIWI/SCR/219_1_1/025/11/025_16.jpg'
p1451
sg28
g20
sg29
g20
sg30
I00
sg31
I-1
sba(i__main__
Shot
p1452
(dp1453
g18
S'12'
p1454
sg3
g20
sg21
I25
sg9
g10
sg22
I-1
sg23
g20
sg24
(I0
I0
I0
I0
tp1455
sg26
S'//130.60.131.134/fiwi_datenbank/SCR_SOURCE/Masterdatenbank alt Export Einzelbilder/FIWI/SCR/219_1_1/025/12/025_17.jpg'
p1456
sg28
g20
sg29
g20
sg30
I00
sg31
I-1
sba(i__main__
Shot
p1457
(dp1458
g18
S'13'
p1459
sg3
g20
sg21
I25
sg9
g10
sg22
I-1
sg23
g20
sg24
(I0
I0
I0
I0
tp1460
sg26
S'//130.60.131.134/fiwi_datenbank/SCR_SOURCE/Masterdatenbank alt Export Einzelbilder/FIWI/SCR/219_1_1/025/13/025_18.jpg'
p1461
sg28
g20
sg29
g20
sg30
I00
sg31
I-1
sba(i__main__
Shot
p1462
(dp1463
g18
S'14'
p1464
sg3
g20
sg21
I25
sg9
g10
sg22
I-1
sg23
g20
sg24
(I0
I0
I0
I0
tp1465
sg26
S'//130.60.131.134/fiwi_datenbank/SCR_SOURCE/Masterdatenbank alt Export Einzelbilder/FIWI/SCR/219_1_1/025/14/025_19.jpg'
p1466
sg28
g20
sg29
g20
sg30
I00
sg31
I-1
sba(i__main__
Shot
p1467
(dp1468
g18
S'15'
p1469
sg3
g20
sg21
I25
sg9
g10
sg22
I-1
sg23
g20
sg24
(I0
I0
I0
I0
tp1470
sg26
S'//130.60.131.134/fiwi_datenbank/SCR_SOURCE/Masterdatenbank alt Export Einzelbilder/FIWI/SCR/219_1_1/025/15/025_20.jpg'
p1471
sg28
g20
sg29
g20
sg30
I00
sg31
I-1
sba(i__main__
Shot
p1472
(dp1473
g18
S'16'
p1474
sg3
g20
sg21
I25
sg9
g10
sg22
I-1
sg23
g20
sg24
(I0
I0
I0
I0
tp1475
sg26
S'//130.60.131.134/fiwi_datenbank/SCR_SOURCE/Masterdatenbank alt Export Einzelbilder/FIWI/SCR/219_1_1/025/16/025_21.jpg'
p1476
sg28
g20
sg29
g20
sg30
I00
sg31
I-1
sba(i__main__
Shot
p1477
(dp1478
g18
S'17'
p1479
sg3
g20
sg21
I25
sg9
g10
sg22
I-1
sg23
g20
sg24
(I0
I0
I0
I0
tp1480
sg26
S'//130.60.131.134/fiwi_datenbank/SCR_SOURCE/Masterdatenbank alt Export Einzelbilder/FIWI/SCR/219_1_1/025/17/025_22.jpg'
p1481
sg28
g20
sg29
g20
sg30
I00
sg31
I-1
sba(i__main__
Shot
p1482
(dp1483
g18
S'18'
p1484
sg3
g20
sg21
I25
sg9
g10
sg22
I-1
sg23
g20
sg24
(I0
I0
I0
I0
tp1485
sg26
S'//130.60.131.134/fiwi_datenbank/SCR_SOURCE/Masterdatenbank alt Export Einzelbilder/FIWI/SCR/219_1_1/025/18/025_23.jpg'
p1486
sg28
g20
sg29
g20
sg30
I00
sg31
I-1
sba(i__main__
Shot
p1487
(dp1488
g18
S'19'
p1489
sg3
g20
sg21
I25
sg9
g10
sg22
I-1
sg23
g20
sg24
(I0
I0
I0
I0
tp1490
sg26
S'//130.60.131.134/fiwi_datenbank/SCR_SOURCE/Masterdatenbank alt Export Einzelbilder/FIWI/SCR/219_1_1/025/19/025_24.jpg'
p1491
sg28
g20
sg29
g20
sg30
I00
sg31
I-1
sba(i__main__
Shot
p1492
(dp1493
g18
S'2'
p1494
sg3
g20
sg21
I25
sg9
g10
sg22
I-1
sg23
g20
sg24
(I0
I0
I0
I0
tp1495
sg26
S'//130.60.131.134/fiwi_datenbank/SCR_SOURCE/Masterdatenbank alt Export Einzelbilder/FIWI/SCR/219_1_1/025/2/025_03.jpg'
p1496
sg28
g20
sg29
g20
sg30
I00
sg31
I-1
sba(i__main__
Shot
p1497
(dp1498
g18
S'20'
p1499
sg3
g20
sg21
I25
sg9
g10
sg22
I-1
sg23
g20
sg24
(I0
I0
I0
I0
tp1500
sg26
S'//130.60.131.134/fiwi_datenbank/SCR_SOURCE/Masterdatenbank alt Export Einzelbilder/FIWI/SCR/219_1_1/025/20/025_25.jpg'
p1501
sg28
g20
sg29
g20
sg30
I00
sg31
I-1
sba(i__main__
Shot
p1502
(dp1503
g18
S'21'
p1504
sg3
g20
sg21
I25
sg9
g10
sg22
I-1
sg23
g20
sg24
(I0
I0
I0
I0
tp1505
sg26
S'//130.60.131.134/fiwi_datenbank/SCR_SOURCE/Masterdatenbank alt Export Einzelbilder/FIWI/SCR/219_1_1/025/21/025_27.jpg'
p1506
sg28
g20
sg29
g20
sg30
I00
sg31
I-1
sba(i__main__
Shot
p1507
(dp1508
g18
S'22'
p1509
sg3
g20
sg21
I25
sg9
g10
sg22
I-1
sg23
g20
sg24
(I0
I0
I0
I0
tp1510
sg26
S'//130.60.131.134/fiwi_datenbank/SCR_SOURCE/Masterdatenbank alt Export Einzelbilder/FIWI/SCR/219_1_1/025/22/025_28.jpg'
p1511
sg28
g20
sg29
g20
sg30
I00
sg31
I-1
sba(i__main__
Shot
p1512
(dp1513
g18
S'23'
p1514
sg3
g20
sg21
I25
sg9
g10
sg22
I-1
sg23
g20
sg24
(I0
I0
I0
I0
tp1515
sg26
S'//130.60.131.134/fiwi_datenbank/SCR_SOURCE/Masterdatenbank alt Export Einzelbilder/FIWI/SCR/219_1_1/025/23/025_29.jpg'
p1516
sg28
g20
sg29
g20
sg30
I00
sg31
I-1
sba(i__main__
Shot
p1517
(dp1518
g18
S'24'
p1519
sg3
g20
sg21
I25
sg9
g10
sg22
I-1
sg23
g20
sg24
(I0
I0
I0
I0
tp1520
sg26
S'//130.60.131.134/fiwi_datenbank/SCR_SOURCE/Masterdatenbank alt Export Einzelbilder/FIWI/SCR/219_1_1/025/24/025_30.jpg'
p1521
sg28
g20
sg29
g20
sg30
I00
sg31
I-1
sba(i__main__
Shot
p1522
(dp1523
g18
S'25'
p1524
sg3
g20
sg21
I25
sg9
g10
sg22
I-1
sg23
g20
sg24
(I0
I0
I0
I0
tp1525
sg26
S'//130.60.131.134/fiwi_datenbank/SCR_SOURCE/Masterdatenbank alt Export Einzelbilder/FIWI/SCR/219_1_1/025/25/025_31.jpg'
p1526
sg28
g20
sg29
g20
sg30
I00
sg31
I-1
sba(i__main__
Shot
p1527
(dp1528
g18
S'26'
p1529
sg3
g20
sg21
I25
sg9
g10
sg22
I-1
sg23
g20
sg24
(I0
I0
I0
I0
tp1530
sg26
S'//130.60.131.134/fiwi_datenbank/SCR_SOURCE/Masterdatenbank alt Export Einzelbilder/FIWI/SCR/219_1_1/025/26/025_32.jpg'
p1531
sg28
g20
sg29
g20
sg30
I00
sg31
I-1
sba(i__main__
Shot
p1532
(dp1533
g18
S'27'
p1534
sg3
g20
sg21
I25
sg9
g10
sg22
I-1
sg23
g20
sg24
(I0
I0
I0
I0
tp1535
sg26
S'//130.60.131.134/fiwi_datenbank/SCR_SOURCE/Masterdatenbank alt Export Einzelbilder/FIWI/SCR/219_1_1/025/27/025_33.jpg'
p1536
sg28
g20
sg29
g20
sg30
I00
sg31
I-1
sba(i__main__
Shot
p1537
(dp1538
g18
S'28'
p1539
sg3
g20
sg21
I25
sg9
g10
sg22
I-1
sg23
g20
sg24
(I0
I0
I0
I0
tp1540
sg26
S'//130.60.131.134/fiwi_datenbank/SCR_SOURCE/Masterdatenbank alt Export Einzelbilder/FIWI/SCR/219_1_1/025/28/025_34.jpg'
p1541
sg28
g20
sg29
g20
sg30
I00
sg31
I-1
sba(i__main__
Shot
p1542
(dp1543
g18
S'3'
p1544
sg3
g20
sg21
I25
sg9
g10
sg22
I-1
sg23
g20
sg24
(I0
I0
I0
I0
tp1545
sg26
S'//130.60.131.134/fiwi_datenbank/SCR_SOURCE/Masterdatenbank alt Export Einzelbilder/FIWI/SCR/219_1_1/025/3/025_05.jpg'
p1546
sg28
g20
sg29
g20
sg30
I00
sg31
I-1
sba(i__main__
Shot
p1547
(dp1548
g18
S'4'
p1549
sg3
g20
sg21
I25
sg9
g10
sg22
I-1
sg23
g20
sg24
(I0
I0
I0
I0
tp1550
sg26
S'//130.60.131.134/fiwi_datenbank/SCR_SOURCE/Masterdatenbank alt Export Einzelbilder/FIWI/SCR/219_1_1/025/4/025_07.jpg'
p1551
sg28
g20
sg29
g20
sg30
I00
sg31
I-1
sba(i__main__
Shot
p1552
(dp1553
g18
S'5'
p1554
sg3
g20
sg21
I25
sg9
g10
sg22
I-1
sg23
g20
sg24
(I0
I0
I0
I0
tp1555
sg26
S'//130.60.131.134/fiwi_datenbank/SCR_SOURCE/Masterdatenbank alt Export Einzelbilder/FIWI/SCR/219_1_1/025/5/025_08.jpg'
p1556
sg28
g20
sg29
g20
sg30
I00
sg31
I-1
sba(i__main__
Shot
p1557
(dp1558
g18
S'6'
p1559
sg3
g20
sg21
I25
sg9
g10
sg22
I-1
sg23
g20
sg24
(I0
I0
I0
I0
tp1560
sg26
S'//130.60.131.134/fiwi_datenbank/SCR_SOURCE/Masterdatenbank alt Export Einzelbilder/FIWI/SCR/219_1_1/025/6/025_09.jpg'
p1561
sg28
g20
sg29
g20
sg30
I00
sg31
I-1
sba(i__main__
Shot
p1562
(dp1563
g18
S'7'
p1564
sg3
g20
sg21
I25
sg9
g10
sg22
I-1
sg23
g20
sg24
(I0
I0
I0
I0
tp1565
sg26
S'//130.60.131.134/fiwi_datenbank/SCR_SOURCE/Masterdatenbank alt Export Einzelbilder/FIWI/SCR/219_1_1/025/7/025_10.jpg'
p1566
sg28
g20
sg29
g20
sg30
I00
sg31
I-1
sba(i__main__
Shot
p1567
(dp1568
g18
S'8'
p1569
sg3
g20
sg21
I25
sg9
g10
sg22
I-1
sg23
g20
sg24
(I0
I0
I0
I0
tp1570
sg26
S'//130.60.131.134/fiwi_datenbank/SCR_SOURCE/Masterdatenbank alt Export Einzelbilder/FIWI/SCR/219_1_1/025/8/025_11.jpg'
p1571
sg28
g20
sg29
g20
sg30
I00
sg31
I-1
sba(i__main__
Shot
p1572
(dp1573
g18
S'9'
p1574
sg3
g20
sg21
I25
sg9
g10
sg22
I-1
sg23
g20
sg24
(I0
I0
I0
I0
tp1575
sg26
S'//130.60.131.134/fiwi_datenbank/SCR_SOURCE/Masterdatenbank alt Export Einzelbilder/FIWI/SCR/219_1_1/025/9/025_14.jpg'
p1576
sg28
g20
sg29
g20
sg30
I00
sg31
I-1
sba(i__main__
Shot
p1577
(dp1578
g18
S'1'
p1579
sg3
g20
sg21
I26
sg9
g10
sg22
I-1
sg23
g20
sg24
(I0
I0
I0
I0
tp1580
sg26
S'//130.60.131.134/fiwi_datenbank/SCR_SOURCE/Masterdatenbank alt Export Einzelbilder/FIWI/SCR/219_1_1/026/1/026_01.jpg'
p1581
sg28
g20
sg29
g20
sg30
I00
sg31
I-1
sba(i__main__
Shot
p1582
(dp1583
g18
S'10'
p1584
sg3
g20
sg21
I26
sg9
g10
sg22
I-1
sg23
g20
sg24
(I0
I0
I0
I0
tp1585
sg26
S'//130.60.131.134/fiwi_datenbank/SCR_SOURCE/Masterdatenbank alt Export Einzelbilder/FIWI/SCR/219_1_1/026/10/026_10.jpg'
p1586
sg28
g20
sg29
g20
sg30
I00
sg31
I-1
sba(i__main__
Shot
p1587
(dp1588
g18
S'11'
p1589
sg3
g20
sg21
I26
sg9
g10
sg22
I-1
sg23
g20
sg24
(I0
I0
I0
I0
tp1590
sg26
S'//130.60.131.134/fiwi_datenbank/SCR_SOURCE/Masterdatenbank alt Export Einzelbilder/FIWI/SCR/219_1_1/026/11/026_11.jpg'
p1591
sg28
g20
sg29
g20
sg30
I00
sg31
I-1
sba(i__main__
Shot
p1592
(dp1593
g18
S'12'
p1594
sg3
g20
sg21
I26
sg9
g10
sg22
I-1
sg23
g20
sg24
(I0
I0
I0
I0
tp1595
sg26
S'//130.60.131.134/fiwi_datenbank/SCR_SOURCE/Masterdatenbank alt Export Einzelbilder/FIWI/SCR/219_1_1/026/12/026_12.jpg'
p1596
sg28
g20
sg29
g20
sg30
I00
sg31
I-1
sba(i__main__
Shot
p1597
(dp1598
g18
S'2'
p1599
sg3
g20
sg21
I26
sg9
g10
sg22
I-1
sg23
g20
sg24
(I0
I0
I0
I0
tp1600
sg26
S'//130.60.131.134/fiwi_datenbank/SCR_SOURCE/Masterdatenbank alt Export Einzelbilder/FIWI/SCR/219_1_1/026/2/026_02.jpg'
p1601
sg28
g20
sg29
g20
sg30
I00
sg31
I-1
sba(i__main__
Shot
p1602
(dp1603
g18
S'3'
p1604
sg3
g20
sg21
I26
sg9
g10
sg22
I-1
sg23
g20
sg24
(I0
I0
I0
I0
tp1605
sg26
S'//130.60.131.134/fiwi_datenbank/SCR_SOURCE/Masterdatenbank alt Export Einzelbilder/FIWI/SCR/219_1_1/026/3/026_03.jpg'
p1606
sg28
g20
sg29
g20
sg30
I00
sg31
I-1
sba(i__main__
Shot
p1607
(dp1608
g18
S'4'
p1609
sg3
g20
sg21
I26
sg9
g10
sg22
I-1
sg23
g20
sg24
(I0
I0
I0
I0
tp1610
sg26
S'//130.60.131.134/fiwi_datenbank/SCR_SOURCE/Masterdatenbank alt Export Einzelbilder/FIWI/SCR/219_1_1/026/4/026_04.jpg'
p1611
sg28
g20
sg29
g20
sg30
I00
sg31
I-1
sba(i__main__
Shot
p1612
(dp1613
g18
S'5'
p1614
sg3
g20
sg21
I26
sg9
g10
sg22
I-1
sg23
g20
sg24
(I0
I0
I0
I0
tp1615
sg26
S'//130.60.131.134/fiwi_datenbank/SCR_SOURCE/Masterdatenbank alt Export Einzelbilder/FIWI/SCR/219_1_1/026/5/026_05.jpg'
p1616
sg28
g20
sg29
g20
sg30
I00
sg31
I-1
sba(i__main__
Shot
p1617
(dp1618
g18
S'6'
p1619
sg3
g20
sg21
I26
sg9
g10
sg22
I-1
sg23
g20
sg24
(I0
I0
I0
I0
tp1620
sg26
S'//130.60.131.134/fiwi_datenbank/SCR_SOURCE/Masterdatenbank alt Export Einzelbilder/FIWI/SCR/219_1_1/026/6/026_06.jpg'
p1621
sg28
g20
sg29
g20
sg30
I00
sg31
I-1
sba(i__main__
Shot
p1622
(dp1623
g18
S'7'
p1624
sg3
g20
sg21
I26
sg9
g10
sg22
I-1
sg23
g20
sg24
(I0
I0
I0
I0
tp1625
sg26
S'//130.60.131.134/fiwi_datenbank/SCR_SOURCE/Masterdatenbank alt Export Einzelbilder/FIWI/SCR/219_1_1/026/7/026_07.jpg'
p1626
sg28
g20
sg29
g20
sg30
I00
sg31
I-1
sba(i__main__
Shot
p1627
(dp1628
g18
S'8'
p1629
sg3
g20
sg21
I26
sg9
g10
sg22
I-1
sg23
g20
sg24
(I0
I0
I0
I0
tp1630
sg26
S'//130.60.131.134/fiwi_datenbank/SCR_SOURCE/Masterdatenbank alt Export Einzelbilder/FIWI/SCR/219_1_1/026/8/026_08.jpg'
p1631
sg28
g20
sg29
g20
sg30
I00
sg31
I-1
sba(i__main__
Shot
p1632
(dp1633
g18
S'9'
p1634
sg3
g20
sg21
I26
sg9
g10
sg22
I-1
sg23
g20
sg24
(I0
I0
I0
I0
tp1635
sg26
S'//130.60.131.134/fiwi_datenbank/SCR_SOURCE/Masterdatenbank alt Export Einzelbilder/FIWI/SCR/219_1_1/026/9/026_09.jpg'
p1636
sg28
g20
sg29
g20
sg30
I00
sg31
I-1
sba(i__main__
Shot
p1637
(dp1638
g18
S'1'
p1639
sg3
g20
sg21
I27
sg9
g10
sg22
I-1
sg23
g20
sg24
(I0
I0
I0
I0
tp1640
sg26
S'//130.60.131.134/fiwi_datenbank/SCR_SOURCE/Masterdatenbank alt Export Einzelbilder/FIWI/SCR/219_1_1/027/1/027_01.jpg'
p1641
sg28
g20
sg29
g20
sg30
I00
sg31
I-1
sba(i__main__
Shot
p1642
(dp1643
g18
S'10'
p1644
sg3
g20
sg21
I27
sg9
g10
sg22
I-1
sg23
g20
sg24
(I0
I0
I0
I0
tp1645
sg26
S'//130.60.131.134/fiwi_datenbank/SCR_SOURCE/Masterdatenbank alt Export Einzelbilder/FIWI/SCR/219_1_1/027/10/027_10.jpg'
p1646
sg28
g20
sg29
g20
sg30
I00
sg31
I-1
sba(i__main__
Shot
p1647
(dp1648
g18
S'11'
p1649
sg3
g20
sg21
I27
sg9
g10
sg22
I-1
sg23
g20
sg24
(I0
I0
I0
I0
tp1650
sg26
S'//130.60.131.134/fiwi_datenbank/SCR_SOURCE/Masterdatenbank alt Export Einzelbilder/FIWI/SCR/219_1_1/027/11/027_11.jpg'
p1651
sg28
g20
sg29
g20
sg30
I00
sg31
I-1
sba(i__main__
Shot
p1652
(dp1653
g18
S'12'
p1654
sg3
g20
sg21
I27
sg9
g10
sg22
I-1
sg23
g20
sg24
(I0
I0
I0
I0
tp1655
sg26
S'//130.60.131.134/fiwi_datenbank/SCR_SOURCE/Masterdatenbank alt Export Einzelbilder/FIWI/SCR/219_1_1/027/12/027_12.jpg'
p1656
sg28
g20
sg29
g20
sg30
I00
sg31
I-1
sba(i__main__
Shot
p1657
(dp1658
g18
S'13'
p1659
sg3
g20
sg21
I27
sg9
g10
sg22
I-1
sg23
g20
sg24
(I0
I0
I0
I0
tp1660
sg26
S'//130.60.131.134/fiwi_datenbank/SCR_SOURCE/Masterdatenbank alt Export Einzelbilder/FIWI/SCR/219_1_1/027/13/027_13.jpg'
p1661
sg28
g20
sg29
g20
sg30
I00
sg31
I-1
sba(i__main__
Shot
p1662
(dp1663
g18
S'14'
p1664
sg3
g20
sg21
I27
sg9
g10
sg22
I-1
sg23
g20
sg24
(I0
I0
I0
I0
tp1665
sg26
S'//130.60.131.134/fiwi_datenbank/SCR_SOURCE/Masterdatenbank alt Export Einzelbilder/FIWI/SCR/219_1_1/027/14/027_14.jpg'
p1666
sg28
g20
sg29
g20
sg30
I00
sg31
I-1
sba(i__main__
Shot
p1667
(dp1668
g18
S'15'
p1669
sg3
g20
sg21
I27
sg9
g10
sg22
I-1
sg23
g20
sg24
(I0
I0
I0
I0
tp1670
sg26
S'//130.60.131.134/fiwi_datenbank/SCR_SOURCE/Masterdatenbank alt Export Einzelbilder/FIWI/SCR/219_1_1/027/15/027_15.jpg'
p1671
sg28
g20
sg29
g20
sg30
I00
sg31
I-1
sba(i__main__
Shot
p1672
(dp1673
g18
S'16'
p1674
sg3
g20
sg21
I27
sg9
g10
sg22
I-1
sg23
g20
sg24
(I0
I0
I0
I0
tp1675
sg26
S'//130.60.131.134/fiwi_datenbank/SCR_SOURCE/Masterdatenbank alt Export Einzelbilder/FIWI/SCR/219_1_1/027/16/027_16.jpg'
p1676
sg28
g20
sg29
g20
sg30
I00
sg31
I-1
sba(i__main__
Shot
p1677
(dp1678
g18
S'17'
p1679
sg3
g20
sg21
I27
sg9
g10
sg22
I-1
sg23
g20
sg24
(I0
I0
I0
I0
tp1680
sg26
S'//130.60.131.134/fiwi_datenbank/SCR_SOURCE/Masterdatenbank alt Export Einzelbilder/FIWI/SCR/219_1_1/027/17/027_17.jpg'
p1681
sg28
g20
sg29
g20
sg30
I00
sg31
I-1
sba(i__main__
Shot
p1682
(dp1683
g18
S'2'
p1684
sg3
g20
sg21
I27
sg9
g10
sg22
I-1
sg23
g20
sg24
(I0
I0
I0
I0
tp1685
sg26
S'//130.60.131.134/fiwi_datenbank/SCR_SOURCE/Masterdatenbank alt Export Einzelbilder/FIWI/SCR/219_1_1/027/2/027_02.jpg'
p1686
sg28
g20
sg29
g20
sg30
I00
sg31
I-1
sba(i__main__
Shot
p1687
(dp1688
g18
S'3'
p1689
sg3
g20
sg21
I27
sg9
g10
sg22
I-1
sg23
g20
sg24
(I0
I0
I0
I0
tp1690
sg26
S'//130.60.131.134/fiwi_datenbank/SCR_SOURCE/Masterdatenbank alt Export Einzelbilder/FIWI/SCR/219_1_1/027/3/027_03.jpg'
p1691
sg28
g20
sg29
g20
sg30
I00
sg31
I-1
sba(i__main__
Shot
p1692
(dp1693
g18
S'4'
p1694
sg3
g20
sg21
I27
sg9
g10
sg22
I-1
sg23
g20
sg24
(I0
I0
I0
I0
tp1695
sg26
S'//130.60.131.134/fiwi_datenbank/SCR_SOURCE/Masterdatenbank alt Export Einzelbilder/FIWI/SCR/219_1_1/027/4/027_04.jpg'
p1696
sg28
g20
sg29
g20
sg30
I00
sg31
I-1
sba(i__main__
Shot
p1697
(dp1698
g18
S'5'
p1699
sg3
g20
sg21
I27
sg9
g10
sg22
I-1
sg23
g20
sg24
(I0
I0
I0
I0
tp1700
sg26
S'//130.60.131.134/fiwi_datenbank/SCR_SOURCE/Masterdatenbank alt Export Einzelbilder/FIWI/SCR/219_1_1/027/5/027_05.jpg'
p1701
sg28
g20
sg29
g20
sg30
I00
sg31
I-1
sba(i__main__
Shot
p1702
(dp1703
g18
S'6'
p1704
sg3
g20
sg21
I27
sg9
g10
sg22
I-1
sg23
g20
sg24
(I0
I0
I0
I0
tp1705
sg26
S'//130.60.131.134/fiwi_datenbank/SCR_SOURCE/Masterdatenbank alt Export Einzelbilder/FIWI/SCR/219_1_1/027/6/027_06.jpg'
p1706
sg28
g20
sg29
g20
sg30
I00
sg31
I-1
sba(i__main__
Shot
p1707
(dp1708
g18
S'7'
p1709
sg3
g20
sg21
I27
sg9
g10
sg22
I-1
sg23
g20
sg24
(I0
I0
I0
I0
tp1710
sg26
S'//130.60.131.134/fiwi_datenbank/SCR_SOURCE/Masterdatenbank alt Export Einzelbilder/FIWI/SCR/219_1_1/027/7/027_07.jpg'
p1711
sg28
g20
sg29
g20
sg30
I00
sg31
I-1
sba(i__main__
Shot
p1712
(dp1713
g18
S'8'
p1714
sg3
g20
sg21
I27
sg9
g10
sg22
I-1
sg23
g20
sg24
(I0
I0
I0
I0
tp1715
sg26
S'//130.60.131.134/fiwi_datenbank/SCR_SOURCE/Masterdatenbank alt Export Einzelbilder/FIWI/SCR/219_1_1/027/8/027_08.jpg'
p1716
sg28
g20
sg29
g20
sg30
I00
sg31
I-1
sba(i__main__
Shot
p1717
(dp1718
g18
S'9'
p1719
sg3
g20
sg21
I27
sg9
g10
sg22
I-1
sg23
g20
sg24
(I0
I0
I0
I0
tp1720
sg26
S'//130.60.131.134/fiwi_datenbank/SCR_SOURCE/Masterdatenbank alt Export Einzelbilder/FIWI/SCR/219_1_1/027/9/027_09.jpg'
p1721
sg28
g20
sg29
g20
sg30
I00
sg31
I-1
sba(i__main__
Shot
p1722
(dp1723
g18
S'1'
p1724
sg3
g20
sg21
I28
sg9
g10
sg22
I-1
sg23
g20
sg24
(I0
I0
I0
I0
tp1725
sg26
S'//130.60.131.134/fiwi_datenbank/SCR_SOURCE/Masterdatenbank alt Export Einzelbilder/FIWI/SCR/219_1_1/028/1/028_01.jpg'
p1726
sg28
g20
sg29
g20
sg30
I00
sg31
I-1
sba(i__main__
Shot
p1727
(dp1728
g18
S'10'
p1729
sg3
g20
sg21
I28
sg9
g10
sg22
I-1
sg23
g20
sg24
(I0
I0
I0
I0
tp1730
sg26
S'//130.60.131.134/fiwi_datenbank/SCR_SOURCE/Masterdatenbank alt Export Einzelbilder/FIWI/SCR/219_1_1/028/10/028_10.jpg'
p1731
sg28
g20
sg29
g20
sg30
I00
sg31
I-1
sba(i__main__
Shot
p1732
(dp1733
g18
S'11'
p1734
sg3
g20
sg21
I28
sg9
g10
sg22
I-1
sg23
g20
sg24
(I0
I0
I0
I0
tp1735
sg26
S'//130.60.131.134/fiwi_datenbank/SCR_SOURCE/Masterdatenbank alt Export Einzelbilder/FIWI/SCR/219_1_1/028/11/028_11.jpg'
p1736
sg28
g20
sg29
g20
sg30
I00
sg31
I-1
sba(i__main__
Shot
p1737
(dp1738
g18
S'2'
p1739
sg3
g20
sg21
I28
sg9
g10
sg22
I-1
sg23
g20
sg24
(I0
I0
I0
I0
tp1740
sg26
S'//130.60.131.134/fiwi_datenbank/SCR_SOURCE/Masterdatenbank alt Export Einzelbilder/FIWI/SCR/219_1_1/028/2/028_02.jpg'
p1741
sg28
g20
sg29
g20
sg30
I00
sg31
I-1
sba(i__main__
Shot
p1742
(dp1743
g18
S'3'
p1744
sg3
g20
sg21
I28
sg9
g10
sg22
I-1
sg23
g20
sg24
(I0
I0
I0
I0
tp1745
sg26
S'//130.60.131.134/fiwi_datenbank/SCR_SOURCE/Masterdatenbank alt Export Einzelbilder/FIWI/SCR/219_1_1/028/3/028_03.jpg'
p1746
sg28
g20
sg29
g20
sg30
I00
sg31
I-1
sba(i__main__
Shot
p1747
(dp1748
g18
S'4'
p1749
sg3
g20
sg21
I28
sg9
g10
sg22
I-1
sg23
g20
sg24
(I0
I0
I0
I0
tp1750
sg26
S'//130.60.131.134/fiwi_datenbank/SCR_SOURCE/Masterdatenbank alt Export Einzelbilder/FIWI/SCR/219_1_1/028/4/028_04.jpg'
p1751
sg28
g20
sg29
g20
sg30
I00
sg31
I-1
sba(i__main__
Shot
p1752
(dp1753
g18
S'5'
p1754
sg3
g20
sg21
I28
sg9
g10
sg22
I-1
sg23
g20
sg24
(I0
I0
I0
I0
tp1755
sg26
S'//130.60.131.134/fiwi_datenbank/SCR_SOURCE/Masterdatenbank alt Export Einzelbilder/FIWI/SCR/219_1_1/028/5/028_05.jpg'
p1756
sg28
g20
sg29
g20
sg30
I00
sg31
I-1
sba(i__main__
Shot
p1757
(dp1758
g18
S'6'
p1759
sg3
g20
sg21
I28
sg9
g10
sg22
I-1
sg23
g20
sg24
(I0
I0
I0
I0
tp1760
sg26
S'//130.60.131.134/fiwi_datenbank/SCR_SOURCE/Masterdatenbank alt Export Einzelbilder/FIWI/SCR/219_1_1/028/6/028_06.jpg'
p1761
sg28
g20
sg29
g20
sg30
I00
sg31
I-1
sba(i__main__
Shot
p1762
(dp1763
g18
S'7'
p1764
sg3
g20
sg21
I28
sg9
g10
sg22
I-1
sg23
g20
sg24
(I0
I0
I0
I0
tp1765
sg26
S'//130.60.131.134/fiwi_datenbank/SCR_SOURCE/Masterdatenbank alt Export Einzelbilder/FIWI/SCR/219_1_1/028/7/028_07.jpg'
p1766
sg28
g20
sg29
g20
sg30
I00
sg31
I-1
sba(i__main__
Shot
p1767
(dp1768
g18
S'8'
p1769
sg3
g20
sg21
I28
sg9
g10
sg22
I-1
sg23
g20
sg24
(I0
I0
I0
I0
tp1770
sg26
S'//130.60.131.134/fiwi_datenbank/SCR_SOURCE/Masterdatenbank alt Export Einzelbilder/FIWI/SCR/219_1_1/028/8/028_08.jpg'
p1771
sg28
g20
sg29
g20
sg30
I00
sg31
I-1
sba(i__main__
Shot
p1772
(dp1773
g18
S'9'
p1774
sg3
g20
sg21
I28
sg9
g10
sg22
I-1
sg23
g20
sg24
(I0
I0
I0
I0
tp1775
sg26
S'//130.60.131.134/fiwi_datenbank/SCR_SOURCE/Masterdatenbank alt Export Einzelbilder/FIWI/SCR/219_1_1/028/9/028_09.jpg'
p1776
sg28
g20
sg29
g20
sg30
I00
sg31
I-1
sbasS'elan_path'
p1777
S'//130.60.131.134/studi/Filme/frueher_Film/219_La_revue_des_revues_1927\\219_1_1_LaRevueDesRevues_1927_DVD_ELAN.eaf'
p1778
sS'needs_segmentation'
p1779
I00
sba.