(lp0
(i__main__
Movie
p1
(dp2
S'movie_name'
p3
S'FlightToMars'
p4
sS'folder_path'
p5
S'//130.60.131.134/studi/Filme/mittlere_Filme/2_Flight_to_Mars_1951/'
p6
sS'segmentation_path'
p7
(lp8
sS'filemaker_ID'
p9
(lp10
I2
aI1
aI1
asS'relative_path'
p11
S'mittlere_Filme/2_Flight_to_Mars_1951/'
p12
sS'has_sub_segmentation'
p13
I01
sS'shots'
p14
NsS'elan_path'
p15
S'//130.60.131.134/studi/Filme/mittlere_Filme/2_Flight_to_Mars_1951\\2_1_1_FlightToMars_1951_DVD_ELAN.eaf'
p16
sS'needs_segmentation'
p17
I00
sba(i__main__
Movie
p18
(dp19
g3
S'GoneWithTheWind'
p20
sg5
S'//130.60.131.134/studi/Filme/mittlere_Filme/8_Gone_With_The_Wind_1940/8_1_1_Gone with the Wind_1940_DVD/'
p21
sg7
(lp22
sg9
(lp23
I8
aI1
aI1
asg11
S'mittlere_Filme/8_Gone_With_The_Wind_1940/8_1_1_Gone with the Wind_1940_DVD/'
p24
sg13
I00
sg14
Nsg15
S'//130.60.131.134/studi/Filme/mittlere_Filme/8_Gone_With_The_Wind_1940/8_1_1_Gone with the Wind_1940_DVD\\8_1_1_GoneWithTheWind_Part1_1940_DVD_ELAN.eaf'
p25
sg17
I00
sba(i__main__
Movie
p26
(dp27
g3
S'GoneWithTheWind'
p28
sg5
S'//130.60.131.134/studi/Filme/mittlere_Filme/8_Gone_With_The_Wind_1940/8_1_2_Gone with the Wind_1940_DVD/'
p29
sg7
(lp30
sg9
(lp31
I8
aI1
aI2
asg11
S'mittlere_Filme/8_Gone_With_The_Wind_1940/8_1_2_Gone with the Wind_1940_DVD/'
p32
sg13
I00
sg14
Nsg15
S'//130.60.131.134/studi/Filme/mittlere_Filme/8_Gone_With_The_Wind_1940/8_1_2_Gone with the Wind_1940_DVD\\8_1_2_GoneWithTheWind_Part2_1940_DVD_ELAN.eaf'
p33
sg17
I00
sba(i__main__
Movie
p34
(dp35
g3
S'WingsOfTheMorning'
p36
sg5
S'//130.60.131.134/studi/Filme/mittlere_Filme/13_Wings_of_the_Morning_1937/'
p37
sg7
(lp38
S'//130.60.131.134/studi/Filme/mittlere_Filme/13_Wings_of_the_Morning_1937\\13_1_2_WingsOfTheMorning_1937_DVD_ELAN.txt'
p39
asg9
(lp40
I13
aI1
aI2
asg11
S'mittlere_Filme/13_Wings_of_the_Morning_1937/'
p41
sg13
I01
sg14
Nsg15
S'//130.60.131.134/studi/Filme/mittlere_Filme/13_Wings_of_the_Morning_1937\\13_1_2_WingsOfTheMorning_1937_DVD_ELAN.eaf'
p42
sg17
I00
sba(i__main__
Movie
p43
(dp44
g3
S'UneFemmeEstUneFemme'
p45
sg5
S'//130.60.131.134/studi/Filme/spaete_Filme/14_Une_Femme_est_une_Femme_1961/'
p46
sg7
(lp47
S'//130.60.131.134/studi/Filme/spaete_Filme/14_Une_Femme_est_une_Femme_1961\\14_1_1_UneFemmeEstUneFemme_1961_DVD_ELAN_BF.txt'
p48
asg9
(lp49
I14
aI1
aI1
asg11
S'spaete_Filme/14_Une_Femme_est_une_Femme_1961/'
p50
sg13
I00
sg14
Nsg15
S'//130.60.131.134/studi/Filme/spaete_Filme/14_Une_Femme_est_une_Femme_1961\\14_1_1_UneFemmeEstUneFemme_1961_DVD_ELAN_BF.eaf'
p51
sg17
I00
sba(i__main__
Movie
p52
(dp53
g3
S'JourDeFete'
p54
sg5
S'//130.60.131.134/studi/Filme/mittlere_Filme/25_Jour_de_fete_1949/'
p55
sg7
(lp56
S'//130.60.131.134/studi/Filme/mittlere_Filme/25_Jour_de_fete_1949\\25_1_1_JourDeFete_1949_DVD_ELAN.txt'
p57
asg9
(lp58
I25
aI1
aI1
asg11
S'mittlere_Filme/25_Jour_de_fete_1949/'
p59
sg13
I00
sg14
Nsg15
S'//130.60.131.134/studi/Filme/mittlere_Filme/25_Jour_de_fete_1949\\ELAN_Projektdatei\\25_1_1_JourDeFete_1949_DVD_ELAN.eaf'
p60
sg17
I00
sba(i__main__
Movie
p61
(dp62
g3
S'JoanTheWoman'
p63
sg5
S'//130.60.131.134/studi/Filme/frueher_Film/26_Joan_the_Woman_1916/'
p64
sg7
(lp65
sg9
(lp66
I26
aI1
aI1
asg11
S'frueher_Film/26_Joan_the_Woman_1916/'
p67
sg13
I01
sg14
Nsg15
S'//130.60.131.134/studi/Filme/frueher_Film/26_Joan_the_Woman_1916\\26_1_1_JoanTheWoman_1916_DVD_ELAN.eaf'
p68
sg17
I00
sba(i__main__
Movie
p69
(dp70
g3
S'LaPouleAuxOeufsDor'
p71
sg5
S'//130.60.131.134/studi/Filme/frueher_Film/31_La_Poule_Aux_Oeufs_Dor_1905/'
p72
sg7
(lp73
sg9
(lp74
I31
aI1
aI2
asg11
S'frueher_Film/31_La_Poule_Aux_Oeufs_Dor_1905/'
p75
sg13
I00
sg14
Nsg15
S'//130.60.131.134/studi/Filme/frueher_Film/31_La_Poule_Aux_Oeufs_Dor_1905\\31_1_2_LaPouleAuxOeufsDor_1905_ELAN.eaf'
p76
sg17
I00
sba(i__main__
Movie
p77
(dp78
g3
S'LePalaisDesMilleEtUneNuits'
p79
sg5
S'//130.60.131.134/studi/Filme/frueher_Film/37_Le_Palais_Des_Mille_Et_Une_Nuits_1905/'
p80
sg7
(lp81
sg9
(lp82
I37
aI1
aI1
asg11
S'frueher_Film/37_Le_Palais_Des_Mille_Et_Une_Nuits_1905/'
p83
sg13
I00
sg14
Nsg15
S'//130.60.131.134/studi/Filme/frueher_Film/37_Le_Palais_Des_Mille_Et_Une_Nuits_1905\\37_1_1_LePalaisDesMilleEtUneNuits_1905_DVD_ELAN.eaf'
p84
sg17
I00
sba(i__main__
Movie
p85
(dp86
g3
S'Redskin'
p87
sg5
S'//130.60.131.134/studi/Filme/frueher_Film/39_Redskin_1929/'
p88
sg7
(lp89
sg9
(lp90
I39
aI1
aI2
asg11
S'frueher_Film/39_Redskin_1929/'
p91
sg13
I00
sg14
Nsg15
S'//130.60.131.134/studi/Filme/frueher_Film/39_Redskin_1929\\39_1_2_Redskin_1929_DVD_ELAN.eaf'
p92
sg17
I00
sba(i__main__
Movie
p93
(dp94
g3
S'TheRedLantern'
p95
sg5
S'//130.60.131.134/studi/Filme/frueher_Film/47_The_Red_Lantern_1919/'
p96
sg7
(lp97
sg9
(lp98
I47
aI1
aI1
asg11
S'frueher_Film/47_The_Red_Lantern_1919/'
p99
sg13
I01
sg14
Nsg15
S'//130.60.131.134/studi/Filme/frueher_Film/47_The_Red_Lantern_1919\\47_1_1_TheRedLantern_1919_DVD_ELAN.eaf'
p100
sg17
I00
sba(i__main__
Movie
p101
(dp102
g3
S'BeckySharp'
p103
sg5
S'//130.60.131.134/studi/Filme/mittlere_Filme/63_Becky_Sharp_1935/'
p104
sg7
(lp105
sg9
(lp106
I63
aI1
aI2
asg11
S'mittlere_Filme/63_Becky_Sharp_1935/'
p107
sg13
I01
sg14
Nsg15
S'//130.60.131.134/studi/Filme/mittlere_Filme/63_Becky_Sharp_1935\\63_1_2_BeckySharp_1935_DVD_ELAN.eaf'
p108
sg17
I00
sba(i__main__
Movie
p109
(dp110
g3
S'PierrotLeFou'
p111
sg5
S'//130.60.131.134/studi/Filme/spaete_Filme/69_Pierrot_le_Fou_1965/'
p112
sg7
(lp113
S'//130.60.131.134/studi/Filme/spaete_Filme/69_Pierrot_le_Fou_1965\\69_PierrotLeFou_1965_DVD_ELAN_BF.txt'
p114
asg9
(lp115
I69
aI1
aI1
asg11
S'spaete_Filme/69_Pierrot_le_Fou_1965/'
p116
sg13
I00
sg14
Nsg15
S'//130.60.131.134/studi/Filme/spaete_Filme/69_Pierrot_le_Fou_1965\\69_1_1_PierrotLeFou_1965_DVD_ELAN_BF_korr.eaf'
p117
sg17
I00
sba(i__main__
Movie
p118
(dp119
g3
S'LeMepris'
p120
sg5
S'//130.60.131.134/studi/Filme/spaete_Filme/108_Le_Mepris_1964/'
p121
sg7
(lp122
S'//130.60.131.134/studi/Filme/spaete_Filme/108_Le_Mepris_1964\\108_1_1_LeMepris_DVD_ELAN_BF.txt'
p123
asg9
(lp124
I108
aI1
aI1
asg11
S'spaete_Filme/108_Le_Mepris_1964/'
p125
sg13
I00
sg14
Nsg15
S'//130.60.131.134/studi/Filme/spaete_Filme/108_Le_Mepris_1964\\108_1_1_LeMepris_DVD_ELAN_BF.eaf'
p126
sg17
I00
sba(i__main__
Movie
p127
(dp128
g3
S'TheFourFeathers'
p129
sg5
S'//130.60.131.134/studi/Filme/mittlere_Filme/127_The_Four_Feathers_1939/'
p130
sg7
(lp131
sg9
(lp132
I127
aI1
aI1
asg11
S'mittlere_Filme/127_The_Four_Feathers_1939/'
p133
sg13
I01
sg14
Nsg15
S'//130.60.131.134/studi/Filme/mittlere_Filme/127_The_Four_Feathers_1939\\127_1_1_TheFourFeathers_1939_DVD_ELAN.eaf'
p134
sg17
I00
sba(i__main__
Movie
p135
(dp136
g3
S'GoldDiggersOfBroadway'
p137
sg5
S'//130.60.131.134/studi/Filme/frueher_Film/142_Gold_Diggers_of_Broadway_1929/'
p138
sg7
(lp139
sg9
(lp140
I142
aI1
aI1
asg11
S'frueher_Film/142_Gold_Diggers_of_Broadway_1929/'
p141
sg13
I00
sg14
Nsg15
S'//130.60.131.134/studi/Filme/frueher_Film/142_Gold_Diggers_of_Broadway_1929\\142_1_1_GoldDiggersOfBroadway_1929_DVD_ELAN.eaf'
p142
sg17
I00
sba(i__main__
Movie
p143
(dp144
g3
S'Gribiche'
p145
sg5
S'//130.60.131.134/studi/Filme/frueher_Film/161_Gribiche_1926/'
p146
sg7
(lp147
S'//130.60.131.134/studi/Filme/frueher_Film/161_Gribiche_1926\\161_1_1_Gribiche_1926_DVD_ELAN.txt'
p148
asg9
(lp149
I161
aI1
aI1
asg11
S'frueher_Film/161_Gribiche_1926/'
p150
sg13
I01
sg14
Nsg15
S'//130.60.131.134/studi/Filme/frueher_Film/161_Gribiche_1926\\161_1_1_Gribiche_1926_DVD_ELAN.eaf'
p151
sg17
I00
sba(i__main__
Movie
p152
(dp153
g3
S'LaRoue'
p154
sg5
S'//130.60.131.134/studi/Filme/frueher_Film/167_La_Roue_1923/167_1_1_LaRoue_1923_DVD/'
p155
sg7
(lp156
sg9
(lp157
I167
aI1
aI1
asg11
S'frueher_Film/167_La_Roue_1923/167_1_1_LaRoue_1923_DVD/'
p158
sg13
I01
sg14
Nsg15
S'//130.60.131.134/studi/Filme/frueher_Film/167_La_Roue_1923/167_1_1_LaRoue_1923_DVD\\167_1_1_LaRoue_1923_DVD_ELAN.eaf'
p159
sg17
I00
sba(i__main__
Movie
p160
(dp161
g3
S'LaRoue'
p162
sg5
S'//130.60.131.134/studi/Filme/frueher_Film/167_La_Roue_1923/167_1_2_LaRoue_1923_DVD/'
p163
sg7
(lp164
sg9
(lp165
I167
aI1
aI2
asg11
S'frueher_Film/167_La_Roue_1923/167_1_2_LaRoue_1923_DVD/'
p166
sg13
I01
sg14
Nsg15
S'//130.60.131.134/studi/Filme/frueher_Film/167_La_Roue_1923/167_1_2_LaRoue_1923_DVD\\167_1_2_LaRoue_1923_DVD_ELAN.eaf'
p167
sg17
I00
sba(i__main__
Movie
p168
(dp169
g3
S'TheRedShoes'
p170
sg5
S'//130.60.131.134/studi/Filme/mittlere_Filme/180_The_Red_Shoes_1948/'
p171
sg7
(lp172
S'//130.60.131.134/studi/Filme/mittlere_Filme/180_The_Red_Shoes_1948\\180_1_1_TheRedShoes_1948_DVD_ELAN.txt'
p173
asg9
(lp174
I180
aI1
aI1
asg11
S'mittlere_Filme/180_The_Red_Shoes_1948/'
p175
sg13
I00
sg14
Nsg15
S'//130.60.131.134/studi/Filme/mittlere_Filme/180_The_Red_Shoes_1948\\ELAN_Projektdatei\\180_1_1_TheRedShoes_1948_DVD_ELAN.eaf'
p176
sg17
I00
sba(i__main__
Movie
p177
(dp178
g3
S'Kolberg'
p179
sg5
S'//130.60.131.134/studi/Filme/mittlere_Filme/183_Kolberg_1945/'
p180
sg7
(lp181
S'//130.60.131.134/studi/Filme/mittlere_Filme/183_Kolberg_1945\\183_1_3_Kolberg_1945_DVD_ELAN.txt'
p182
asg9
(lp183
I183
aI1
aI3
asg11
S'mittlere_Filme/183_Kolberg_1945/'
p184
sg13
I00
sg14
Nsg15
S'//130.60.131.134/studi/Filme/mittlere_Filme/183_Kolberg_1945\\183_1_3_Kolberg_1945_DVD_ELAN.eaf'
p185
sg17
I00
sba(i__main__
Movie
p186
(dp187
g3
S'BlackNarcissus'
p188
sg5
S'//130.60.131.134/studi/Filme/mittlere_Filme/184_Black_Narcissus_1947/'
p189
sg7
(lp190
S'//130.60.131.134/studi/Filme/mittlere_Filme/184_Black_Narcissus_1947\\184_1_1_BlackNarcissus_1947_DVD_ELAN_BF.txt'
p191
asg9
(lp192
I184
aI1
aI1
asg11
S'mittlere_Filme/184_Black_Narcissus_1947/'
p193
sg13
I00
sg14
Nsg15
S'//130.60.131.134/studi/Filme/mittlere_Filme/184_Black_Narcissus_1947\\184_1_1_BlackNarcissus_1947_DVD_ELAN_BF.eaf'
p194
sg17
I00
sba(i__main__
Movie
p195
(dp196
g3
S'LesRosesMagiques'
p197
sg5
S'//130.60.131.134/studi/Filme/frueher_Film/191_Les_Roses_Magiques_1906/'
p198
sg7
(lp199
sg9
(lp200
I191
aI1
aI1
asg11
S'frueher_Film/191_Les_Roses_Magiques_1906/'
p201
sg13
I00
sg14
Nsg15
S'//130.60.131.134/studi/Filme/frueher_Film/191_Les_Roses_Magiques_1906\\191_1_1_LesRosesMagiques_DVD_ELAN.eaf'
p202
sg17
I00
sba(i__main__
Movie
p203
(dp204
g3
S'MortDeMarat'
p205
sg5
S'//130.60.131.134/studi/Filme/frueher_Film/198_Mort_de_Marat_1897/'
p206
sg7
(lp207
sg9
(lp208
I198
aI1
aI1
asg11
S'frueher_Film/198_Mort_de_Marat_1897/'
p209
sg13
I00
sg14
Nsg15
S'//130.60.131.134/studi/Filme/frueher_Film/198_Mort_de_Marat_1897\\198_1_1_MortDeMarat_DVD_ELAN.eaf'
p210
sg17
I00
sba(i__main__
Movie
p211
(dp212
g3
S'RapsodiaSatanica'
p213
sg5
S'//130.60.131.134/studi/Filme/frueher_Film/199_Rapsodia_Satanica_1917/'
p214
sg7
(lp215
sg9
(lp216
I199
aI1
aI1
asg11
S'frueher_Film/199_Rapsodia_Satanica_1917/'
p217
sg13
I01
sg14
Nsg15
S'//130.60.131.134/studi/Filme/frueher_Film/199_Rapsodia_Satanica_1917\\199_1_1_RapsodiaSatanica_1917_ELAN.eaf'
p218
sg17
I00
sba(i__main__
Movie
p219
(dp220
g3
S'AladinOuLLampeMerveilleuse'
p221
sg5
S'//130.60.131.134/studi/Filme/frueher_Film/206_Aladin_Ou_La_Lampe_Merveilleuse_1906/'
p222
sg7
(lp223
sg9
(lp224
I206
aI1
aI1
asg11
S'frueher_Film/206_Aladin_Ou_La_Lampe_Merveilleuse_1906/'
p225
sg13
I01
sg14
Nsg15
S'//130.60.131.134/studi/Filme/frueher_Film/206_Aladin_Ou_La_Lampe_Merveilleuse_1906\\206_1_1_AladinOuLLampeMerveilleuse_1906_DVD_ELAN.eaf'
p226
sg17
I00
sba(i__main__
Movie
p227
(dp228
g3
S'NewYork'
p229
sg5
S'//130.60.131.134/studi/Filme/mittlere_Filme/225_New_York_1938/'
p230
sg7
(lp231
S'//130.60.131.134/studi/Filme/mittlere_Filme/225_New_York_1938\\225_1_1_NewYork_1938_DVD_ELAN.txt'
p232
asg9
(lp233
I225
aI1
aI1
asg11
S'mittlere_Filme/225_New_York_1938/'
p234
sg13
I00
sg14
Nsg15
S'//130.60.131.134/studi/Filme/mittlere_Filme/225_New_York_1938\\225_1_1_NewYork_1938_DVD_ELAN.eaf'
p235
sg17
I00
sba(i__main__
Movie
p236
(dp237
g3
S'TheTrailOfTheLonesomePine'
p238
sg5
S'//130.60.131.134/studi/Filme/mittlere_Filme/231_The_Trail_of_the_Lonesome_Pine_1936/'
p239
sg7
(lp240
S'//130.60.131.134/studi/Filme/mittlere_Filme/231_The_Trail_of_the_Lonesome_Pine_1936\\231_1_1_TheTrailOfTheLonesomePine_1936_DVD_ELAN.txt'
p241
asg9
(lp242
I231
aI1
aI1
asg11
S'mittlere_Filme/231_The_Trail_of_the_Lonesome_Pine_1936/'
p243
sg13
I01
sg14
Nsg15
S'//130.60.131.134/studi/Filme/mittlere_Filme/231_The_Trail_of_the_Lonesome_Pine_1936\\231_1_1_TheTrailOfTheLonesomePine_1936_DVD_ELAN.eaf'
p244
sg17
I00
sba(i__main__
Movie
p245
(dp246
g3
S'AllThatHeavenAllows'
p247
sg5
S'//130.60.131.134/studi/Filme/spaete_Filme/241_All_That_Heaven_Allows_1955/'
p248
sg7
(lp249
sg9
(lp250
I241
aI1
aI1
asg11
S'spaete_Filme/241_All_That_Heaven_Allows_1955/'
p251
sg13
I00
sg14
Nsg15
S'//130.60.131.134/studi/Filme/spaete_Filme/241_All_That_Heaven_Allows_1955\\241_1_1_AllThatHeavenAllows_1955_DVD_ELAN_BF.eaf'
p252
sg17
I00
sba(i__main__
Movie
p253
(dp254
g3
S'SeiDonnePerLAssassino'
p255
sg5
S'//130.60.131.134/studi/Filme/spaete_Filme/261_SeiDonnePerLAssassino_1964/'
p256
sg7
(lp257
S'//130.60.131.134/studi/Filme/spaete_Filme/261_SeiDonnePerLAssassino_1964\\261_1_1_SeiDonnePerLAssassino_1964_DVD_ELAN_BF.txt'
p258
aS'//130.60.131.134/studi/Filme/spaete_Filme/261_SeiDonnePerLAssassino_1964\\261_1_1_SeiDonnePerLAssassino_1964_DVD_ELAN_BF_korr2.txt'
p259
asg9
(lp260
I261
aI1
aI1
asg11
S'spaete_Filme/261_SeiDonnePerLAssassino_1964/'
p261
sg13
I00
sg14
Nsg15
S'//130.60.131.134/studi/Filme/spaete_Filme/261_SeiDonnePerLAssassino_1964\\261_1_1_SeiDonnePerLAssassino_1964_DVD_ELAN_BF_korr2.eaf'
p262
sg17
I00
sba(i__main__
Movie
p263
(dp264
g3
S'TheFluteOfKrishna'
p265
sg5
S'//130.60.131.134/studi/Filme/frueher_Film/269_The_Flute_Of_Krishna_1926/'
p266
sg7
(lp267
sg9
(lp268
I269
aI1
aI2
asg11
S'frueher_Film/269_The_Flute_Of_Krishna_1926/'
p269
sg13
I00
sg14
Nsg15
S'//130.60.131.134/studi/Filme/frueher_Film/269_The_Flute_Of_Krishna_1926\\269_1_2_TheFluteOfKrishna_1926_DVD_Elan.eaf'
p270
sg17
I00
sba(i__main__
Movie
p271
(dp272
g3
S'IlMisteroDiOberwald'
p273
sg5
S'//130.60.131.134/studi/Filme/spaete_Filme/277_Il_mistero_di_Oberwald_1981/'
p274
sg7
(lp275
S'//130.60.131.134/studi/Filme/spaete_Filme/277_Il_mistero_di_Oberwald_1981\\277_1_1_IlMisteroDiOberwald_1981_DVD.txt'
p276
asg9
(lp277
I277
aI1
aI1
asg11
S'spaete_Filme/277_Il_mistero_di_Oberwald_1981/'
p278
sg13
I00
sg14
Nsg15
S'//130.60.131.134/studi/Filme/spaete_Filme/277_Il_mistero_di_Oberwald_1981\\277_1_1_IlMisteroDiOberwald_1981_DVD.eaf'
p279
sg17
I00
sba(i__main__
Movie
p280
(dp281
g3
S'Possession'
p282
sg5
S'//130.60.131.134/studi/Filme/spaete_Filme/278_Possession_1981/'
p283
sg7
(lp284
sg9
(lp285
I278
aI1
aI1
asg11
S'spaete_Filme/278_Possession_1981/'
p286
sg13
I01
sg14
Nsg15
S'//130.60.131.134/studi/Filme/spaete_Filme/278_Possession_1981\\278_1_1_Possession_1981_DVD_ELAN.eaf'
p287
sg17
I00
sba(i__main__
Movie
p288
(dp289
g3
S'Kika'
p290
sg5
S'//130.60.131.134/studi/Filme/spaete_Filme/280_Kika_1990/'
p291
sg7
(lp292
S'//130.60.131.134/studi/Filme/spaete_Filme/280_Kika_1990\\280_1_1_Kika_1993_DVD_ELAN_export.txt'
p293
asg9
(lp294
I280
aI1
aI1
asg11
S'spaete_Filme/280_Kika_1990/'
p295
sg13
I01
sg14
Nsg15
S'//130.60.131.134/studi/Filme/spaete_Filme/280_Kika_1990\\280_1_1_Kika_1993_DVD_ELAN.eaf'
p296
sg17
I00
sba(i__main__
Movie
p297
(dp298
g3
S'NorthByNorthwest'
p299
sg5
S'//130.60.131.134/studi/Filme/spaete_Filme/282_NorthByNorthwest_1959/'
p300
sg7
(lp301
S'//130.60.131.134/studi/Filme/spaete_Filme/282_NorthByNorthwest_1959\\282_1_3_NorthByNorthwest_1959_BD_ELAN_BF.txt'
p302
asg9
(lp303
I282
aI1
aI3
asg11
S'spaete_Filme/282_NorthByNorthwest_1959/'
p304
sg13
I00
sg14
Nsg15
S'//130.60.131.134/studi/Filme/spaete_Filme/282_NorthByNorthwest_1959\\282_1_3_NorthByNorthwest_1959_BD_ELAN_BF.eaf'
p305
sg17
I00
sba(i__main__
Movie
p306
(dp307
g3
S'ToCatchAThief'
p308
sg5
S'//130.60.131.134/studi/Filme/spaete_Filme/287_To_Catch_A_Thief_1955/'
p309
sg7
(lp310
S'//130.60.131.134/studi/Filme/spaete_Filme/287_To_Catch_A_Thief_1955\\287_1_1_ToCatchAThief_1955_Bluray_ELAN_BF.txt'
p311
asg9
(lp312
I287
aI1
aI4
asg11
S'spaete_Filme/287_To_Catch_A_Thief_1955/'
p313
sg13
I00
sg14
Nsg15
S'//130.60.131.134/studi/Filme/spaete_Filme/287_To_Catch_A_Thief_1955\\287_1_1_ToCatchAThief_1955_Bluray_ELAN_BF.eaf'
p314
sg17
I00
sba(i__main__
Movie
p315
(dp316
g3
S'HeavenCanWait'
p317
sg5
S'//130.60.131.134/studi/Filme/mittlere_Filme/289_Heaven_Can_Wait_1943/'
p318
sg7
(lp319
S'//130.60.131.134/studi/Filme/mittlere_Filme/289_Heaven_Can_Wait_1943\\289_1_1_HeavenCanWait_1943_DVD_ELAN.txt'
p320
asg9
(lp321
I289
aI1
aI1
asg11
S'mittlere_Filme/289_Heaven_Can_Wait_1943/'
p322
sg13
I00
sg14
Nsg15
S'//130.60.131.134/studi/Filme/mittlere_Filme/289_Heaven_Can_Wait_1943\\289_1_1_ELAN_Projektdatei\\289_1_1_HeavenCanWait_1943_DVD_ELAN.eaf'
p323
sg17
I00
sba(i__main__
Movie
p324
(dp325
g3
S'Spartacus'
p326
sg5
S'//130.60.131.134/studi/Filme/spaete_Filme/291_Spartacus_1960/'
p327
sg7
(lp328
sg9
(lp329
I291
aI1
aI1
asg11
S'spaete_Filme/291_Spartacus_1960/'
p330
sg13
I00
sg14
Nsg15
S'//130.60.131.134/studi/Filme/spaete_Filme/291_Spartacus_1960\\291_1_1_Spartacus_1960_DVD_ELAN.eaf'
p331
sg17
I00
sba(i__main__
Movie
p332
(dp333
g3
S'Steel'
p334
sg5
S'//130.60.131.134/studi/Filme/mittlere_Filme/300_Steel_1945/'
p335
sg7
(lp336
S'//130.60.131.134/studi/Filme/mittlere_Filme/300_Steel_1945\\300_1_2_Steel_1945_DVD_ELAN.txt'
p337
asg9
(lp338
I300
aI1
aI2
asg11
S'mittlere_Filme/300_Steel_1945/'
p339
sg13
I00
sg14
Nsg15
S'//130.60.131.134/studi/Filme/mittlere_Filme/300_Steel_1945\\300_1_2_Steel_1945_DVD_ELAN.eaf'
p340
sg17
I00
sba(i__main__
Movie
p341
(dp342
g3
S'TheShining'
p343
sg5
S'//130.60.131.134/studi/Filme/spaete_Filme/316_TheShining_1980/'
p344
sg7
(lp345
sg9
(lp346
I316
aI1
aI1
asg11
S'spaete_Filme/316_TheShining_1980/'
p347
sg13
I01
sg14
Nsg15
S'//130.60.131.134/studi/Filme/spaete_Filme/316_TheShining_1980\\316_1_1_TheShining_1980_DVD_ELAN.eaf'
p348
sg17
I00
sba(i__main__
Movie
p349
(dp350
g3
S'DiveBomber'
p351
sg5
S'//130.60.131.134/studi/Filme/mittlere_Filme/324_Dive_Bomber_1941/'
p352
sg7
(lp353
S'//130.60.131.134/studi/Filme/mittlere_Filme/324_Dive_Bomber_1941\\324_1_1_DiveBomber_1941_DVD_ELAN.txt'
p354
asg9
(lp355
I324
aI1
aI1
asg11
S'mittlere_Filme/324_Dive_Bomber_1941/'
p356
sg13
I01
sg14
Nsg15
S'//130.60.131.134/studi/Filme/mittlere_Filme/324_Dive_Bomber_1941\\324_1_1_DiveBomber_1941_DVD_ELAN.eaf'
p357
sg17
I00
sba(i__main__
Movie
p358
(dp359
g3
S'MujeresAlBorde'
p360
sg5
S'//130.60.131.134/studi/Filme/spaete_Filme/337_Mujeres_Al_Borde_De_Un_Ataque_De_Nervios_1988/'
p361
sg7
(lp362
sg9
(lp363
I337
aI1
aI1
asg11
S'spaete_Filme/337_Mujeres_Al_Borde_De_Un_Ataque_De_Nervios_1988/'
p364
sg13
I01
sg14
Nsg15
S'//130.60.131.134/studi/Filme/spaete_Filme/337_Mujeres_Al_Borde_De_Un_Ataque_De_Nervios_1988\\337_1_1_MujeresAlBorde_1988_DVD_ELAN.eaf'
p365
sg17
I00
sba(i__main__
Movie
p366
(dp367
g3
S'TaxiDriver'
p368
sg5
S'//130.60.131.134/studi/Filme/spaete_Filme/338_TaxiDriver_1978/'
p369
sg7
(lp370
S'//130.60.131.134/studi/Filme/spaete_Filme/338_TaxiDriver_1978\\338_1_1_TaxiDriver_1976_DVD_ELAN.txt'
p371
asg9
(lp372
I338
aI1
aI1
asg11
S'spaete_Filme/338_TaxiDriver_1978/'
p373
sg13
I00
sg14
Nsg15
S'//130.60.131.134/studi/Filme/spaete_Filme/338_TaxiDriver_1978\\338_1_1_TaxiDriver_1976_DVD_ELAN.eaf'
p374
sg17
I00
sba(i__main__
Movie
p375
(dp376
g3
S'MetamorphoseDuPapillon'
p377
sg5
S'//130.60.131.134/studi/Filme/frueher_Film/362_Metamorphose_Du_Papillon_1904/'
p378
sg7
(lp379
sg9
(lp380
I362
aI1
aI1
asg11
S'frueher_Film/362_Metamorphose_Du_Papillon_1904/'
p381
sg13
I00
sg14
Nsg15
S'//130.60.131.134/studi/Filme/frueher_Film/362_Metamorphose_Du_Papillon_1904\\362_1_1_MetamorphoseDuPapillon_1904_DVD_ELAN.eaf'
p382
sg17
I00
sba(i__main__
Movie
p383
(dp384
g3
S'CyranoDeBergerac'
p385
sg5
S'//130.60.131.134/studi/Filme/frueher_Film/364_Cyrano_De_Bergerac_1923/'
p386
sg7
(lp387
sg9
(lp388
I364
aI1
aI1
asg11
S'frueher_Film/364_Cyrano_De_Bergerac_1923/'
p389
sg13
I00
sg14
Nsg15
S'//130.60.131.134/studi/Filme/frueher_Film/364_Cyrano_De_Bergerac_1923\\364_1_1_CyranoDeBergerac_1923_DVD_ELAN.eaf'
p390
sg17
I00
sba(i__main__
Movie
p391
(dp392
g3
S'Cyclo'
p393
sg5
S'//130.60.131.134/studi/Filme/spaete_Filme/365_Cyclo_1995/'
p394
sg7
(lp395
S'//130.60.131.134/studi/Filme/spaete_Filme/365_Cyclo_1995\\365_1_1_Cyclo_1995_DVD_ELAN.txt'
p396
asg9
(lp397
I365
aI1
aI1
asg11
S'spaete_Filme/365_Cyclo_1995/'
p398
sg13
I01
sg14
Nsg15
S'//130.60.131.134/studi/Filme/spaete_Filme/365_Cyclo_1995\\ELAN Projektdatei\\365_1_1_Cyclo_1995_DVD_ELAN.eaf'
p399
sg17
I00
sba(i__main__
Movie
p400
(dp401
g3
S'Solayaris'
p402
sg5
S'//130.60.131.134/studi/Filme/spaete_Filme/366_Solayaris_1972/'
p403
sg7
(lp404
S'//130.60.131.134/studi/Filme/spaete_Filme/366_Solayaris_1972\\366_1_1_Solayaris_1972_DVD_ELAN_export.txt'
p405
asg9
(lp406
I366
aI1
aI1
asg11
S'spaete_Filme/366_Solayaris_1972/'
p407
sg13
I01
sg14
Nsg15
S'//130.60.131.134/studi/Filme/spaete_Filme/366_Solayaris_1972\\366_1_1_Solayaris_1972_DVD_ELAN.eaf'
p408
sg17
I00
sba(i__main__
Movie
p409
(dp410
g3
S'LassieComeHome'
p411
sg5
S'//130.60.131.134/studi/Filme/mittlere_Filme/369_Lassie_Come_Home_1943/'
p412
sg7
(lp413
sg9
(lp414
I369
aI1
aI1
asg11
S'mittlere_Filme/369_Lassie_Come_Home_1943/'
p415
sg13
I01
sg14
Nsg15
S'//130.60.131.134/studi/Filme/mittlere_Filme/369_Lassie_Come_Home_1943\\369_1_1_LassieComeHome_1943_DVD_ELAN.eaf'
p416
sg17
I00
sba(i__main__
Movie
p417
(dp418
g3
S'WesternApproaches'
p419
sg5
S'//130.60.131.134/studi/Filme/mittlere_Filme/382_Western_Approaches_1944/'
p420
sg7
(lp421
S'//130.60.131.134/studi/Filme/mittlere_Filme/382_Western_Approaches_1944\\382_1_1_WesternApproaches_1944_DVD_ELAN.txt'
p422
asg9
(lp423
I382
aI1
aI1
asg11
S'mittlere_Filme/382_Western_Approaches_1944/'
p424
sg13
I00
sg14
Nsg15
S'//130.60.131.134/studi/Filme/mittlere_Filme/382_Western_Approaches_1944\\382_1_1_WesternApproaches_1944_DVD_ELAN.eaf'
p425
sg17
I00
sba(i__main__
Movie
p426
(dp427
g3
S'AMatterOfLifeAndDeath'
p428
sg5
S'//130.60.131.134/studi/Filme/mittlere_Filme/386_A_Matter_of_Life_and_Death_1946/'
p429
sg7
(lp430
S'//130.60.131.134/studi/Filme/mittlere_Filme/386_A_Matter_of_Life_and_Death_1946\\386_1_1_AMatterOfLifeAndDeath_1946_DVD_ELAN.txt'
p431
asg9
(lp432
I386
aI1
aI1
asg11
S'mittlere_Filme/386_A_Matter_of_Life_and_Death_1946/'
p433
sg13
I00
sg14
Nsg15
S'//130.60.131.134/studi/Filme/mittlere_Filme/386_A_Matter_of_Life_and_Death_1946\\386_1_1_AMatterOfLifeAndDeath_1946_DVD_ELAN.eaf'
p434
sg17
I00
sba(i__main__
Movie
p435
(dp436
g3
S'DrumsAlongTheMohawk'
p437
sg5
S'//130.60.131.134/studi/Filme/mittlere_Filme/391_Drums_along_the_Mohawk_1939/'
p438
sg7
(lp439
S'//130.60.131.134/studi/Filme/mittlere_Filme/391_Drums_along_the_Mohawk_1939\\391_1_1_DrumsAlongTheMohawk_1939_DVD_ELAN.txt'
p440
asg9
(lp441
I391
aI1
aI1
asg11
S'mittlere_Filme/391_Drums_along_the_Mohawk_1939/'
p442
sg13
I00
sg14
Nsg15
S'//130.60.131.134/studi/Filme/mittlere_Filme/391_Drums_along_the_Mohawk_1939\\391_1_1_DrumsAlongTheMohawk_1939_DVD_ELAN.eaf'
p443
sg17
I00
sba(i__main__
Movie
p444
(dp445
g3
S'Wilson'
p446
sg5
S'//130.60.131.134/studi/Filme/mittlere_Filme/394_Wilson_1944/'
p447
sg7
(lp448
sg9
(lp449
I394
aI1
aI1
asg11
S'mittlere_Filme/394_Wilson_1944/'
p450
sg13
I01
sg14
Nsg15
S'//130.60.131.134/studi/Filme/mittlere_Filme/394_Wilson_1944\\394_1_1_Wilson_1944_DVD_ELAN.eaf'
p451
sg17
I00
sba(i__main__
Movie
p452
(dp453
g3
S'Shane'
p454
sg5
S'//130.60.131.134/studi/Filme/mittlere_Filme/400_Shane_1953/'
p455
sg7
(lp456
S'//130.60.131.134/studi/Filme/mittlere_Filme/400_Shane_1953\\400_1_1_Shane_1953_DVD_ELAN.txt'
p457
asg9
(lp458
I400
aI1
aI1
asg11
S'mittlere_Filme/400_Shane_1953/'
p459
sg13
I00
sg14
Nsg15
S'//130.60.131.134/studi/Filme/mittlere_Filme/400_Shane_1953\\400_1_1_Shane_1953_DVD_ELAN.eaf'
p460
sg17
I00
sba(i__main__
Movie
p461
(dp462
g3
S'TheEpicOfEverest'
p463
sg5
S'//130.60.131.134/studi/Filme/frueher_Film/411_The_Epic_of_Everest_1924/'
p464
sg7
(lp465
sg9
(lp466
I411
aI1
aI1
asg11
S'frueher_Film/411_The_Epic_of_Everest_1924/'
p467
sg13
I00
sg14
Nsg15
S'//130.60.131.134/studi/Filme/frueher_Film/411_The_Epic_of_Everest_1924\\411_1_1_TheEpicOfEverest_1924_DVD_Elan.eaf'
p468
sg17
I00
sba(i__main__
Movie
p469
(dp470
g3
S'DieGoldeneStadt'
p471
sg5
S'//130.60.131.134/studi/Filme/mittlere_Filme/417_Die_goldene_Stadt_1942/'
p472
sg7
(lp473
S'//130.60.131.134/studi/Filme/mittlere_Filme/417_Die_goldene_Stadt_1942\\417_1_1_DieGoldeneStadt_1942_DVD_ELAN.txt'
p474
asg9
(lp475
I417
aI1
aI1
asg11
S'mittlere_Filme/417_Die_goldene_Stadt_1942/'
p476
sg13
I00
sg14
Nsg15
S'//130.60.131.134/studi/Filme/mittlere_Filme/417_Die_goldene_Stadt_1942\\417_1_1_DieGoldeneStadt_1942_DVD_ELAN.eaf'
p477
sg17
I00
sba(i__main__
Movie
p478
(dp479
g3
S'AStarIsBorn'
p480
sg5
S'//130.60.131.134/studi/Filme/mittlere_Filme/434_A_Star_Is_Born_1954/'
p481
sg7
(lp482
sg9
(lp483
I434
aI1
aI1
asg11
S'mittlere_Filme/434_A_Star_Is_Born_1954/'
p484
sg13
I01
sg14
Nsg15
S'//130.60.131.134/studi/Filme/mittlere_Filme/434_A_Star_Is_Born_1954\\434_1_1_AStarIsBorn_1954_DVD_ELAN.eaf'
p485
sg17
I00
sba(i__main__
Movie
p486
(dp487
g3
S'DieFrauMeinerTraeume'
p488
sg5
S'//130.60.131.134/studi/Filme/mittlere_Filme/435_Die_Frau_meiner_Traeume_1944/'
p489
sg7
(lp490
S'//130.60.131.134/studi/Filme/mittlere_Filme/435_Die_Frau_meiner_Traeume_1944\\435_1_1_DieFrauMeinerTraeume_1944_DVD_ELAN.txt'
p491
asg9
(lp492
I435
aI1
aI1
asg11
S'mittlere_Filme/435_Die_Frau_meiner_Traeume_1944/'
p493
sg13
I00
sg14
Nsg15
S'//130.60.131.134/studi/Filme/mittlere_Filme/435_Die_Frau_meiner_Traeume_1944\\435_1_1_DieFrauMeinerTraeume_1944_DVD_ELAN.eaf'
p494
sg17
I00
sba(i__main__
Movie
p495
(dp496
g3
S'RebelWithoutACause'
p497
sg5
S'//130.60.131.134/studi/Filme/spaete_Filme/437_Rebel_Without_A_Cause_1955/'
p498
sg7
(lp499
S'//130.60.131.134/studi/Filme/spaete_Filme/437_Rebel_Without_A_Cause_1955\\437_1_1_RebelWithoutACause_1955_DVD_ELAN_2_export.txt'
p500
asg9
(lp501
I437
aI1
aI1
asg11
S'spaete_Filme/437_Rebel_Without_A_Cause_1955/'
p502
sg13
I01
sg14
Nsg15
S'//130.60.131.134/studi/Filme/spaete_Filme/437_Rebel_Without_A_Cause_1955\\437_1_1_RebelWithoutACause_1955_DVD_ELAN_2.eaf'
p503
sg17
I00
sba(i__main__
Movie
p504
(dp505
g3
S'DownArgentineWay'
p506
sg5
S'//130.60.131.134/studi/Filme/mittlere_Filme/442_Down_Argentine_Way_1940/'
p507
sg7
(lp508
sg9
(lp509
I442
aI1
aI1
asg11
S'mittlere_Filme/442_Down_Argentine_Way_1940/'
p510
sg13
I01
sg14
Nsg15
S'//130.60.131.134/studi/Filme/mittlere_Filme/442_Down_Argentine_Way_1940\\442_1_1_DownArgentineWay_1940_DVD_ELAN.eaf'
p511
sg17
I00
sba(i__main__
Movie
p512
(dp513
g3
S'AnnieGetYourGun'
p514
sg5
S'//130.60.131.134/studi/Filme/mittlere_Filme/474_Annie_Get_Your_Gun_1950/'
p515
sg7
(lp516
S'//130.60.131.134/studi/Filme/mittlere_Filme/474_Annie_Get_Your_Gun_1950\\474_1_1_AnnieGetYourGun_1950_DVD_ELAN.txt'
p517
asg9
(lp518
I474
aI1
aI1
asg11
S'mittlere_Filme/474_Annie_Get_Your_Gun_1950/'
p519
sg13
I00
sg14
Nsg15
S'//130.60.131.134/studi/Filme/mittlere_Filme/474_Annie_Get_Your_Gun_1950\\474_1_1_AnnieGetYourGun_1950_DVD_ELAN.eaf'
p520
sg17
I00
sba(i__main__
Movie
p521
(dp522
g3
S'TheRobe'
p523
sg5
S'//130.60.131.134/studi/Filme/mittlere_Filme/488_The_Robe_1953/'
p524
sg7
(lp525
S'//130.60.131.134/studi/Filme/mittlere_Filme/488_The_Robe_1953\\488_1_1_TheRobe_1953_DVD_ELAN.txt'
p526
asg9
(lp527
I488
aI1
aI1
asg11
S'mittlere_Filme/488_The_Robe_1953/'
p528
sg13
I00
sg14
Nsg15
S'//130.60.131.134/studi/Filme/mittlere_Filme/488_The_Robe_1953\\488_1_1_TheRobe_1953_DVD_ELAN.eaf'
p529
sg17
I00
sba(i__main__
Movie
p530
(dp531
g3
S'RearWindow'
p532
sg5
S'//130.60.131.134/studi/Filme/mittlere_Filme/490_Rear_Window_1954/'
p533
sg7
(lp534
sg9
(lp535
I490
aI1
aI1
asg11
S'mittlere_Filme/490_Rear_Window_1954/'
p536
sg13
I01
sg14
Nsg15
S'//130.60.131.134/studi/Filme/mittlere_Filme/490_Rear_Window_1954\\490_1_1_RearWindow_1954_DVD_ELAN.eaf'
p537
sg17
I00
sba(i__main__
Movie
p538
(dp539
g3
S'SevenBridesForSevenBrothers'
p540
sg5
S'//130.60.131.134/studi/Filme/mittlere_Filme/491_Seven_Brides_for_Seven_Brothers_1954/'
p541
sg7
(lp542
S'//130.60.131.134/studi/Filme/mittlere_Filme/491_Seven_Brides_for_Seven_Brothers_1954\\491_1_1_SevenBridesForSevenBrothers_1954_DVD_ELAN.txt'
p543
asg9
(lp544
I491
aI1
aI1
asg11
S'mittlere_Filme/491_Seven_Brides_for_Seven_Brothers_1954/'
p545
sg13
I01
sg14
Nsg15
S'//130.60.131.134/studi/Filme/mittlere_Filme/491_Seven_Brides_for_Seven_Brothers_1954\\491_1_1_SevenBridesForSevenBrothers_1954_DVD_ELAN.eaf'
p546
sg17
I00
sba(i__main__
Movie
p547
(dp548
g3
S'Gigi'
p549
sg5
S'//130.60.131.134/studi/Filme/spaete_Filme/504_Gigi_1958/'
p550
sg7
(lp551
S'//130.60.131.134/studi/Filme/spaete_Filme/504_Gigi_1958\\504_1_1_Gigi_1958_DVD_ELAN.txt'
p552
asg9
(lp553
I504
aI1
aI1
asg11
S'spaete_Filme/504_Gigi_1958/'
p554
sg13
I00
sg14
Nsg15
S'//130.60.131.134/studi/Filme/spaete_Filme/504_Gigi_1958\\ELAN Projektdatei\\504_1_1_Gigi_1958_DVD_ELAN.eaf'
p555
sg17
I00
sba(i__main__
Movie
p556
(dp557
g3
S'LawrenceOfArabia'
p558
sg5
S'//130.60.131.134/studi/Filme/spaete_Filme/523_Lawrence_of_Arabia_1962/'
p559
sg7
(lp560
S'//130.60.131.134/studi/Filme/spaete_Filme/523_Lawrence_of_Arabia_1962\\523_1_1_LawrenceOfArabia_1962_Bluray_ELAN_export.txt'
p561
asg9
(lp562
I523
aI1
aI1
asg11
S'spaete_Filme/523_Lawrence_of_Arabia_1962/'
p563
sg13
I01
sg14
Nsg15
S'//130.60.131.134/studi/Filme/spaete_Filme/523_Lawrence_of_Arabia_1962\\523_1_1_LawrenceOfArabia_1962_Bluray_ELAN.eaf'
p564
sg17
I00
sba(i__main__
Movie
p565
(dp566
g3
S'FantasticVoyage'
p567
sg5
S'//130.60.131.134/studi/Filme/spaete_Filme/541_Fantastic_Voyage_1966/'
p568
sg7
(lp569
S'//130.60.131.134/studi/Filme/spaete_Filme/541_Fantastic_Voyage_1966\\541_1_1_FantasticVoyage_1966_DVD_ELAN_export.txt'
p570
asg9
(lp571
I541
aI1
aI1
asg11
S'spaete_Filme/541_Fantastic_Voyage_1966/'
p572
sg13
I01
sg14
Nsg15
S'//130.60.131.134/studi/Filme/spaete_Filme/541_Fantastic_Voyage_1966\\541_1_1_FantasticVoyage_1966_DVD_ELAN.eaf'
p573
sg17
I00
sba(i__main__
Movie
p574
(dp575
g3
S'TheBoldCaballero'
p576
sg5
S'//130.60.131.134/studi/Filme/mittlere_Filme/548_The_Bold_Caballero_1936/'
p577
sg7
(lp578
S'//130.60.131.134/studi/Filme/mittlere_Filme/548_The_Bold_Caballero_1936\\548_1_1_TheBoldCaballero_1936_DVD_ELAN.txt'
p579
asg9
(lp580
I548
aI1
aI1
asg11
S'mittlere_Filme/548_The_Bold_Caballero_1936/'
p581
sg13
I00
sg14
Nsg15
S'//130.60.131.134/studi/Filme/mittlere_Filme/548_The_Bold_Caballero_1936\\548_1_1_TheBoldCaballero_1936_DVD_ELAN.eaf'
p582
sg17
I00
sba(i__main__
Movie
p583
(dp584
g3
S'OutCaliforniaWay'
p585
sg5
S'//130.60.131.134/studi/Filme/mittlere_Filme/550_Out_California_Way_1946/'
p586
sg7
(lp587
S'//130.60.131.134/studi/Filme/mittlere_Filme/550_Out_California_Way_1946\\550_1_1_OutCaliforniaWay_1946_DVD_ELAN.txt'
p588
asg9
(lp589
I550
aI1
aI1
asg11
S'mittlere_Filme/550_Out_California_Way_1946/'
p590
sg13
I00
sg14
Nsg15
S'//130.60.131.134/studi/Filme/mittlere_Filme/550_Out_California_Way_1946\\550_1_1_OutCaliforniaWay_1946_DVD_ELAN.eaf'
p591
sg17
I00
sba(i__main__
Movie
p592
(dp593
g3
S'TheGoldwynFollies'
p594
sg5
S'//130.60.131.134/studi/Filme/mittlere_Filme/553_The_Goldwyn_Follies_1938/'
p595
sg7
(lp596
sg9
(lp597
I553
aI1
aI1
asg11
S'mittlere_Filme/553_The_Goldwyn_Follies_1938/'
p598
sg13
I01
sg14
Nsg15
S'//130.60.131.134/studi/Filme/mittlere_Filme/553_The_Goldwyn_Follies_1938\\553_1_1_TheGoldwynFollies_1938_DVD_ELAN.eaf'
p599
sg17
I00
sba(i__main__
Movie
p600
(dp601
g3
S'NothingSacred'
p602
sg5
S'//130.60.131.134/studi/Filme/mittlere_Filme/561_Nothing_Sacred_1937/'
p603
sg7
(lp604
S'//130.60.131.134/studi/Filme/mittlere_Filme/561_Nothing_Sacred_1937\\561_1_1_NothingSacred_1937_DVD_ELAN.txt'
p605
asg9
(lp606
I561
aI1
aI1
asg11
S'mittlere_Filme/561_Nothing_Sacred_1937/'
p607
sg13
I00
sg14
Nsg15
S'//130.60.131.134/studi/Filme/mittlere_Filme/561_Nothing_Sacred_1937\\561_1_1_NothingSacred_1937_DVD_ELAN.eaf'
p608
sg17
I00
sba(i__main__
Movie
p609
(dp610
g3
S'Whoopee'
p611
sg5
S'//130.60.131.134/studi/Filme/frueher_Film/574_Whoopee_1930/'
p612
sg7
(lp613
sg9
(lp614
I574
aI1
aI1
asg11
S'frueher_Film/574_Whoopee_1930/'
p615
sg13
I00
sg14
Nsg15
S'//130.60.131.134/studi/Filme/frueher_Film/574_Whoopee_1930\\574_1_1_Whoopee_1930_ELAN.eaf'
p616
sg17
I00
sba(i__main__
Movie
p617
(dp618
g3
S'TheThiefOfBagdad'
p619
sg5
S'//130.60.131.134/studi/Filme/frueher_Film/613_The_Thief_Of_Bagdad_1924/'
p620
sg7
(lp621
sg9
(lp622
I613
aI1
aI1
asg11
S'frueher_Film/613_The_Thief_Of_Bagdad_1924/'
p623
sg13
I01
sg14
Nsg15
S'//130.60.131.134/studi/Filme/frueher_Film/613_The_Thief_Of_Bagdad_1924\\613_1_1_TheThiefOfBagdad_1924_DVD_ELAN.eaf'
p624
sg17
I00
sba(i__main__
Movie
p625
(dp626
g3
S'Erotikon'
p627
sg5
S'//130.60.131.134/studi/Filme/frueher_Film/614_Erotikon_1920/'
p628
sg7
(lp629
sg9
(lp630
I614
aI1
aI1
asg11
S'frueher_Film/614_Erotikon_1920/'
p631
sg13
I01
sg14
Nsg15
S'//130.60.131.134/studi/Filme/frueher_Film/614_Erotikon_1920\\614_1_1_Erotikon_1920_DVD_ELAN.eaf'
p632
sg17
I00
sba(i__main__
Movie
p633
(dp634
g3
S'BehindTheDoor'
p635
sg5
S'//130.60.131.134/studi/Filme/frueher_Film/616_Behind_The_Door_1919/'
p636
sg7
(lp637
sg9
(lp638
I616
aI1
aI1
asg11
S'frueher_Film/616_Behind_The_Door_1919/'
p639
sg13
I01
sg14
Nsg15
S'//130.60.131.134/studi/Filme/frueher_Film/616_Behind_The_Door_1919\\616_1_1_BehindTheDoor_1919_DVD_ELAN.eaf'
p640
sg17
I00
sba(i__main__
Movie
p641
(dp642
g3
S'InvadersFromMars'
p643
sg5
S'//130.60.131.134/studi/Filme/mittlere_Filme/620_Invaders_from_Mars_1953/'
p644
sg7
(lp645
S'//130.60.131.134/studi/Filme/mittlere_Filme/620_Invaders_from_Mars_1953\\620_1_1_InvadersFromMars_1953_DVD_ELAN.txt'
p646
asg9
(lp647
I620
aI1
aI1
asg11
S'mittlere_Filme/620_Invaders_from_Mars_1953/'
p648
sg13
I01
sg14
Nsg15
S'//130.60.131.134/studi/Filme/mittlere_Filme/620_Invaders_from_Mars_1953\\620_1_1_InvadersFromMars_1953_DVD_ELAN.eaf'
p649
sg17
I00
sba(i__main__
Movie
p650
(dp651
g3
S'DestinationMoon'
p652
sg5
S'//130.60.131.134/studi/Filme/mittlere_Filme/622_Destination_Moon_1950/'
p653
sg7
(lp654
sg9
(lp655
I622
aI1
aI1
asg11
S'mittlere_Filme/622_Destination_Moon_1950/'
p656
sg13
I01
sg14
Nsg15
S'//130.60.131.134/studi/Filme/mittlere_Filme/622_Destination_Moon_1950\\622_1_1_DestinationMoon_1950_DVD_ELAN.eaf'
p657
sg17
I00
sba(i__main__
Movie
p658
(dp659
g3
S'LaFeeAuxFleurs'
p660
sg5
S'//130.60.131.134/studi/Filme/frueher_Film/641_La_Fee_Aux_Fleurs_1905/'
p661
sg7
(lp662
sg9
(lp663
I641
aI1
aI4
asg11
S'frueher_Film/641_La_Fee_Aux_Fleurs_1905/'
p664
sg13
I00
sg14
Nsg15
S'//130.60.131.134/studi/Filme/frueher_Film/641_La_Fee_Aux_Fleurs_1905\\641_1_4_LaFeeAuxFleurs_1905_DVD_ELAN.eaf'
p665
sg17
I00
sba(i__main__
Movie
p666
(dp667
g3
S'LePiedDeMouton'
p668
sg5
S'//130.60.131.134/studi/Filme/frueher_Film/642_Le_Pied_De_Mouton_1907/'
p669
sg7
(lp670
sg9
(lp671
I642
aI1
aI1
asg11
S'frueher_Film/642_Le_Pied_De_Mouton_1907/'
p672
sg13
I00
sg14
Nsg15
S'//130.60.131.134/studi/Filme/frueher_Film/642_Le_Pied_De_Mouton_1907\\642_1_1_LePiedDeMouton_1907_DVD_ELAN.eaf'
p673
sg17
I00
sba(i__main__
Movie
p674
(dp675
g3
S'AssuntaSpina'
p676
sg5
S'//130.60.131.134/studi/Filme/frueher_Film/699_Assunta_Spina_1915/'
p677
sg7
(lp678
sg9
(lp679
I699
aI1
aI1
asg11
S'frueher_Film/699_Assunta_Spina_1915/'
p680
sg13
I01
sg14
Nsg15
S'//130.60.131.134/studi/Filme/frueher_Film/699_Assunta_Spina_1915\\699_1_1_AssuntaSpina_1915_DVD_ELAN.eaf'
p681
sg17
I00
sba(i__main__
Movie
p682
(dp683
g3
S'DasWirtshausImSpessart'
p684
sg5
S'//130.60.131.134/studi/Filme/spaete_Filme/820_Das_Wirtshaus_im_Spessart_1957/'
p685
sg7
(lp686
S'//130.60.131.134/studi/Filme/spaete_Filme/820_Das_Wirtshaus_im_Spessart_1957\\820_1_2_DasWirtshausImSpessart_1957_DVD_ELAN_export.txt'
p687
asg9
(lp688
I820
aI1
aI2
asg11
S'spaete_Filme/820_Das_Wirtshaus_im_Spessart_1957/'
p689
sg13
I01
sg14
Nsg15
S'//130.60.131.134/studi/Filme/spaete_Filme/820_Das_Wirtshaus_im_Spessart_1957\\820_1_2_DasWirtshausImSpessart_1957_DVD_ELAN.eaf'
p690
sg17
I00
sba(i__main__
Movie
p691
(dp692
g3
S'Schwarzwaldmaedel'
p693
sg5
S'//130.60.131.134/studi/Filme/mittlere_Filme/821_Schwarzwaldmaedel_1950/'
p694
sg7
(lp695
S'//130.60.131.134/studi/Filme/mittlere_Filme/821_Schwarzwaldmaedel_1950\\821_1_2_Schwarzwaldmaedel_1950_DVD_ELAN.txt'
p696
asg9
(lp697
I821
aI1
aI2
asg11
S'mittlere_Filme/821_Schwarzwaldmaedel_1950/'
p698
sg13
I01
sg14
Nsg15
S'//130.60.131.134/studi/Filme/mittlere_Filme/821_Schwarzwaldmaedel_1950\\821_1_2_Schwarzwaldmaedel_1950_DVD_ELAN.eaf'
p699
sg17
I00
sba(i__main__
Movie
p700
(dp701
g3
S'ElNegro'
p702
sg5
S'//130.60.131.134/studi/Filme/frueher_Film/830_El_Negro_Que_Tenia_El_Alma_Blanca_1927/'
p703
sg7
(lp704
sg9
(lp705
I830
aI1
aI1
asg11
S'frueher_Film/830_El_Negro_Que_Tenia_El_Alma_Blanca_1927/'
p706
sg13
I01
sg14
Nsg15
S'//130.60.131.134/studi/Filme/frueher_Film/830_El_Negro_Que_Tenia_El_Alma_Blanca_1927\\830_1_1_ElNegro_1927_DVD_ELAN.eaf'
p707
sg17
I00
sba(i__main__
Movie
p708
(dp709
g3
S'Intolerance'
p710
sg5
S'//130.60.131.134/studi/Filme/frueher_Film/832_Intolerance_1916/'
p711
sg7
(lp712
sg9
(lp713
I832
aI1
aI1
asg11
S'frueher_Film/832_Intolerance_1916/'
p714
sg13
I01
sg14
Nsg15
S'//130.60.131.134/studi/Filme/frueher_Film/832_Intolerance_1916\\832_1_1_Intolerance_1916_DVD_Elan.eaf'
p715
sg17
I00
sba(i__main__
Movie
p716
(dp717
g3
S'Frauenschicksale'
p718
sg5
S'//130.60.131.134/studi/Filme/mittlere_Filme/840_Frauenschicksale_1952/'
p719
sg7
(lp720
S'//130.60.131.134/studi/Filme/mittlere_Filme/840_Frauenschicksale_1952\\840_1_1_Frauenschicksale_1952_DVD_ELAN.txt'
p721
asg9
(lp722
I840
aI1
aI1
asg11
S'mittlere_Filme/840_Frauenschicksale_1952/'
p723
sg13
I00
sg14
Nsg15
S'//130.60.131.134/studi/Filme/mittlere_Filme/840_Frauenschicksale_1952\\840_1_1_Frauenschicksale_1952_DVD_ELAN.eaf'
p724
sg17
I00
sba(i__main__
Movie
p725
(dp726
g3
S'AliceInWonderland'
p727
sg5
S'//130.60.131.134/studi/Filme/frueher_Film/851_Alice_In_Wonderland_1915/'
p728
sg7
(lp729
sg9
(lp730
I851
aI1
aI1
asg11
S'frueher_Film/851_Alice_In_Wonderland_1915/'
p731
sg13
I01
sg14
Nsg15
S'//130.60.131.134/studi/Filme/frueher_Film/851_Alice_In_Wonderland_1915\\851_1_1_AliceInWonderland_1915_DVD_ELAN.eaf'
p732
sg17
I00
sba(i__main__
Movie
p733
(dp734
g3
S'ParisTexas'
p735
sg5
S'//130.60.131.134/studi/Filme/spaete_Filme/852_Paris_Texas_1984/'
p736
sg7
(lp737
sg9
(lp738
I852
aI1
aI1
asg11
S'spaete_Filme/852_Paris_Texas_1984/'
p739
sg13
I00
sg14
Nsg15
S'//130.60.131.134/studi/Filme/spaete_Filme/852_Paris_Texas_1984\\852_1_1_ParisTexas_1984_DVD_ELAN_BF.eaf'
p740
sg17
I00
sba(i__main__
Movie
p741
(dp742
g3
S'DieNibelungen'
p743
sg5
S'//130.60.131.134/studi/Filme/frueher_Film/854_Die_Nibelungen_1924/854_1_1_DieNibelungen_1924_DVD/'
p744
sg7
(lp745
sg9
(lp746
I854
aI1
aI1
asg11
S'frueher_Film/854_Die_Nibelungen_1924/854_1_1_DieNibelungen_1924_DVD/'
p747
sg13
I01
sg14
Nsg15
S'//130.60.131.134/studi/Filme/frueher_Film/854_Die_Nibelungen_1924/854_1_1_DieNibelungen_1924_DVD\\854_1_1_DieNibelungen_1924_DVD_ELAN.eaf'
p748
sg17
I00
sba(i__main__
Movie
p749
(dp750
g3
S'DieNibelungen'
p751
sg5
S'//130.60.131.134/studi/Filme/frueher_Film/854_Die_Nibelungen_1924/854_2_1_DieNibelungen_1924_DVD/'
p752
sg7
(lp753
sg9
(lp754
I854
aI2
aI1
asg11
S'frueher_Film/854_Die_Nibelungen_1924/854_2_1_DieNibelungen_1924_DVD/'
p755
sg13
I01
sg14
Nsg15
S'//130.60.131.134/studi/Filme/frueher_Film/854_Die_Nibelungen_1924/854_2_1_DieNibelungen_1924_DVD\\854_2_1_DieNibelungen_1924_DVD_ELAN.eaf'
p756
sg17
I00
sba(i__main__
Movie
p757
(dp758
g3
S'Napoleon'
p759
sg5
S'//130.60.131.134/studi/Filme/frueher_Film/860_Napoleon_1927/860_1_1_Napoleon_1927/'
p760
sg7
(lp761
sg9
(lp762
I860
aI1
aI1
asg11
S'frueher_Film/860_Napoleon_1927/860_1_1_Napoleon_1927/'
p763
sg13
I00
sg14
Nsg15
S'//130.60.131.134/studi/Filme/frueher_Film/860_Napoleon_1927/860_1_1_Napoleon_1927\\860_1_1_Napoleon_1927_Disc1_ELAN.eaf'
p764
sg17
I00
sba(i__main__
Movie
p765
(dp766
g3
S'Napoleon'
p767
sg5
S'//130.60.131.134/studi/Filme/frueher_Film/860_Napoleon_1927/860_1_2_Napoleon_1927/'
p768
sg7
(lp769
sg9
(lp770
I860
aI1
aI2
asg11
S'frueher_Film/860_Napoleon_1927/860_1_2_Napoleon_1927/'
p771
sg13
I00
sg14
Nsg15
S'//130.60.131.134/studi/Filme/frueher_Film/860_Napoleon_1927/860_1_2_Napoleon_1927\\860_1_2_Napoleon_1927_Disc2_ELAN.eaf'
p772
sg17
I00
sba(i__main__
Movie
p773
(dp774
g3
S'Napoleon'
p775
sg5
S'//130.60.131.134/studi/Filme/frueher_Film/860_Napoleon_1927/860_1_3_Napoleon_1927/'
p776
sg7
(lp777
sg9
(lp778
I860
aI1
aI3
asg11
S'frueher_Film/860_Napoleon_1927/860_1_3_Napoleon_1927/'
p779
sg13
I00
sg14
Nsg15
S'//130.60.131.134/studi/Filme/frueher_Film/860_Napoleon_1927/860_1_3_Napoleon_1927\\860_1_3_Napoleon_1927_Disc3_ELAN.eaf'
p780
sg17
I00
sba(i__main__
Movie
p781
(dp782
g3
S'Napoleon'
p783
sg5
S'//130.60.131.134/studi/Filme/frueher_Film/860_Napoleon_1927/860_1_4_Napoleon_1927/'
p784
sg7
(lp785
sg9
(lp786
I860
aI1
aI4
asg11
S'frueher_Film/860_Napoleon_1927/860_1_4_Napoleon_1927/'
p787
sg13
I00
sg14
Nsg15
S'//130.60.131.134/studi/Filme/frueher_Film/860_Napoleon_1927/860_1_4_Napoleon_1927\\860_1_4_Napoleon_1927_Disc4_ELAN.eaf'
p788
sg17
I00
sba(i__main__
Movie
p789
(dp790
g3
S'TheOpenRoad'
p791
sg5
S'//130.60.131.134/studi/Filme/frueher_Film/878_The_Open_Road_1925/'
p792
sg7
(lp793
sg9
(lp794
I878
aI1
aI1
asg11
S'frueher_Film/878_The_Open_Road_1925/'
p795
sg13
I00
sg14
Nsg15
S'//130.60.131.134/studi/Filme/frueher_Film/878_The_Open_Road_1925\\878_1_1_TheOpenRoad_1925_DVD_ELAN.eaf'
p796
sg17
I00
sba(i__main__
Movie
p797
(dp798
g3
S'MaerkischeFahrt'
p799
sg5
S'//130.60.131.134/studi/Filme/mittlere_Filme/891_Maerkische_Fahrt_1942/'
p800
sg7
(lp801
S'//130.60.131.134/studi/Filme/mittlere_Filme/891_Maerkische_Fahrt_1942\\891_1_3_MaerkischeFahrt_1942_DVD_ELAN.txt'
p802
asg9
(lp803
I891
aI1
aI3
asg11
S'mittlere_Filme/891_Maerkische_Fahrt_1942/'
p804
sg13
I00
sg14
Nsg15
S'//130.60.131.134/studi/Filme/mittlere_Filme/891_Maerkische_Fahrt_1942\\891_1_3_MaerkischeFahrt_1942_DVD_ELAN.eaf'
p805
sg17
I00
sba(i__main__
Movie
p806
(dp807
g3
S'LaGrandeBouffe'
p808
sg5
S'//130.60.131.134/studi/Filme/spaete_Filme/897_La_Grande_Bouffe_1973/'
p809
sg7
(lp810
sg9
(lp811
I897
aI1
aI2
asg11
S'spaete_Filme/897_La_Grande_Bouffe_1973/'
p812
sg13
I00
sg14
Nsg15
S'//130.60.131.134/studi/Filme/spaete_Filme/897_La_Grande_Bouffe_1973\\897_1_2_LaGrandeBouffe_1973_DVD_ELAN.eaf'
p813
sg17
I00
sba(i__main__
Movie
p814
(dp815
g3
S'MorteAVenezia'
p816
sg5
S'//130.60.131.134/studi/Filme/spaete_Filme/902_MorteAVenezia_1971/'
p817
sg7
(lp818
S'//130.60.131.134/studi/Filme/spaete_Filme/902_MorteAVenezia_1971\\902_1_1_MorteAVenezia_1971_DVD_ELAN_BF.txt'
p819
asg9
(lp820
I902
aI1
aI1
asg11
S'spaete_Filme/902_MorteAVenezia_1971/'
p821
sg13
I00
sg14
Nsg15
S'//130.60.131.134/studi/Filme/spaete_Filme/902_MorteAVenezia_1971\\902_1_1_MorteAVenezia_1971_DVD_ELAN_BF.eaf'
p822
sg17
I00
sba(i__main__
Movie
p823
(dp824
g3
S'TulitikkutehtaanTytto'
p825
sg5
S'//130.60.131.134/studi/Filme/spaete_Filme/931_Tulitikkutehtaan_Tytto_1990/'
p826
sg7
(lp827
S'//130.60.131.134/studi/Filme/spaete_Filme/931_Tulitikkutehtaan_Tytto_1990\\1400_1_1_StarWarsV_1980_DVD_ELAN_export.txt'
p828
aS'//130.60.131.134/studi/Filme/spaete_Filme/931_Tulitikkutehtaan_Tytto_1990\\931_1_1_TulitikkutehtaanTytto_1990_DVD_ELAN_export2.txt'
p829
asg9
(lp830
I931
aI1
aI1
asg11
S'spaete_Filme/931_Tulitikkutehtaan_Tytto_1990/'
p831
sg13
I00
sg14
Nsg15
S'//130.60.131.134/studi/Filme/spaete_Filme/931_Tulitikkutehtaan_Tytto_1990\\931_1_1_TulitikkutehtaanTytto_1990_DVD_ELAN.eaf'
p832
sg17
I00
sba(i__main__
Movie
p833
(dp834
g3
S'DodgeCity'
p835
sg5
S'//130.60.131.134/studi/Filme/mittlere_Filme/948_Dodge_City_1939/'
p836
sg7
(lp837
sg9
(lp838
I948
aI1
aI1
asg11
S'mittlere_Filme/948_Dodge_City_1939/'
p839
sg13
I00
sg14
Nsg15
S'//130.60.131.134/studi/Filme/mittlere_Filme/948_Dodge_City_1939\\948_1_1_DodgeCity_1939_DVD_ELAN.eaf'
p840
sg17
I00
sba(i__main__
Movie
p841
(dp842
g3
S'ParisOnParade'
p843
sg5
S'//130.60.131.134/studi/Filme/mittlere_Filme/959_Paris_on_Parade_1938/'
p844
sg7
(lp845
S'//130.60.131.134/studi/Filme/mittlere_Filme/959_Paris_on_Parade_1938\\959_1_1_ParisOnParade_1938_DVD_ELAN.txt'
p846
asg9
(lp847
I959
aI1
aI1
asg11
S'mittlere_Filme/959_Paris_on_Parade_1938/'
p848
sg13
I00
sg14
Nsg15
S'//130.60.131.134/studi/Filme/mittlere_Filme/959_Paris_on_Parade_1938\\959_1_1_ParisOnParade_1938_DVD_ELAN.eaf'
p849
sg17
I00
sba(i__main__
Movie
p850
(dp851
g3
S'MysteryOfTheWaxMuseum'
p852
sg5
S'//130.60.131.134/studi/Filme/frueher_Film/1018_Mystery_Of_The_Wax_Museum_1933/'
p853
sg7
(lp854
sg9
(lp855
I1018
aI1
aI1
asg11
S'frueher_Film/1018_Mystery_Of_The_Wax_Museum_1933/'
p856
sg13
I01
sg14
Nsg15
S'//130.60.131.134/studi/Filme/frueher_Film/1018_Mystery_Of_The_Wax_Museum_1933\\1018_1_1_MysteryOfTheWaxMuseum_1933_DVD_Elan.eaf'
p857
sg17
I00
sba(i__main__
Movie
p858
(dp859
g3
S'YolandaAndTheThief'
p860
sg5
S'//130.60.131.134/studi/Filme/mittlere_Filme/1038_Yolanda_and_the_Thief_1945/'
p861
sg7
(lp862
S'//130.60.131.134/studi/Filme/mittlere_Filme/1038_Yolanda_and_the_Thief_1945\\1038_1_1_YolandaAndTheThief_1945_DVD_ELAN.txt'
p863
asg9
(lp864
I1038
aI1
aI1
asg11
S'mittlere_Filme/1038_Yolanda_and_the_Thief_1945/'
p865
sg13
I01
sg14
Nsg15
S'//130.60.131.134/studi/Filme/mittlere_Filme/1038_Yolanda_and_the_Thief_1945\\1038_1_1_YolandaAndTheThief_1945_DVD_ELAN.eaf'
p866
sg17
I00
sba(i__main__
Movie
p867
(dp868
g3
S'HellsAngels'
p869
sg5
S'//130.60.131.134/studi/Filme/frueher_Film/1062_Hells_Angels_1930/'
p870
sg7
(lp871
sg9
(lp872
I1062
aI1
aI3
asg11
S'frueher_Film/1062_Hells_Angels_1930/'
p873
sg13
I01
sg14
Nsg15
S'//130.60.131.134/studi/Filme/frueher_Film/1062_Hells_Angels_1930\\1062_1_3_HellsAngels_1930_DVD_ELAN.eaf'
p874
sg17
I00
sba(i__main__
Movie
p875
(dp876
g3
S'K\xf6rkarlen'
p877
sg5
S'//130.60.131.134/studi/Filme/frueher_Film/1081_K\xf6rkarlen_1921/'
p878
sg7
(lp879
sg9
(lp880
I1081
aI1
aI1
asg11
S'frueher_Film/1081_K\xf6rkarlen_1921/'
p881
sg13
I01
sg14
Nsg15
S'//130.60.131.134/studi/Filme/frueher_Film/1081_K\xf6rkarlen_1921\\1081_1_1_K\xf6rkarlen_1921_DVD_ELAN.eaf'
p882
sg17
I00
sba(i__main__
Movie
p883
(dp884
g3
S'NightAndDay'
p885
sg5
S'//130.60.131.134/studi/Filme/mittlere_Filme/1110_Night_and_Day_1946/'
p886
sg7
(lp887
sg9
(lp888
I1110
aI1
aI1
asg11
S'mittlere_Filme/1110_Night_and_Day_1946/'
p889
sg13
I01
sg14
Nsg15
S'//130.60.131.134/studi/Filme/mittlere_Filme/1110_Night_and_Day_1946\\1110_1_1_NightAndDay_1946_DVD_ELAN.eaf'
p890
sg17
I00
sba(i__main__
Movie
p891
(dp892
g3
S'ImmerBereit'
p893
sg5
S'//130.60.131.134/studi/Filme/mittlere_Filme/1169_Immer_bereit_1950/'
p894
sg7
(lp895
S'//130.60.131.134/studi/Filme/mittlere_Filme/1169_Immer_bereit_1950\\1169_1_1_ImmerBereit_1950_DVD_ELAN.txt'
p896
asg9
(lp897
I1169
aI1
aI1
asg11
S'mittlere_Filme/1169_Immer_bereit_1950/'
p898
sg13
I00
sg14
Nsg15
S'//130.60.131.134/studi/Filme/mittlere_Filme/1169_Immer_bereit_1950\\1169_1_1_ImmerBereit_1950_DVD_ELAN.eaf'
p899
sg17
I00
sba(i__main__
Movie
p900
(dp901
g3
S'TeethOfSteel'
p902
sg5
S'//130.60.131.134/studi/Filme/mittlere_Filme/1213_Teeth_of_Steel_1942/'
p903
sg7
(lp904
S'//130.60.131.134/studi/Filme/mittlere_Filme/1213_Teeth_of_Steel_1942\\1213_1_1_TeethOfSteel_1942_DVD_ELAN.txt'
p905
asg9
(lp906
I1213
aI1
aI1
asg11
S'mittlere_Filme/1213_Teeth_of_Steel_1942/'
p907
sg13
I00
sg14
Nsg15
S'//130.60.131.134/studi/Filme/mittlere_Filme/1213_Teeth_of_Steel_1942\\1213_1_1_TeethOfSteel_1942_DVD_ELAN.eaf'
p908
sg17
I00
sba(i__main__
Movie
p909
(dp910
g3
S'TheCoronationOfTheirMajestiesKingGeorgeVIAndQueenElizabeth'
p911
sg5
S'//130.60.131.134/studi/Filme/mittlere_Filme/1230_The_Coronation_of_Their_Majesties_King_George_VI_and_Queen_Elizabeth_1937/'
p912
sg7
(lp913
S'//130.60.131.134/studi/Filme/mittlere_Filme/1230_The_Coronation_of_Their_Majesties_King_George_VI_and_Queen_Elizabeth_1937\\1230_1_1_TheCoronationOfTheirMajestiesKingGeorgeVIAndQueenElizabeth_1937_DVD_ELAN.txt'
p914
asg9
(lp915
I1230
aI1
aI1
asg11
S'mittlere_Filme/1230_The_Coronation_of_Their_Majesties_King_George_VI_and_Queen_Elizabeth_1937/'
p916
sg13
I00
sg14
Nsg15
S'//130.60.131.134/studi/Filme/mittlere_Filme/1230_The_Coronation_of_Their_Majesties_King_George_VI_and_Queen_Elizabeth_1937\\1230_1_1_TheCoronationOfTheirMajestiesKingGeorgeVIAndQueenElizabeth_1937_DVD_ELAN.eaf'
p917
sg17
I00
sba(i__main__
Movie
p918
(dp919
g3
S'TheGodfather'
p920
sg5
S'//130.60.131.134/studi/Filme/spaete_Filme/1242_The_Godfather_1972/'
p921
sg7
(lp922
S'//130.60.131.134/studi/Filme/spaete_Filme/1242_The_Godfather_1972\\1242_1_1_TheGodfather_1972_DVD_ELAN.txt'
p923
asg9
(lp924
I1242
aI1
aI1
asg11
S'spaete_Filme/1242_The_Godfather_1972/'
p925
sg13
I01
sg14
Nsg15
S'//130.60.131.134/studi/Filme/spaete_Filme/1242_The_Godfather_1972\\ELAN Projektdatei\\1242_1_1_TheGodfather_1972_DVD_ELAN.eaf'
p926
sg17
I00
sba(i__main__
Movie
p927
(dp928
g3
S'TheLivingDaylights'
p929
sg5
S'//130.60.131.134/studi/Filme/spaete_Filme/1296_The_Living_Daylights_1987/'
p930
sg7
(lp931
S'//130.60.131.134/studi/Filme/spaete_Filme/1296_The_Living_Daylights_1987\\1296_1_1_TheLivingDaylights_1987_DVD_ELAN.txt'
p932
asg9
(lp933
I1296
aI1
aI1
asg11
S'spaete_Filme/1296_The_Living_Daylights_1987/'
p934
sg13
I00
sg14
Nsg15
S'//130.60.131.134/studi/Filme/spaete_Filme/1296_The_Living_Daylights_1987\\ELAN Projektdatei\\1296_1_1_TheLivingDaylights_1987_DVD_ELAN.eaf'
p935
sg17
I00
sba(i__main__
Movie
p936
(dp937
g3
S'Aliens'
p938
sg5
S'//130.60.131.134/studi/Filme/spaete_Filme/1307_Aliens_1986/'
p939
sg7
(lp940
S'//130.60.131.134/studi/Filme/spaete_Filme/1307_Aliens_1986\\1307_1_1_Aliens_1986_DVD_ELAN.txt'
p941
asg9
(lp942
I1307
aI1
aI1
asg11
S'spaete_Filme/1307_Aliens_1986/'
p943
sg13
I00
sg14
Nsg15
S'//130.60.131.134/studi/Filme/spaete_Filme/1307_Aliens_1986\\ELAN Projektdatei\\1307_1_1_Aliens_1986_DVD_ELAN.eaf'
p944
sg17
I00
sba(i__main__
Movie
p945
(dp946
g3
S'Batman'
p947
sg5
S'//130.60.131.134/studi/Filme/spaete_Filme/1318_Batman_1989/'
p948
sg7
(lp949
S'//130.60.131.134/studi/Filme/spaete_Filme/1318_Batman_1989\\1318_1_1_Batman_1989_DVD_ELAN.txt'
p950
asg9
(lp951
I1318
aI1
aI1
asg11
S'spaete_Filme/1318_Batman_1989/'
p952
sg13
I00
sg14
Nsg15
S'//130.60.131.134/studi/Filme/spaete_Filme/1318_Batman_1989\\ELAN Projektdatei\\1318_1_1_Batman_1989_DVD_ELAN.eaf'
p953
sg17
I00
sba(i__main__
Movie
p954
(dp955
g3
S'OutOfAfrica'
p956
sg5
S'//130.60.131.134/studi/Filme/spaete_Filme/1381_Out_Of_Africa_1985/'
p957
sg7
(lp958
S'//130.60.131.134/studi/Filme/spaete_Filme/1381_Out_Of_Africa_1985\\1381_1_1_OutOfAfrica_1985_DVD_ELAN.txt'
p959
asg9
(lp960
I1381
aI1
aI1
asg11
S'spaete_Filme/1381_Out_Of_Africa_1985/'
p961
sg13
I00
sg14
Nsg15
S'//130.60.131.134/studi/Filme/spaete_Filme/1381_Out_Of_Africa_1985\\ELAN Projektdatei\\1381_1_1_OutOfAfrica_1985_DVD_ELAN.eaf'
p962
sg17
I00
sba(i__main__
Movie
p963
(dp964
g3
S'StarWarsV'
p965
sg5
S'//130.60.131.134/studi/Filme/spaete_Filme/1400_Star_Wars_V_1980/'
p966
sg7
(lp967
sg9
(lp968
I1400
aI1
aI1
asg11
S'spaete_Filme/1400_Star_Wars_V_1980/'
p969
sg13
I01
sg14
Nsg15
S'//130.60.131.134/studi/Filme/spaete_Filme/1400_Star_Wars_V_1980\\1400_1_1_StarWarsV_1980_DVD_ELAN.eaf'
p970
sg17
I00
sba(i__main__
Movie
p971
(dp972
g3
S'TheFrenchConnection'
p973
sg5
S'//130.60.131.134/studi/Filme/spaete_Filme/1408_The_French_Connection_1971/'
p974
sg7
(lp975
S'//130.60.131.134/studi/Filme/spaete_Filme/1408_The_French_Connection_1971\\1408_1_1_TheFrenchConnection_1971_DVD_ELAN_export.txt'
p976
aS'//130.60.131.134/studi/Filme/spaete_Filme/1408_The_French_Connection_1971\\1510_1_1_DasBoot_1981_DVD_ELAN_export.txt'
p977
asg9
(lp978
I1408
aI1
aI1
asg11
S'spaete_Filme/1408_The_French_Connection_1971/'
p979
sg13
I01
sg14
Nsg15
S'//130.60.131.134/studi/Filme/spaete_Filme/1408_The_French_Connection_1971\\1408_1_1_TheFrenchConnection_1971_DVD_ELAN.eaf'
p980
sg17
I00
sba(i__main__
Movie
p981
(dp982
g3
S'Brigadoon'
p983
sg5
S'//130.60.131.134/studi/Filme/mittlere_Filme/1475_Brigadoon_1954/'
p984
sg7
(lp985
S'//130.60.131.134/studi/Filme/mittlere_Filme/1475_Brigadoon_1954\\1475_1_1_Brigadoon_1954_DVD_ELAN.txt'
p986
asg9
(lp987
I1475
aI1
aI1
asg11
S'mittlere_Filme/1475_Brigadoon_1954/'
p988
sg13
I00
sg14
Nsg15
S'//130.60.131.134/studi/Filme/mittlere_Filme/1475_Brigadoon_1954\\1475_1_1_Brigadoon_1954_DVD_ELAN.eaf'
p989
sg17
I00
sba(i__main__
Movie
p990
(dp991
g3
S'DasBoot'
p992
sg5
S'//130.60.131.134/studi/Filme/spaete_Filme/1510_Das_Boot_1981/'
p993
sg7
(lp994
S'//130.60.131.134/studi/Filme/spaete_Filme/1510_Das_Boot_1981\\1510_1_1_DasBoot_1981_DVD_ELAN_export.txt'
p995
aS'//130.60.131.134/studi/Filme/spaete_Filme/1510_Das_Boot_1981\\1510_1_1_DasBoot_1981_DVD_ELAN_export.csv'
p996
aS'//130.60.131.134/studi/Filme/spaete_Filme/1510_Das_Boot_1981\\1510_1_1_DasBoot_1981_DVD_FCT_snapchots.csv'
p997
aS'//130.60.131.134/studi/Filme/spaete_Filme/1510_Das_Boot_1981\\1510_1_1_DasBoot_1981_DVD_FCT_temp.csv'
p998
asg9
(lp999
I1510
aI1
aI1
asg11
S'spaete_Filme/1510_Das_Boot_1981/'
p1000
sg13
I01
sg14
Nsg15
S'//130.60.131.134/studi/Filme/spaete_Filme/1510_Das_Boot_1981\\1510_1_1_DasBoot_1981_DVD_ELAN.eaf'
p1001
sg17
I00
sba(i__main__
Movie
p1002
(dp1003
g3
S'DaysOfHeaven'
p1004
sg5
S'//130.60.131.134/studi/Filme/spaete_Filme/1517_Days_of_Heaven_1978/'
p1005
sg7
(lp1006
S'//130.60.131.134/studi/Filme/spaete_Filme/1517_Days_of_Heaven_1978\\1517_1_1_DaysOfHeaven_1978_DVD_ELAN.txt'
p1007
asg9
(lp1008
I1517
aI1
aI1
asg11
S'spaete_Filme/1517_Days_of_Heaven_1978/'
p1009
sg13
I00
sg14
Nsg15
S'//130.60.131.134/studi/Filme/spaete_Filme/1517_Days_of_Heaven_1978\\ELAN Projektdatei\\1517_1_1_DaysOfHeaven_1978_DVD_ELAN.eaf'
p1010
sg17
I00
sba(i__main__
Movie
p1011
(dp1012
g3
S'DickTracy'
p1013
sg5
S'//130.60.131.134/studi/Filme/spaete_Filme/1535_Dick_Tracy_1990/'
p1014
sg7
(lp1015
S'//130.60.131.134/studi/Filme/spaete_Filme/1535_Dick_Tracy_1990\\1535_1_1_DickTracy_1990_DVD_ELAN_2.txt'
p1016
asg9
(lp1017
I1535
aI1
aI1
asg11
S'spaete_Filme/1535_Dick_Tracy_1990/'
p1018
sg13
I01
sg14
Nsg15
S'//130.60.131.134/studi/Filme/spaete_Filme/1535_Dick_Tracy_1990\\1535_1_1_DickTracy_1990_DVD_ELAN.eaf'
p1019
sg17
I00
sba(i__main__
Movie
p1020
(dp1021
g3
S'DieEheDerMariaBraun'
p1022
sg5
S'//130.60.131.134/studi/Filme/spaete_Filme/1537_Die_Ehe_Der_Maria_Braun_1979/'
p1023
sg7
(lp1024
S'//130.60.131.134/studi/Filme/spaete_Filme/1537_Die_Ehe_Der_Maria_Braun_1979\\1537_1_1_DieEheDerMariaBraun_1979_DVD_ELAN_export.txt'
p1025
asg9
(lp1026
I1537
aI1
aI1
asg11
S'spaete_Filme/1537_Die_Ehe_Der_Maria_Braun_1979/'
p1027
sg13
I00
sg14
Nsg15
S'//130.60.131.134/studi/Filme/spaete_Filme/1537_Die_Ehe_Der_Maria_Braun_1979\\1537_1_1_DieEheDerMariaBraun_1979_DVD_ELAN.eaf'
p1028
sg17
I00
sba(i__main__
Movie
p1029
(dp1030
g3
S'Eolomea'
p1031
sg5
S'//130.60.131.134/studi/Filme/spaete_Filme/1563_Eolomea_1972/'
p1032
sg7
(lp1033
S'//130.60.131.134/studi/Filme/spaete_Filme/1563_Eolomea_1972\\1563_1_1_Eolomea_1972_DVD_ELAN.txt'
p1034
asg9
(lp1035
I1563
aI1
aI1
asg11
S'spaete_Filme/1563_Eolomea_1972/'
p1036
sg13
I01
sg14
Nsg15
S'//130.60.131.134/studi/Filme/spaete_Filme/1563_Eolomea_1972\\ELAN Projektdatei\\1563_1_1_Eolomea_1972_DVD_ELAN.eaf'
p1037
sg17
I00
sba(i__main__
Movie
p1038
(dp1039
g3
S'Flashdance'
p1040
sg5
S'//130.60.131.134/studi/Filme/spaete_Filme/1574_Flashdance_1983/'
p1041
sg7
(lp1042
S'//130.60.131.134/studi/Filme/spaete_Filme/1574_Flashdance_1983\\1574_1_1_Flashdance_1983_DVD_ELAN.txt'
p1043
asg9
(lp1044
I1574
aI1
aI1
asg11
S'spaete_Filme/1574_Flashdance_1983/'
p1045
sg13
I00
sg14
Nsg15
S'//130.60.131.134/studi/Filme/spaete_Filme/1574_Flashdance_1983\\ELAN Projektdatei\\1574_1_1_Flashdance_1983_DVD_ELAN.eaf'
p1046
sg17
I00
sba(i__main__
Movie
p1047
(dp1048
g3
S'LaDoubleVieDeVeronique'
p1049
sg5
S'//130.60.131.134/studi/Filme/spaete_Filme/1654_La_double_vie_de_Veronique_1991/'
p1050
sg7
(lp1051
S'//130.60.131.134/studi/Filme/spaete_Filme/1654_La_double_vie_de_Veronique_1991\\1654_1_1_LaDoubleVieDeVeronique_1991_DVD_ELAN.txt'
p1052
asg9
(lp1053
I1654
aI1
aI1
asg11
S'spaete_Filme/1654_La_double_vie_de_Veronique_1991/'
p1054
sg13
I00
sg14
Nsg15
S'//130.60.131.134/studi/Filme/spaete_Filme/1654_La_double_vie_de_Veronique_1991\\ELAN Projektdatei\\1654_1_1_LaDoubleVieDeVeronique_1991_DVD_ELAN.eaf'
p1055
sg17
I00
sba(i__main__
Movie
p1056
(dp1057
g3
S'LeDernierMetro'
p1058
sg5
S'//130.60.131.134/studi/Filme/spaete_Filme/1669_Le_Dernier_Metro_1980/'
p1059
sg7
(lp1060
S'//130.60.131.134/studi/Filme/spaete_Filme/1669_Le_Dernier_Metro_1980\\1669_1_1_LeDernierMetro_1980_DVD_ELAN_export.txt'
p1061
asg9
(lp1062
I1669
aI1
aI1
asg11
S'spaete_Filme/1669_Le_Dernier_Metro_1980/'
p1063
sg13
I01
sg14
Nsg15
S'//130.60.131.134/studi/Filme/spaete_Filme/1669_Le_Dernier_Metro_1980\\1669_1_1_LeDernierMetro_1980_DVD_ELAN.eaf'
p1064
sg17
I00
sba(i__main__
Movie
p1065
(dp1066
g3
S'CeraUnaVoltaIlWest'
p1067
sg5
S'//130.60.131.134/studi/Filme/spaete_Filme/1746_Cera_Una_Volta_Il_West_1968/'
p1068
sg7
(lp1069
S'//130.60.131.134/studi/Filme/spaete_Filme/1746_Cera_Una_Volta_Il_West_1968\\1746_1_1_CeraUnaVoltaIlWest_1968_DVD_ELAN_export.txt'
p1070
asg9
(lp1071
I1746
aI1
aI1
asg11
S'spaete_Filme/1746_Cera_Una_Volta_Il_West_1968/'
p1072
sg13
I01
sg14
Nsg15
S'//130.60.131.134/studi/Filme/spaete_Filme/1746_Cera_Una_Volta_Il_West_1968\\1746_1_1_CeraUnaVoltaIlWest_1968_DVD_ELAN.eaf'
p1073
sg17
I00
sba(i__main__
Movie
p1074
(dp1075
g3
S'Ran'
p1076
sg5
S'//130.60.131.134/studi/Filme/spaete_Filme/1774_Ran_1985/'
p1077
sg7
(lp1078
S'//130.60.131.134/studi/Filme/spaete_Filme/1774_Ran_1985\\1774_1_1_Ran_1985_DVD_ELAN_export.txt'
p1079
asg9
(lp1080
I1774
aI1
aI1
asg11
S'spaete_Filme/1774_Ran_1985/'
p1081
sg13
I01
sg14
Nsg15
S'//130.60.131.134/studi/Filme/spaete_Filme/1774_Ran_1985\\1774_1_1_Ran_1985_DVD_ELAN.eaf'
p1082
sg17
I00
sba(i__main__
Movie
p1083
(dp1084
g3
S'TheLastEmperor'
p1085
sg5
S'//130.60.131.134/studi/Filme/spaete_Filme/1860_The_Last_Emperor_1987/'
p1086
sg7
(lp1087
S'//130.60.131.134/studi/Filme/spaete_Filme/1860_The_Last_Emperor_1987\\1860_1_1_TheLastEmperor_1987_BluRay_ELAN.txt'
p1088
asg9
(lp1089
I1860
aI1
aI1
asg11
S'spaete_Filme/1860_The_Last_Emperor_1987/'
p1090
sg13
I01
sg14
Nsg15
S'//130.60.131.134/studi/Filme/spaete_Filme/1860_The_Last_Emperor_1987\\ELAN Projektdatei\\1860_1_1_TheLastEmperor_1987_BluRay_ELAN.eaf'
p1091
sg17
I00
sba(i__main__
Movie
p1092
(dp1093
g3
S'TheLongLongTrailer'
p1094
sg5
S'//130.60.131.134/studi/Filme/mittlere_Filme/1866_The_Long_Long_Trailer_1953/'
p1095
sg7
(lp1096
S'//130.60.131.134/studi/Filme/mittlere_Filme/1866_The_Long_Long_Trailer_1953\\1866_1_1_TheLongLongTrailer_1953_DVD_ELAN.txt'
p1097
asg9
(lp1098
I1866
aI1
aI1
asg11
S'mittlere_Filme/1866_The_Long_Long_Trailer_1953/'
p1099
sg13
I01
sg14
Nsg15
S'//130.60.131.134/studi/Filme/mittlere_Filme/1866_The_Long_Long_Trailer_1953\\1866_1_1_TheLongLongTrailer_1953_DVD_ELAN.eaf'
p1100
sg17
I00
sba(i__main__
Movie
p1101
(dp1102
g3
S'TheManWhoFellToEarth'
p1103
sg5
S'//130.60.131.134/studi/Filme/spaete_Filme/1868_The_Man_Who_Fell_To_Earth_1976/'
p1104
sg7
(lp1105
S'//130.60.131.134/studi/Filme/spaete_Filme/1868_The_Man_Who_Fell_To_Earth_1976\\1868_1_1_TheManWhoFellToEarth_1976_DVD_ELAN_export.txt'
p1106
asg9
(lp1107
I1868
aI1
aI1
asg11
S'spaete_Filme/1868_The_Man_Who_Fell_To_Earth_1976/'
p1108
sg13
I01
sg14
Nsg15
S'//130.60.131.134/studi/Filme/spaete_Filme/1868_The_Man_Who_Fell_To_Earth_1976\\1868_1_1_TheManWhoFellToEarth_1976_DVD_ELAN.eaf'
p1109
sg17
I00
sba(i__main__
Movie
p1110
(dp1111
g3
S'SilenceLambs'
p1112
sg5
S'//130.60.131.134/studi/Filme/spaete_Filme/1880_SilenceLambs_1991/'
p1113
sg7
(lp1114
sg9
(lp1115
I1880
aI1
aI1
asg11
S'spaete_Filme/1880_SilenceLambs_1991/'
p1116
sg13
I01
sg14
Nsg15
S'//130.60.131.134/studi/Filme/spaete_Filme/1880_SilenceLambs_1991\\1880_1_1_SilenceLambs_1991_DVD_ELAN.eaf'
p1117
sg17
I00
sba(i__main__
Movie
p1118
(dp1119
g3
S'UnaGiornataParticolare'
p1120
sg5
S'//130.60.131.134/studi/Filme/spaete_Filme/1908_UnaGiornataParticolare_1977/'
p1121
sg7
(lp1122
sg9
(lp1123
I1908
aI1
aI1
asg11
S'spaete_Filme/1908_UnaGiornataParticolare_1977/'
p1124
sg13
I01
sg14
Nsg15
S'//130.60.131.134/studi/Filme/spaete_Filme/1908_UnaGiornataParticolare_1977\\1908_1_1_UnaGiornataParticolare_1977.eaf'
p1125
sg17
I00
sba(i__main__
Movie
p1126
(dp1127
g3
S'THX1138'
p1128
sg5
S'//130.60.131.134/studi/Filme/spaete_Filme/1976_THX_1138_1971/'
p1129
sg7
(lp1130
S'//130.60.131.134/studi/Filme/spaete_Filme/1976_THX_1138_1971\\1976_1_1_THX1138_1971_DVD_ELAN_export.txt'
p1131
asg9
(lp1132
I1976
aI1
aI1
asg11
S'spaete_Filme/1976_THX_1138_1971/'
p1133
sg13
I01
sg14
Nsg15
S'//130.60.131.134/studi/Filme/spaete_Filme/1976_THX_1138_1971\\1976_1_1_THX1138_1971_DVD_ELAN.eaf'
p1134
sg17
I00
sba(i__main__
Movie
p1135
(dp1136
g3
S'ImBad'
p1137
sg5
S'//130.60.131.134/studi/Filme/frueher_Film/2020_Im_Bad_1917/'
p1138
sg7
(lp1139
S'//130.60.131.134/studi/Filme/frueher_Film/2020_Im_Bad_1917\\2020_1_3_ImBad_1917_ELAN.txt'
p1140
asg9
(lp1141
I2020
aI1
aI3
asg11
S'frueher_Film/2020_Im_Bad_1917/'
p1142
sg13
I00
sg14
Nsg15
S'//130.60.131.134/studi/Filme/frueher_Film/2020_Im_Bad_1917\\2020_1_3_ImBad_1917_ELAN.eaf'
p1143
sg17
I00
sba(i__main__
Movie
p1144
(dp1145
g3
S'ImWeissenRoessl'
p1146
sg5
S'//130.60.131.134/studi/Filme/mittlere_Filme/2564_Im_Weissen_Roessl_1952/'
p1147
sg7
(lp1148
S'//130.60.131.134/studi/Filme/mittlere_Filme/2564_Im_Weissen_Roessl_1952\\2564_1_1_ImWeissenRoessl_1952_DVD_ELAN.txt'
p1149
asg9
(lp1150
I2564
aI1
aI1
asg11
S'mittlere_Filme/2564_Im_Weissen_Roessl_1952/'
p1151
sg13
I01
sg14
Nsg15
S'//130.60.131.134/studi/Filme/mittlere_Filme/2564_Im_Weissen_Roessl_1952\\2564_1_1_ImWeissenRoessl_1952_DVD_ELAN.eaf'
p1152
sg17
I00
sba(i__main__
Movie
p1153
(dp1154
g3
S'SignaleEinWeltraumabenteuer'
p1155
sg5
S'//130.60.131.134/studi/Filme/spaete_Filme/2887_Signale_Ein_Weltraumabenteuer_1970/'
p1156
sg7
(lp1157
S'//130.60.131.134/studi/Filme/spaete_Filme/2887_Signale_Ein_Weltraumabenteuer_1970\\2887_1_1_SignaleEinWeltraumabenteuer_1970_DVD_ELAN_export.txt'
p1158
asg9
(lp1159
I2887
aI1
aI1
asg11
S'spaete_Filme/2887_Signale_Ein_Weltraumabenteuer_1970/'
p1160
sg13
I01
sg14
Nsg15
S'//130.60.131.134/studi/Filme/spaete_Filme/2887_Signale_Ein_Weltraumabenteuer_1970\\2887_1_1_SignaleEinWeltraumabenteuer_1970_DVD_ELAN.eaf'
p1161
sg17
I00
sba(i__main__
Movie
p1162
(dp1163
g3
S'Wagon'
p1164
sg5
S'//130.60.131.134/studi/Filme/frueher_Film/3076_Wagon_Tracks_1919/'
p1165
sg7
(lp1166
sg9
(lp1167
I3076
aI1
aI1
asg11
S'frueher_Film/3076_Wagon_Tracks_1919/'
p1168
sg13
I01
sg14
Nsg15
S'//130.60.131.134/studi/Filme/frueher_Film/3076_Wagon_Tracks_1919\\3076_1_1_Wagon_Tracks_1919_DVD_ELAN.eaf'
p1169
sg17
I00
sba(i__main__
Movie
p1170
(dp1171
g3
S'ModestyBlaise'
p1172
sg5
S'//130.60.131.134/studi/Filme/spaete_Filme/3085_Modesty_Blaise_1965/'
p1173
sg7
(lp1174
S'//130.60.131.134/studi/Filme/spaete_Filme/3085_Modesty_Blaise_1965\\3085_1_1_ModestyBlaise_1965_DVD_ELAN_BF.txt'
p1175
asg9
(lp1176
I3085
aI1
aI1
asg11
S'spaete_Filme/3085_Modesty_Blaise_1965/'
p1177
sg13
I00
sg14
Nsg15
S'//130.60.131.134/studi/Filme/spaete_Filme/3085_Modesty_Blaise_1965\\3085_1_1_ModestyBlaise_1965_DVD_ELAN_BF.eaf'
p1178
sg17
I00
sba(i__main__
Movie
p1179
(dp1180
g3
S'Frenzy'
p1181
sg5
S'//130.60.131.134/studi/Filme/spaete_Filme/3093_Frenzy_1972/'
p1182
sg7
(lp1183
sg9
(lp1184
I3093
aI1
aI1
asg11
S'spaete_Filme/3093_Frenzy_1972/'
p1185
sg13
I01
sg14
Nsg15
S'//130.60.131.134/studi/Filme/spaete_Filme/3093_Frenzy_1972\\3093_1_1_Frenzy_1972_DVD_ELAN.eaf'
p1186
sg17
I00
sba(i__main__
Movie
p1187
(dp1188
g3
S'LaPeineDuTalion'
p1189
sg5
S'//130.60.131.134/studi/Filme/frueher_Film/3099_La_Peine_Du_Talion_1906/'
p1190
sg7
(lp1191
sg9
(lp1192
I3099
aI1
aI1
asg11
S'frueher_Film/3099_La_Peine_Du_Talion_1906/'
p1193
sg13
I01
sg14
Nsg15
S'//130.60.131.134/studi/Filme/frueher_Film/3099_La_Peine_Du_Talion_1906\\3099_1_1_LaPeineDuTalion_1906_DVD_Elan.eaf'
p1194
sg17
I00
sba(i__main__
Movie
p1195
(dp1196
g3
S'KyuketsukiGokemidoro'
p1197
sg5
S'//130.60.131.134/studi/Filme/spaete_Filme/3100_Kyuketsuki_Gokemidoro_1968/'
p1198
sg7
(lp1199
S'//130.60.131.134/studi/Filme/spaete_Filme/3100_Kyuketsuki_Gokemidoro_1968\\3100_1_1_KyuketsukiGokemidoro_1968_DVD_ELAN_export.txt'
p1200
asg9
(lp1201
I3100
aI1
aI1
asg11
S'spaete_Filme/3100_Kyuketsuki_Gokemidoro_1968/'
p1202
sg13
I01
sg14
Nsg15
S'//130.60.131.134/studi/Filme/spaete_Filme/3100_Kyuketsuki_Gokemidoro_1968\\3100_1_1_KyuketsukiGokemidoro_1968_DVD_ELAN.eaf'
p1203
sg17
I00
sba(i__main__
Movie
p1204
(dp1205
g3
S'KnochuDaisenso'
p1206
sg5
S'//130.60.131.134/studi/Filme/spaete_Filme/3101_Knochu_daisenso_1968/'
p1207
sg7
(lp1208
S'//130.60.131.134/studi/Filme/spaete_Filme/3101_Knochu_daisenso_1968\\3101_1_1_KnochuDaisenso_1968_DVD_ELAN_export.txt'
p1209
asg9
(lp1210
I3101
aI1
aI1
asg11
S'spaete_Filme/3101_Knochu_daisenso_1968/'
p1211
sg13
I01
sg14
Nsg15
S'//130.60.131.134/studi/Filme/spaete_Filme/3101_Knochu_daisenso_1968\\3101_1_1_KnochuDaisenso_1968_DVD_ELAN.eaf'
p1212
sg17
I00
sba(i__main__
Movie
p1213
(dp1214
g3
S'DerWegzudenSternen'
p1215
sg5
S'//130.60.131.134/studi/Filme/spaete_Filme/3102_DerWegzudenSternen_1957/'
p1216
sg7
(lp1217
S'//130.60.131.134/studi/Filme/spaete_Filme/3102_DerWegzudenSternen_1957\\3102_1_1_DerWegzudenSternen_1957_DVD_ELAN_export.txt'
p1218
asg9
(lp1219
I3102
aI1
aI1
asg11
S'spaete_Filme/3102_DerWegzudenSternen_1957/'
p1220
sg13
I01
sg14
Nsg15
S'//130.60.131.134/studi/Filme/spaete_Filme/3102_DerWegzudenSternen_1957\\3102_1_1_DerWegzudenSternen_1957_DVD_ELAN.eaf'
p1221
sg17
I00
sba(i__main__
Movie
p1222
(dp1223
g3
S'DasWachsfigurenkabinett'
p1224
sg5
S'//130.60.131.134/studi/Filme/frueher_Film/3104_Das_Wachsfigurenkabinett_1923/'
p1225
sg7
(lp1226
sg9
(lp1227
I3104
aI1
aI1
asg11
S'frueher_Film/3104_Das_Wachsfigurenkabinett_1923/'
p1228
sg13
I01
sg14
Nsg15
S'//130.60.131.134/studi/Filme/frueher_Film/3104_Das_Wachsfigurenkabinett_1923\\3104_1_1_DasWachsfigurenkabinett_1923_DVD_Elan.eaf'
p1229
sg17
I00
sba(i__main__
Movie
p1230
(dp1231
g3
S'PosleSmerti'
p1232
sg5
S'//130.60.131.134/studi/Filme/frueher_Film/3109_Posle_Smerti_1915/'
p1233
sg7
(lp1234
sg9
(lp1235
I3109
aI1
aI1
asg11
S'frueher_Film/3109_Posle_Smerti_1915/'
p1236
sg13
I01
sg14
Nsg15
S'//130.60.131.134/studi/Filme/frueher_Film/3109_Posle_Smerti_1915\\3109_1_1_PosleSmerti_1915_DVD_ELAN.eaf'
p1237
sg17
I00
sba(i__main__
Movie
p1238
(dp1239
g3
S'AliBabaEtLesQuaranteVoleurs'
p1240
sg5
S'//130.60.131.134/studi/Filme/frueher_Film/3112_Ali_Baba_et_les_Quarante_Voleurs_1902/'
p1241
sg7
(lp1242
sg9
(lp1243
I3112
aI1
aI1
asg11
S'frueher_Film/3112_Ali_Baba_et_les_Quarante_Voleurs_1902/'
p1244
sg13
I00
sg14
Nsg15
S'//130.60.131.134/studi/Filme/frueher_Film/3112_Ali_Baba_et_les_Quarante_Voleurs_1902\\3112_1_1_AliBabaEtLesQuaranteVoleurs_1902_DVD_ELAN.eaf'
p1245
sg17
I00
sba(i__main__
Movie
p1246
(dp1247
g3
S'Salome'
p1248
sg5
S'//130.60.131.134/studi/Filme/frueher_Film/3118_Salome_1922/'
p1249
sg7
(lp1250
sg9
(lp1251
I3118
aI1
aI1
asg11
S'frueher_Film/3118_Salome_1922/'
p1252
sg13
I01
sg14
Nsg15
S'//130.60.131.134/studi/Filme/frueher_Film/3118_Salome_1922\\3118_1_1_Salome_1922_DVD_ELAN.eaf'
p1253
sg17
I00
sba(i__main__
Movie
p1254
(dp1255
g3
S'TroopingTheColour'
p1256
sg5
S'//130.60.131.134/studi/Filme/mittlere_Filme/3133_Trooping_the_Colour_1937/'
p1257
sg7
(lp1258
S'//130.60.131.134/studi/Filme/mittlere_Filme/3133_Trooping_the_Colour_1937\\3133_1_1_TroopingTheColour_1937_DVD_ELAN.txt'
p1259
asg9
(lp1260
I3133
aI1
aI1
asg11
S'mittlere_Filme/3133_Trooping_the_Colour_1937/'
p1261
sg13
I00
sg14
Nsg15
S'//130.60.131.134/studi/Filme/mittlere_Filme/3133_Trooping_the_Colour_1937\\3133_1_1_TroopingTheColour_1937_DVD_ELAN.eaf'
p1262
sg17
I00
sba(i__main__
Movie
p1263
(dp1264
g3
S'OtrokiVoVselennoy'
p1265
sg5
S'//130.60.131.134/studi/Filme/spaete_Filme/3137_Otroki_Vo_Vselennoy_1975/'
p1266
sg7
(lp1267
S'//130.60.131.134/studi/Filme/spaete_Filme/3137_Otroki_Vo_Vselennoy_1975\\3137_1_1_OtrokiVoVselennoy_1975_DVD_ELAN.txt'
p1268
asg9
(lp1269
I3137
aI1
aI1
asg11
S'spaete_Filme/3137_Otroki_Vo_Vselennoy_1975/'
p1270
sg13
I00
sg14
Nsg15
S'//130.60.131.134/studi/Filme/spaete_Filme/3137_Otroki_Vo_Vselennoy_1975\\ELAN Projektdatei\\3137_1_1_OtrokiVoVselennoy_1975_DVD_ELAN.eaf'
p1271
sg17
I00
sba(i__main__
Movie
p1272
(dp1273
g3
S'TheRoyalOccasion'
p1274
sg5
S'//130.60.131.134/studi/Filme/mittlere_Filme/3139_The_Royal_Occasion_1953/'
p1275
sg7
(lp1276
S'//130.60.131.134/studi/Filme/mittlere_Filme/3139_The_Royal_Occasion_1953\\3139_1_1_TheRoyalOccasion_1953_DVD_ELAN.txt'
p1277
asg9
(lp1278
I3139
aI1
aI1
asg11
S'mittlere_Filme/3139_The_Royal_Occasion_1953/'
p1279
sg13
I00
sg14
Nsg15
S'//130.60.131.134/studi/Filme/mittlere_Filme/3139_The_Royal_Occasion_1953\\3139_1_1_TheRoyalOccasion_1953_DVD_ELAN.eaf'
p1280
sg17
I00
sba(i__main__
Movie
p1281
(dp1282
g3
S'TheShelteringSky'
p1283
sg5
S'//130.60.131.134/studi/Filme/spaete_Filme/3144_The_Sheltering_Sky_1990/'
p1284
sg7
(lp1285
S'//130.60.131.134/studi/Filme/spaete_Filme/3144_The_Sheltering_Sky_1990\\3144_1_1_TheShelteringSky_1990_DVD_ELAN_export.txt'
p1286
asg9
(lp1287
I3144
aI1
aI1
asg11
S'spaete_Filme/3144_The_Sheltering_Sky_1990/'
p1288
sg13
I01
sg14
Nsg15
S'//130.60.131.134/studi/Filme/spaete_Filme/3144_The_Sheltering_Sky_1990\\3144_1_1_TheShelteringSky_1990_DVD_ELAN.eaf'
p1289
sg17
I00
sba(i__main__
Movie
p1290
(dp1291
g3
S'TheExorcist'
p1292
sg5
S'//130.60.131.134/studi/Filme/spaete_Filme/3145_TheExorcist_1973/'
p1293
sg7
(lp1294
S'//130.60.131.134/studi/Filme/spaete_Filme/3145_TheExorcist_1973\\3145_1_1_TheExorcist_1973_DVD_ELAN.txt'
p1295
asg9
(lp1296
I3145
aI1
aI1
asg11
S'spaete_Filme/3145_TheExorcist_1973/'
p1297
sg13
I01
sg14
Nsg15
S'//130.60.131.134/studi/Filme/spaete_Filme/3145_TheExorcist_1973\\3145_1_1_TheExorcist_1973_DVD_ELAN.eaf'
p1298
sg17
I00
sba(i__main__
Movie
p1299
(dp1300
g3
S'SuperstitionAndalouse'
p1301
sg5
S'//130.60.131.134/studi/Filme/frueher_Film/3146_Superstition_Andalouse_1912/'
p1302
sg7
(lp1303
sg9
(lp1304
I3146
aI1
aI1
asg11
S'frueher_Film/3146_Superstition_Andalouse_1912/'
p1305
sg13
I00
sg14
Nsg15
S'//130.60.131.134/studi/Filme/frueher_Film/3146_Superstition_Andalouse_1912\\3146_1_1_SuperstitionAndalouse_1912_DVD_ELAN.eaf'
p1306
sg17
I00
sba(i__main__
Movie
p1307
(dp1308
g3
S'ThePirate'
p1309
sg5
S'//130.60.131.134/studi/Filme/mittlere_Filme/3151_The_Pirate_1949/'
p1310
sg7
(lp1311
sg9
(lp1312
I3151
aI1
aI1
asg11
S'mittlere_Filme/3151_The_Pirate_1949/'
p1313
sg13
I01
sg14
Nsg15
S'//130.60.131.134/studi/Filme/mittlere_Filme/3151_The_Pirate_1949\\3151_1_1_ThePirate_1949_DVD_ELAN.eaf'
p1314
sg17
I00
sba(i__main__
Movie
p1315
(dp1316
g3
S'TheBlueLagoon'
p1317
sg5
S'//130.60.131.134/studi/Filme/spaete_Filme/3153_TheBlueLagoon_1980/'
p1318
sg7
(lp1319
S'//130.60.131.134/studi/Filme/spaete_Filme/3153_TheBlueLagoon_1980\\3153_1_1_TheBlueLagoon_1980_DVD_ELAN.txt'
p1320
asg9
(lp1321
I3153
aI1
aI1
asg11
S'spaete_Filme/3153_TheBlueLagoon_1980/'
p1322
sg13
I00
sg14
Nsg15
S'//130.60.131.134/studi/Filme/spaete_Filme/3153_TheBlueLagoon_1980\\3153_1_1_TheBlueLagoon_1980_DVD_ELAN.eaf'
p1323
sg17
I00
sba(i__main__
Movie
p1324
(dp1325
g3
S'TopGun'
p1326
sg5
S'//130.60.131.134/studi/Filme/spaete_Filme/3154_TopGun_1986/'
p1327
sg7
(lp1328
sg9
(lp1329
I3154
aI1
aI1
asg11
S'spaete_Filme/3154_TopGun_1986/'
p1330
sg13
I01
sg14
Nsg15
S'//130.60.131.134/studi/Filme/spaete_Filme/3154_TopGun_1986\\3154_1_1_TopGun_1986.eaf'
p1331
sg17
I00
sba(i__main__
Movie
p1332
(dp1333
g3
S'LesOeufsDePaques'
p1334
sg5
S'//130.60.131.134/studi/Filme/frueher_Film/3156_Les_Oeufs_De_Paques_1907/'
p1335
sg7
(lp1336
sg9
(lp1337
I3156
aI1
aI1
asg11
S'frueher_Film/3156_Les_Oeufs_De_Paques_1907/'
p1338
sg13
I00
sg14
Nsg15
S'//130.60.131.134/studi/Filme/frueher_Film/3156_Les_Oeufs_De_Paques_1907\\3156_1_1_LesOeufsDePaques_1907_DVD_ELAN.eaf'
p1339
sg17
I00
sba(i__main__
Movie
p1340
(dp1341
g3
S'LoieFuller'
p1342
sg5
S'//130.60.131.134/studi/Filme/frueher_Film/3157_Loie_Fuller_1905/'
p1343
sg7
(lp1344
sg9
(lp1345
I3157
aI1
aI1
asg11
S'frueher_Film/3157_Loie_Fuller_1905/'
p1346
sg13
I00
sg14
Nsg15
S'//130.60.131.134/studi/Filme/frueher_Film/3157_Loie_Fuller_1905\\3157_1_1_LoieFuller_1905_DVD_ELAN.eaf'
p1347
sg17
I00
sba(i__main__
Movie
p1348
(dp1349
g3
S'UnDrameAuFondDeLaMer'
p1350
sg5
S'//130.60.131.134/studi/Filme/frueher_Film/3159_Un_Drame_Au_Fond_De_La_Mer_1901/'
p1351
sg7
(lp1352
sg9
(lp1353
I3159
aI1
aI1
asg11
S'frueher_Film/3159_Un_Drame_Au_Fond_De_La_Mer_1901/'
p1354
sg13
I00
sg14
Nsg15
S'//130.60.131.134/studi/Filme/frueher_Film/3159_Un_Drame_Au_Fond_De_La_Mer_1901\\3159_1_1_UnDrameAuFondDeLaMer_1901_DVD_ELAN.eaf'
p1355
sg17
I00
sba(i__main__
Movie
p1356
(dp1357
g3
S'TheLoveCharm'
p1358
sg5
S'//130.60.131.134/studi/Filme/frueher_Film/3161_The_Love_Charm_1928/'
p1359
sg7
(lp1360
sg9
(lp1361
I3161
aI1
aI1
asg11
S'frueher_Film/3161_The_Love_Charm_1928/'
p1362
sg13
I00
sg14
Nsg15
S'//130.60.131.134/studi/Filme/frueher_Film/3161_The_Love_Charm_1928\\3161_1_1_TheLoveCharm_1928_DVD_ELAN.eaf'
p1363
sg17
I00
sba(i__main__
Movie
p1364
(dp1365
g3
S'WesternUnion'
p1366
sg5
S'//130.60.131.134/studi/Filme/mittlere_Filme/3170_Western_Union_1941/'
p1367
sg7
(lp1368
S'//130.60.131.134/studi/Filme/mittlere_Filme/3170_Western_Union_1941\\3170_1_1_WesternUnion_1941_DVD_ELAN.txt'
p1369
asg9
(lp1370
I3170
aI1
aI1
asg11
S'mittlere_Filme/3170_Western_Union_1941/'
p1371
sg13
I00
sg14
Nsg15
S'//130.60.131.134/studi/Filme/mittlere_Filme/3170_Western_Union_1941\\3170_1_1_WesternUnion_1941_DVD_ELAN.eaf'
p1372
sg17
I00
sba(i__main__
Movie
p1373
(dp1374
g3
S'LaFiestaDeSantaBarbara'
p1375
sg5
S'//130.60.131.134/studi/Filme/mittlere_Filme/3172_La_Fiesta_de_Santa_Barbara_1935/'
p1376
sg7
(lp1377
S'//130.60.131.134/studi/Filme/mittlere_Filme/3172_La_Fiesta_de_Santa_Barbara_1935\\3172_1_1_LaFiestaDeSantaBarbara_1935_DVD_ELAN.txt'
p1378
asg9
(lp1379
I3172
aI1
aI1
asg11
S'mittlere_Filme/3172_La_Fiesta_de_Santa_Barbara_1935/'
p1380
sg13
I00
sg14
Nsg15
S'//130.60.131.134/studi/Filme/mittlere_Filme/3172_La_Fiesta_de_Santa_Barbara_1935\\3172_1_1_LaFiestaDeSantaBarbara_1935_DVD_ELAN.eaf'
p1381
sg17
I00
sba(i__main__
Movie
p1382
(dp1383
g3
S'LaLegendeDuFantome'
p1384
sg5
S'//130.60.131.134/studi/Filme/frueher_Film/3180_La_Legende_Du_Fantome_1908/'
p1385
sg7
(lp1386
sg9
(lp1387
I3180
aI1
aI1
asg11
S'frueher_Film/3180_La_Legende_Du_Fantome_1908/'
p1388
sg13
I00
sg14
Nsg15
S'//130.60.131.134/studi/Filme/frueher_Film/3180_La_Legende_Du_Fantome_1908\\3180_1_1_LaLegendeDuFantome_1908_DVD_ELAN.eaf'
p1389
sg17
I00
sba(i__main__
Movie
p1390
(dp1391
g3
S'LeRoiDesDollars'
p1392
sg5
S'//130.60.131.134/studi/Filme/frueher_Film/3182_Le_Roi_Des_Dollars_1905/'
p1393
sg7
(lp1394
sg9
(lp1395
I3182
aI1
aI1
asg11
S'frueher_Film/3182_Le_Roi_Des_Dollars_1905/'
p1396
sg13
I00
sg14
Nsg15
S'//130.60.131.134/studi/Filme/frueher_Film/3182_Le_Roi_Des_Dollars_1905\\3182_1_1_LeRoiDesDollars_1905_DVD_Elan.eaf'
p1397
sg17
I00
sba(i__main__
Movie
p1398
(dp1399
g3
S'Hoehenfeuer'
p1400
sg5
S'//130.60.131.134/studi/Filme/spaete_Filme/3185_Hoehenfeuer_1985/'
p1401
sg7
(lp1402
S'//130.60.131.134/studi/Filme/spaete_Filme/3185_Hoehenfeuer_1985\\3185_1_1_Hoehenfeuer_1985_DVD_ELAN_export.txt'
p1403
asg9
(lp1404
I3185
aI1
aI1
asg11
S'spaete_Filme/3185_Hoehenfeuer_1985/'
p1405
sg13
I01
sg14
Nsg15
S'//130.60.131.134/studi/Filme/spaete_Filme/3185_Hoehenfeuer_1985\\3185_1_1_Hoehenfeuer_1985_DVD_ELAN.eaf'
p1406
sg17
I00
sba(i__main__
Movie
p1407
(dp1408
g3
S'LAlbumMerveilleux'
p1409
sg5
S'//130.60.131.134/studi/Filme/frueher_Film/3186_LAlbum_Merveilleux_1905/'
p1410
sg7
(lp1411
sg9
(lp1412
I3186
aI1
aI1
asg11
S'frueher_Film/3186_LAlbum_Merveilleux_1905/'
p1413
sg13
I00
sg14
Nsg15
S'//130.60.131.134/studi/Filme/frueher_Film/3186_LAlbum_Merveilleux_1905\\3186_LAlbumMerveilleux_1905_DVD_ELAN.eaf'
p1414
sg17
I00
sba(i__main__
Movie
p1415
(dp1416
g3
S'Japonaiseries'
p1417
sg5
S'//130.60.131.134/studi/Filme/frueher_Film/3229_Japonaiseries_1904/'
p1418
sg7
(lp1419
sg9
(lp1420
I3229
aI1
aI1
asg11
S'frueher_Film/3229_Japonaiseries_1904/'
p1421
sg13
I00
sg14
Nsg15
S'//130.60.131.134/studi/Filme/frueher_Film/3229_Japonaiseries_1904\\3229_1_1_Japonaiseries_1904_DVD_Elan.eaf'
p1422
sg17
I00
sba(i__main__
Movie
p1423
(dp1424
g3
S'LaFeePrintemps'
p1425
sg5
S'//130.60.131.134/studi/Filme/frueher_Film/3230_La_Fee_Printemps_1906/'
p1426
sg7
(lp1427
sg9
(lp1428
I3230
aI1
aI1
asg11
S'frueher_Film/3230_La_Fee_Printemps_1906/'
p1429
sg13
I00
sg14
Nsg15
S'//130.60.131.134/studi/Filme/frueher_Film/3230_La_Fee_Printemps_1906\\3230_1_1_LaFeePrintemps_1906_DVD_ELAN.eaf'
p1430
sg17
I00
sba(i__main__
Movie
p1431
(dp1432
g3
S'Bilitis'
p1433
sg5
S'//130.60.131.134/studi/Filme/spaete_Filme/3231_Bilitis_1977/'
p1434
sg7
(lp1435
S'//130.60.131.134/studi/Filme/spaete_Filme/3231_Bilitis_1977\\3231_1_1_Bilitis_1977_DVD_ELAN_export.txt'
p1436
asg9
(lp1437
I3231
aI1
aI1
asg11
S'spaete_Filme/3231_Bilitis_1977/'
p1438
sg13
I01
sg14
Nsg15
S'//130.60.131.134/studi/Filme/spaete_Filme/3231_Bilitis_1977\\3231_1_1_Bilitis_1977_DVD_ELAN.eaf'
p1439
sg17
I00
sba(i__main__
Movie
p1440
(dp1441
g3
S'LaSorciereNoire'
p1442
sg5
S'//130.60.131.134/studi/Filme/frueher_Film/3241_La_Sorciere_Noire_1907/'
p1443
sg7
(lp1444
sg9
(lp1445
I3241
aI1
aI1
asg11
S'frueher_Film/3241_La_Sorciere_Noire_1907/'
p1446
sg13
I00
sg14
Nsg15
S'//130.60.131.134/studi/Filme/frueher_Film/3241_La_Sorciere_Noire_1907\\3241_1_1_LaSorciereNoire_1907_DVD_ELAN.eaf'
p1447
sg17
I00
sba(i__main__
Movie
p1448
(dp1449
g3
S'StarTrekVITheUndiscoveredCountry'
p1450
sg5
S'//130.60.131.134/studi/Filme/spaete_Filme/3243_Star_Trek_VI_The_Undiscovered_Country_1991/'
p1451
sg7
(lp1452
S'//130.60.131.134/studi/Filme/spaete_Filme/3243_Star_Trek_VI_The_Undiscovered_Country_1991\\3243_1_1_StarTrekVITheUndiscoveredCountry_1991_DVD_ELAN_export.txt'
p1453
asg9
(lp1454
I3243
aI1
aI1
asg11
S'spaete_Filme/3243_Star_Trek_VI_The_Undiscovered_Country_1991/'
p1455
sg13
I01
sg14
Nsg15
S'//130.60.131.134/studi/Filme/spaete_Filme/3243_Star_Trek_VI_The_Undiscovered_Country_1991\\3243_1_1_StarTrekVITheUndiscoveredCountry_1991_DVD_ELAN.eaf'
p1456
sg17
I00
sba(i__main__
Movie
p1457
(dp1458
g3
S'TschelowekAmfibija'
p1459
sg5
S'//130.60.131.134/studi/Filme/spaete_Filme/3244_Tschelowek_Amfibija_1963/'
p1460
sg7
(lp1461
S'//130.60.131.134/studi/Filme/spaete_Filme/3244_Tschelowek_Amfibija_1963\\3244_1_1_TschelowekAmfibija_1963_DVD_ELAN_export.txt'
p1462
asg9
(lp1463
I3244
aI1
aI1
asg11
S'spaete_Filme/3244_Tschelowek_Amfibija_1963/'
p1464
sg13
I01
sg14
Nsg15
S'//130.60.131.134/studi/Filme/spaete_Filme/3244_Tschelowek_Amfibija_1963\\3244_1_1_TschelowekAmfibija_1963_DVD_ELAN.eaf'
p1465
sg17
I00
sba(i__main__
Movie
p1466
(dp1467
g3
S'LaBelleAuBoisDormant'
p1468
sg5
S'//130.60.131.134/studi/Filme/frueher_Film/3248_La_Belle_Au_Bois_Dormant_1908/'
p1469
sg7
(lp1470
sg9
(lp1471
I3248
aI1
aI1
asg11
S'frueher_Film/3248_La_Belle_Au_Bois_Dormant_1908/'
p1472
sg13
I01
sg14
Nsg15
S'//130.60.131.134/studi/Filme/frueher_Film/3248_La_Belle_Au_Bois_Dormant_1908\\3248_1_1_LaBelleAuBoisDormant_1908_DVD_ELAN.eaf'
p1473
sg17
I00
sba(i__main__
Movie
p1474
(dp1475
g3
S'ValseExcentrique'
p1476
sg5
S'//130.60.131.134/studi/Filme/frueher_Film/3249_Valse_Excentrique_1903/'
p1477
sg7
(lp1478
sg9
(lp1479
I3249
aI1
aI1
asg11
S'frueher_Film/3249_Valse_Excentrique_1903/'
p1480
sg13
I00
sg14
Nsg15
S'//130.60.131.134/studi/Filme/frueher_Film/3249_Valse_Excentrique_1903\\3249_1_1_ValseExcentrique_1903_DVD_ELAN.eaf'
p1481
sg17
I00
sba(i__main__
Movie
p1482
(dp1483
g3
S'Der'
p1484
sg5
S'//130.60.131.134/studi/Filme/frueher_Film/3250_Der_Golem_oder_wie_er_in_die_Welt_kam_1920/'
p1485
sg7
(lp1486
sg9
(lp1487
I3250
aI1
aI1
asg11
S'frueher_Film/3250_Der_Golem_oder_wie_er_in_die_Welt_kam_1920/'
p1488
sg13
I01
sg14
Nsg15
S'//130.60.131.134/studi/Filme/frueher_Film/3250_Der_Golem_oder_wie_er_in_die_Welt_kam_1920\\3250_1_1_Der_GolemOderWieErInDieWeltKam_1920_DVD_ELAN.eaf'
p1489
sg17
I00
sba(i__main__
Movie
p1490
(dp1491
g3
S"L'uccelloDallePiumeDiCristallo"
p1492
sg5
S"//130.60.131.134/studi/Filme/spaete_Filme/3369_L'uccello_Dalle_Piume_Di_Cristallo_1970/"
p1493
sg7
(lp1494
S"//130.60.131.134/studi/Filme/spaete_Filme/3369_L'uccello_Dalle_Piume_Di_Cristallo_1970\\3369_1_1_L'uccelloDallePiumeDiCristallo_1970_DVD_ELAN_export.txt"
p1495
asg9
(lp1496
I3369
aI1
aI1
asg11
S"spaete_Filme/3369_L'uccello_Dalle_Piume_Di_Cristallo_1970/"
p1497
sg13
I01
sg14
Nsg15
S"//130.60.131.134/studi/Filme/spaete_Filme/3369_L'uccello_Dalle_Piume_Di_Cristallo_1970\\3369_1_1_L'uccelloDallePiumeDiCristallo_1970_DVD_ELAN.eaf"
p1498
sg17
I00
sba(i__main__
Movie
p1499
(dp1500
g3
S'Inferno'
p1501
sg5
S'//130.60.131.134/studi/Filme/frueher_Film/3370_LInferno_1911/'
p1502
sg7
(lp1503
sg9
(lp1504
I3370
aI1
aI1
asg11
S'frueher_Film/3370_LInferno_1911/'
p1505
sg13
I01
sg14
Nsg15
S'//130.60.131.134/studi/Filme/frueher_Film/3370_LInferno_1911\\3370_1_1_Inferno_1911_DVD_ELAN.eaf'
p1506
sg17
I00
sba(i__main__
Movie
p1507
(dp1508
g3
S'RiverOfNoReturn'
p1509
sg5
S'//130.60.131.134/studi/Filme/mittlere_Filme/3372_River_of_No_Return_1954/'
p1510
sg7
(lp1511
S'//130.60.131.134/studi/Filme/mittlere_Filme/3372_River_of_No_Return_1954\\3372_1_1_RiverOfNoReturn_1954_DVD_ELAN.txt'
p1512
asg9
(lp1513
I3372
aI1
aI1
asg11
S'mittlere_Filme/3372_River_of_No_Return_1954/'
p1514
sg13
I00
sg14
Nsg15
S'//130.60.131.134/studi/Filme/mittlere_Filme/3372_River_of_No_Return_1954\\3372_1_1_RiverOfNoReturn_1954_DVD_ELAN.eaf'
p1515
sg17
I00
sba(i__main__
Movie
p1516
(dp1517
g3
S'DesertFury'
p1518
sg5
S'//130.60.131.134/studi/Filme/mittlere_Filme/3378_Desert_Fury_1947/'
p1519
sg7
(lp1520
sg9
(lp1521
I3378
aI1
aI1
asg11
S'mittlere_Filme/3378_Desert_Fury_1947/'
p1522
sg13
I01
sg14
Nsg15
S'//130.60.131.134/studi/Filme/mittlere_Filme/3378_Desert_Fury_1947\\3378_1_1_DesertFury_1947_DVD_ELAN.eaf'
p1523
sg17
I00
sba(i__main__
Movie
p1524
(dp1525
g3
S'BalletDesSylphides'
p1526
sg5
S'//130.60.131.134/studi/Filme/frueher_Film/3380_Ballet_Des_Sylphides_1902/'
p1527
sg7
(lp1528
sg9
(lp1529
I3380
aI1
aI1
asg11
S'frueher_Film/3380_Ballet_Des_Sylphides_1902/'
p1530
sg13
I00
sg14
Nsg15
S'//130.60.131.134/studi/Filme/frueher_Film/3380_Ballet_Des_Sylphides_1902\\3380_1_1_BalletDesSylphides_1902_DVD_ELAN.eaf'
p1531
sg17
I00
sba(i__main__
Movie
p1532
(dp1533
g3
S'TheWrathOfTheGods'
p1534
sg5
S'//130.60.131.134/studi/Filme/frueher_Film/3381_The_Wrath_Of_The_Gods_1914/'
p1535
sg7
(lp1536
sg9
(lp1537
I3381
aI1
aI1
asg11
S'frueher_Film/3381_The_Wrath_Of_The_Gods_1914/'
p1538
sg13
I01
sg14
Nsg15
S'//130.60.131.134/studi/Filme/frueher_Film/3381_The_Wrath_Of_The_Gods_1914\\3381_1_1_TheWrathOfTheGods_1914_DVD_ELAN.eaf'
p1539
sg17
I00
sba(i__main__
Movie
p1540
(dp1541
g3
S'TheDragonPainter'
p1542
sg5
S'//130.60.131.134/studi/Filme/frueher_Film/3382_The_Dragon_Painter_1919/'
p1543
sg7
(lp1544
sg9
(lp1545
I3382
aI1
aI1
asg11
S'frueher_Film/3382_The_Dragon_Painter_1919/'
p1546
sg13
I01
sg14
Nsg15
S'//130.60.131.134/studi/Filme/frueher_Film/3382_The_Dragon_Painter_1919\\3382_1_1_TheDragonPainter_1919_DVD_ELAN.eaf'
p1547
sg17
I00
sba(i__main__
Movie
p1548
(dp1549
g3
S'KiRiKiAcrobatesJaponais'
p1550
sg5
S'//130.60.131.134/studi/Filme/frueher_Film/3385_KiRiKi_Acrobates_Japonais_1907/'
p1551
sg7
(lp1552
sg9
(lp1553
I3385
aI1
aI1
asg11
S'frueher_Film/3385_KiRiKi_Acrobates_Japonais_1907/'
p1554
sg13
I00
sg14
Nsg15
S'//130.60.131.134/studi/Filme/frueher_Film/3385_KiRiKi_Acrobates_Japonais_1907\\3385_1_1_KiRiKiAcrobatesJaponais_1907_DVD_ELAN.eaf'
p1555
sg17
I00
sba(i__main__
Movie
p1556
(dp1557
g3
S'Hecate'
p1558
sg5
S'//130.60.131.134/studi/Filme/spaete_Filme/3387_Hecate_1982/'
p1559
sg7
(lp1560
S'//130.60.131.134/studi/Filme/spaete_Filme/3387_Hecate_1982\\3387_1_1_Hecate_1982_DVD_ELAN_export.txt'
p1561
asg9
(lp1562
I3387
aI1
aI1
asg11
S'spaete_Filme/3387_Hecate_1982/'
p1563
sg13
I01
sg14
Nsg15
S'//130.60.131.134/studi/Filme/spaete_Filme/3387_Hecate_1982\\3387_1_1_Hecate_1982_DVD_ELAN.eaf'
p1564
sg17
I00
sba(i__main__
Movie
p1565
(dp1566
g3
S'AmourDesclave'
p1567
sg5
S'//130.60.131.134/studi/Filme/frueher_Film/3399_Amour_Desclave_1907/'
p1568
sg7
(lp1569
sg9
(lp1570
I3399
aI1
aI1
asg11
S'frueher_Film/3399_Amour_Desclave_1907/'
p1571
sg13
I00
sg14
Nsg15
S'//130.60.131.134/studi/Filme/frueher_Film/3399_Amour_Desclave_1907\\3399_1_1_AmourDesclave_1907_DVD_ELAN.eaf'
p1572
sg17
I00
sba(i__main__
Movie
p1573
(dp1574
g3
S'TerjeVigen'
p1575
sg5
S'//130.60.131.134/studi/Filme/frueher_Film/3401_Terje_Vigen_1917/'
p1576
sg7
(lp1577
sg9
(lp1578
I3401
aI1
aI1
asg11
S'frueher_Film/3401_Terje_Vigen_1917/'
p1579
sg13
I01
sg14
Nsg15
S'//130.60.131.134/studi/Filme/frueher_Film/3401_Terje_Vigen_1917\\3401_1_1_TerjeVigen_1917_DVD_ELAN.eaf'
p1580
sg17
I00
sba(i__main__
Movie
p1581
(dp1582
g3
S'Fruits'
p1583
sg5
S'//130.60.131.134/studi/Filme/frueher_Film/3403_Fruits_1912/'
p1584
sg7
(lp1585
sg9
(lp1586
I3403
aI1
aI1
asg11
S'frueher_Film/3403_Fruits_1912/'
p1587
sg13
I00
sg14
Nsg15
S'//130.60.131.134/studi/Filme/frueher_Film/3403_Fruits_1912\\3403_1_1_Fruits_1912_DVD_ELAN.eaf'
p1588
sg17
I00
sba(i__main__
Movie
p1589
(dp1590
g3
S'FeuMathiasPascal'
p1591
sg5
S'//130.60.131.134/studi/Filme/frueher_Film/3428_Feu_Mathias_Pascal_1924/'
p1592
sg7
(lp1593
S'//130.60.131.134/studi/Filme/frueher_Film/3428_Feu_Mathias_Pascal_1924\\3428_1_1_FeuMathiasPascal_1924_ELAN.txt'
p1594
asg9
(lp1595
I3428
aI1
aI1
asg11
S'frueher_Film/3428_Feu_Mathias_Pascal_1924/'
p1596
sg13
I01
sg14
Nsg15
S'//130.60.131.134/studi/Filme/frueher_Film/3428_Feu_Mathias_Pascal_1924\\3428_1_1_FeuMathiasPascal_1924_ELAN.eaf'
p1597
sg17
I00
sba(i__main__
Movie
p1598
(dp1599
g3
S'HerrAgnesPengar'
p1600
sg5
S'//130.60.131.134/studi/Filme/frueher_Film/3449_Herr_Arnes_Pengar_1919/'
p1601
sg7
(lp1602
sg9
(lp1603
I3449
aI1
aI1
asg11
S'frueher_Film/3449_Herr_Arnes_Pengar_1919/'
p1604
sg13
I01
sg14
Nsg15
S'//130.60.131.134/studi/Filme/frueher_Film/3449_Herr_Arnes_Pengar_1919\\3449_1_1_HerrAgnesPengar_1919_DVD_ELAN.eaf'
p1605
sg17
I00
sba(i__main__
Movie
p1606
(dp1607
g3
S'ZapatasBande'
p1608
sg5
S'//130.60.131.134/studi/Filme/frueher_Film/3457_Zapatas_Bande_1914/'
p1609
sg7
(lp1610
sg9
(lp1611
I3457
aI1
aI1
asg11
S'frueher_Film/3457_Zapatas_Bande_1914/'
p1612
sg13
I01
sg14
Nsg15
S'//130.60.131.134/studi/Filme/frueher_Film/3457_Zapatas_Bande_1914\\3457_1_1_ZapatasBande_1914_DVD_ELAN.eaf'
p1613
sg17
I00
sba(i__main__
Movie
p1614
(dp1615
g3
S'OnTheTown'
p1616
sg5
S'//130.60.131.134/studi/Filme/mittlere_Filme/3458_On_the_Town_1949/'
p1617
sg7
(lp1618
S'//130.60.131.134/studi/Filme/mittlere_Filme/3458_On_the_Town_1949\\3458_1_1_OnTheTown_1949_DVD_ELAN.txt'
p1619
asg9
(lp1620
I3458
aI1
aI1
asg11
S'mittlere_Filme/3458_On_the_Town_1949/'
p1621
sg13
I00
sg14
Nsg15
S'//130.60.131.134/studi/Filme/mittlere_Filme/3458_On_the_Town_1949\\3458_1_1_OnTheTown_1949_DVD_ELAN.eaf'
p1622
sg17
I00
sba(i__main__
Movie
p1623
(dp1624
g3
S'TheGeneral'
p1625
sg5
S'//130.60.131.134/studi/Filme/frueher_Film/3462_The_General_1926/'
p1626
sg7
(lp1627
sg9
(lp1628
I3462
aI1
aI1
asg11
S'frueher_Film/3462_The_General_1926/'
p1629
sg13
I01
sg14
Nsg15
S'//130.60.131.134/studi/Filme/frueher_Film/3462_The_General_1926\\3462_1_1_TheGeneral_1926_DVD_ELAN.eaf'
p1630
sg17
I00
sba(i__main__
Movie
p1631
(dp1632
g3
S'TheInformer'
p1633
sg5
S'//130.60.131.134/studi/Filme/frueher_Film/3463_The_Informer_1929/'
p1634
sg7
(lp1635
sg9
(lp1636
I3463
aI1
aI1
asg11
S'frueher_Film/3463_The_Informer_1929/'
p1637
sg13
I01
sg14
Nsg15
S'//130.60.131.134/studi/Filme/frueher_Film/3463_The_Informer_1929\\3463_1_1_TheInformer_1929_DVD_ELAN.eaf'
p1638
sg17
I00
sba(i__main__
Movie
p1639
(dp1640
g3
S'JeanneDArc'
p1641
sg5
S'//130.60.131.134/studi/Filme/frueher_Film/3469_Jeanne_DArc_1900/'
p1642
sg7
(lp1643
sg9
(lp1644
I3469
aI1
aI1
asg11
S'frueher_Film/3469_Jeanne_DArc_1900/'
p1645
sg13
I00
sg14
Nsg15
S'//130.60.131.134/studi/Filme/frueher_Film/3469_Jeanne_DArc_1900\\3469_1_1_JeanneDArc_1900_DVD_ELAN.eaf'
p1646
sg17
I00
sba(i__main__
Movie
p1647
(dp1648
g3
S'LeVoyageDeGulliverALilliputEtChezLesGeants'
p1649
sg5
S'//130.60.131.134/studi/Filme/frueher_Film/3470_Le_Voyage_De_Gulliver_A_Lilliput_E_t_Chez_Les_Geants_1902/'
p1650
sg7
(lp1651
sg9
(lp1652
I3470
aI1
aI1
asg11
S'frueher_Film/3470_Le_Voyage_De_Gulliver_A_Lilliput_E_t_Chez_Les_Geants_1902/'
p1653
sg13
I00
sg14
Nsg15
S'//130.60.131.134/studi/Filme/frueher_Film/3470_Le_Voyage_De_Gulliver_A_Lilliput_E_t_Chez_Les_Geants_1902\\3470_1_1_LeVoyageDeGulliverALilliputEtChezLesGeants_1902_DVD_ELAN.eaf'
p1654
sg17
I00
sba(i__main__
Movie
p1655
(dp1656
g3
S'Shurayukihime'
p1657
sg5
S'//130.60.131.134/studi/Filme/spaete_Filme/3478_Shurayukihime_1973/'
p1658
sg7
(lp1659
S'//130.60.131.134/studi/Filme/spaete_Filme/3478_Shurayukihime_1973\\3478_1_1_Shurayukihime_1973_DVD_ELAN_export.txt'
p1660
asg9
(lp1661
I3478
aI1
aI1
asg11
S'spaete_Filme/3478_Shurayukihime_1973/'
p1662
sg13
I01
sg14
Nsg15
S'//130.60.131.134/studi/Filme/spaete_Filme/3478_Shurayukihime_1973\\3478_1_1_Shurayukihime_1973_DVD_ELAN.eaf'
p1663
sg17
I00
sba(i__main__
Movie
p1664
(dp1665
g3
S'DaHongDengLongGaoGaoGua'
p1666
sg5
S'//130.60.131.134/studi/Filme/spaete_Filme/3480_Da_HongDengLong_GaoGao_Gua_1991/'
p1667
sg7
(lp1668
S'//130.60.131.134/studi/Filme/spaete_Filme/3480_Da_HongDengLong_GaoGao_Gua_1991\\3480_1_1_DaHongDengLongGaoGaoGua_1991_DVD_ELAN_export.txt'
p1669
asg9
(lp1670
I3480
aI1
aI1
asg11
S'spaete_Filme/3480_Da_HongDengLong_GaoGao_Gua_1991/'
p1671
sg13
I01
sg14
Nsg15
S'//130.60.131.134/studi/Filme/spaete_Filme/3480_Da_HongDengLong_GaoGao_Gua_1991\\3480_1_1_DaHongDengLongGaoGaoGua_1991_DVD_ELAN.eaf'
p1672
sg17
I00
sba(i__main__
Movie
p1673
(dp1674
g3
S'Dyrygent'
p1675
sg5
S'//130.60.131.134/studi/Filme/spaete_Filme/3484_Dyrygent_1979/'
p1676
sg7
(lp1677
S'//130.60.131.134/studi/Filme/spaete_Filme/3484_Dyrygent_1979\\3484_1_1_Dyrygent_1980_DVD_ELAN_export.txt'
p1678
aS'//130.60.131.134/studi/Filme/spaete_Filme/3484_Dyrygent_1979\\3484_1_1_Dyrygent_1980_DVD_ELAN_export.csv'
p1679
aS'//130.60.131.134/studi/Filme/spaete_Filme/3484_Dyrygent_1979\\3484_1_1_Dyrygent_1980_DVD_FCT_snapchots.csv'
p1680
aS'//130.60.131.134/studi/Filme/spaete_Filme/3484_Dyrygent_1979\\3484_1_1_Dyrygent_1980_DVD_FCT_temp.csv'
p1681
asg9
(lp1682
I3484
aI1
aI1
asg11
S'spaete_Filme/3484_Dyrygent_1979/'
p1683
sg13
I01
sg14
Nsg15
S'//130.60.131.134/studi/Filme/spaete_Filme/3484_Dyrygent_1979\\3484_1_1_Dyrygent_1980_DVD_ELAN.eaf'
p1684
sg17
I00
sba(i__main__
Movie
p1685
(dp1686
g3
S'HongGaoliang'
p1687
sg5
S'//130.60.131.134/studi/Filme/spaete_Filme/3488_Hong_Gaoliang_1987/'
p1688
sg7
(lp1689
S'//130.60.131.134/studi/Filme/spaete_Filme/3488_Hong_Gaoliang_1987\\3488_1_1_HongGaoliang_1987_DVD_ELAN.txt'
p1690
asg9
(lp1691
I3488
aI1
aI1
asg11
S'spaete_Filme/3488_Hong_Gaoliang_1987/'
p1692
sg13
I00
sg14
Nsg15
S'//130.60.131.134/studi/Filme/spaete_Filme/3488_Hong_Gaoliang_1987\\ELAN Projektdatei\\3488_1_1_HongGaoliang_1987_DVD_ELAN.eaf'
p1693
sg17
I00
sba(i__main__
Movie
p1694
(dp1695
g3
S'Wojna'
p1696
sg5
S'//130.60.131.134/studi/Filme/spaete_Filme/3492_Wojna_Swjatow_1981/'
p1697
sg7
(lp1698
S'//130.60.131.134/studi/Filme/spaete_Filme/3492_Wojna_Swjatow_1981\\3492_1_1_Wojna_Swjatow_1981_DVD_ELAN_export.txt'
p1699
asg9
(lp1700
I3492
aI1
aI1
asg11
S'spaete_Filme/3492_Wojna_Swjatow_1981/'
p1701
sg13
I01
sg14
Nsg15
S'//130.60.131.134/studi/Filme/spaete_Filme/3492_Wojna_Swjatow_1981\\3492_1_1_Wojna_Swjatow_1981_DVD_ELAN.eaf'
p1702
sg17
I00
sba(i__main__
Movie
p1703
(dp1704
g3
S'LaDecimaVittima'
p1705
sg5
S'//130.60.131.134/studi/Filme/spaete_Filme/3493_La_Decima_Vittima_1965/'
p1706
sg7
(lp1707
S'//130.60.131.134/studi/Filme/spaete_Filme/3493_La_Decima_Vittima_1965\\3493_1_1_LaDecimaVittima_1965_DVD_ELAN_export.txt'
p1708
asg9
(lp1709
I3493
aI1
aI1
asg11
S'spaete_Filme/3493_La_Decima_Vittima_1965/'
p1710
sg13
I01
sg14
Nsg15
S'//130.60.131.134/studi/Filme/spaete_Filme/3493_La_Decima_Vittima_1965\\3493_1_1_LaDecimaVittima_1965_DVD_ELAN.eaf'
p1711
sg17
I00
sba(i__main__
Movie
p1712
(dp1713
g3
S'TheLostWorld'
p1714
sg5
S'//130.60.131.134/studi/Filme/frueher_Film/3556_The_Lost_World_1925/'
p1715
sg7
(lp1716
sg9
(lp1717
I3556
aI1
aI1
asg11
S'frueher_Film/3556_The_Lost_World_1925/'
p1718
sg13
I01
sg14
Nsg15
S'//130.60.131.134/studi/Filme/frueher_Film/3556_The_Lost_World_1925\\3556_1_1_TheLostWorld_1925_DVD_ELAN.eaf'
p1719
sg17
I00
sba(i__main__
Movie
p1720
(dp1721
g3
S'DanseursEspagnols'
p1722
sg5
S'//130.60.131.134/studi/Filme/frueher_Film/3569_Danseurs_Espagnols_1898/'
p1723
sg7
(lp1724
sg9
(lp1725
I3569
aI1
aI1
asg11
S'frueher_Film/3569_Danseurs_Espagnols_1898/'
p1726
sg13
I00
sg14
Nsg15
S'//130.60.131.134/studi/Filme/frueher_Film/3569_Danseurs_Espagnols_1898\\3569_1_1_DanseursEspagnols_1898_DVD_ELAN.eaf'
p1727
sg17
I00
sba(i__main__
Movie
p1728
(dp1729
S'errors'
p1730
Nsg3
S'MadameDubarry'
p1731
sg5
S'\\\\130.60.131.134\\studi\\Filme\\frueher_Film\\3103_Madame_Dubarry_1919\\'
p1732
sg7
Nsg9
(lp1733
I3103
aI1
aI1
asg11
g1732
sg13
I00
sg14
Nsg15
S'\\\\130.60.131.134\\studi\\Filme\\frueher_Film\\3103_Madame_Dubarry_1919\\3101_1_1_MadameDubarry_1919_DVD_Elan.eaf'
p1734
sg17
I00
sba(i__main__
Movie
p1735
(dp1736
g1730
Nsg3
S'LondonsFreeShows'
p1737
sg5
S'\\\\130.60.131.134\\studi\\Filme\\frueher_Film\\172_Londons_Free_Shows_1924\\'
p1738
sg7
Nsg9
(lp1739
I172
aI1
aI1
asg11
g1738
sg13
I00
sg14
Nsg15
S'\\\\130.60.131.134\\studi\\Filme\\frueher_Film\\172_Londons_Free_Shows_1924\\172_1_1_LondonsFreeShows_1924_DVD_Elan.eaf'
p1740
sg17
I00
sba.