(lp0
(i__main__
Movie
p1
(dp2
S'movie_name'
p3
S'TheTollOfTheSea'
p4
sS'folder_path'
p5
S'//130.60.131.134/studi/Filme/frueher_Film/51_The_Toll_of_the_Sea_1922/'
p6
sS'segmentation_path'
p7
S'//130.60.131.134/fiwi_datenbank/SEGM/51_1_1_SEGM.txt'
p8
sS'filemaker_ID'
p9
(lp10
I51
aI1
aI1
asS'relative_path'
p11
S'frueher_Film/51_The_Toll_of_the_Sea_1922/'
p12
sS'has_sub_segmentation'
p13
I00
sS'shots'
p14
(lp15
(i__main__
Shot
p16
(dp17
S'segment_shot_id'
p18
S'1'
p19
sg3
S''
p20
sS'segment_id'
p21
I3
sg9
g10
sS'global_shot_id'
p22
I-1
sS'source_type'
p23
g20
sS'time'
p24
(I0
I0
I0
I0
tp25
sS'path'
p26
S'//130.60.131.134/fiwi_datenbank/SCR_SOURCE/Masterdatenbank alt Export Einzelbilder/FIWI/SCR/51_1_1/003/1/00-02-53.200.jpg'
p27
sS'movie_year'
p28
g20
sS'subsegment'
p29
g20
sS'has_subsegment'
p30
I00
sS'shot_id'
p31
I-1
sba(i__main__
Shot
p32
(dp33
g18
S'2'
p34
sg3
g20
sg21
I3
sg9
g10
sg22
I-1
sg23
g20
sg24
(I0
I0
I0
I0
tp35
sg26
S'//130.60.131.134/fiwi_datenbank/SCR_SOURCE/Masterdatenbank alt Export Einzelbilder/FIWI/SCR/51_1_1/003/2/00-03-23.837.jpg'
p36
sg28
g20
sg29
g20
sg30
I00
sg31
I-1
sba(i__main__
Shot
p37
(dp38
g18
S'3'
p39
sg3
g20
sg21
I3
sg9
g10
sg22
I-1
sg23
g20
sg24
(I0
I0
I0
I0
tp40
sg26
S'//130.60.131.134/fiwi_datenbank/SCR_SOURCE/Masterdatenbank alt Export Einzelbilder/FIWI/SCR/51_1_1/003/3/00-03-37.551.jpg'
p41
sg28
g20
sg29
g20
sg30
I00
sg31
I-1
sba(i__main__
Shot
p42
(dp43
g18
S'4'
p44
sg3
g20
sg21
I3
sg9
g10
sg22
I-1
sg23
g20
sg24
(I0
I0
I0
I0
tp45
sg26
S'//130.60.131.134/fiwi_datenbank/SCR_SOURCE/Masterdatenbank alt Export Einzelbilder/FIWI/SCR/51_1_1/003/4/00-04-16.390.jpg'
p46
sg28
g20
sg29
g20
sg30
I00
sg31
I-1
sba(i__main__
Shot
p47
(dp48
g18
S'5'
p49
sg3
g20
sg21
I3
sg9
g10
sg22
I-1
sg23
g20
sg24
(I0
I0
I0
I0
tp50
sg26
S'//130.60.131.134/fiwi_datenbank/SCR_SOURCE/Masterdatenbank alt Export Einzelbilder/FIWI/SCR/51_1_1/003/5/00-04-46.553.jpg'
p51
sg28
g20
sg29
g20
sg30
I00
sg31
I-1
sba(i__main__
Shot
p52
(dp53
g18
S'6'
p54
sg3
g20
sg21
I3
sg9
g10
sg22
I-1
sg23
g20
sg24
(I0
I0
I0
I0
tp55
sg26
S'//130.60.131.134/fiwi_datenbank/SCR_SOURCE/Masterdatenbank alt Export Einzelbilder/FIWI/SCR/51_1_1/003/6/00-05-30.597.jpg'
p56
sg28
g20
sg29
g20
sg30
I00
sg31
I-1
sba(i__main__
Shot
p57
(dp58
g18
S'1'
p59
sg3
g20
sg21
I4
sg9
g10
sg22
I-1
sg23
g20
sg24
(I0
I0
I0
I0
tp60
sg26
S'//130.60.131.134/fiwi_datenbank/SCR_SOURCE/Masterdatenbank alt Export Einzelbilder/FIWI/SCR/51_1_1/004/1/00-06-44.237.jpg'
p61
sg28
g20
sg29
g20
sg30
I00
sg31
I-1
sba(i__main__
Shot
p62
(dp63
g18
S'2'
p64
sg3
g20
sg21
I4
sg9
g10
sg22
I-1
sg23
g20
sg24
(I0
I0
I0
I0
tp65
sg26
S'//130.60.131.134/fiwi_datenbank/SCR_SOURCE/Masterdatenbank alt Export Einzelbilder/FIWI/SCR/51_1_1/004/2/00-06-55.015.jpg'
p66
sg28
g20
sg29
g20
sg30
I00
sg31
I-1
sba(i__main__
Shot
p67
(dp68
g18
S'3'
p69
sg3
g20
sg21
I4
sg9
g10
sg22
I-1
sg23
g20
sg24
(I0
I0
I0
I0
tp70
sg26
S'//130.60.131.134/fiwi_datenbank/SCR_SOURCE/Masterdatenbank alt Export Einzelbilder/FIWI/SCR/51_1_1/004/3/00-06-59.209.jpg'
p71
sg28
g20
sg29
g20
sg30
I00
sg31
I-1
sba(i__main__
Shot
p72
(dp73
g18
S'4'
p74
sg3
g20
sg21
I4
sg9
g10
sg22
I-1
sg23
g20
sg24
(I0
I0
I0
I0
tp75
sg26
S'//130.60.131.134/fiwi_datenbank/SCR_SOURCE/Masterdatenbank alt Export Einzelbilder/FIWI/SCR/51_1_1/004/4/00-07-04.658.jpg'
p76
sg28
g20
sg29
g20
sg30
I00
sg31
I-1
sba(i__main__
Shot
p77
(dp78
g18
S'5'
p79
sg3
g20
sg21
I4
sg9
g10
sg22
I-1
sg23
g20
sg24
(I0
I0
I0
I0
tp80
sg26
S'//130.60.131.134/fiwi_datenbank/SCR_SOURCE/Masterdatenbank alt Export Einzelbilder/FIWI/SCR/51_1_1/004/5/416,261 [720.0,540.0].jpg'
p81
sg28
g20
sg29
g20
sg30
I00
sg31
I-1
sba(i__main__
Shot
p82
(dp83
g18
S'6'
p84
sg3
g20
sg21
I4
sg9
g10
sg22
I-1
sg23
g20
sg24
(I0
I0
I0
I0
tp85
sg26
S'//130.60.131.134/fiwi_datenbank/SCR_SOURCE/Masterdatenbank alt Export Einzelbilder/FIWI/SCR/51_1_1/004/6/00-08-00.547.jpg'
p86
sg28
g20
sg29
g20
sg30
I00
sg31
I-1
sba(i__main__
Shot
p87
(dp88
g18
S'1'
p89
sg3
g20
sg21
I5
sg9
g10
sg22
I-1
sg23
g20
sg24
(I0
I0
I0
I0
tp90
sg26
S'//130.60.131.134/fiwi_datenbank/SCR_SOURCE/Masterdatenbank alt Export Einzelbilder/FIWI/SCR/51_1_1/005/1/00-08-26.473.jpg'
p91
sg28
g20
sg29
g20
sg30
I00
sg31
I-1
sba(i__main__
Shot
p92
(dp93
g18
S'2'
p94
sg3
g20
sg21
I5
sg9
g10
sg22
I-1
sg23
g20
sg24
(I0
I0
I0
I0
tp95
sg26
S'//130.60.131.134/fiwi_datenbank/SCR_SOURCE/Masterdatenbank alt Export Einzelbilder/FIWI/SCR/51_1_1/005/2/00-08-35.409.jpg'
p96
sg28
g20
sg29
g20
sg30
I00
sg31
I-1
sba(i__main__
Shot
p97
(dp98
g18
S'3'
p99
sg3
g20
sg21
I5
sg9
g10
sg22
I-1
sg23
g20
sg24
(I0
I0
I0
I0
tp100
sg26
S'//130.60.131.134/fiwi_datenbank/SCR_SOURCE/Masterdatenbank alt Export Einzelbilder/FIWI/SCR/51_1_1/005/3/00-08-51.009.jpg'
p101
sg28
g20
sg29
g20
sg30
I00
sg31
I-1
sba(i__main__
Shot
p102
(dp103
g18
S'4'
p104
sg3
g20
sg21
I5
sg9
g10
sg22
I-1
sg23
g20
sg24
(I0
I0
I0
I0
tp105
sg26
S'//130.60.131.134/fiwi_datenbank/SCR_SOURCE/Masterdatenbank alt Export Einzelbilder/FIWI/SCR/51_1_1/005/4/00-09-07.509.jpg'
p106
sg28
g20
sg29
g20
sg30
I00
sg31
I-1
sba(i__main__
Shot
p107
(dp108
g18
S'5'
p109
sg3
g20
sg21
I5
sg9
g10
sg22
I-1
sg23
g20
sg24
(I0
I0
I0
I0
tp110
sg26
S'//130.60.131.134/fiwi_datenbank/SCR_SOURCE/Masterdatenbank alt Export Einzelbilder/FIWI/SCR/51_1_1/005/5/00-11-24.984.jpg'
p111
sg28
g20
sg29
g20
sg30
I00
sg31
I-1
sba(i__main__
Shot
p112
(dp113
g18
S'6'
p114
sg3
g20
sg21
I5
sg9
g10
sg22
I-1
sg23
g20
sg24
(I0
I0
I0
I0
tp115
sg26
S'//130.60.131.134/fiwi_datenbank/SCR_SOURCE/Masterdatenbank alt Export Einzelbilder/FIWI/SCR/51_1_1/005/6/00-11-45.238.jpg'
p116
sg28
g20
sg29
g20
sg30
I00
sg31
I-1
sba(i__main__
Shot
p117
(dp118
g18
S'7'
p119
sg3
g20
sg21
I5
sg9
g10
sg22
I-1
sg23
g20
sg24
(I0
I0
I0
I0
tp120
sg26
S'//130.60.131.134/fiwi_datenbank/SCR_SOURCE/Masterdatenbank alt Export Einzelbilder/FIWI/SCR/51_1_1/005/7/00-11-58.209.jpg'
p121
sg28
g20
sg29
g20
sg30
I00
sg31
I-1
sba(i__main__
Shot
p122
(dp123
g18
S'8'
p124
sg3
g20
sg21
I5
sg9
g10
sg22
I-1
sg23
g20
sg24
(I0
I0
I0
I0
tp125
sg26
S'//130.60.131.134/fiwi_datenbank/SCR_SOURCE/Masterdatenbank alt Export Einzelbilder/FIWI/SCR/51_1_1/005/8/00-13-46.112.jpg'
p126
sg28
g20
sg29
g20
sg30
I00
sg31
I-1
sba(i__main__
Shot
p127
(dp128
g18
S'1'
p129
sg3
g20
sg21
I6
sg9
g10
sg22
I-1
sg23
g20
sg24
(I0
I0
I0
I0
tp130
sg26
S'//130.60.131.134/fiwi_datenbank/SCR_SOURCE/Masterdatenbank alt Export Einzelbilder/FIWI/SCR/51_1_1/006/1/00-14-49.455.jpg'
p131
sg28
g20
sg29
g20
sg30
I00
sg31
I-1
sba(i__main__
Shot
p132
(dp133
g18
S'2'
p134
sg3
g20
sg21
I6
sg9
g10
sg22
I-1
sg23
g20
sg24
(I0
I0
I0
I0
tp135
sg26
S'//130.60.131.134/fiwi_datenbank/SCR_SOURCE/Masterdatenbank alt Export Einzelbilder/FIWI/SCR/51_1_1/006/2/00-15-14.180.jpg'
p136
sg28
g20
sg29
g20
sg30
I00
sg31
I-1
sba(i__main__
Shot
p137
(dp138
g18
S'3'
p139
sg3
g20
sg21
I6
sg9
g10
sg22
I-1
sg23
g20
sg24
(I0
I0
I0
I0
tp140
sg26
S'//130.60.131.134/fiwi_datenbank/SCR_SOURCE/Masterdatenbank alt Export Einzelbilder/FIWI/SCR/51_1_1/006/3/00-15-16.082.jpg'
p141
sg28
g20
sg29
g20
sg30
I00
sg31
I-1
sba(i__main__
Shot
p142
(dp143
g18
S'4'
p144
sg3
g20
sg21
I6
sg9
g10
sg22
I-1
sg23
g20
sg24
(I0
I0
I0
I0
tp145
sg26
S'//130.60.131.134/fiwi_datenbank/SCR_SOURCE/Masterdatenbank alt Export Einzelbilder/FIWI/SCR/51_1_1/006/4/00-15-17.150.jpg'
p146
sg28
g20
sg29
g20
sg30
I00
sg31
I-1
sba(i__main__
Shot
p147
(dp148
g18
S'5'
p149
sg3
g20
sg21
I6
sg9
g10
sg22
I-1
sg23
g20
sg24
(I0
I0
I0
I0
tp150
sg26
S'//130.60.131.134/fiwi_datenbank/SCR_SOURCE/Masterdatenbank alt Export Einzelbilder/FIWI/SCR/51_1_1/006/5/00-15-25.826.jpg'
p151
sg28
g20
sg29
g20
sg30
I00
sg31
I-1
sba(i__main__
Shot
p152
(dp153
g18
S'6'
p154
sg3
g20
sg21
I6
sg9
g10
sg22
I-1
sg23
g20
sg24
(I0
I0
I0
I0
tp155
sg26
S'//130.60.131.134/fiwi_datenbank/SCR_SOURCE/Masterdatenbank alt Export Einzelbilder/FIWI/SCR/51_1_1/006/6/00-15-32.398.jpg'
p156
sg28
g20
sg29
g20
sg30
I00
sg31
I-1
sba(i__main__
Shot
p157
(dp158
g18
S'7'
p159
sg3
g20
sg21
I6
sg9
g10
sg22
I-1
sg23
g20
sg24
(I0
I0
I0
I0
tp160
sg26
S'//130.60.131.134/fiwi_datenbank/SCR_SOURCE/Masterdatenbank alt Export Einzelbilder/FIWI/SCR/51_1_1/006/7/00-15-49.582.jpg'
p161
sg28
g20
sg29
g20
sg30
I00
sg31
I-1
sba(i__main__
Shot
p162
(dp163
g18
S'8'
p164
sg3
g20
sg21
I6
sg9
g10
sg22
I-1
sg23
g20
sg24
(I0
I0
I0
I0
tp165
sg26
S'//130.60.131.134/fiwi_datenbank/SCR_SOURCE/Masterdatenbank alt Export Einzelbilder/FIWI/SCR/51_1_1/006/8/00-16-48.574.jpg'
p166
sg28
g20
sg29
g20
sg30
I00
sg31
I-1
sba(i__main__
Shot
p167
(dp168
g18
S'9'
p169
sg3
g20
sg21
I6
sg9
g10
sg22
I-1
sg23
g20
sg24
(I0
I0
I0
I0
tp170
sg26
S'//130.60.131.134/fiwi_datenbank/SCR_SOURCE/Masterdatenbank alt Export Einzelbilder/FIWI/SCR/51_1_1/006/9/00-17-01.120.jpg'
p171
sg28
g20
sg29
g20
sg30
I00
sg31
I-1
sba(i__main__
Shot
p172
(dp173
g18
S'1'
p174
sg3
g20
sg21
I7
sg9
g10
sg22
I-1
sg23
g20
sg24
(I0
I0
I0
I0
tp175
sg26
S'//130.60.131.134/fiwi_datenbank/SCR_SOURCE/Masterdatenbank alt Export Einzelbilder/FIWI/SCR/51_1_1/007/1/00-18-28.941.jpg'
p176
sg28
g20
sg29
g20
sg30
I00
sg31
I-1
sba(i__main__
Shot
p177
(dp178
g18
S'10'
p179
sg3
g20
sg21
I7
sg9
g10
sg22
I-1
sg23
g20
sg24
(I0
I0
I0
I0
tp180
sg26
S'//130.60.131.134/fiwi_datenbank/SCR_SOURCE/Masterdatenbank alt Export Einzelbilder/FIWI/SCR/51_1_1/007/10/00-20-53.401.jpg'
p181
sg28
g20
sg29
g20
sg30
I00
sg31
I-1
sba(i__main__
Shot
p182
(dp183
g18
S'11'
p184
sg3
g20
sg21
I7
sg9
g10
sg22
I-1
sg23
g20
sg24
(I0
I0
I0
I0
tp185
sg26
S'//130.60.131.134/fiwi_datenbank/SCR_SOURCE/Masterdatenbank alt Export Einzelbilder/FIWI/SCR/51_1_1/007/11/00-21-13.873.jpg'
p186
sg28
g20
sg29
g20
sg30
I00
sg31
I-1
sba(i__main__
Shot
p187
(dp188
g18
S'12'
p189
sg3
g20
sg21
I7
sg9
g10
sg22
I-1
sg23
g20
sg24
(I0
I0
I0
I0
tp190
sg26
S'//130.60.131.134/fiwi_datenbank/SCR_SOURCE/Masterdatenbank alt Export Einzelbilder/FIWI/SCR/51_1_1/007/12/00-22-12.298.jpg'
p191
sg28
g20
sg29
g20
sg30
I00
sg31
I-1
sba(i__main__
Shot
p192
(dp193
g18
S'2'
p194
sg3
g20
sg21
I7
sg9
g10
sg22
I-1
sg23
g20
sg24
(I0
I0
I0
I0
tp195
sg26
S'//130.60.131.134/fiwi_datenbank/SCR_SOURCE/Masterdatenbank alt Export Einzelbilder/FIWI/SCR/51_1_1/007/2/00-18-32.211.jpg'
p196
sg28
g20
sg29
g20
sg30
I00
sg31
I-1
sba(i__main__
Shot
p197
(dp198
g18
S'3'
p199
sg3
g20
sg21
I7
sg9
g10
sg22
I-1
sg23
g20
sg24
(I0
I0
I0
I0
tp200
sg26
S'//130.60.131.134/fiwi_datenbank/SCR_SOURCE/Masterdatenbank alt Export Einzelbilder/FIWI/SCR/51_1_1/007/3/00-18-36.616.jpg'
p201
sg28
g20
sg29
g20
sg30
I00
sg31
I-1
sba(i__main__
Shot
p202
(dp203
g18
S'4'
p204
sg3
g20
sg21
I7
sg9
g10
sg22
I-1
sg23
g20
sg24
(I0
I0
I0
I0
tp205
sg26
S'//130.60.131.134/fiwi_datenbank/SCR_SOURCE/Masterdatenbank alt Export Einzelbilder/FIWI/SCR/51_1_1/007/4/00-18-40.786.jpg'
p206
sg28
g20
sg29
g20
sg30
I00
sg31
I-1
sba(i__main__
Shot
p207
(dp208
g18
S'5'
p209
sg3
g20
sg21
I7
sg9
g10
sg22
I-1
sg23
g20
sg24
(I0
I0
I0
I0
tp210
sg26
S'//130.60.131.134/fiwi_datenbank/SCR_SOURCE/Masterdatenbank alt Export Einzelbilder/FIWI/SCR/51_1_1/007/5/00-18-51.764.jpg'
p211
sg28
g20
sg29
g20
sg30
I00
sg31
I-1
sba(i__main__
Shot
p212
(dp213
g18
S'6'
p214
sg3
g20
sg21
I7
sg9
g10
sg22
I-1
sg23
g20
sg24
(I0
I0
I0
I0
tp215
sg26
S'//130.60.131.134/fiwi_datenbank/SCR_SOURCE/Masterdatenbank alt Export Einzelbilder/FIWI/SCR/51_1_1/007/6/00-19-05.578.jpg'
p216
sg28
g20
sg29
g20
sg30
I00
sg31
I-1
sba(i__main__
Shot
p217
(dp218
g18
S'7'
p219
sg3
g20
sg21
I7
sg9
g10
sg22
I-1
sg23
g20
sg24
(I0
I0
I0
I0
tp220
sg26
S'//130.60.131.134/fiwi_datenbank/SCR_SOURCE/Masterdatenbank alt Export Einzelbilder/FIWI/SCR/51_1_1/007/7/00-19-34.762.jpg'
p221
sg28
g20
sg29
g20
sg30
I00
sg31
I-1
sba(i__main__
Shot
p222
(dp223
g18
S'8'
p224
sg3
g20
sg21
I7
sg9
g10
sg22
I-1
sg23
g20
sg24
(I0
I0
I0
I0
tp225
sg26
S'//130.60.131.134/fiwi_datenbank/SCR_SOURCE/Masterdatenbank alt Export Einzelbilder/FIWI/SCR/51_1_1/007/8/00-19-46.419.jpg'
p226
sg28
g20
sg29
g20
sg30
I00
sg31
I-1
sba(i__main__
Shot
p227
(dp228
g18
S'9'
p229
sg3
g20
sg21
I7
sg9
g10
sg22
I-1
sg23
g20
sg24
(I0
I0
I0
I0
tp230
sg26
S'//130.60.131.134/fiwi_datenbank/SCR_SOURCE/Masterdatenbank alt Export Einzelbilder/FIWI/SCR/51_1_1/007/9/00-19-56.329.jpg'
p231
sg28
g20
sg29
g20
sg30
I00
sg31
I-1
sba(i__main__
Shot
p232
(dp233
g18
S'1'
p234
sg3
g20
sg21
I8
sg9
g10
sg22
I-1
sg23
g20
sg24
(I0
I0
I0
I0
tp235
sg26
S'//130.60.131.134/fiwi_datenbank/SCR_SOURCE/Masterdatenbank alt Export Einzelbilder/FIWI/SCR/51_1_1/008/1/00-23-01.514.jpg'
p236
sg28
g20
sg29
g20
sg30
I00
sg31
I-1
sba(i__main__
Shot
p237
(dp238
g18
S'2'
p239
sg3
g20
sg21
I8
sg9
g10
sg22
I-1
sg23
g20
sg24
(I0
I0
I0
I0
tp240
sg26
S'//130.60.131.134/fiwi_datenbank/SCR_SOURCE/Masterdatenbank alt Export Einzelbilder/FIWI/SCR/51_1_1/008/2/00-23-07.286.jpg'
p241
sg28
g20
sg29
g20
sg30
I00
sg31
I-1
sba(i__main__
Shot
p242
(dp243
g18
S'3'
p244
sg3
g20
sg21
I8
sg9
g10
sg22
I-1
sg23
g20
sg24
(I0
I0
I0
I0
tp245
sg26
S'//130.60.131.134/fiwi_datenbank/SCR_SOURCE/Masterdatenbank alt Export Einzelbilder/FIWI/SCR/51_1_1/008/3/00-23-24.136.jpg'
p246
sg28
g20
sg29
g20
sg30
I00
sg31
I-1
sba(i__main__
Shot
p247
(dp248
g18
S'4'
p249
sg3
g20
sg21
I8
sg9
g10
sg22
I-1
sg23
g20
sg24
(I0
I0
I0
I0
tp250
sg26
S'//130.60.131.134/fiwi_datenbank/SCR_SOURCE/Masterdatenbank alt Export Einzelbilder/FIWI/SCR/51_1_1/008/4/00-23-30.609.jpg'
p251
sg28
g20
sg29
g20
sg30
I00
sg31
I-1
sba(i__main__
Shot
p252
(dp253
g18
S'1'
p254
sg3
g20
sg21
I9
sg9
g10
sg22
I-1
sg23
g20
sg24
(I0
I0
I0
I0
tp255
sg26
S'//130.60.131.134/fiwi_datenbank/SCR_SOURCE/Masterdatenbank alt Export Einzelbilder/FIWI/SCR/51_1_1/009/1/00-24-32.738.jpg'
p256
sg28
g20
sg29
g20
sg30
I00
sg31
I-1
sba(i__main__
Shot
p257
(dp258
g18
S'2'
p259
sg3
g20
sg21
I9
sg9
g10
sg22
I-1
sg23
g20
sg24
(I0
I0
I0
I0
tp260
sg26
S'//130.60.131.134/fiwi_datenbank/SCR_SOURCE/Masterdatenbank alt Export Einzelbilder/FIWI/SCR/51_1_1/009/2/00-24-37.209.jpg'
p261
sg28
g20
sg29
g20
sg30
I00
sg31
I-1
sba(i__main__
Shot
p262
(dp263
g18
S'3'
p264
sg3
g20
sg21
I9
sg9
g10
sg22
I-1
sg23
g20
sg24
(I0
I0
I0
I0
tp265
sg26
S'//130.60.131.134/fiwi_datenbank/SCR_SOURCE/Masterdatenbank alt Export Einzelbilder/FIWI/SCR/51_1_1/009/3/00-24-51.991.jpg'
p266
sg28
g20
sg29
g20
sg30
I00
sg31
I-1
sba(i__main__
Shot
p267
(dp268
g18
S'4'
p269
sg3
g20
sg21
I9
sg9
g10
sg22
I-1
sg23
g20
sg24
(I0
I0
I0
I0
tp270
sg26
S'//130.60.131.134/fiwi_datenbank/SCR_SOURCE/Masterdatenbank alt Export Einzelbilder/FIWI/SCR/51_1_1/009/4/00-25-10.109.jpg'
p271
sg28
g20
sg29
g20
sg30
I00
sg31
I-1
sba(i__main__
Shot
p272
(dp273
g18
S'5'
p274
sg3
g20
sg21
I9
sg9
g10
sg22
I-1
sg23
g20
sg24
(I0
I0
I0
I0
tp275
sg26
S'//130.60.131.134/fiwi_datenbank/SCR_SOURCE/Masterdatenbank alt Export Einzelbilder/FIWI/SCR/51_1_1/009/5/00-25-12.077.jpg'
p276
sg28
g20
sg29
g20
sg30
I00
sg31
I-1
sba(i__main__
Shot
p277
(dp278
g18
S'6'
p279
sg3
g20
sg21
I9
sg9
g10
sg22
I-1
sg23
g20
sg24
(I0
I0
I0
I0
tp280
sg26
S'//130.60.131.134/fiwi_datenbank/SCR_SOURCE/Masterdatenbank alt Export Einzelbilder/FIWI/SCR/51_1_1/009/6/00-25-20.352.jpg'
p281
sg28
g20
sg29
g20
sg30
I00
sg31
I-1
sba(i__main__
Shot
p282
(dp283
g18
S'1'
p284
sg3
g20
sg21
I10
sg9
g10
sg22
I-1
sg23
g20
sg24
(I0
I0
I0
I0
tp285
sg26
S'//130.60.131.134/fiwi_datenbank/SCR_SOURCE/Masterdatenbank alt Export Einzelbilder/FIWI/SCR/51_1_1/010/1/00-26-02.027.jpg'
p286
sg28
g20
sg29
g20
sg30
I00
sg31
I-1
sba(i__main__
Shot
p287
(dp288
g18
S'10'
p289
sg3
g20
sg21
I10
sg9
g10
sg22
I-1
sg23
g20
sg24
(I0
I0
I0
I0
tp290
sg26
S'//130.60.131.134/fiwi_datenbank/SCR_SOURCE/Masterdatenbank alt Export Einzelbilder/FIWI/SCR/51_1_1/010/10/00-27-58.277.jpg'
p291
sg28
g20
sg29
g20
sg30
I00
sg31
I-1
sba(i__main__
Shot
p292
(dp293
g18
S'11'
p294
sg3
g20
sg21
I10
sg9
g10
sg22
I-1
sg23
g20
sg24
(I0
I0
I0
I0
tp295
sg26
S'//130.60.131.134/fiwi_datenbank/SCR_SOURCE/Masterdatenbank alt Export Einzelbilder/FIWI/SCR/51_1_1/010/11/00-29-12.151.jpg'
p296
sg28
g20
sg29
g20
sg30
I00
sg31
I-1
sba(i__main__
Shot
p297
(dp298
g18
S'12'
p299
sg3
g20
sg21
I10
sg9
g10
sg22
I-1
sg23
g20
sg24
(I0
I0
I0
I0
tp300
sg26
S'//130.60.131.134/fiwi_datenbank/SCR_SOURCE/Masterdatenbank alt Export Einzelbilder/FIWI/SCR/51_1_1/010/12/00-29-25.331.jpg'
p301
sg28
g20
sg29
g20
sg30
I00
sg31
I-1
sba(i__main__
Shot
p302
(dp303
g18
S'13'
p304
sg3
g20
sg21
I10
sg9
g10
sg22
I-1
sg23
g20
sg24
(I0
I0
I0
I0
tp305
sg26
S'//130.60.131.134/fiwi_datenbank/SCR_SOURCE/Masterdatenbank alt Export Einzelbilder/FIWI/SCR/51_1_1/010/13/00-29-38.811.jpg'
p306
sg28
g20
sg29
g20
sg30
I00
sg31
I-1
sba(i__main__
Shot
p307
(dp308
g18
S'14'
p309
sg3
g20
sg21
I10
sg9
g10
sg22
I-1
sg23
g20
sg24
(I0
I0
I0
I0
tp310
sg26
S'//130.60.131.134/fiwi_datenbank/SCR_SOURCE/Masterdatenbank alt Export Einzelbilder/FIWI/SCR/51_1_1/010/14/00-29-45.818.jpg'
p311
sg28
g20
sg29
g20
sg30
I00
sg31
I-1
sba(i__main__
Shot
p312
(dp313
g18
S'15'
p314
sg3
g20
sg21
I10
sg9
g10
sg22
I-1
sg23
g20
sg24
(I0
I0
I0
I0
tp315
sg26
S'//130.60.131.134/fiwi_datenbank/SCR_SOURCE/Masterdatenbank alt Export Einzelbilder/FIWI/SCR/51_1_1/010/15/00-30-03.135.jpg'
p316
sg28
g20
sg29
g20
sg30
I00
sg31
I-1
sba(i__main__
Shot
p317
(dp318
g18
S'16'
p319
sg3
g20
sg21
I10
sg9
g10
sg22
I-1
sg23
g20
sg24
(I0
I0
I0
I0
tp320
sg26
S'//130.60.131.134/fiwi_datenbank/SCR_SOURCE/Masterdatenbank alt Export Einzelbilder/FIWI/SCR/51_1_1/010/16/00-30-21.053.jpg'
p321
sg28
g20
sg29
g20
sg30
I00
sg31
I-1
sba(i__main__
Shot
p322
(dp323
g18
S'17'
p324
sg3
g20
sg21
I10
sg9
g10
sg22
I-1
sg23
g20
sg24
(I0
I0
I0
I0
tp325
sg26
S'//130.60.131.134/fiwi_datenbank/SCR_SOURCE/Masterdatenbank alt Export Einzelbilder/FIWI/SCR/51_1_1/010/17/00-30-27.659.jpg'
p326
sg28
g20
sg29
g20
sg30
I00
sg31
I-1
sba(i__main__
Shot
p327
(dp328
g18
S'18'
p329
sg3
g20
sg21
I10
sg9
g10
sg22
I-1
sg23
g20
sg24
(I0
I0
I0
I0
tp330
sg26
S'//130.60.131.134/fiwi_datenbank/SCR_SOURCE/Masterdatenbank alt Export Einzelbilder/FIWI/SCR/51_1_1/010/18/00-30-35.601.jpg'
p331
sg28
g20
sg29
g20
sg30
I00
sg31
I-1
sba(i__main__
Shot
p332
(dp333
g18
S'19'
p334
sg3
g20
sg21
I10
sg9
g10
sg22
I-1
sg23
g20
sg24
(I0
I0
I0
I0
tp335
sg26
S'//130.60.131.134/fiwi_datenbank/SCR_SOURCE/Masterdatenbank alt Export Einzelbilder/FIWI/SCR/51_1_1/010/19/00-31-27.019.jpg'
p336
sg28
g20
sg29
g20
sg30
I00
sg31
I-1
sba(i__main__
Shot
p337
(dp338
g18
S'2'
p339
sg3
g20
sg21
I10
sg9
g10
sg22
I-1
sg23
g20
sg24
(I0
I0
I0
I0
tp340
sg26
S'//130.60.131.134/fiwi_datenbank/SCR_SOURCE/Masterdatenbank alt Export Einzelbilder/FIWI/SCR/51_1_1/010/2/00-26-04.897.jpg'
p341
sg28
g20
sg29
g20
sg30
I00
sg31
I-1
sba(i__main__
Shot
p342
(dp343
g18
S'3'
p344
sg3
g20
sg21
I10
sg9
g10
sg22
I-1
sg23
g20
sg24
(I0
I0
I0
I0
tp345
sg26
S'//130.60.131.134/fiwi_datenbank/SCR_SOURCE/Masterdatenbank alt Export Einzelbilder/FIWI/SCR/51_1_1/010/3/00-26-31.323.jpg'
p346
sg28
g20
sg29
g20
sg30
I00
sg31
I-1
sba(i__main__
Shot
p347
(dp348
g18
S'4'
p349
sg3
g20
sg21
I10
sg9
g10
sg22
I-1
sg23
g20
sg24
(I0
I0
I0
I0
tp350
sg26
S'//130.60.131.134/fiwi_datenbank/SCR_SOURCE/Masterdatenbank alt Export Einzelbilder/FIWI/SCR/51_1_1/010/4/00-26-36.161.jpg'
p351
sg28
g20
sg29
g20
sg30
I00
sg31
I-1
sba(i__main__
Shot
p352
(dp353
g18
S'5'
p354
sg3
g20
sg21
I10
sg9
g10
sg22
I-1
sg23
g20
sg24
(I0
I0
I0
I0
tp355
sg26
S'//130.60.131.134/fiwi_datenbank/SCR_SOURCE/Masterdatenbank alt Export Einzelbilder/FIWI/SCR/51_1_1/010/5/00-26-45.004.jpg'
p356
sg28
g20
sg29
g20
sg30
I00
sg31
I-1
sba(i__main__
Shot
p357
(dp358
g18
S'6'
p359
sg3
g20
sg21
I10
sg9
g10
sg22
I-1
sg23
g20
sg24
(I0
I0
I0
I0
tp360
sg26
S'//130.60.131.134/fiwi_datenbank/SCR_SOURCE/Masterdatenbank alt Export Einzelbilder/FIWI/SCR/51_1_1/010/6/00-27-07.001.jpg'
p361
sg28
g20
sg29
g20
sg30
I00
sg31
I-1
sba(i__main__
Shot
p362
(dp363
g18
S'7'
p364
sg3
g20
sg21
I10
sg9
g10
sg22
I-1
sg23
g20
sg24
(I0
I0
I0
I0
tp365
sg26
S'//130.60.131.134/fiwi_datenbank/SCR_SOURCE/Masterdatenbank alt Export Einzelbilder/FIWI/SCR/51_1_1/010/7/00-27-25.511.jpg'
p366
sg28
g20
sg29
g20
sg30
I00
sg31
I-1
sba(i__main__
Shot
p367
(dp368
g18
S'8'
p369
sg3
g20
sg21
I10
sg9
g10
sg22
I-1
sg23
g20
sg24
(I0
I0
I0
I0
tp370
sg26
S'//130.60.131.134/fiwi_datenbank/SCR_SOURCE/Masterdatenbank alt Export Einzelbilder/FIWI/SCR/51_1_1/010/8/00-27-31.083.jpg'
p371
sg28
g20
sg29
g20
sg30
I00
sg31
I-1
sba(i__main__
Shot
p372
(dp373
g18
S'9'
p374
sg3
g20
sg21
I10
sg9
g10
sg22
I-1
sg23
g20
sg24
(I0
I0
I0
I0
tp375
sg26
S'//130.60.131.134/fiwi_datenbank/SCR_SOURCE/Masterdatenbank alt Export Einzelbilder/FIWI/SCR/51_1_1/010/9/00-27-39.324.jpg'
p376
sg28
g20
sg29
g20
sg30
I00
sg31
I-1
sba(i__main__
Shot
p377
(dp378
g18
S'1'
p379
sg3
g20
sg21
I11
sg9
g10
sg22
I-1
sg23
g20
sg24
(I0
I0
I0
I0
tp380
sg26
S'//130.60.131.134/fiwi_datenbank/SCR_SOURCE/Masterdatenbank alt Export Einzelbilder/FIWI/SCR/51_1_1/011/1/00-32-55.375.jpg'
p381
sg28
g20
sg29
g20
sg30
I00
sg31
I-1
sba(i__main__
Shot
p382
(dp383
g18
S'10'
p384
sg3
g20
sg21
I11
sg9
g10
sg22
I-1
sg23
g20
sg24
(I0
I0
I0
I0
tp385
sg26
S'//130.60.131.134/fiwi_datenbank/SCR_SOURCE/Masterdatenbank alt Export Einzelbilder/FIWI/SCR/51_1_1/011/10/00-35-15.658.jpg'
p386
sg28
g20
sg29
g20
sg30
I00
sg31
I-1
sba(i__main__
Shot
p387
(dp388
g18
S'11'
p389
sg3
g20
sg21
I11
sg9
g10
sg22
I-1
sg23
g20
sg24
(I0
I0
I0
I0
tp390
sg26
S'//130.60.131.134/fiwi_datenbank/SCR_SOURCE/Masterdatenbank alt Export Einzelbilder/FIWI/SCR/51_1_1/011/11/00-35-46.418.jpg'
p391
sg28
g20
sg29
g20
sg30
I00
sg31
I-1
sba(i__main__
Shot
p392
(dp393
g18
S'2'
p394
sg3
g20
sg21
I11
sg9
g10
sg22
I-1
sg23
g20
sg24
(I0
I0
I0
I0
tp395
sg26
S'//130.60.131.134/fiwi_datenbank/SCR_SOURCE/Masterdatenbank alt Export Einzelbilder/FIWI/SCR/51_1_1/011/2/00-32-57.442.jpg'
p396
sg28
g20
sg29
g20
sg30
I00
sg31
I-1
sba(i__main__
Shot
p397
(dp398
g18
S'3'
p399
sg3
g20
sg21
I11
sg9
g10
sg22
I-1
sg23
g20
sg24
(I0
I0
I0
I0
tp400
sg26
S'//130.60.131.134/fiwi_datenbank/SCR_SOURCE/Masterdatenbank alt Export Einzelbilder/FIWI/SCR/51_1_1/011/3/00-33-34.582.jpg'
p401
sg28
g20
sg29
g20
sg30
I00
sg31
I-1
sba(i__main__
Shot
p402
(dp403
g18
S'4'
p404
sg3
g20
sg21
I11
sg9
g10
sg22
I-1
sg23
g20
sg24
(I0
I0
I0
I0
tp405
sg26
S'//130.60.131.134/fiwi_datenbank/SCR_SOURCE/Masterdatenbank alt Export Einzelbilder/FIWI/SCR/51_1_1/011/4/00-33-38.383.jpg'
p406
sg28
g20
sg29
g20
sg30
I00
sg31
I-1
sba(i__main__
Shot
p407
(dp408
g18
S'5'
p409
sg3
g20
sg21
I11
sg9
g10
sg22
I-1
sg23
g20
sg24
(I0
I0
I0
I0
tp410
sg26
S'//130.60.131.134/fiwi_datenbank/SCR_SOURCE/Masterdatenbank alt Export Einzelbilder/FIWI/SCR/51_1_1/011/5/00-34-21.895.jpg'
p411
sg28
g20
sg29
g20
sg30
I00
sg31
I-1
sba(i__main__
Shot
p412
(dp413
g18
S'6'
p414
sg3
g20
sg21
I11
sg9
g10
sg22
I-1
sg23
g20
sg24
(I0
I0
I0
I0
tp415
sg26
S'//130.60.131.134/fiwi_datenbank/SCR_SOURCE/Masterdatenbank alt Export Einzelbilder/FIWI/SCR/51_1_1/011/6/00-34-23.964.jpg'
p416
sg28
g20
sg29
g20
sg30
I00
sg31
I-1
sba(i__main__
Shot
p417
(dp418
g18
S'7'
p419
sg3
g20
sg21
I11
sg9
g10
sg22
I-1
sg23
g20
sg24
(I0
I0
I0
I0
tp420
sg26
S'//130.60.131.134/fiwi_datenbank/SCR_SOURCE/Masterdatenbank alt Export Einzelbilder/FIWI/SCR/51_1_1/011/7/00-34-36.176.jpg'
p421
sg28
g20
sg29
g20
sg30
I00
sg31
I-1
sba(i__main__
Shot
p422
(dp423
g18
S'8'
p424
sg3
g20
sg21
I11
sg9
g10
sg22
I-1
sg23
g20
sg24
(I0
I0
I0
I0
tp425
sg26
S'//130.60.131.134/fiwi_datenbank/SCR_SOURCE/Masterdatenbank alt Export Einzelbilder/FIWI/SCR/51_1_1/011/8/00-34-47.552.jpg'
p426
sg28
g20
sg29
g20
sg30
I00
sg31
I-1
sba(i__main__
Shot
p427
(dp428
g18
S'9'
p429
sg3
g20
sg21
I11
sg9
g10
sg22
I-1
sg23
g20
sg24
(I0
I0
I0
I0
tp430
sg26
S'//130.60.131.134/fiwi_datenbank/SCR_SOURCE/Masterdatenbank alt Export Einzelbilder/FIWI/SCR/51_1_1/011/9/00-35-03.302.jpg'
p431
sg28
g20
sg29
g20
sg30
I00
sg31
I-1
sba(i__main__
Shot
p432
(dp433
g18
S'1'
p434
sg3
g20
sg21
I12
sg9
g10
sg22
I-1
sg23
g20
sg24
(I0
I0
I0
I0
tp435
sg26
S'//130.60.131.134/fiwi_datenbank/SCR_SOURCE/Masterdatenbank alt Export Einzelbilder/FIWI/SCR/51_1_1/012/1/00-36-18.176.jpg'
p436
sg28
g20
sg29
g20
sg30
I00
sg31
I-1
sba(i__main__
Shot
p437
(dp438
g18
S'10'
p439
sg3
g20
sg21
I12
sg9
g10
sg22
I-1
sg23
g20
sg24
(I0
I0
I0
I0
tp440
sg26
S'//130.60.131.134/fiwi_datenbank/SCR_SOURCE/Masterdatenbank alt Export Einzelbilder/FIWI/SCR/51_1_1/012/10/00-38-07.652.jpg'
p441
sg28
g20
sg29
g20
sg30
I00
sg31
I-1
sba(i__main__
Shot
p442
(dp443
g18
S'11'
p444
sg3
g20
sg21
I12
sg9
g10
sg22
I-1
sg23
g20
sg24
(I0
I0
I0
I0
tp445
sg26
S'//130.60.131.134/fiwi_datenbank/SCR_SOURCE/Masterdatenbank alt Export Einzelbilder/FIWI/SCR/51_1_1/012/11/00-38-13.091.jpg'
p446
sg28
g20
sg29
g20
sg30
I00
sg31
I-1
sba(i__main__
Shot
p447
(dp448
g18
S'12'
p449
sg3
g20
sg21
I12
sg9
g10
sg22
I-1
sg23
g20
sg24
(I0
I0
I0
I0
tp450
sg26
S'//130.60.131.134/fiwi_datenbank/SCR_SOURCE/Masterdatenbank alt Export Einzelbilder/FIWI/SCR/51_1_1/012/12/00-39-00.400.jpg'
p451
sg28
g20
sg29
g20
sg30
I00
sg31
I-1
sba(i__main__
Shot
p452
(dp453
g18
S'13'
p454
sg3
g20
sg21
I12
sg9
g10
sg22
I-1
sg23
g20
sg24
(I0
I0
I0
I0
tp455
sg26
S'//130.60.131.134/fiwi_datenbank/SCR_SOURCE/Masterdatenbank alt Export Einzelbilder/FIWI/SCR/51_1_1/012/13/00-39-09.914.jpg'
p456
sg28
g20
sg29
g20
sg30
I00
sg31
I-1
sba(i__main__
Shot
p457
(dp458
g18
S'14'
p459
sg3
g20
sg21
I12
sg9
g10
sg22
I-1
sg23
g20
sg24
(I0
I0
I0
I0
tp460
sg26
S'//130.60.131.134/fiwi_datenbank/SCR_SOURCE/Masterdatenbank alt Export Einzelbilder/FIWI/SCR/51_1_1/012/14/00-39-20.592.jpg'
p461
sg28
g20
sg29
g20
sg30
I00
sg31
I-1
sba(i__main__
Shot
p462
(dp463
g18
S'15'
p464
sg3
g20
sg21
I12
sg9
g10
sg22
I-1
sg23
g20
sg24
(I0
I0
I0
I0
tp465
sg26
S'//130.60.131.134/fiwi_datenbank/SCR_SOURCE/Masterdatenbank alt Export Einzelbilder/FIWI/SCR/51_1_1/012/15/00-39-36.777.jpg'
p466
sg28
g20
sg29
g20
sg30
I00
sg31
I-1
sba(i__main__
Shot
p467
(dp468
g18
S'16'
p469
sg3
g20
sg21
I12
sg9
g10
sg22
I-1
sg23
g20
sg24
(I0
I0
I0
I0
tp470
sg26
S'//130.60.131.134/fiwi_datenbank/SCR_SOURCE/Masterdatenbank alt Export Einzelbilder/FIWI/SCR/51_1_1/012/16/00-40-49.000.jpg'
p471
sg28
g20
sg29
g20
sg30
I00
sg31
I-1
sba(i__main__
Shot
p472
(dp473
g18
S'17'
p474
sg3
g20
sg21
I12
sg9
g10
sg22
I-1
sg23
g20
sg24
(I0
I0
I0
I0
tp475
sg26
S'//130.60.131.134/fiwi_datenbank/SCR_SOURCE/Masterdatenbank alt Export Einzelbilder/FIWI/SCR/51_1_1/012/17/00-42-28.400.jpg'
p476
sg28
g20
sg29
g20
sg30
I00
sg31
I-1
sba(i__main__
Shot
p477
(dp478
g18
S'18'
p479
sg3
g20
sg21
I12
sg9
g10
sg22
I-1
sg23
g20
sg24
(I0
I0
I0
I0
tp480
sg26
S'//130.60.131.134/fiwi_datenbank/SCR_SOURCE/Masterdatenbank alt Export Einzelbilder/FIWI/SCR/51_1_1/012/18/00-42-44.165.jpg'
p481
sg28
g20
sg29
g20
sg30
I00
sg31
I-1
sba(i__main__
Shot
p482
(dp483
g18
S'19'
p484
sg3
g20
sg21
I12
sg9
g10
sg22
I-1
sg23
g20
sg24
(I0
I0
I0
I0
tp485
sg26
S'//130.60.131.134/fiwi_datenbank/SCR_SOURCE/Masterdatenbank alt Export Einzelbilder/FIWI/SCR/51_1_1/012/19/00-42-48.900.jpg'
p486
sg28
g20
sg29
g20
sg30
I00
sg31
I-1
sba(i__main__
Shot
p487
(dp488
g18
S'2'
p489
sg3
g20
sg21
I12
sg9
g10
sg22
I-1
sg23
g20
sg24
(I0
I0
I0
I0
tp490
sg26
S'//130.60.131.134/fiwi_datenbank/SCR_SOURCE/Masterdatenbank alt Export Einzelbilder/FIWI/SCR/51_1_1/012/2/00-36-24.482.jpg'
p491
sg28
g20
sg29
g20
sg30
I00
sg31
I-1
sba(i__main__
Shot
p492
(dp493
g18
S'20'
p494
sg3
g20
sg21
I12
sg9
g10
sg22
I-1
sg23
g20
sg24
(I0
I0
I0
I0
tp495
sg26
S'//130.60.131.134/fiwi_datenbank/SCR_SOURCE/Masterdatenbank alt Export Einzelbilder/FIWI/SCR/51_1_1/012/20/00-43-30.400.jpg'
p496
sg28
g20
sg29
g20
sg30
I00
sg31
I-1
sba(i__main__
Shot
p497
(dp498
g18
S'21'
p499
sg3
g20
sg21
I12
sg9
g10
sg22
I-1
sg23
g20
sg24
(I0
I0
I0
I0
tp500
sg26
S'//130.60.131.134/fiwi_datenbank/SCR_SOURCE/Masterdatenbank alt Export Einzelbilder/FIWI/SCR/51_1_1/012/21/00-44-00.304.jpg'
p501
sg28
g20
sg29
g20
sg30
I00
sg31
I-1
sba(i__main__
Shot
p502
(dp503
g18
S'22'
p504
sg3
g20
sg21
I12
sg9
g10
sg22
I-1
sg23
g20
sg24
(I0
I0
I0
I0
tp505
sg26
S'//130.60.131.134/fiwi_datenbank/SCR_SOURCE/Masterdatenbank alt Export Einzelbilder/FIWI/SCR/51_1_1/012/22/00-44-36.407.jpg'
p506
sg28
g20
sg29
g20
sg30
I00
sg31
I-1
sba(i__main__
Shot
p507
(dp508
g18
S'3'
p509
sg3
g20
sg21
I12
sg9
g10
sg22
I-1
sg23
g20
sg24
(I0
I0
I0
I0
tp510
sg26
S'//130.60.131.134/fiwi_datenbank/SCR_SOURCE/Masterdatenbank alt Export Einzelbilder/FIWI/SCR/51_1_1/012/3/00-36-29.621.jpg'
p511
sg28
g20
sg29
g20
sg30
I00
sg31
I-1
sba(i__main__
Shot
p512
(dp513
g18
S'4'
p514
sg3
g20
sg21
I12
sg9
g10
sg22
I-1
sg23
g20
sg24
(I0
I0
I0
I0
tp515
sg26
S'//130.60.131.134/fiwi_datenbank/SCR_SOURCE/Masterdatenbank alt Export Einzelbilder/FIWI/SCR/51_1_1/012/4/00-36-41.433.jpg'
p516
sg28
g20
sg29
g20
sg30
I00
sg31
I-1
sba(i__main__
Shot
p517
(dp518
g18
S'5'
p519
sg3
g20
sg21
I12
sg9
g10
sg22
I-1
sg23
g20
sg24
(I0
I0
I0
I0
tp520
sg26
S'//130.60.131.134/fiwi_datenbank/SCR_SOURCE/Masterdatenbank alt Export Einzelbilder/FIWI/SCR/51_1_1/012/5/00-36-58.316.jpg'
p521
sg28
g20
sg29
g20
sg30
I00
sg31
I-1
sba(i__main__
Shot
p522
(dp523
g18
S'6'
p524
sg3
g20
sg21
I12
sg9
g10
sg22
I-1
sg23
g20
sg24
(I0
I0
I0
I0
tp525
sg26
S'//130.60.131.134/fiwi_datenbank/SCR_SOURCE/Masterdatenbank alt Export Einzelbilder/FIWI/SCR/51_1_1/012/6/00-37-09.694.jpg'
p526
sg28
g20
sg29
g20
sg30
I00
sg31
I-1
sba(i__main__
Shot
p527
(dp528
g18
S'7'
p529
sg3
g20
sg21
I12
sg9
g10
sg22
I-1
sg23
g20
sg24
(I0
I0
I0
I0
tp530
sg26
S'//130.60.131.134/fiwi_datenbank/SCR_SOURCE/Masterdatenbank alt Export Einzelbilder/FIWI/SCR/51_1_1/012/7/00-37-32.817.jpg'
p531
sg28
g20
sg29
g20
sg30
I00
sg31
I-1
sba(i__main__
Shot
p532
(dp533
g18
S'8'
p534
sg3
g20
sg21
I12
sg9
g10
sg22
I-1
sg23
g20
sg24
(I0
I0
I0
I0
tp535
sg26
S'//130.60.131.134/fiwi_datenbank/SCR_SOURCE/Masterdatenbank alt Export Einzelbilder/FIWI/SCR/51_1_1/012/8/00-37-38.957.jpg'
p536
sg28
g20
sg29
g20
sg30
I00
sg31
I-1
sba(i__main__
Shot
p537
(dp538
g18
S'9'
p539
sg3
g20
sg21
I12
sg9
g10
sg22
I-1
sg23
g20
sg24
(I0
I0
I0
I0
tp540
sg26
S'//130.60.131.134/fiwi_datenbank/SCR_SOURCE/Masterdatenbank alt Export Einzelbilder/FIWI/SCR/51_1_1/012/9/00-37-57.275.jpg'
p541
sg28
g20
sg29
g20
sg30
I00
sg31
I-1
sba(i__main__
Shot
p542
(dp543
g18
S'1'
p544
sg3
g20
sg21
I13
sg9
g10
sg22
I-1
sg23
g20
sg24
(I0
I0
I0
I0
tp545
sg26
S'//130.60.131.134/fiwi_datenbank/SCR_SOURCE/Masterdatenbank alt Export Einzelbilder/FIWI/SCR/51_1_1/013/1/00-47-28.500.jpg'
p546
sg28
g20
sg29
g20
sg30
I00
sg31
I-1
sba(i__main__
Shot
p547
(dp548
g18
S'2'
p549
sg3
g20
sg21
I13
sg9
g10
sg22
I-1
sg23
g20
sg24
(I0
I0
I0
I0
tp550
sg26
S'//130.60.131.134/fiwi_datenbank/SCR_SOURCE/Masterdatenbank alt Export Einzelbilder/FIWI/SCR/51_1_1/013/2/00-47-33.885.jpg'
p551
sg28
g20
sg29
g20
sg30
I00
sg31
I-1
sba(i__main__
Shot
p552
(dp553
g18
S'3'
p554
sg3
g20
sg21
I13
sg9
g10
sg22
I-1
sg23
g20
sg24
(I0
I0
I0
I0
tp555
sg26
S'//130.60.131.134/fiwi_datenbank/SCR_SOURCE/Masterdatenbank alt Export Einzelbilder/FIWI/SCR/51_1_1/013/3/00-47-47.400.jpg'
p556
sg28
g20
sg29
g20
sg30
I00
sg31
I-1
sba(i__main__
Shot
p557
(dp558
g18
S'4'
p559
sg3
g20
sg21
I13
sg9
g10
sg22
I-1
sg23
g20
sg24
(I0
I0
I0
I0
tp560
sg26
S'//130.60.131.134/fiwi_datenbank/SCR_SOURCE/Masterdatenbank alt Export Einzelbilder/FIWI/SCR/51_1_1/013/4/00-48-37.200.jpg'
p561
sg28
g20
sg29
g20
sg30
I00
sg31
I-1
sba(i__main__
Shot
p562
(dp563
g18
S'5'
p564
sg3
g20
sg21
I13
sg9
g10
sg22
I-1
sg23
g20
sg24
(I0
I0
I0
I0
tp565
sg26
S'//130.60.131.134/fiwi_datenbank/SCR_SOURCE/Masterdatenbank alt Export Einzelbilder/FIWI/SCR/51_1_1/013/5/00-50-37.500.jpg'
p566
sg28
g20
sg29
g20
sg30
I00
sg31
I-1
sba(i__main__
Shot
p567
(dp568
g18
S'6'
p569
sg3
g20
sg21
I13
sg9
g10
sg22
I-1
sg23
g20
sg24
(I0
I0
I0
I0
tp570
sg26
S'//130.60.131.134/fiwi_datenbank/SCR_SOURCE/Masterdatenbank alt Export Einzelbilder/FIWI/SCR/51_1_1/013/6/00-51-49.400.jpg'
p571
sg28
g20
sg29
g20
sg30
I00
sg31
I-1
sba(i__main__
Shot
p572
(dp573
g18
S'1'
p574
sg3
g20
sg21
I14
sg9
g10
sg22
I-1
sg23
g20
sg24
(I0
I0
I0
I0
tp575
sg26
S'//130.60.131.134/fiwi_datenbank/SCR_SOURCE/Masterdatenbank alt Export Einzelbilder/FIWI/SCR/51_1_1/014/1/00-52-57.600.jpg'
p576
sg28
g20
sg29
g20
sg30
I00
sg31
I-1
sba(i__main__
Shot
p577
(dp578
g18
S'2'
p579
sg3
g20
sg21
I14
sg9
g10
sg22
I-1
sg23
g20
sg24
(I0
I0
I0
I0
tp580
sg26
S'//130.60.131.134/fiwi_datenbank/SCR_SOURCE/Masterdatenbank alt Export Einzelbilder/FIWI/SCR/51_1_1/014/2/00-53-00.844.jpg'
p581
sg28
g20
sg29
g20
sg30
I00
sg31
I-1
sba(i__main__
Shot
p582
(dp583
g18
S'3'
p584
sg3
g20
sg21
I14
sg9
g10
sg22
I-1
sg23
g20
sg24
(I0
I0
I0
I0
tp585
sg26
S'//130.60.131.134/fiwi_datenbank/SCR_SOURCE/Masterdatenbank alt Export Einzelbilder/FIWI/SCR/51_1_1/014/3/00-53-08.752.jpg'
p586
sg28
g20
sg29
g20
sg30
I00
sg31
I-1
sba(i__main__
Shot
p587
(dp588
g18
S'4'
p589
sg3
g20
sg21
I14
sg9
g10
sg22
I-1
sg23
g20
sg24
(I0
I0
I0
I0
tp590
sg26
S'//130.60.131.134/fiwi_datenbank/SCR_SOURCE/Masterdatenbank alt Export Einzelbilder/FIWI/SCR/51_1_1/014/4/00-53-13.691.jpg'
p591
sg28
g20
sg29
g20
sg30
I00
sg31
I-1
sba(i__main__
Shot
p592
(dp593
g18
S'5'
p594
sg3
g20
sg21
I14
sg9
g10
sg22
I-1
sg23
g20
sg24
(I0
I0
I0
I0
tp595
sg26
S'//130.60.131.134/fiwi_datenbank/SCR_SOURCE/Masterdatenbank alt Export Einzelbilder/FIWI/SCR/51_1_1/014/5/00-53-21.765.jpg'
p596
sg28
g20
sg29
g20
sg30
I00
sg31
I-1
sba(i__main__
Shot
p597
(dp598
g18
S'6'
p599
sg3
g20
sg21
I14
sg9
g10
sg22
I-1
sg23
g20
sg24
(I0
I0
I0
I0
tp600
sg26
S'//130.60.131.134/fiwi_datenbank/SCR_SOURCE/Masterdatenbank alt Export Einzelbilder/FIWI/SCR/51_1_1/014/6/00-53-48.225.jpg'
p601
sg28
g20
sg29
g20
sg30
I00
sg31
I-1
sbasS'elan_path'
p602
S'//130.60.131.134/studi/Filme/frueher_Film/51_The_Toll_of_the_Sea_1922\\51_1_1_TheTollOfTheSea_1922_DVD_ELAN.eaf'
p603
sS'needs_segmentation'
p604
I00
sba.