(lp0
(i__main__
Movie
p1
(dp2
S'errors'
p3
NsS'movie_name'
p4
S'GoneWithTheWind'
p5
sS'folder_path'
p6
S'//130.60.131.134/studi/Filme/mittlere_Filme/8_Gone_With_The_Wind_1940/8_1_1_Gone with the Wind_1940_DVD/'
p7
sS'segmentation_path'
p8
S'//130.60.131.134/fiwi_datenbank/SEGM/8_1_1_SEGM.txt'
p9
sS'filemaker_ID'
p10
(lp11
I8
aI1
aI1
asS'relative_path'
p12
S'mittlere_Filme/8_Gone_With_The_Wind_1940/8_1_1_Gone with the Wind_1940_DVD/'
p13
sS'has_sub_segmentation'
p14
I00
sS'shots'
p15
(lp16
(i__main__
Shot
p17
(dp18
S'segment_shot_id'
p19
S'1'
p20
sg4
S''
p21
sS'segment_id'
p22
I1
sg10
g11
sS'global_shot_id'
p23
I-1
sS'source_type'
p24
g21
sS'time'
p25
(I0
I0
I0
I0
tp26
sS'path'
p27
S'//130.60.131.134/fiwi_datenbank/SCR/8_1_1/1_1_8_1_1.jpg'
p28
sS'movie_year'
p29
g21
sS'subsegment'
p30
g21
sS'has_subsegment'
p31
I00
sS'shot_id'
p32
I-1
sba(i__main__
Shot
p33
(dp34
g19
S'1'
p35
sg4
g21
sg22
I2
sg10
g11
sg23
I-1
sg24
g21
sg25
(I0
I0
I0
I0
tp36
sg27
S'//130.60.131.134/fiwi_datenbank/SCR_SOURCE/Masterdatenbank neu Export Einzelbilder/FIWI/SCR/8_1_1/002/1/00-02-43.131.png'
p37
sg29
g21
sg30
g21
sg31
I00
sg32
I-1
sba(i__main__
Shot
p38
(dp39
g19
S'2'
p40
sg4
g21
sg22
I2
sg10
g11
sg23
I-1
sg24
g21
sg25
(I0
I0
I0
I0
tp41
sg27
S'//130.60.131.134/fiwi_datenbank/SCR_SOURCE/Masterdatenbank neu Export Einzelbilder/FIWI/SCR/8_1_1/002/2/00-02-47.835.png'
p42
sg29
g21
sg30
g21
sg31
I00
sg32
I-1
sba(i__main__
Shot
p43
(dp44
g19
S'1'
p45
sg4
g21
sg22
I3
sg10
g11
sg23
I-1
sg24
g21
sg25
(I0
I0
I0
I0
tp46
sg27
S'//130.60.131.134/fiwi_datenbank/SCR_SOURCE/Masterdatenbank neu Export Einzelbilder/FIWI/SCR/8_1_1/003/1/00-02-55.935.png'
p47
sg29
g21
sg30
g21
sg31
I00
sg32
I-1
sba(i__main__
Shot
p48
(dp49
g19
S'10'
p50
sg4
g21
sg22
I3
sg10
g11
sg23
I-1
sg24
g21
sg25
(I0
I0
I0
I0
tp51
sg27
S'//130.60.131.134/fiwi_datenbank/SCR_SOURCE/Masterdatenbank neu Export Einzelbilder/FIWI/SCR/8_1_1/003/10/00-04-38.535.png'
p52
sg29
g21
sg30
g21
sg31
I00
sg32
I-1
sba(i__main__
Shot
p53
(dp54
g19
S'11'
p55
sg4
g21
sg22
I3
sg10
g11
sg23
I-1
sg24
g21
sg25
(I0
I0
I0
I0
tp56
sg27
S'//130.60.131.134/fiwi_datenbank/SCR_SOURCE/Masterdatenbank neu Export Einzelbilder/FIWI/SCR/8_1_1/003/11/00-04-43.535.png'
p57
sg29
g21
sg30
g21
sg31
I00
sg32
I-1
sba(i__main__
Shot
p58
(dp59
g19
S'12'
p60
sg4
g21
sg22
I3
sg10
g11
sg23
I-1
sg24
g21
sg25
(I0
I0
I0
I0
tp61
sg27
S'//130.60.131.134/fiwi_datenbank/SCR_SOURCE/Masterdatenbank neu Export Einzelbilder/FIWI/SCR/8_1_1/003/12/00-04-50.735.png'
p62
sg29
g21
sg30
g21
sg31
I00
sg32
I-1
sba(i__main__
Shot
p63
(dp64
g19
S'13'
p65
sg4
g21
sg22
I3
sg10
g11
sg23
I-1
sg24
g21
sg25
(I0
I0
I0
I0
tp66
sg27
S'//130.60.131.134/fiwi_datenbank/SCR_SOURCE/Masterdatenbank neu Export Einzelbilder/FIWI/SCR/8_1_1/003/13/00-05-17.335.png'
p67
sg29
g21
sg30
g21
sg31
I00
sg32
I-1
sba(i__main__
Shot
p68
(dp69
g19
S'14'
p70
sg4
g21
sg22
I3
sg10
g11
sg23
I-1
sg24
g21
sg25
(I0
I0
I0
I0
tp71
sg27
S'//130.60.131.134/fiwi_datenbank/SCR_SOURCE/Masterdatenbank neu Export Einzelbilder/FIWI/SCR/8_1_1/003/14/00-05-35.635.png'
p72
sg29
g21
sg30
g21
sg31
I00
sg32
I-1
sba(i__main__
Shot
p73
(dp74
g19
S'15'
p75
sg4
g21
sg22
I3
sg10
g11
sg23
I-1
sg24
g21
sg25
(I0
I0
I0
I0
tp76
sg27
S'//130.60.131.134/fiwi_datenbank/SCR_SOURCE/Masterdatenbank neu Export Einzelbilder/FIWI/SCR/8_1_1/003/15/00-05-46.335.png'
p77
sg29
g21
sg30
g21
sg31
I00
sg32
I-1
sba(i__main__
Shot
p78
(dp79
g19
S'16'
p80
sg4
g21
sg22
I3
sg10
g11
sg23
I-1
sg24
g21
sg25
(I0
I0
I0
I0
tp81
sg27
S'//130.60.131.134/fiwi_datenbank/SCR_SOURCE/Masterdatenbank neu Export Einzelbilder/FIWI/SCR/8_1_1/003/16/00-06-14.735.jpg'
p82
sg29
g21
sg30
g21
sg31
I00
sg32
I-1
sba(i__main__
Shot
p83
(dp84
g19
S'2'
p85
sg4
g21
sg22
I3
sg10
g11
sg23
I-1
sg24
g21
sg25
(I0
I0
I0
I0
tp86
sg27
S'//130.60.131.134/fiwi_datenbank/SCR_SOURCE/Masterdatenbank neu Export Einzelbilder/FIWI/SCR/8_1_1/003/2/00-03-04.035.png'
p87
sg29
g21
sg30
g21
sg31
I00
sg32
I-1
sba(i__main__
Shot
p88
(dp89
g19
S'3'
p90
sg4
g21
sg22
I3
sg10
g11
sg23
I-1
sg24
g21
sg25
(I0
I0
I0
I0
tp91
sg27
S'//130.60.131.134/fiwi_datenbank/SCR_SOURCE/Masterdatenbank neu Export Einzelbilder/FIWI/SCR/8_1_1/003/3/00-03-11.435.png'
p92
sg29
g21
sg30
g21
sg31
I00
sg32
I-1
sba(i__main__
Shot
p93
(dp94
g19
S'4'
p95
sg4
g21
sg22
I3
sg10
g11
sg23
I-1
sg24
g21
sg25
(I0
I0
I0
I0
tp96
sg27
S'//130.60.131.134/fiwi_datenbank/SCR_SOURCE/Masterdatenbank neu Export Einzelbilder/FIWI/SCR/8_1_1/003/4/00-03-34.135.png'
p97
sg29
g21
sg30
g21
sg31
I00
sg32
I-1
sba(i__main__
Shot
p98
(dp99
g19
S'5'
p100
sg4
g21
sg22
I3
sg10
g11
sg23
I-1
sg24
g21
sg25
(I0
I0
I0
I0
tp101
sg27
S'//130.60.131.134/fiwi_datenbank/SCR_SOURCE/Masterdatenbank neu Export Einzelbilder/FIWI/SCR/8_1_1/003/5/00-03-50.335.png'
p102
sg29
g21
sg30
g21
sg31
I00
sg32
I-1
sba(i__main__
Shot
p103
(dp104
g19
S'6'
p105
sg4
g21
sg22
I3
sg10
g11
sg23
I-1
sg24
g21
sg25
(I0
I0
I0
I0
tp106
sg27
S'//130.60.131.134/fiwi_datenbank/SCR_SOURCE/Masterdatenbank neu Export Einzelbilder/FIWI/SCR/8_1_1/003/6/8_1_1_GoneWithTheWind_Part1_1940_DVD_SCR_003_00-03.png'
p107
sg29
g21
sg30
g21
sg31
I00
sg32
I-1
sba(i__main__
Shot
p108
(dp109
g19
S'7'
p110
sg4
g21
sg22
I3
sg10
g11
sg23
I-1
sg24
g21
sg25
(I0
I0
I0
I0
tp111
sg27
S'//130.60.131.134/fiwi_datenbank/SCR_SOURCE/Masterdatenbank neu Export Einzelbilder/FIWI/SCR/8_1_1/003/7/00-04-00.435.png'
p112
sg29
g21
sg30
g21
sg31
I00
sg32
I-1
sba(i__main__
Shot
p113
(dp114
g19
S'8'
p115
sg4
g21
sg22
I3
sg10
g11
sg23
I-1
sg24
g21
sg25
(I0
I0
I0
I0
tp116
sg27
S'//130.60.131.134/fiwi_datenbank/SCR_SOURCE/Masterdatenbank neu Export Einzelbilder/FIWI/SCR/8_1_1/003/8/00-04-07.535.png'
p117
sg29
g21
sg30
g21
sg31
I00
sg32
I-1
sba(i__main__
Shot
p118
(dp119
g19
S'9'
p120
sg4
g21
sg22
I3
sg10
g11
sg23
I-1
sg24
g21
sg25
(I0
I0
I0
I0
tp121
sg27
S'//130.60.131.134/fiwi_datenbank/SCR_SOURCE/Masterdatenbank neu Export Einzelbilder/FIWI/SCR/8_1_1/003/9/00-04-14.435.png'
p122
sg29
g21
sg30
g21
sg31
I00
sg32
I-1
sba(i__main__
Shot
p123
(dp124
g19
S'1'
p125
sg4
g21
sg22
I4
sg10
g11
sg23
I-1
sg24
g21
sg25
(I0
I0
I0
I0
tp126
sg27
S'//130.60.131.134/fiwi_datenbank/SCR_SOURCE/Masterdatenbank neu Export Einzelbilder/FIWI/SCR/8_1_1/004/1/00-06-14.735.png'
p127
sg29
g21
sg30
g21
sg31
I00
sg32
I-1
sba(i__main__
Shot
p128
(dp129
g19
S'2'
p130
sg4
g21
sg22
I4
sg10
g11
sg23
I-1
sg24
g21
sg25
(I0
I0
I0
I0
tp131
sg27
S'//130.60.131.134/fiwi_datenbank/SCR/8_1_1/4_2_8_1_1.jpg'
p132
sg29
g21
sg30
g21
sg31
I00
sg32
I-1
sba(i__main__
Shot
p133
(dp134
g19
S'1'
p135
sg4
g21
sg22
I5
sg10
g11
sg23
I-1
sg24
g21
sg25
(I0
I0
I0
I0
tp136
sg27
S'//130.60.131.134/fiwi_datenbank/SCR_SOURCE/Masterdatenbank neu Export Einzelbilder/FIWI/SCR/8_1_1/005/1/00-06-45.470.png'
p137
sg29
g21
sg30
g21
sg31
I00
sg32
I-1
sba(i__main__
Shot
p138
(dp139
g19
S'10'
p140
sg4
g21
sg22
I5
sg10
g11
sg23
I-1
sg24
g21
sg25
(I0
I0
I0
I0
tp141
sg27
S'//130.60.131.134/fiwi_datenbank/SCR_SOURCE/Masterdatenbank neu Export Einzelbilder/FIWI/SCR/8_1_1/005/10/00-08-27.270.png'
p142
sg29
g21
sg30
g21
sg31
I00
sg32
I-1
sba(i__main__
Shot
p143
(dp144
g19
S'11'
p145
sg4
g21
sg22
I5
sg10
g11
sg23
I-1
sg24
g21
sg25
(I0
I0
I0
I0
tp146
sg27
S'//130.60.131.134/fiwi_datenbank/SCR_SOURCE/Masterdatenbank neu Export Einzelbilder/FIWI/SCR/8_1_1/005/11/00-08-35.770.png'
p147
sg29
g21
sg30
g21
sg31
I00
sg32
I-1
sba(i__main__
Shot
p148
(dp149
g19
S'12'
p150
sg4
g21
sg22
I5
sg10
g11
sg23
I-1
sg24
g21
sg25
(I0
I0
I0
I0
tp151
sg27
S'//130.60.131.134/fiwi_datenbank/SCR_SOURCE/Masterdatenbank neu Export Einzelbilder/FIWI/SCR/8_1_1/005/12/00-08-39.970.png'
p152
sg29
g21
sg30
g21
sg31
I00
sg32
I-1
sba(i__main__
Shot
p153
(dp154
g19
S'13'
p155
sg4
g21
sg22
I5
sg10
g11
sg23
I-1
sg24
g21
sg25
(I0
I0
I0
I0
tp156
sg27
S'//130.60.131.134/fiwi_datenbank/SCR_SOURCE/Masterdatenbank neu Export Einzelbilder/FIWI/SCR/8_1_1/005/13/00-08-45.070.png'
p157
sg29
g21
sg30
g21
sg31
I00
sg32
I-1
sba(i__main__
Shot
p158
(dp159
g19
S'2'
p160
sg4
g21
sg22
I5
sg10
g11
sg23
I-1
sg24
g21
sg25
(I0
I0
I0
I0
tp161
sg27
S'//130.60.131.134/fiwi_datenbank/SCR_SOURCE/Masterdatenbank neu Export Einzelbilder/FIWI/SCR/8_1_1/005/2/00-06-51.470.png'
p162
sg29
g21
sg30
g21
sg31
I00
sg32
I-1
sba(i__main__
Shot
p163
(dp164
g19
S'3'
p165
sg4
g21
sg22
I5
sg10
g11
sg23
I-1
sg24
g21
sg25
(I0
I0
I0
I0
tp166
sg27
S'//130.60.131.134/fiwi_datenbank/SCR_SOURCE/Masterdatenbank neu Export Einzelbilder/FIWI/SCR/8_1_1/005/3/00-07-02.555.png'
p167
sg29
g21
sg30
g21
sg31
I00
sg32
I-1
sba(i__main__
Shot
p168
(dp169
g19
S'4'
p170
sg4
g21
sg22
I5
sg10
g11
sg23
I-1
sg24
g21
sg25
(I0
I0
I0
I0
tp171
sg27
S'//130.60.131.134/fiwi_datenbank/SCR_SOURCE/Masterdatenbank neu Export Einzelbilder/FIWI/SCR/8_1_1/005/4/00-07-33.770.png'
p172
sg29
g21
sg30
g21
sg31
I00
sg32
I-1
sba(i__main__
Shot
p173
(dp174
g19
S'5'
p175
sg4
g21
sg22
I5
sg10
g11
sg23
I-1
sg24
g21
sg25
(I0
I0
I0
I0
tp176
sg27
S'//130.60.131.134/fiwi_datenbank/SCR_SOURCE/Masterdatenbank neu Export Einzelbilder/FIWI/SCR/8_1_1/005/5/00-07-58.270.png'
p177
sg29
g21
sg30
g21
sg31
I00
sg32
I-1
sba(i__main__
Shot
p178
(dp179
g19
S'6'
p180
sg4
g21
sg22
I5
sg10
g11
sg23
I-1
sg24
g21
sg25
(I0
I0
I0
I0
tp181
sg27
S'//130.60.131.134/fiwi_datenbank/SCR_SOURCE/Masterdatenbank neu Export Einzelbilder/FIWI/SCR/8_1_1/005/6/00-08-13.570.png'
p182
sg29
g21
sg30
g21
sg31
I00
sg32
I-1
sba(i__main__
Shot
p183
(dp184
g19
S'7'
p185
sg4
g21
sg22
I5
sg10
g11
sg23
I-1
sg24
g21
sg25
(I0
I0
I0
I0
tp186
sg27
S'//130.60.131.134/fiwi_datenbank/SCR_SOURCE/Masterdatenbank neu Export Einzelbilder/FIWI/SCR/8_1_1/005/7/00-08-16.870.png'
p187
sg29
g21
sg30
g21
sg31
I00
sg32
I-1
sba(i__main__
Shot
p188
(dp189
g19
S'8'
p190
sg4
g21
sg22
I5
sg10
g11
sg23
I-1
sg24
g21
sg25
(I0
I0
I0
I0
tp191
sg27
S'//130.60.131.134/fiwi_datenbank/SCR_SOURCE/Masterdatenbank neu Export Einzelbilder/FIWI/SCR/8_1_1/005/8/00-08-20.370.png'
p192
sg29
g21
sg30
g21
sg31
I00
sg32
I-1
sba(i__main__
Shot
p193
(dp194
g19
S'9'
p195
sg4
g21
sg22
I5
sg10
g11
sg23
I-1
sg24
g21
sg25
(I0
I0
I0
I0
tp196
sg27
S'//130.60.131.134/fiwi_datenbank/SCR_SOURCE/Masterdatenbank neu Export Einzelbilder/FIWI/SCR/8_1_1/005/9/00-08-24.370.png'
p197
sg29
g21
sg30
g21
sg31
I00
sg32
I-1
sba(i__main__
Shot
p198
(dp199
g19
S'1'
p200
sg4
g21
sg22
I6
sg10
g11
sg23
I-1
sg24
g21
sg25
(I0
I0
I0
I0
tp201
sg27
S'//130.60.131.134/fiwi_datenbank/SCR_SOURCE/Masterdatenbank neu Export Einzelbilder/FIWI/SCR/8_1_1/006/1/00-09-00.083.png'
p202
sg29
g21
sg30
g21
sg31
I00
sg32
I-1
sba(i__main__
Shot
p203
(dp204
g19
S'2'
p205
sg4
g21
sg22
I6
sg10
g11
sg23
I-1
sg24
g21
sg25
(I0
I0
I0
I0
tp206
sg27
S'//130.60.131.134/fiwi_datenbank/SCR_SOURCE/Masterdatenbank neu Export Einzelbilder/FIWI/SCR/8_1_1/006/2/00-09-05.511.png'
p207
sg29
g21
sg30
g21
sg31
I00
sg32
I-1
sba(i__main__
Shot
p208
(dp209
g19
S'3'
p210
sg4
g21
sg22
I6
sg10
g11
sg23
I-1
sg24
g21
sg25
(I0
I0
I0
I0
tp211
sg27
S'//130.60.131.134/fiwi_datenbank/SCR_SOURCE/Masterdatenbank neu Export Einzelbilder/FIWI/SCR/8_1_1/006/3/00-09-08.314.png'
p212
sg29
g21
sg30
g21
sg31
I00
sg32
I-1
sba(i__main__
Shot
p213
(dp214
g19
S'4'
p215
sg4
g21
sg22
I6
sg10
g11
sg23
I-1
sg24
g21
sg25
(I0
I0
I0
I0
tp216
sg27
S'//130.60.131.134/fiwi_datenbank/SCR_SOURCE/Masterdatenbank neu Export Einzelbilder/FIWI/SCR/8_1_1/006/4/00-09-21.883.png'
p217
sg29
g21
sg30
g21
sg31
I00
sg32
I-1
sba(i__main__
Shot
p218
(dp219
g19
S'5'
p220
sg4
g21
sg22
I6
sg10
g11
sg23
I-1
sg24
g21
sg25
(I0
I0
I0
I0
tp221
sg27
S'//130.60.131.134/fiwi_datenbank/SCR_SOURCE/Masterdatenbank neu Export Einzelbilder/FIWI/SCR/8_1_1/006/5/00-09-30.483.png'
p222
sg29
g21
sg30
g21
sg31
I00
sg32
I-1
sba(i__main__
Shot
p223
(dp224
g19
S'1'
p225
sg4
g21
sg22
I7
sg10
g11
sg23
I-1
sg24
g21
sg25
(I0
I0
I0
I0
tp226
sg27
S'//130.60.131.134/fiwi_datenbank/SCR_SOURCE/Masterdatenbank neu Export Einzelbilder/FIWI/SCR/8_1_1/007A/1/00-09-38.412.png'
p227
sg29
g21
sg30
S'A'
p228
sg31
I01
sg32
I-1
sba(i__main__
Shot
p229
(dp230
g19
S'10'
p231
sg4
g21
sg22
I7
sg10
g11
sg23
I-1
sg24
g21
sg25
(I0
I0
I0
I0
tp232
sg27
S'//130.60.131.134/fiwi_datenbank/SCR/8_1_1/7A_10_8_1_1.jpg'
p233
sg29
g21
sg30
g228
sg31
I01
sg32
I-1
sba(i__main__
Shot
p234
(dp235
g19
S'11'
p236
sg4
g21
sg22
I7
sg10
g11
sg23
I-1
sg24
g21
sg25
(I0
I0
I0
I0
tp237
sg27
S'//130.60.131.134/fiwi_datenbank/SCR_SOURCE/Masterdatenbank neu Export Einzelbilder/FIWI/SCR/8_1_1/007A/11/00-10-29.512.png'
p238
sg29
g21
sg30
g228
sg31
I01
sg32
I-1
sba(i__main__
Shot
p239
(dp240
g19
S'12'
p241
sg4
g21
sg22
I7
sg10
g11
sg23
I-1
sg24
g21
sg25
(I0
I0
I0
I0
tp242
sg27
S'//130.60.131.134/fiwi_datenbank/SCR_SOURCE/Masterdatenbank neu Export Einzelbilder/FIWI/SCR/8_1_1/007A/12/00-10-44.712.png'
p243
sg29
g21
sg30
g228
sg31
I01
sg32
I-1
sba(i__main__
Shot
p244
(dp245
g19
S'13'
p246
sg4
g21
sg22
I7
sg10
g11
sg23
I-1
sg24
g21
sg25
(I0
I0
I0
I0
tp247
sg27
S'//130.60.131.134/fiwi_datenbank/SCR_SOURCE/Masterdatenbank neu Export Einzelbilder/FIWI/SCR/8_1_1/007A/13/00-11-04.512.png'
p248
sg29
g21
sg30
g228
sg31
I01
sg32
I-1
sba(i__main__
Shot
p249
(dp250
g19
S'14'
p251
sg4
g21
sg22
I7
sg10
g11
sg23
I-1
sg24
g21
sg25
(I0
I0
I0
I0
tp252
sg27
S'//130.60.131.134/fiwi_datenbank/SCR_SOURCE/Masterdatenbank neu Export Einzelbilder/FIWI/SCR/8_1_1/007A/14/00-11-15.312.png'
p253
sg29
g21
sg30
g228
sg31
I01
sg32
I-1
sba(i__main__
Shot
p254
(dp255
g19
S'15'
p256
sg4
g21
sg22
I7
sg10
g11
sg23
I-1
sg24
g21
sg25
(I0
I0
I0
I0
tp257
sg27
S'//130.60.131.134/fiwi_datenbank/SCR_SOURCE/Masterdatenbank neu Export Einzelbilder/FIWI/SCR/8_1_1/007A/15/00-11-20.912.jpg'
p258
sg29
g21
sg30
g228
sg31
I01
sg32
I-1
sba(i__main__
Shot
p259
(dp260
g19
S'16'
p261
sg4
g21
sg22
I7
sg10
g11
sg23
I-1
sg24
g21
sg25
(I0
I0
I0
I0
tp262
sg27
S'//130.60.131.134/fiwi_datenbank/SCR_SOURCE/Masterdatenbank neu Export Einzelbilder/FIWI/SCR/8_1_1/007A/16/00-11-31.612.png'
p263
sg29
g21
sg30
g228
sg31
I01
sg32
I-1
sba(i__main__
Shot
p264
(dp265
g19
S'2'
p266
sg4
g21
sg22
I7
sg10
g11
sg23
I-1
sg24
g21
sg25
(I0
I0
I0
I0
tp267
sg27
S'//130.60.131.134/fiwi_datenbank/SCR_SOURCE/Masterdatenbank neu Export Einzelbilder/FIWI/SCR/8_1_1/007A/2/00-09-42.812.png'
p268
sg29
g21
sg30
g228
sg31
I01
sg32
I-1
sba(i__main__
Shot
p269
(dp270
g19
S'3'
p271
sg4
g21
sg22
I7
sg10
g11
sg23
I-1
sg24
g21
sg25
(I0
I0
I0
I0
tp272
sg27
S'//130.60.131.134/fiwi_datenbank/SCR_SOURCE/Masterdatenbank neu Export Einzelbilder/FIWI/SCR/8_1_1/007A/3/00-09-47.112.png'
p273
sg29
g21
sg30
g228
sg31
I01
sg32
I-1
sba(i__main__
Shot
p274
(dp275
g19
S'4'
p276
sg4
g21
sg22
I7
sg10
g11
sg23
I-1
sg24
g21
sg25
(I0
I0
I0
I0
tp277
sg27
S'//130.60.131.134/fiwi_datenbank/SCR_SOURCE/Masterdatenbank neu Export Einzelbilder/FIWI/SCR/8_1_1/007A/4/00-09-52.012.png'
p278
sg29
g21
sg30
g228
sg31
I01
sg32
I-1
sba(i__main__
Shot
p279
(dp280
g19
S'5'
p281
sg4
g21
sg22
I7
sg10
g11
sg23
I-1
sg24
g21
sg25
(I0
I0
I0
I0
tp282
sg27
S'//130.60.131.134/fiwi_datenbank/SCR_SOURCE/Masterdatenbank neu Export Einzelbilder/FIWI/SCR/8_1_1/007A/5/00-09-53.412.png'
p283
sg29
g21
sg30
g228
sg31
I01
sg32
I-1
sba(i__main__
Shot
p284
(dp285
g19
S'6'
p286
sg4
g21
sg22
I7
sg10
g11
sg23
I-1
sg24
g21
sg25
(I0
I0
I0
I0
tp287
sg27
S'//130.60.131.134/fiwi_datenbank/SCR_SOURCE/Masterdatenbank neu Export Einzelbilder/FIWI/SCR/8_1_1/007A/6/00-09-57.912.png'
p288
sg29
g21
sg30
g228
sg31
I01
sg32
I-1
sba(i__main__
Shot
p289
(dp290
g19
S'7'
p291
sg4
g21
sg22
I7
sg10
g11
sg23
I-1
sg24
g21
sg25
(I0
I0
I0
I0
tp292
sg27
S'//130.60.131.134/fiwi_datenbank/SCR_SOURCE/Masterdatenbank neu Export Einzelbilder/FIWI/SCR/8_1_1/007A/7/00-10-01.612.png'
p293
sg29
g21
sg30
g228
sg31
I01
sg32
I-1
sba(i__main__
Shot
p294
(dp295
g19
S'8'
p296
sg4
g21
sg22
I7
sg10
g11
sg23
I-1
sg24
g21
sg25
(I0
I0
I0
I0
tp297
sg27
S'//130.60.131.134/fiwi_datenbank/SCR_SOURCE/Masterdatenbank neu Export Einzelbilder/FIWI/SCR/8_1_1/007A/8/00-10-04.012.png'
p298
sg29
g21
sg30
g228
sg31
I01
sg32
I-1
sba(i__main__
Shot
p299
(dp300
g19
S'9'
p301
sg4
g21
sg22
I7
sg10
g11
sg23
I-1
sg24
g21
sg25
(I0
I0
I0
I0
tp302
sg27
S'//130.60.131.134/fiwi_datenbank/SCR_SOURCE/Masterdatenbank neu Export Einzelbilder/FIWI/SCR/8_1_1/007A/9/00-10-10.312.png'
p303
sg29
g21
sg30
g228
sg31
I01
sg32
I-1
sba(i__main__
Shot
p304
(dp305
g19
S'1'
p306
sg4
g21
sg22
I7
sg10
g11
sg23
I-1
sg24
g21
sg25
(I0
I0
I0
I0
tp307
sg27
S'//130.60.131.134/fiwi_datenbank/SCR_SOURCE/Masterdatenbank neu Export Einzelbilder/FIWI/SCR/8_1_1/007B/1/00-11-48.912.png'
p308
sg29
g21
sg30
S'B'
p309
sg31
I01
sg32
I-1
sba(i__main__
Shot
p310
(dp311
g19
S'2'
p312
sg4
g21
sg22
I7
sg10
g11
sg23
I-1
sg24
g21
sg25
(I0
I0
I0
I0
tp313
sg27
S'//130.60.131.134/fiwi_datenbank/SCR_SOURCE/Masterdatenbank neu Export Einzelbilder/FIWI/SCR/8_1_1/007B/2/00-12-08.112.png'
p314
sg29
g21
sg30
g309
sg31
I01
sg32
I-1
sba(i__main__
Shot
p315
(dp316
g19
S'3'
p317
sg4
g21
sg22
I7
sg10
g11
sg23
I-1
sg24
g21
sg25
(I0
I0
I0
I0
tp318
sg27
S'//130.60.131.134/fiwi_datenbank/SCR_SOURCE/Masterdatenbank neu Export Einzelbilder/FIWI/SCR/8_1_1/007B/3/00-12-15.312.png'
p319
sg29
g21
sg30
g309
sg31
I01
sg32
I-1
sba(i__main__
Shot
p320
(dp321
g19
S'4'
p322
sg4
g21
sg22
I7
sg10
g11
sg23
I-1
sg24
g21
sg25
(I0
I0
I0
I0
tp323
sg27
S'//130.60.131.134/fiwi_datenbank/SCR_SOURCE/Masterdatenbank neu Export Einzelbilder/FIWI/SCR/8_1_1/007B/4/00-12-36.712.png'
p324
sg29
g21
sg30
g309
sg31
I01
sg32
I-1
sba(i__main__
Shot
p325
(dp326
g19
S'1'
p327
sg4
g21
sg22
I8
sg10
g11
sg23
I-1
sg24
g21
sg25
(I0
I0
I0
I0
tp328
sg27
S'//130.60.131.134/fiwi_datenbank/SCR_SOURCE/Masterdatenbank neu Export Einzelbilder/FIWI/SCR/8_1_1/008/1/00-12-41.427.png'
p329
sg29
g21
sg30
g21
sg31
I00
sg32
I-1
sba(i__main__
Shot
p330
(dp331
g19
S'10'
p332
sg4
g21
sg22
I8
sg10
g11
sg23
I-1
sg24
g21
sg25
(I0
I0
I0
I0
tp333
sg27
S'//130.60.131.134/fiwi_datenbank/SCR/8_1_1/8_10_8_1_1.jpg'
p334
sg29
g21
sg30
g21
sg31
I00
sg32
I-1
sba(i__main__
Shot
p335
(dp336
g19
S'11'
p337
sg4
g21
sg22
I8
sg10
g11
sg23
I-1
sg24
g21
sg25
(I0
I0
I0
I0
tp338
sg27
S'//130.60.131.134/fiwi_datenbank/SCR_SOURCE/Masterdatenbank neu Export Einzelbilder/FIWI/SCR/8_1_1/008/11/00-14-12.118.png'
p339
sg29
g21
sg30
g21
sg31
I00
sg32
I-1
sba(i__main__
Shot
p340
(dp341
g19
S'12'
p342
sg4
g21
sg22
I8
sg10
g11
sg23
I-1
sg24
g21
sg25
(I0
I0
I0
I0
tp343
sg27
S'//130.60.131.134/fiwi_datenbank/SCR_SOURCE/Masterdatenbank neu Export Einzelbilder/FIWI/SCR/8_1_1/008/12/8_1_1_GoneWithTheWind_Part1_1940_DVD_SCR_008_00-14.png'
p344
sg29
g21
sg30
g21
sg31
I00
sg32
I-1
sba(i__main__
Shot
p345
(dp346
g19
S'13'
p347
sg4
g21
sg22
I8
sg10
g11
sg23
I-1
sg24
g21
sg25
(I0
I0
I0
I0
tp348
sg27
S'//130.60.131.134/fiwi_datenbank/SCR_SOURCE/Masterdatenbank neu Export Einzelbilder/FIWI/SCR/8_1_1/008/13/00-14-27.967.png'
p349
sg29
g21
sg30
g21
sg31
I00
sg32
I-1
sba(i__main__
Shot
p350
(dp351
g19
S'14'
p352
sg4
g21
sg22
I8
sg10
g11
sg23
I-1
sg24
g21
sg25
(I0
I0
I0
I0
tp353
sg27
S'//130.60.131.134/fiwi_datenbank/SCR_SOURCE/Masterdatenbank neu Export Einzelbilder/FIWI/SCR/8_1_1/008/14/00-14-43.115.png'
p354
sg29
g21
sg30
g21
sg31
I00
sg32
I-1
sba(i__main__
Shot
p355
(dp356
g19
S'2'
p357
sg4
g21
sg22
I8
sg10
g11
sg23
I-1
sg24
g21
sg25
(I0
I0
I0
I0
tp358
sg27
S'//130.60.131.134/fiwi_datenbank/SCR_SOURCE/Masterdatenbank neu Export Einzelbilder/FIWI/SCR/8_1_1/008/2/00-12-47.891.png'
p359
sg29
g21
sg30
g21
sg31
I00
sg32
I-1
sba(i__main__
Shot
p360
(dp361
g19
S'3'
p362
sg4
g21
sg22
I8
sg10
g11
sg23
I-1
sg24
g21
sg25
(I0
I0
I0
I0
tp363
sg27
S'//130.60.131.134/fiwi_datenbank/SCR_SOURCE/Masterdatenbank neu Export Einzelbilder/FIWI/SCR/8_1_1/008/3/00-12-53.491.png'
p364
sg29
g21
sg30
g21
sg31
I00
sg32
I-1
sba(i__main__
Shot
p365
(dp366
g19
S'4'
p367
sg4
g21
sg22
I8
sg10
g11
sg23
I-1
sg24
g21
sg25
(I0
I0
I0
I0
tp368
sg27
S'//130.60.131.134/fiwi_datenbank/SCR_SOURCE/Masterdatenbank neu Export Einzelbilder/FIWI/SCR/8_1_1/008/4/00-12-59.111.png'
p369
sg29
g21
sg30
g21
sg31
I00
sg32
I-1
sba(i__main__
Shot
p370
(dp371
g19
S'5'
p372
sg4
g21
sg22
I8
sg10
g11
sg23
I-1
sg24
g21
sg25
(I0
I0
I0
I0
tp373
sg27
S'//130.60.131.134/fiwi_datenbank/SCR_SOURCE/Masterdatenbank neu Export Einzelbilder/FIWI/SCR/8_1_1/008/5/00-13-03.249.png'
p374
sg29
g21
sg30
g21
sg31
I00
sg32
I-1
sba(i__main__
Shot
p375
(dp376
g19
S'6'
p377
sg4
g21
sg22
I8
sg10
g11
sg23
I-1
sg24
g21
sg25
(I0
I0
I0
I0
tp378
sg27
S'//130.60.131.134/fiwi_datenbank/SCR_SOURCE/Masterdatenbank neu Export Einzelbilder/FIWI/SCR/8_1_1/008/6/00-13-12.558.png'
p379
sg29
g21
sg30
g21
sg31
I00
sg32
I-1
sba(i__main__
Shot
p380
(dp381
g19
S'7'
p382
sg4
g21
sg22
I8
sg10
g11
sg23
I-1
sg24
g21
sg25
(I0
I0
I0
I0
tp383
sg27
S'//130.60.131.134/fiwi_datenbank/SCR_SOURCE/Masterdatenbank neu Export Einzelbilder/FIWI/SCR/8_1_1/008/7/00-13-15.795.jpg'
p384
sg29
g21
sg30
g21
sg31
I00
sg32
I-1
sba(i__main__
Shot
p385
(dp386
g19
S'8'
p387
sg4
g21
sg22
I8
sg10
g11
sg23
I-1
sg24
g21
sg25
(I0
I0
I0
I0
tp388
sg27
S'//130.60.131.134/fiwi_datenbank/SCR_SOURCE/Masterdatenbank neu Export Einzelbilder/FIWI/SCR/8_1_1/008/8/00-13-29.609.png'
p389
sg29
g21
sg30
g21
sg31
I00
sg32
I-1
sba(i__main__
Shot
p390
(dp391
g19
S'9'
p392
sg4
g21
sg22
I8
sg10
g11
sg23
I-1
sg24
g21
sg25
(I0
I0
I0
I0
tp393
sg27
S'//130.60.131.134/fiwi_datenbank/SCR_SOURCE/Masterdatenbank neu Export Einzelbilder/FIWI/SCR/8_1_1/008/9/00-13-45.409.png'
p394
sg29
g21
sg30
g21
sg31
I00
sg32
I-1
sba(i__main__
Shot
p395
(dp396
g19
S'1'
p397
sg4
g21
sg22
I9
sg10
g11
sg23
I-1
sg24
g21
sg25
(I0
I0
I0
I0
tp398
sg27
S'//130.60.131.134/fiwi_datenbank/SCR_SOURCE/Masterdatenbank neu Export Einzelbilder/FIWI/SCR/8_1_1/009/1/00-14-59.832.png'
p399
sg29
g21
sg30
g21
sg31
I00
sg32
I-1
sba(i__main__
Shot
p400
(dp401
g19
S'2'
p402
sg4
g21
sg22
I9
sg10
g11
sg23
I-1
sg24
g21
sg25
(I0
I0
I0
I0
tp403
sg27
S'//130.60.131.134/fiwi_datenbank/SCR_SOURCE/Masterdatenbank neu Export Einzelbilder/FIWI/SCR/8_1_1/009/2/00-15-02.591.png'
p404
sg29
g21
sg30
g21
sg31
I00
sg32
I-1
sba(i__main__
Shot
p405
(dp406
g19
S'3'
p407
sg4
g21
sg22
I9
sg10
g11
sg23
I-1
sg24
g21
sg25
(I0
I0
I0
I0
tp408
sg27
S'//130.60.131.134/fiwi_datenbank/SCR_SOURCE/Masterdatenbank neu Export Einzelbilder/FIWI/SCR/8_1_1/009/3/00-15-06.191.png'
p409
sg29
g21
sg30
g21
sg31
I00
sg32
I-1
sba(i__main__
Shot
p410
(dp411
g19
S'4'
p412
sg4
g21
sg22
I9
sg10
g11
sg23
I-1
sg24
g21
sg25
(I0
I0
I0
I0
tp413
sg27
S'//130.60.131.134/fiwi_datenbank/SCR_SOURCE/Masterdatenbank neu Export Einzelbilder/FIWI/SCR/8_1_1/009/4/00-15-17.416.png'
p414
sg29
g21
sg30
g21
sg31
I00
sg32
I-1
sba(i__main__
Shot
p415
(dp416
g19
S'5'
p417
sg4
g21
sg22
I9
sg10
g11
sg23
I-1
sg24
g21
sg25
(I0
I0
I0
I0
tp418
sg27
S'//130.60.131.134/fiwi_datenbank/SCR_SOURCE/Masterdatenbank neu Export Einzelbilder/FIWI/SCR/8_1_1/009/5/00-15-24.724.png'
p419
sg29
g21
sg30
g21
sg31
I00
sg32
I-1
sba(i__main__
Shot
p420
(dp421
g19
S'1'
p422
sg4
g21
sg22
I10
sg10
g11
sg23
I-1
sg24
g21
sg25
(I0
I0
I0
I0
tp423
sg27
S'//130.60.131.134/fiwi_datenbank/SCR_SOURCE/Masterdatenbank neu Export Einzelbilder/FIWI/SCR/8_1_1/010/1/00-15-31.891.png'
p424
sg29
g21
sg30
g21
sg31
I00
sg32
I-1
sba(i__main__
Shot
p425
(dp426
g19
S'10'
p427
sg4
g21
sg22
I10
sg10
g11
sg23
I-1
sg24
g21
sg25
(I0
I0
I0
I0
tp428
sg27
S'//130.60.131.134/fiwi_datenbank/SCR_SOURCE/Masterdatenbank neu Export Einzelbilder/FIWI/SCR/8_1_1/010/10/00-17-07.491.png'
p429
sg29
g21
sg30
g21
sg31
I00
sg32
I-1
sba(i__main__
Shot
p430
(dp431
g19
S'11'
p432
sg4
g21
sg22
I10
sg10
g11
sg23
I-1
sg24
g21
sg25
(I0
I0
I0
I0
tp433
sg27
S'//130.60.131.134/fiwi_datenbank/SCR/8_1_1/10_11_8_1_1.jpg'
p434
sg29
g21
sg30
g21
sg31
I00
sg32
I-1
sba(i__main__
Shot
p435
(dp436
g19
S'12'
p437
sg4
g21
sg22
I10
sg10
g11
sg23
I-1
sg24
g21
sg25
(I0
I0
I0
I0
tp438
sg27
S'//130.60.131.134/fiwi_datenbank/SCR_SOURCE/Masterdatenbank neu Export Einzelbilder/FIWI/SCR/8_1_1/010/12/00-17-27.691.png'
p439
sg29
g21
sg30
g21
sg31
I00
sg32
I-1
sba(i__main__
Shot
p440
(dp441
g19
S'13'
p442
sg4
g21
sg22
I10
sg10
g11
sg23
I-1
sg24
g21
sg25
(I0
I0
I0
I0
tp443
sg27
S'//130.60.131.134/fiwi_datenbank/SCR_SOURCE/Masterdatenbank neu Export Einzelbilder/FIWI/SCR/8_1_1/010/13/00-17-28.991.png'
p444
sg29
g21
sg30
g21
sg31
I00
sg32
I-1
sba(i__main__
Shot
p445
(dp446
g19
S'14'
p447
sg4
g21
sg22
I10
sg10
g11
sg23
I-1
sg24
g21
sg25
(I0
I0
I0
I0
tp448
sg27
S'//130.60.131.134/fiwi_datenbank/SCR_SOURCE/Masterdatenbank neu Export Einzelbilder/FIWI/SCR/8_1_1/010/14/00-17-36.091.png'
p449
sg29
g21
sg30
g21
sg31
I00
sg32
I-1
sba(i__main__
Shot
p450
(dp451
g19
S'15'
p452
sg4
g21
sg22
I10
sg10
g11
sg23
I-1
sg24
g21
sg25
(I0
I0
I0
I0
tp453
sg27
S'//130.60.131.134/fiwi_datenbank/SCR_SOURCE/Masterdatenbank neu Export Einzelbilder/FIWI/SCR/8_1_1/010/15/00-17-39.091.png'
p454
sg29
g21
sg30
g21
sg31
I00
sg32
I-1
sba(i__main__
Shot
p455
(dp456
g19
S'16'
p457
sg4
g21
sg22
I10
sg10
g11
sg23
I-1
sg24
g21
sg25
(I0
I0
I0
I0
tp458
sg27
S'//130.60.131.134/fiwi_datenbank/SCR_SOURCE/Masterdatenbank neu Export Einzelbilder/FIWI/SCR/8_1_1/010/16/00-17-42.991.png'
p459
sg29
g21
sg30
g21
sg31
I00
sg32
I-1
sba(i__main__
Shot
p460
(dp461
g19
S'2'
p462
sg4
g21
sg22
I10
sg10
g11
sg23
I-1
sg24
g21
sg25
(I0
I0
I0
I0
tp463
sg27
S'//130.60.131.134/fiwi_datenbank/SCR_SOURCE/Masterdatenbank neu Export Einzelbilder/FIWI/SCR/8_1_1/010/2/00-15-38.691.png'
p464
sg29
g21
sg30
g21
sg31
I00
sg32
I-1
sba(i__main__
Shot
p465
(dp466
g19
S'3'
p467
sg4
g21
sg22
I10
sg10
g11
sg23
I-1
sg24
g21
sg25
(I0
I0
I0
I0
tp468
sg27
S'//130.60.131.134/fiwi_datenbank/SCR_SOURCE/Masterdatenbank neu Export Einzelbilder/FIWI/SCR/8_1_1/010/3/00-15-44.991.png'
p469
sg29
g21
sg30
g21
sg31
I00
sg32
I-1
sba(i__main__
Shot
p470
(dp471
g19
S'4'
p472
sg4
g21
sg22
I10
sg10
g11
sg23
I-1
sg24
g21
sg25
(I0
I0
I0
I0
tp473
sg27
S'//130.60.131.134/fiwi_datenbank/SCR_SOURCE/Masterdatenbank neu Export Einzelbilder/FIWI/SCR/8_1_1/010/4/00-16-01.891.bmp'
p474
sg29
g21
sg30
g21
sg31
I00
sg32
I-1
sba(i__main__
Shot
p475
(dp476
g19
S'5'
p477
sg4
g21
sg22
I10
sg10
g11
sg23
I-1
sg24
g21
sg25
(I0
I0
I0
I0
tp478
sg27
S'//130.60.131.134/fiwi_datenbank/SCR_SOURCE/Masterdatenbank neu Export Einzelbilder/FIWI/SCR/8_1_1/010/5/00-16-04.891.png'
p479
sg29
g21
sg30
g21
sg31
I00
sg32
I-1
sba(i__main__
Shot
p480
(dp481
g19
S'6'
p482
sg4
g21
sg22
I10
sg10
g11
sg23
I-1
sg24
g21
sg25
(I0
I0
I0
I0
tp483
sg27
S'//130.60.131.134/fiwi_datenbank/SCR_SOURCE/Masterdatenbank neu Export Einzelbilder/FIWI/SCR/8_1_1/010/6/00-16-15.991.png'
p484
sg29
g21
sg30
g21
sg31
I00
sg32
I-1
sba(i__main__
Shot
p485
(dp486
g19
S'7'
p487
sg4
g21
sg22
I10
sg10
g11
sg23
I-1
sg24
g21
sg25
(I0
I0
I0
I0
tp488
sg27
S'//130.60.131.134/fiwi_datenbank/SCR_SOURCE/Masterdatenbank neu Export Einzelbilder/FIWI/SCR/8_1_1/010/7/00-16-40.991.png'
p489
sg29
g21
sg30
g21
sg31
I00
sg32
I-1
sba(i__main__
Shot
p490
(dp491
g19
S'8'
p492
sg4
g21
sg22
I10
sg10
g11
sg23
I-1
sg24
g21
sg25
(I0
I0
I0
I0
tp493
sg27
S'//130.60.131.134/fiwi_datenbank/SCR_SOURCE/Masterdatenbank neu Export Einzelbilder/FIWI/SCR/8_1_1/010/8/00-16-44.391.png'
p494
sg29
g21
sg30
g21
sg31
I00
sg32
I-1
sba(i__main__
Shot
p495
(dp496
g19
S'9'
p497
sg4
g21
sg22
I10
sg10
g11
sg23
I-1
sg24
g21
sg25
(I0
I0
I0
I0
tp498
sg27
S'//130.60.131.134/fiwi_datenbank/SCR_SOURCE/Masterdatenbank neu Export Einzelbilder/FIWI/SCR/8_1_1/010/9/00-17-05.891.png'
p499
sg29
g21
sg30
g21
sg31
I00
sg32
I-1
sba(i__main__
Shot
p500
(dp501
g19
S'1'
p502
sg4
g21
sg22
I11
sg10
g11
sg23
I-1
sg24
g21
sg25
(I0
I0
I0
I0
tp503
sg27
S'//130.60.131.134/fiwi_datenbank/SCR_SOURCE/Masterdatenbank neu Export Einzelbilder/FIWI/SCR/8_1_1/011/1/00-17-52.142.png'
p504
sg29
g21
sg30
g21
sg31
I00
sg32
I-1
sba(i__main__
Shot
p505
(dp506
g19
S'10'
p507
sg4
g21
sg22
I11
sg10
g11
sg23
I-1
sg24
g21
sg25
(I0
I0
I0
I0
tp508
sg27
S'//130.60.131.134/fiwi_datenbank/SCR_SOURCE/Masterdatenbank neu Export Einzelbilder/FIWI/SCR/8_1_1/011/10/00-19-40.442.png'
p509
sg29
g21
sg30
g21
sg31
I00
sg32
I-1
sba(i__main__
Shot
p510
(dp511
g19
S'11'
p512
sg4
g21
sg22
I11
sg10
g11
sg23
I-1
sg24
g21
sg25
(I0
I0
I0
I0
tp513
sg27
S'//130.60.131.134/fiwi_datenbank/SCR_SOURCE/Masterdatenbank neu Export Einzelbilder/FIWI/SCR/8_1_1/011/11/00-19-54.142.png'
p514
sg29
g21
sg30
g21
sg31
I00
sg32
I-1
sba(i__main__
Shot
p515
(dp516
g19
S'12'
p517
sg4
g21
sg22
I11
sg10
g11
sg23
I-1
sg24
g21
sg25
(I0
I0
I0
I0
tp518
sg27
S'//130.60.131.134/fiwi_datenbank/SCR_SOURCE/Masterdatenbank neu Export Einzelbilder/FIWI/SCR/8_1_1/011/12/00-20-04.842.png'
p519
sg29
g21
sg30
g21
sg31
I00
sg32
I-1
sba(i__main__
Shot
p520
(dp521
g19
S'13'
p522
sg4
g21
sg22
I11
sg10
g11
sg23
I-1
sg24
g21
sg25
(I0
I0
I0
I0
tp523
sg27
S'//130.60.131.134/fiwi_datenbank/SCR_SOURCE/Masterdatenbank neu Export Einzelbilder/FIWI/SCR/8_1_1/011/13/00-20-16.342.png'
p524
sg29
g21
sg30
g21
sg31
I00
sg32
I-1
sba(i__main__
Shot
p525
(dp526
g19
S'14'
p527
sg4
g21
sg22
I11
sg10
g11
sg23
I-1
sg24
g21
sg25
(I0
I0
I0
I0
tp528
sg27
S'//130.60.131.134/fiwi_datenbank/SCR_SOURCE/Masterdatenbank neu Export Einzelbilder/FIWI/SCR/8_1_1/011/14/00-20-24.042.png'
p529
sg29
g21
sg30
g21
sg31
I00
sg32
I-1
sba(i__main__
Shot
p530
(dp531
g19
S'15'
p532
sg4
g21
sg22
I11
sg10
g11
sg23
I-1
sg24
g21
sg25
(I0
I0
I0
I0
tp533
sg27
S'//130.60.131.134/fiwi_datenbank/SCR/8_1_1/11_15_8_1_1.jpg'
p534
sg29
g21
sg30
g21
sg31
I00
sg32
I-1
sba(i__main__
Shot
p535
(dp536
g19
S'16'
p537
sg4
g21
sg22
I11
sg10
g11
sg23
I-1
sg24
g21
sg25
(I0
I0
I0
I0
tp538
sg27
S'//130.60.131.134/fiwi_datenbank/SCR_SOURCE/Masterdatenbank neu Export Einzelbilder/FIWI/SCR/8_1_1/011/16/00-20-48.942.png'
p539
sg29
g21
sg30
g21
sg31
I00
sg32
I-1
sba(i__main__
Shot
p540
(dp541
g19
S'17'
p542
sg4
g21
sg22
I11
sg10
g11
sg23
I-1
sg24
g21
sg25
(I0
I0
I0
I0
tp543
sg27
S'//130.60.131.134/fiwi_datenbank/SCR_SOURCE/Masterdatenbank neu Export Einzelbilder/FIWI/SCR/8_1_1/011/17/00-20-51.842.png'
p544
sg29
g21
sg30
g21
sg31
I00
sg32
I-1
sba(i__main__
Shot
p545
(dp546
g19
S'18'
p547
sg4
g21
sg22
I11
sg10
g11
sg23
I-1
sg24
g21
sg25
(I0
I0
I0
I0
tp548
sg27
S'//130.60.131.134/fiwi_datenbank/SCR_SOURCE/Masterdatenbank neu Export Einzelbilder/FIWI/SCR/8_1_1/011/18/00-21-04.242.png'
p549
sg29
g21
sg30
g21
sg31
I00
sg32
I-1
sba(i__main__
Shot
p550
(dp551
g19
S'19'
p552
sg4
g21
sg22
I11
sg10
g11
sg23
I-1
sg24
g21
sg25
(I0
I0
I0
I0
tp553
sg27
S'//130.60.131.134/fiwi_datenbank/SCR_SOURCE/Masterdatenbank neu Export Einzelbilder/FIWI/SCR/8_1_1/011/19/00-21-11.642.png'
p554
sg29
g21
sg30
g21
sg31
I00
sg32
I-1
sba(i__main__
Shot
p555
(dp556
g19
S'2'
p557
sg4
g21
sg22
I11
sg10
g11
sg23
I-1
sg24
g21
sg25
(I0
I0
I0
I0
tp558
sg27
S'//130.60.131.134/fiwi_datenbank/SCR_SOURCE/Masterdatenbank neu Export Einzelbilder/FIWI/SCR/8_1_1/011/2/00-18-08.742.png'
p559
sg29
g21
sg30
g21
sg31
I00
sg32
I-1
sba(i__main__
Shot
p560
(dp561
g19
S'20'
p562
sg4
g21
sg22
I11
sg10
g11
sg23
I-1
sg24
g21
sg25
(I0
I0
I0
I0
tp563
sg27
S'//130.60.131.134/fiwi_datenbank/SCR_SOURCE/Masterdatenbank neu Export Einzelbilder/FIWI/SCR/8_1_1/011/20/00-21-16.342.png'
p564
sg29
g21
sg30
g21
sg31
I00
sg32
I-1
sba(i__main__
Shot
p565
(dp566
g19
S'21'
p567
sg4
g21
sg22
I11
sg10
g11
sg23
I-1
sg24
g21
sg25
(I0
I0
I0
I0
tp568
sg27
S'//130.60.131.134/fiwi_datenbank/SCR_SOURCE/Masterdatenbank neu Export Einzelbilder/FIWI/SCR/8_1_1/011/21/00-21-21.842.png'
p569
sg29
g21
sg30
g21
sg31
I00
sg32
I-1
sba(i__main__
Shot
p570
(dp571
g19
S'22'
p572
sg4
g21
sg22
I11
sg10
g11
sg23
I-1
sg24
g21
sg25
(I0
I0
I0
I0
tp573
sg27
S'//130.60.131.134/fiwi_datenbank/SCR_SOURCE/Masterdatenbank neu Export Einzelbilder/FIWI/SCR/8_1_1/011/22/00-21-37.642.png'
p574
sg29
g21
sg30
g21
sg31
I00
sg32
I-1
sba(i__main__
Shot
p575
(dp576
g19
S'23'
p577
sg4
g21
sg22
I11
sg10
g11
sg23
I-1
sg24
g21
sg25
(I0
I0
I0
I0
tp578
sg27
S'//130.60.131.134/fiwi_datenbank/SCR_SOURCE/Masterdatenbank neu Export Einzelbilder/FIWI/SCR/8_1_1/011/23/00-21-40.542.png'
p579
sg29
g21
sg30
g21
sg31
I00
sg32
I-1
sba(i__main__
Shot
p580
(dp581
g19
S'24'
p582
sg4
g21
sg22
I11
sg10
g11
sg23
I-1
sg24
g21
sg25
(I0
I0
I0
I0
tp583
sg27
S'//130.60.131.134/fiwi_datenbank/SCR_SOURCE/Masterdatenbank neu Export Einzelbilder/FIWI/SCR/8_1_1/011/24/00-21-45.342.png'
p584
sg29
g21
sg30
g21
sg31
I00
sg32
I-1
sba(i__main__
Shot
p585
(dp586
g19
S'3'
p587
sg4
g21
sg22
I11
sg10
g11
sg23
I-1
sg24
g21
sg25
(I0
I0
I0
I0
tp588
sg27
S'//130.60.131.134/fiwi_datenbank/SCR_SOURCE/Masterdatenbank neu Export Einzelbilder/FIWI/SCR/8_1_1/011/3/00-18-17.342.png'
p589
sg29
g21
sg30
g21
sg31
I00
sg32
I-1
sba(i__main__
Shot
p590
(dp591
g19
S'4'
p592
sg4
g21
sg22
I11
sg10
g11
sg23
I-1
sg24
g21
sg25
(I0
I0
I0
I0
tp593
sg27
S'//130.60.131.134/fiwi_datenbank/SCR_SOURCE/Masterdatenbank neu Export Einzelbilder/FIWI/SCR/8_1_1/011/4/00-18-27.342.png'
p594
sg29
g21
sg30
g21
sg31
I00
sg32
I-1
sba(i__main__
Shot
p595
(dp596
g19
S'5'
p597
sg4
g21
sg22
I11
sg10
g11
sg23
I-1
sg24
g21
sg25
(I0
I0
I0
I0
tp598
sg27
S'//130.60.131.134/fiwi_datenbank/SCR_SOURCE/Masterdatenbank neu Export Einzelbilder/FIWI/SCR/8_1_1/011/5/00-18-45.342.png'
p599
sg29
g21
sg30
g21
sg31
I00
sg32
I-1
sba(i__main__
Shot
p600
(dp601
g19
S'6'
p602
sg4
g21
sg22
I11
sg10
g11
sg23
I-1
sg24
g21
sg25
(I0
I0
I0
I0
tp603
sg27
S'//130.60.131.134/fiwi_datenbank/SCR_SOURCE/Masterdatenbank neu Export Einzelbilder/FIWI/SCR/8_1_1/011/6/00-18-56.842.png'
p604
sg29
g21
sg30
g21
sg31
I00
sg32
I-1
sba(i__main__
Shot
p605
(dp606
g19
S'7'
p607
sg4
g21
sg22
I11
sg10
g11
sg23
I-1
sg24
g21
sg25
(I0
I0
I0
I0
tp608
sg27
S'//130.60.131.134/fiwi_datenbank/SCR_SOURCE/Masterdatenbank neu Export Einzelbilder/FIWI/SCR/8_1_1/011/7/00-19-05.742.png'
p609
sg29
g21
sg30
g21
sg31
I00
sg32
I-1
sba(i__main__
Shot
p610
(dp611
g19
S'8'
p612
sg4
g21
sg22
I11
sg10
g11
sg23
I-1
sg24
g21
sg25
(I0
I0
I0
I0
tp613
sg27
S'//130.60.131.134/fiwi_datenbank/SCR_SOURCE/Masterdatenbank neu Export Einzelbilder/FIWI/SCR/8_1_1/011/8/00-19-12.142.png'
p614
sg29
g21
sg30
g21
sg31
I00
sg32
I-1
sba(i__main__
Shot
p615
(dp616
g19
S'9'
p617
sg4
g21
sg22
I11
sg10
g11
sg23
I-1
sg24
g21
sg25
(I0
I0
I0
I0
tp618
sg27
S'//130.60.131.134/fiwi_datenbank/SCR_SOURCE/Masterdatenbank neu Export Einzelbilder/FIWI/SCR/8_1_1/011/9/00-19-35.542.png'
p619
sg29
g21
sg30
g21
sg31
I00
sg32
I-1
sba(i__main__
Shot
p620
(dp621
g19
S'1'
p622
sg4
g21
sg22
I12
sg10
g11
sg23
I-1
sg24
g21
sg25
(I0
I0
I0
I0
tp623
sg27
S'//130.60.131.134/fiwi_datenbank/SCR_SOURCE/Masterdatenbank neu Export Einzelbilder/FIWI/SCR/8_1_1/012/1/00-22-40.159.png'
p624
sg29
g21
sg30
g21
sg31
I00
sg32
I-1
sba(i__main__
Shot
p625
(dp626
g19
S'2'
p627
sg4
g21
sg22
I12
sg10
g11
sg23
I-1
sg24
g21
sg25
(I0
I0
I0
I0
tp628
sg27
S'//130.60.131.134/fiwi_datenbank/SCR_SOURCE/Masterdatenbank neu Export Einzelbilder/FIWI/SCR/8_1_1/012/2/00-22-48.542.png'
p629
sg29
g21
sg30
g21
sg31
I00
sg32
I-1
sba(i__main__
Shot
p630
(dp631
g19
S'3'
p632
sg4
g21
sg22
I12
sg10
g11
sg23
I-1
sg24
g21
sg25
(I0
I0
I0
I0
tp633
sg27
S'//130.60.131.134/fiwi_datenbank/SCR/8_1_1/12_3_8_1_1.jpg'
p634
sg29
g21
sg30
g21
sg31
I00
sg32
I-1
sba(i__main__
Shot
p635
(dp636
g19
S'4'
p637
sg4
g21
sg22
I12
sg10
g11
sg23
I-1
sg24
g21
sg25
(I0
I0
I0
I0
tp638
sg27
S'//130.60.131.134/fiwi_datenbank/SCR_SOURCE/Masterdatenbank neu Export Einzelbilder/FIWI/SCR/8_1_1/012/4/00-23-10.099.png'
p639
sg29
g21
sg30
g21
sg31
I00
sg32
I-1
sba(i__main__
Shot
p640
(dp641
g19
S'1'
p642
sg4
g21
sg22
I13
sg10
g11
sg23
I-1
sg24
g21
sg25
(I0
I0
I0
I0
tp643
sg27
S'//130.60.131.134/fiwi_datenbank/SCR_SOURCE/Masterdatenbank neu Export Einzelbilder/FIWI/SCR/8_1_1/013/1/00-23-24.500.png'
p644
sg29
g21
sg30
g21
sg31
I00
sg32
I-1
sba(i__main__
Shot
p645
(dp646
g19
S'2'
p647
sg4
g21
sg22
I13
sg10
g11
sg23
I-1
sg24
g21
sg25
(I0
I0
I0
I0
tp648
sg27
S'//130.60.131.134/fiwi_datenbank/SCR_SOURCE/Masterdatenbank neu Export Einzelbilder/FIWI/SCR/8_1_1/013/2/00-23-35.113.png'
p649
sg29
g21
sg30
g21
sg31
I00
sg32
I-1
sba(i__main__
Shot
p650
(dp651
g19
S'3'
p652
sg4
g21
sg22
I13
sg10
g11
sg23
I-1
sg24
g21
sg25
(I0
I0
I0
I0
tp653
sg27
S'//130.60.131.134/fiwi_datenbank/SCR_SOURCE/Masterdatenbank neu Export Einzelbilder/FIWI/SCR/8_1_1/013/3/00-23-37.600.png'
p654
sg29
g21
sg30
g21
sg31
I00
sg32
I-1
sba(i__main__
Shot
p655
(dp656
g19
S'4'
p657
sg4
g21
sg22
I13
sg10
g11
sg23
I-1
sg24
g21
sg25
(I0
I0
I0
I0
tp658
sg27
S'//130.60.131.134/fiwi_datenbank/SCR_SOURCE/Masterdatenbank neu Export Einzelbilder/FIWI/SCR/8_1_1/013/4/00-23-46.425.png'
p659
sg29
g21
sg30
g21
sg31
I00
sg32
I-1
sba(i__main__
Shot
p660
(dp661
g19
S'5'
p662
sg4
g21
sg22
I13
sg10
g11
sg23
I-1
sg24
g21
sg25
(I0
I0
I0
I0
tp663
sg27
S'//130.60.131.134/fiwi_datenbank/SCR_SOURCE/Masterdatenbank neu Export Einzelbilder/FIWI/SCR/8_1_1/013/5/00-23-53.765.png'
p664
sg29
g21
sg30
g21
sg31
I00
sg32
I-1
sba(i__main__
Shot
p665
(dp666
g19
S'6'
p667
sg4
g21
sg22
I13
sg10
g11
sg23
I-1
sg24
g21
sg25
(I0
I0
I0
I0
tp668
sg27
S'//130.60.131.134/fiwi_datenbank/SCR_SOURCE/Masterdatenbank neu Export Einzelbilder/FIWI/SCR/8_1_1/013/6/00-23-57.436.png'
p669
sg29
g21
sg30
g21
sg31
I00
sg32
I-1
sba(i__main__
Shot
p670
(dp671
g19
S'7'
p672
sg4
g21
sg22
I13
sg10
g11
sg23
I-1
sg24
g21
sg25
(I0
I0
I0
I0
tp673
sg27
S'//130.60.131.134/fiwi_datenbank/SCR_SOURCE/Masterdatenbank neu Export Einzelbilder/FIWI/SCR/8_1_1/013/7/00-24-08.500.png'
p674
sg29
g21
sg30
g21
sg31
I00
sg32
I-1
sba(i__main__
Shot
p675
(dp676
g19
S'1'
p677
sg4
g21
sg22
I14
sg10
g11
sg23
I-1
sg24
g21
sg25
(I0
I0
I0
I0
tp678
sg27
S'//130.60.131.134/fiwi_datenbank/SCR_SOURCE/Masterdatenbank neu Export Einzelbilder/FIWI/SCR/8_1_1/014/1/00-24-14.000.png'
p679
sg29
g21
sg30
g21
sg31
I00
sg32
I-1
sba(i__main__
Shot
p680
(dp681
g19
S'2'
p682
sg4
g21
sg22
I14
sg10
g11
sg23
I-1
sg24
g21
sg25
(I0
I0
I0
I0
tp683
sg27
S'//130.60.131.134/fiwi_datenbank/SCR_SOURCE/Masterdatenbank neu Export Einzelbilder/FIWI/SCR/8_1_1/014/2/00-24-17.700.png'
p684
sg29
g21
sg30
g21
sg31
I00
sg32
I-1
sba(i__main__
Shot
p685
(dp686
g19
S'3'
p687
sg4
g21
sg22
I14
sg10
g11
sg23
I-1
sg24
g21
sg25
(I0
I0
I0
I0
tp688
sg27
S'//130.60.131.134/fiwi_datenbank/SCR_SOURCE/Masterdatenbank neu Export Einzelbilder/FIWI/SCR/8_1_1/014/3/00-24-34.900.png'
p689
sg29
g21
sg30
g21
sg31
I00
sg32
I-1
sba(i__main__
Shot
p690
(dp691
g19
S'4'
p692
sg4
g21
sg22
I14
sg10
g11
sg23
I-1
sg24
g21
sg25
(I0
I0
I0
I0
tp693
sg27
S'//130.60.131.134/fiwi_datenbank/SCR_SOURCE/Masterdatenbank neu Export Einzelbilder/FIWI/SCR/8_1_1/014/4/00-24-36.800.png'
p694
sg29
g21
sg30
g21
sg31
I00
sg32
I-1
sba(i__main__
Shot
p695
(dp696
g19
S'5'
p697
sg4
g21
sg22
I14
sg10
g11
sg23
I-1
sg24
g21
sg25
(I0
I0
I0
I0
tp698
sg27
S'//130.60.131.134/fiwi_datenbank/SCR_SOURCE/Masterdatenbank neu Export Einzelbilder/FIWI/SCR/8_1_1/014/5/00-24-46.300.png'
p699
sg29
g21
sg30
g21
sg31
I00
sg32
I-1
sba(i__main__
Shot
p700
(dp701
g19
S'6'
p702
sg4
g21
sg22
I14
sg10
g11
sg23
I-1
sg24
g21
sg25
(I0
I0
I0
I0
tp703
sg27
S'//130.60.131.134/fiwi_datenbank/SCR_SOURCE/Masterdatenbank neu Export Einzelbilder/FIWI/SCR/8_1_1/014/6/00-24-54.100.png'
p704
sg29
g21
sg30
g21
sg31
I00
sg32
I-1
sba(i__main__
Shot
p705
(dp706
g19
S'1'
p707
sg4
g21
sg22
I15
sg10
g11
sg23
I-1
sg24
g21
sg25
(I0
I0
I0
I0
tp708
sg27
S'//130.60.131.134/fiwi_datenbank/SCR_SOURCE/Masterdatenbank neu Export Einzelbilder/FIWI/SCR/8_1_1/015/1/8_1_1_GoneWithTheWind_Part1_1940_DVD_SCR_015_00-25.png'
p709
sg29
g21
sg30
g21
sg31
I00
sg32
I-1
sba(i__main__
Shot
p710
(dp711
g19
S'2'
p712
sg4
g21
sg22
I15
sg10
g11
sg23
I-1
sg24
g21
sg25
(I0
I0
I0
I0
tp713
sg27
S'//130.60.131.134/fiwi_datenbank/SCR_SOURCE/Masterdatenbank neu Export Einzelbilder/FIWI/SCR/8_1_1/015/2/8_1_1_GoneWithTheWind_Part1_1940_DVD_SCR_015_00-25.png'
p714
sg29
g21
sg30
g21
sg31
I00
sg32
I-1
sba(i__main__
Shot
p715
(dp716
g19
S'1'
p717
sg4
g21
sg22
I16
sg10
g11
sg23
I-1
sg24
g21
sg25
(I0
I0
I0
I0
tp718
sg27
S'//130.60.131.134/fiwi_datenbank/SCR_SOURCE/Masterdatenbank neu Export Einzelbilder/FIWI/SCR/8_1_1/016/1/00-25-12.800.png'
p719
sg29
g21
sg30
g21
sg31
I00
sg32
I-1
sba(i__main__
Shot
p720
(dp721
g19
S'2'
p722
sg4
g21
sg22
I16
sg10
g11
sg23
I-1
sg24
g21
sg25
(I0
I0
I0
I0
tp723
sg27
S'//130.60.131.134/fiwi_datenbank/SCR_SOURCE/Masterdatenbank neu Export Einzelbilder/FIWI/SCR/8_1_1/016/2/00-25-19.451.png'
p724
sg29
g21
sg30
g21
sg31
I00
sg32
I-1
sba(i__main__
Shot
p725
(dp726
g19
S'3'
p727
sg4
g21
sg22
I16
sg10
g11
sg23
I-1
sg24
g21
sg25
(I0
I0
I0
I0
tp728
sg27
S'//130.60.131.134/fiwi_datenbank/SCR_SOURCE/Masterdatenbank neu Export Einzelbilder/FIWI/SCR/8_1_1/016/3/00-25-22.000.png'
p729
sg29
g21
sg30
g21
sg31
I00
sg32
I-1
sba(i__main__
Shot
p730
(dp731
g19
S'4'
p732
sg4
g21
sg22
I16
sg10
g11
sg23
I-1
sg24
g21
sg25
(I0
I0
I0
I0
tp733
sg27
S'//130.60.131.134/fiwi_datenbank/SCR/8_1_1/16_4_8_1_1.jpg'
p734
sg29
g21
sg30
g21
sg31
I00
sg32
I-1
sba(i__main__
Shot
p735
(dp736
g19
S'5'
p737
sg4
g21
sg22
I16
sg10
g11
sg23
I-1
sg24
g21
sg25
(I0
I0
I0
I0
tp738
sg27
S'//130.60.131.134/fiwi_datenbank/SCR_SOURCE/Masterdatenbank neu Export Einzelbilder/FIWI/SCR/8_1_1/016/5/00-25-36.100.png'
p739
sg29
g21
sg30
g21
sg31
I00
sg32
I-1
sba(i__main__
Shot
p740
(dp741
g19
S'6'
p742
sg4
g21
sg22
I16
sg10
g11
sg23
I-1
sg24
g21
sg25
(I0
I0
I0
I0
tp743
sg27
S'//130.60.131.134/fiwi_datenbank/SCR_SOURCE/Masterdatenbank neu Export Einzelbilder/FIWI/SCR/8_1_1/016/6/00-25-40.200.png'
p744
sg29
g21
sg30
g21
sg31
I00
sg32
I-1
sba(i__main__
Shot
p745
(dp746
g19
S'7'
p747
sg4
g21
sg22
I16
sg10
g11
sg23
I-1
sg24
g21
sg25
(I0
I0
I0
I0
tp748
sg27
S'//130.60.131.134/fiwi_datenbank/SCR_SOURCE/Masterdatenbank neu Export Einzelbilder/FIWI/SCR/8_1_1/016/7/00-25-42.100.png'
p749
sg29
g21
sg30
g21
sg31
I00
sg32
I-1
sba(i__main__
Shot
p750
(dp751
g19
S'1'
p752
sg4
g21
sg22
I17
sg10
g11
sg23
I-1
sg24
g21
sg25
(I0
I0
I0
I0
tp753
sg27
S'//130.60.131.134/fiwi_datenbank/SCR_SOURCE/Masterdatenbank neu Export Einzelbilder/FIWI/SCR/8_1_1/017A/1/00-25-48.158.png'
p754
sg29
g21
sg30
S'A'
p755
sg31
I01
sg32
I-1
sba(i__main__
Shot
p756
(dp757
g19
S'2'
p758
sg4
g21
sg22
I17
sg10
g11
sg23
I-1
sg24
g21
sg25
(I0
I0
I0
I0
tp759
sg27
S'//130.60.131.134/fiwi_datenbank/SCR_SOURCE/Masterdatenbank neu Export Einzelbilder/FIWI/SCR/8_1_1/017A/2/00-26-06.758.png'
p760
sg29
g21
sg30
g755
sg31
I01
sg32
I-1
sba(i__main__
Shot
p761
(dp762
g19
S'3'
p763
sg4
g21
sg22
I17
sg10
g11
sg23
I-1
sg24
g21
sg25
(I0
I0
I0
I0
tp764
sg27
S'//130.60.131.134/fiwi_datenbank/SCR_SOURCE/Masterdatenbank neu Export Einzelbilder/FIWI/SCR/8_1_1/017A/3/00-28-00.258.png'
p765
sg29
g21
sg30
g755
sg31
I01
sg32
I-1
sba(i__main__
Shot
p766
(dp767
g19
S'4'
p768
sg4
g21
sg22
I17
sg10
g11
sg23
I-1
sg24
g21
sg25
(I0
I0
I0
I0
tp769
sg27
S'//130.60.131.134/fiwi_datenbank/SCR_SOURCE/Masterdatenbank neu Export Einzelbilder/FIWI/SCR/8_1_1/017A/4/00-28-03.658.png'
p770
sg29
g21
sg30
g755
sg31
I01
sg32
I-1
sba(i__main__
Shot
p771
(dp772
g19
S'5'
p773
sg4
g21
sg22
I17
sg10
g11
sg23
I-1
sg24
g21
sg25
(I0
I0
I0
I0
tp774
sg27
S'//130.60.131.134/fiwi_datenbank/SCR_SOURCE/Masterdatenbank neu Export Einzelbilder/FIWI/SCR/8_1_1/017A/5/00-28-32.858.png'
p775
sg29
g21
sg30
g755
sg31
I01
sg32
I-1
sba(i__main__
Shot
p776
(dp777
g19
S'6'
p778
sg4
g21
sg22
I17
sg10
g11
sg23
I-1
sg24
g21
sg25
(I0
I0
I0
I0
tp779
sg27
S'//130.60.131.134/fiwi_datenbank/SCR_SOURCE/Masterdatenbank neu Export Einzelbilder/FIWI/SCR/8_1_1/017A/6/00-28-34.958.png'
p780
sg29
g21
sg30
g755
sg31
I01
sg32
I-1
sba(i__main__
Shot
p781
(dp782
g19
S'7'
p783
sg4
g21
sg22
I17
sg10
g11
sg23
I-1
sg24
g21
sg25
(I0
I0
I0
I0
tp784
sg27
S'//130.60.131.134/fiwi_datenbank/SCR_SOURCE/Masterdatenbank neu Export Einzelbilder/FIWI/SCR/8_1_1/017A/7/00-28-37.758.png'
p785
sg29
g21
sg30
g755
sg31
I01
sg32
I-1
sba(i__main__
Shot
p786
(dp787
g19
S'8'
p788
sg4
g21
sg22
I17
sg10
g11
sg23
I-1
sg24
g21
sg25
(I0
I0
I0
I0
tp789
sg27
S'//130.60.131.134/fiwi_datenbank/SCR_SOURCE/Masterdatenbank neu Export Einzelbilder/FIWI/SCR/8_1_1/017A/8/00-28-40.258.png'
p790
sg29
g21
sg30
g755
sg31
I01
sg32
I-1
sba(i__main__
Shot
p791
(dp792
g19
S'9'
p793
sg4
g21
sg22
I17
sg10
g11
sg23
I-1
sg24
g21
sg25
(I0
I0
I0
I0
tp794
sg27
S'//130.60.131.134/fiwi_datenbank/SCR_SOURCE/Masterdatenbank neu Export Einzelbilder/FIWI/SCR/8_1_1/017A/9/00-28-44.358.png'
p795
sg29
g21
sg30
g755
sg31
I01
sg32
I-1
sba(i__main__
Shot
p796
(dp797
g19
S'1'
p798
sg4
g21
sg22
I17
sg10
g11
sg23
I-1
sg24
g21
sg25
(I0
I0
I0
I0
tp799
sg27
S'//130.60.131.134/fiwi_datenbank/SCR_SOURCE/Masterdatenbank neu Export Einzelbilder/FIWI/SCR/8_1_1/017B/1/00-26-08.400.png'
p800
sg29
g21
sg30
S'B'
p801
sg31
I01
sg32
I-1
sba(i__main__
Shot
p802
(dp803
g19
S'10'
p804
sg4
g21
sg22
I17
sg10
g11
sg23
I-1
sg24
g21
sg25
(I0
I0
I0
I0
tp805
sg27
S'//130.60.131.134/fiwi_datenbank/SCR_SOURCE/Masterdatenbank neu Export Einzelbilder/FIWI/SCR/8_1_1/017B/10/00-27-58.409.png'
p806
sg29
g21
sg30
g801
sg31
I01
sg32
I-1
sba(i__main__
Shot
p807
(dp808
g19
S'2'
p809
sg4
g21
sg22
I17
sg10
g11
sg23
I-1
sg24
g21
sg25
(I0
I0
I0
I0
tp810
sg27
S'//130.60.131.134/fiwi_datenbank/SCR_SOURCE/Masterdatenbank neu Export Einzelbilder/FIWI/SCR/8_1_1/017B/2/00-26-16.000.png'
p811
sg29
g21
sg30
g801
sg31
I01
sg32
I-1
sba(i__main__
Shot
p812
(dp813
g19
S'3'
p814
sg4
g21
sg22
I17
sg10
g11
sg23
I-1
sg24
g21
sg25
(I0
I0
I0
I0
tp815
sg27
S'//130.60.131.134/fiwi_datenbank/SCR_SOURCE/Masterdatenbank neu Export Einzelbilder/FIWI/SCR/8_1_1/017B/3/00-26-24.000.png'
p816
sg29
g21
sg30
g801
sg31
I01
sg32
I-1
sba(i__main__
Shot
p817
(dp818
g19
S'4'
p819
sg4
g21
sg22
I17
sg10
g11
sg23
I-1
sg24
g21
sg25
(I0
I0
I0
I0
tp820
sg27
S'//130.60.131.134/fiwi_datenbank/SCR_SOURCE/Masterdatenbank neu Export Einzelbilder/FIWI/SCR/8_1_1/017B/4/00-26-27.700.png'
p821
sg29
g21
sg30
g801
sg31
I01
sg32
I-1
sba(i__main__
Shot
p822
(dp823
g19
S'5'
p824
sg4
g21
sg22
I17
sg10
g11
sg23
I-1
sg24
g21
sg25
(I0
I0
I0
I0
tp825
sg27
S'//130.60.131.134/fiwi_datenbank/SCR_SOURCE/Masterdatenbank neu Export Einzelbilder/FIWI/SCR/8_1_1/017B/5/00-26-46.900.png'
p826
sg29
g21
sg30
g801
sg31
I01
sg32
I-1
sba(i__main__
Shot
p827
(dp828
g19
S'6'
p829
sg4
g21
sg22
I17
sg10
g11
sg23
I-1
sg24
g21
sg25
(I0
I0
I0
I0
tp830
sg27
S'//130.60.131.134/fiwi_datenbank/SCR_SOURCE/Masterdatenbank neu Export Einzelbilder/FIWI/SCR/8_1_1/017B/6/00-26-52.300.png'
p831
sg29
g21
sg30
g801
sg31
I01
sg32
I-1
sba(i__main__
Shot
p832
(dp833
g19
S'7'
p834
sg4
g21
sg22
I17
sg10
g11
sg23
I-1
sg24
g21
sg25
(I0
I0
I0
I0
tp835
sg27
S'//130.60.131.134/fiwi_datenbank/SCR/8_1_1/17B_7_8_1_1.jpg'
p836
sg29
g21
sg30
g801
sg31
I01
sg32
I-1
sba(i__main__
Shot
p837
(dp838
g19
S'8'
p839
sg4
g21
sg22
I17
sg10
g11
sg23
I-1
sg24
g21
sg25
(I0
I0
I0
I0
tp840
sg27
S'//130.60.131.134/fiwi_datenbank/SCR_SOURCE/Masterdatenbank neu Export Einzelbilder/FIWI/SCR/8_1_1/017B/8/00-27-41.009.bmp'
p841
sg29
g21
sg30
g801
sg31
I01
sg32
I-1
sba(i__main__
Shot
p842
(dp843
g19
S'9'
p844
sg4
g21
sg22
I17
sg10
g11
sg23
I-1
sg24
g21
sg25
(I0
I0
I0
I0
tp845
sg27
S'//130.60.131.134/fiwi_datenbank/SCR_SOURCE/Masterdatenbank neu Export Einzelbilder/FIWI/SCR/8_1_1/017B/9/00-27-45.109.png'
p846
sg29
g21
sg30
g801
sg31
I01
sg32
I-1
sba(i__main__
Shot
p847
(dp848
g19
S'1'
p849
sg4
g21
sg22
I18
sg10
g11
sg23
I-1
sg24
g21
sg25
(I0
I0
I0
I0
tp850
sg27
S'//130.60.131.134/fiwi_datenbank/SCR_SOURCE/Masterdatenbank neu Export Einzelbilder/FIWI/SCR/8_1_1/018/1/00-28-53.109.png'
p851
sg29
g21
sg30
g21
sg31
I00
sg32
I-1
sba(i__main__
Shot
p852
(dp853
g19
S'10'
p854
sg4
g21
sg22
I18
sg10
g11
sg23
I-1
sg24
g21
sg25
(I0
I0
I0
I0
tp855
sg27
S'//130.60.131.134/fiwi_datenbank/SCR_SOURCE/Masterdatenbank neu Export Einzelbilder/FIWI/SCR/8_1_1/018/10/00-30-18.209.png'
p856
sg29
g21
sg30
g21
sg31
I00
sg32
I-1
sba(i__main__
Shot
p857
(dp858
g19
S'11'
p859
sg4
g21
sg22
I18
sg10
g11
sg23
I-1
sg24
g21
sg25
(I0
I0
I0
I0
tp860
sg27
S'//130.60.131.134/fiwi_datenbank/SCR_SOURCE/Masterdatenbank neu Export Einzelbilder/FIWI/SCR/8_1_1/018/11/00-30-21.609.png'
p861
sg29
g21
sg30
g21
sg31
I00
sg32
I-1
sba(i__main__
Shot
p862
(dp863
g19
S'12'
p864
sg4
g21
sg22
I18
sg10
g11
sg23
I-1
sg24
g21
sg25
(I0
I0
I0
I0
tp865
sg27
S'//130.60.131.134/fiwi_datenbank/SCR_SOURCE/Masterdatenbank neu Export Einzelbilder/FIWI/SCR/8_1_1/018/12/00-30-44.809.png'
p866
sg29
g21
sg30
g21
sg31
I00
sg32
I-1
sba(i__main__
Shot
p867
(dp868
g19
S'13'
p869
sg4
g21
sg22
I18
sg10
g11
sg23
I-1
sg24
g21
sg25
(I0
I0
I0
I0
tp870
sg27
S'//130.60.131.134/fiwi_datenbank/SCR_SOURCE/Masterdatenbank neu Export Einzelbilder/FIWI/SCR/8_1_1/018/13/00-30-50.109.png'
p871
sg29
g21
sg30
g21
sg31
I00
sg32
I-1
sba(i__main__
Shot
p872
(dp873
g19
S'14'
p874
sg4
g21
sg22
I18
sg10
g11
sg23
I-1
sg24
g21
sg25
(I0
I0
I0
I0
tp875
sg27
S'//130.60.131.134/fiwi_datenbank/SCR_SOURCE/Masterdatenbank neu Export Einzelbilder/FIWI/SCR/8_1_1/018/14/00-31-06.809.png'
p876
sg29
g21
sg30
g21
sg31
I00
sg32
I-1
sba(i__main__
Shot
p877
(dp878
g19
S'15'
p879
sg4
g21
sg22
I18
sg10
g11
sg23
I-1
sg24
g21
sg25
(I0
I0
I0
I0
tp880
sg27
S'//130.60.131.134/fiwi_datenbank/SCR_SOURCE/Masterdatenbank neu Export Einzelbilder/FIWI/SCR/8_1_1/018/15/00-31-11.209.png'
p881
sg29
g21
sg30
g21
sg31
I00
sg32
I-1
sba(i__main__
Shot
p882
(dp883
g19
S'16'
p884
sg4
g21
sg22
I18
sg10
g11
sg23
I-1
sg24
g21
sg25
(I0
I0
I0
I0
tp885
sg27
S'//130.60.131.134/fiwi_datenbank/SCR_SOURCE/Masterdatenbank neu Export Einzelbilder/FIWI/SCR/8_1_1/018/16/00-31-16.909.png'
p886
sg29
g21
sg30
g21
sg31
I00
sg32
I-1
sba(i__main__
Shot
p887
(dp888
g19
S'17'
p889
sg4
g21
sg22
I18
sg10
g11
sg23
I-1
sg24
g21
sg25
(I0
I0
I0
I0
tp890
sg27
S'//130.60.131.134/fiwi_datenbank/SCR_SOURCE/Masterdatenbank neu Export Einzelbilder/FIWI/SCR/8_1_1/018/17/00-31-18.284.png'
p891
sg29
g21
sg30
g21
sg31
I00
sg32
I-1
sba(i__main__
Shot
p892
(dp893
g19
S'18'
p894
sg4
g21
sg22
I18
sg10
g11
sg23
I-1
sg24
g21
sg25
(I0
I0
I0
I0
tp895
sg27
S'//130.60.131.134/fiwi_datenbank/SCR_SOURCE/Masterdatenbank neu Export Einzelbilder/FIWI/SCR/8_1_1/018/18/00-31-21.609.png'
p896
sg29
g21
sg30
g21
sg31
I00
sg32
I-1
sba(i__main__
Shot
p897
(dp898
g19
S'19'
p899
sg4
g21
sg22
I18
sg10
g11
sg23
I-1
sg24
g21
sg25
(I0
I0
I0
I0
tp900
sg27
S'//130.60.131.134/fiwi_datenbank/SCR_SOURCE/Masterdatenbank neu Export Einzelbilder/FIWI/SCR/8_1_1/018/19/00-31-26.709.png'
p901
sg29
g21
sg30
g21
sg31
I00
sg32
I-1
sba(i__main__
Shot
p902
(dp903
g19
S'2'
p904
sg4
g21
sg22
I18
sg10
g11
sg23
I-1
sg24
g21
sg25
(I0
I0
I0
I0
tp905
sg27
S'//130.60.131.134/fiwi_datenbank/SCR_SOURCE/Masterdatenbank neu Export Einzelbilder/FIWI/SCR/8_1_1/018/2/00-29-04.042.png'
p906
sg29
g21
sg30
g21
sg31
I00
sg32
I-1
sba(i__main__
Shot
p907
(dp908
g19
S'20'
p909
sg4
g21
sg22
I18
sg10
g11
sg23
I-1
sg24
g21
sg25
(I0
I0
I0
I0
tp910
sg27
S'//130.60.131.134/fiwi_datenbank/SCR_SOURCE/Masterdatenbank neu Export Einzelbilder/FIWI/SCR/8_1_1/018/20/00-31-34.609.png'
p911
sg29
g21
sg30
g21
sg31
I00
sg32
I-1
sba(i__main__
Shot
p912
(dp913
g19
S'21'
p914
sg4
g21
sg22
I18
sg10
g11
sg23
I-1
sg24
g21
sg25
(I0
I0
I0
I0
tp915
sg27
S'//130.60.131.134/fiwi_datenbank/SCR_SOURCE/Masterdatenbank neu Export Einzelbilder/FIWI/SCR/8_1_1/018/21/00-31-39.352.png'
p916
sg29
g21
sg30
g21
sg31
I00
sg32
I-1
sba(i__main__
Shot
p917
(dp918
g19
S'22'
p919
sg4
g21
sg22
I18
sg10
g11
sg23
I-1
sg24
g21
sg25
(I0
I0
I0
I0
tp920
sg27
S'//130.60.131.134/fiwi_datenbank/SCR_SOURCE/Masterdatenbank neu Export Einzelbilder/FIWI/SCR/8_1_1/018/22/00-31-47.709.png'
p921
sg29
g21
sg30
g21
sg31
I00
sg32
I-1
sba(i__main__
Shot
p922
(dp923
g19
S'23'
p924
sg4
g21
sg22
I18
sg10
g11
sg23
I-1
sg24
g21
sg25
(I0
I0
I0
I0
tp925
sg27
S'//130.60.131.134/fiwi_datenbank/SCR_SOURCE/Masterdatenbank neu Export Einzelbilder/FIWI/SCR/8_1_1/018/23/00-31-49.809.png'
p926
sg29
g21
sg30
g21
sg31
I00
sg32
I-1
sba(i__main__
Shot
p927
(dp928
g19
S'24'
p929
sg4
g21
sg22
I18
sg10
g11
sg23
I-1
sg24
g21
sg25
(I0
I0
I0
I0
tp930
sg27
S'//130.60.131.134/fiwi_datenbank/SCR_SOURCE/Masterdatenbank neu Export Einzelbilder/FIWI/SCR/8_1_1/018/24/00-32-06.320.png'
p931
sg29
g21
sg30
g21
sg31
I00
sg32
I-1
sba(i__main__
Shot
p932
(dp933
g19
S'3'
p934
sg4
g21
sg22
I18
sg10
g11
sg23
I-1
sg24
g21
sg25
(I0
I0
I0
I0
tp935
sg27
S'//130.60.131.134/fiwi_datenbank/SCR/8_1_1/18_3_8_1_1.jpg'
p936
sg29
g21
sg30
g21
sg31
I00
sg32
I-1
sba(i__main__
Shot
p937
(dp938
g19
S'4'
p939
sg4
g21
sg22
I18
sg10
g11
sg23
I-1
sg24
g21
sg25
(I0
I0
I0
I0
tp940
sg27
S'//130.60.131.134/fiwi_datenbank/SCR_SOURCE/Masterdatenbank neu Export Einzelbilder/FIWI/SCR/8_1_1/018/4/00-29-20.809.png'
p941
sg29
g21
sg30
g21
sg31
I00
sg32
I-1
sba(i__main__
Shot
p942
(dp943
g19
S'5'
p944
sg4
g21
sg22
I18
sg10
g11
sg23
I-1
sg24
g21
sg25
(I0
I0
I0
I0
tp945
sg27
S'//130.60.131.134/fiwi_datenbank/SCR_SOURCE/Masterdatenbank neu Export Einzelbilder/FIWI/SCR/8_1_1/018/5/00-29-23.409.png'
p946
sg29
g21
sg30
g21
sg31
I00
sg32
I-1
sba(i__main__
Shot
p947
(dp948
g19
S'6'
p949
sg4
g21
sg22
I18
sg10
g11
sg23
I-1
sg24
g21
sg25
(I0
I0
I0
I0
tp950
sg27
S'//130.60.131.134/fiwi_datenbank/SCR_SOURCE/Masterdatenbank neu Export Einzelbilder/FIWI/SCR/8_1_1/018/6/00-29-31.109.png'
p951
sg29
g21
sg30
g21
sg31
I00
sg32
I-1
sba(i__main__
Shot
p952
(dp953
g19
S'7'
p954
sg4
g21
sg22
I18
sg10
g11
sg23
I-1
sg24
g21
sg25
(I0
I0
I0
I0
tp955
sg27
S'//130.60.131.134/fiwi_datenbank/SCR_SOURCE/Masterdatenbank neu Export Einzelbilder/FIWI/SCR/8_1_1/018/7/00-29-40.809.png'
p956
sg29
g21
sg30
g21
sg31
I00
sg32
I-1
sba(i__main__
Shot
p957
(dp958
g19
S'8'
p959
sg4
g21
sg22
I18
sg10
g11
sg23
I-1
sg24
g21
sg25
(I0
I0
I0
I0
tp960
sg27
S'//130.60.131.134/fiwi_datenbank/SCR_SOURCE/Masterdatenbank neu Export Einzelbilder/FIWI/SCR/8_1_1/018/8/00-29-55.809.png'
p961
sg29
g21
sg30
g21
sg31
I00
sg32
I-1
sba(i__main__
Shot
p962
(dp963
g19
S'9'
p964
sg4
g21
sg22
I18
sg10
g11
sg23
I-1
sg24
g21
sg25
(I0
I0
I0
I0
tp965
sg27
S'//130.60.131.134/fiwi_datenbank/SCR_SOURCE/Masterdatenbank neu Export Einzelbilder/FIWI/SCR/8_1_1/018/9/00-30-11.409.png'
p966
sg29
g21
sg30
g21
sg31
I00
sg32
I-1
sba(i__main__
Shot
p967
(dp968
g19
S'1'
p969
sg4
g21
sg22
I19
sg10
g11
sg23
I-1
sg24
g21
sg25
(I0
I0
I0
I0
tp970
sg27
S'//130.60.131.134/fiwi_datenbank/SCR_SOURCE/Masterdatenbank neu Export Einzelbilder/FIWI/SCR/8_1_1/019/1/00-32-13.412.png'
p971
sg29
g21
sg30
g21
sg31
I00
sg32
I-1
sba(i__main__
Shot
p972
(dp973
g19
S'10'
p974
sg4
g21
sg22
I19
sg10
g11
sg23
I-1
sg24
g21
sg25
(I0
I0
I0
I0
tp975
sg27
S'//130.60.131.134/fiwi_datenbank/SCR_SOURCE/Masterdatenbank neu Export Einzelbilder/FIWI/SCR/8_1_1/019/10/00-33-00.276.png'
p976
sg29
g21
sg30
g21
sg31
I00
sg32
I-1
sba(i__main__
Shot
p977
(dp978
g19
S'11'
p979
sg4
g21
sg22
I19
sg10
g11
sg23
I-1
sg24
g21
sg25
(I0
I0
I0
I0
tp980
sg27
S'//130.60.131.134/fiwi_datenbank/SCR_SOURCE/Masterdatenbank neu Export Einzelbilder/FIWI/SCR/8_1_1/019/11/00-33-03.376.png'
p981
sg29
g21
sg30
g21
sg31
I00
sg32
I-1
sba(i__main__
Shot
p982
(dp983
g19
S'12'
p984
sg4
g21
sg22
I19
sg10
g11
sg23
I-1
sg24
g21
sg25
(I0
I0
I0
I0
tp985
sg27
S'//130.60.131.134/fiwi_datenbank/SCR_SOURCE/Masterdatenbank neu Export Einzelbilder/FIWI/SCR/8_1_1/019/12/00-33-05.413.png'
p986
sg29
g21
sg30
g21
sg31
I00
sg32
I-1
sba(i__main__
Shot
p987
(dp988
g19
S'13'
p989
sg4
g21
sg22
I19
sg10
g11
sg23
I-1
sg24
g21
sg25
(I0
I0
I0
I0
tp990
sg27
S'//130.60.131.134/fiwi_datenbank/SCR_SOURCE/Masterdatenbank neu Export Einzelbilder/FIWI/SCR/8_1_1/019/13/00-33-08.753.png'
p991
sg29
g21
sg30
g21
sg31
I00
sg32
I-1
sba(i__main__
Shot
p992
(dp993
g19
S'14'
p994
sg4
g21
sg22
I19
sg10
g11
sg23
I-1
sg24
g21
sg25
(I0
I0
I0
I0
tp995
sg27
S'//130.60.131.134/fiwi_datenbank/SCR_SOURCE/Masterdatenbank neu Export Einzelbilder/FIWI/SCR/8_1_1/019/14/00-33-21.933.png'
p996
sg29
g21
sg30
g21
sg31
I00
sg32
I-1
sba(i__main__
Shot
p997
(dp998
g19
S'15'
p999
sg4
g21
sg22
I19
sg10
g11
sg23
I-1
sg24
g21
sg25
(I0
I0
I0
I0
tp1000
sg27
S'//130.60.131.134/fiwi_datenbank/SCR_SOURCE/Masterdatenbank neu Export Einzelbilder/FIWI/SCR/8_1_1/019/15/00-33-25.737.png'
p1001
sg29
g21
sg30
g21
sg31
I00
sg32
I-1
sba(i__main__
Shot
p1002
(dp1003
g19
S'16'
p1004
sg4
g21
sg22
I19
sg10
g11
sg23
I-1
sg24
g21
sg25
(I0
I0
I0
I0
tp1005
sg27
S'//130.60.131.134/fiwi_datenbank/SCR_SOURCE/Masterdatenbank neu Export Einzelbilder/FIWI/SCR/8_1_1/019/16/00-33-37.682.png'
p1006
sg29
g21
sg30
g21
sg31
I00
sg32
I-1
sba(i__main__
Shot
p1007
(dp1008
g19
S'17'
p1009
sg4
g21
sg22
I19
sg10
g11
sg23
I-1
sg24
g21
sg25
(I0
I0
I0
I0
tp1010
sg27
S'//130.60.131.134/fiwi_datenbank/SCR_SOURCE/Masterdatenbank neu Export Einzelbilder/FIWI/SCR/8_1_1/019/17/00-33-54.232.png'
p1011
sg29
g21
sg30
g21
sg31
I00
sg32
I-1
sba(i__main__
Shot
p1012
(dp1013
g19
S'18'
p1014
sg4
g21
sg22
I19
sg10
g11
sg23
I-1
sg24
g21
sg25
(I0
I0
I0
I0
tp1015
sg27
S'//130.60.131.134/fiwi_datenbank/SCR_SOURCE/Masterdatenbank neu Export Einzelbilder/FIWI/SCR/8_1_1/019/18/00-34-01.639.png'
p1016
sg29
g21
sg30
g21
sg31
I00
sg32
I-1
sba(i__main__
Shot
p1017
(dp1018
g19
S'19'
p1019
sg4
g21
sg22
I19
sg10
g11
sg23
I-1
sg24
g21
sg25
(I0
I0
I0
I0
tp1020
sg27
S'//130.60.131.134/fiwi_datenbank/SCR_SOURCE/Masterdatenbank neu Export Einzelbilder/FIWI/SCR/8_1_1/019/19/00-34-10.676.png'
p1021
sg29
g21
sg30
g21
sg31
I00
sg32
I-1
sba(i__main__
Shot
p1022
(dp1023
g19
S'2'
p1024
sg4
g21
sg22
I19
sg10
g11
sg23
I-1
sg24
g21
sg25
(I0
I0
I0
I0
tp1025
sg27
S'//130.60.131.134/fiwi_datenbank/SCR_SOURCE/Masterdatenbank neu Export Einzelbilder/FIWI/SCR/8_1_1/019/2/00-32-20.772.png'
p1026
sg29
g21
sg30
g21
sg31
I00
sg32
I-1
sba(i__main__
Shot
p1027
(dp1028
g19
S'20'
p1029
sg4
g21
sg22
I19
sg10
g11
sg23
I-1
sg24
g21
sg25
(I0
I0
I0
I0
tp1030
sg27
S'//130.60.131.134/fiwi_datenbank/SCR_SOURCE/Masterdatenbank neu Export Einzelbilder/FIWI/SCR/8_1_1/019/20/00-34-31.436.png'
p1031
sg29
g21
sg30
g21
sg31
I00
sg32
I-1
sba(i__main__
Shot
p1032
(dp1033
g19
S'21'
p1034
sg4
g21
sg22
I19
sg10
g11
sg23
I-1
sg24
g21
sg25
(I0
I0
I0
I0
tp1035
sg27
S'//130.60.131.134/fiwi_datenbank/SCR/8_1_1/19_21_8_1_1.jpg'
p1036
sg29
g21
sg30
g21
sg31
I00
sg32
I-1
sba(i__main__
Shot
p1037
(dp1038
g19
S'22'
p1039
sg4
g21
sg22
I19
sg10
g11
sg23
I-1
sg24
g21
sg25
(I0
I0
I0
I0
tp1040
sg27
S'//130.60.131.134/fiwi_datenbank/SCR_SOURCE/Masterdatenbank neu Export Einzelbilder/FIWI/SCR/8_1_1/019/22/00-34-41.179.png'
p1041
sg29
g21
sg30
g21
sg31
I00
sg32
I-1
sba(i__main__
Shot
p1042
(dp1043
g19
S'3'
p1044
sg4
g21
sg22
I19
sg10
g11
sg23
I-1
sg24
g21
sg25
(I0
I0
I0
I0
tp1045
sg27
S'//130.60.131.134/fiwi_datenbank/SCR_SOURCE/Masterdatenbank neu Export Einzelbilder/FIWI/SCR/8_1_1/019/3/00-32-24.109.png'
p1046
sg29
g21
sg30
g21
sg31
I00
sg32
I-1
sba(i__main__
Shot
p1047
(dp1048
g19
S'4'
p1049
sg4
g21
sg22
I19
sg10
g11
sg23
I-1
sg24
g21
sg25
(I0
I0
I0
I0
tp1050
sg27
S'//130.60.131.134/fiwi_datenbank/SCR_SOURCE/Masterdatenbank neu Export Einzelbilder/FIWI/SCR/8_1_1/019/4/00-32-32.851.png'
p1051
sg29
g21
sg30
g21
sg31
I00
sg32
I-1
sba(i__main__
Shot
p1052
(dp1053
g19
S'5'
p1054
sg4
g21
sg22
I19
sg10
g11
sg23
I-1
sg24
g21
sg25
(I0
I0
I0
I0
tp1055
sg27
S'//130.60.131.134/fiwi_datenbank/SCR_SOURCE/Masterdatenbank neu Export Einzelbilder/FIWI/SCR/8_1_1/019/5/00-32-43.176.png'
p1056
sg29
g21
sg30
g21
sg31
I00
sg32
I-1
sba(i__main__
Shot
p1057
(dp1058
g19
S'6'
p1059
sg4
g21
sg22
I19
sg10
g11
sg23
I-1
sg24
g21
sg25
(I0
I0
I0
I0
tp1060
sg27
S'//130.60.131.134/fiwi_datenbank/SCR_SOURCE/Masterdatenbank neu Export Einzelbilder/FIWI/SCR/8_1_1/019/6/00-32-48.976.png'
p1061
sg29
g21
sg30
g21
sg31
I00
sg32
I-1
sba(i__main__
Shot
p1062
(dp1063
g19
S'7'
p1064
sg4
g21
sg22
I19
sg10
g11
sg23
I-1
sg24
g21
sg25
(I0
I0
I0
I0
tp1065
sg27
S'//130.60.131.134/fiwi_datenbank/SCR_SOURCE/Masterdatenbank neu Export Einzelbilder/FIWI/SCR/8_1_1/019/7/8_1_1_GoneWithTheWind_Part1_1940_DVD_SCR_019_00-32.png'
p1066
sg29
g21
sg30
g21
sg31
I00
sg32
I-1
sba(i__main__
Shot
p1067
(dp1068
g19
S'8'
p1069
sg4
g21
sg22
I19
sg10
g11
sg23
I-1
sg24
g21
sg25
(I0
I0
I0
I0
tp1070
sg27
S'//130.60.131.134/fiwi_datenbank/SCR_SOURCE/Masterdatenbank neu Export Einzelbilder/FIWI/SCR/8_1_1/019/8/00-32-53.476.png'
p1071
sg29
g21
sg30
g21
sg31
I00
sg32
I-1
sba(i__main__
Shot
p1072
(dp1073
g19
S'9'
p1074
sg4
g21
sg22
I19
sg10
g11
sg23
I-1
sg24
g21
sg25
(I0
I0
I0
I0
tp1075
sg27
S'//130.60.131.134/fiwi_datenbank/SCR_SOURCE/Masterdatenbank neu Export Einzelbilder/FIWI/SCR/8_1_1/019/9/00-32-58.376.png'
p1076
sg29
g21
sg30
g21
sg31
I00
sg32
I-1
sba(i__main__
Shot
p1077
(dp1078
g19
S'1'
p1079
sg4
g21
sg22
I20
sg10
g11
sg23
I-1
sg24
g21
sg25
(I0
I0
I0
I0
tp1080
sg27
S'//130.60.131.134/fiwi_datenbank/SCR_SOURCE/Masterdatenbank neu Export Einzelbilder/FIWI/SCR/8_1_1/020/1/00-34-55.716.png'
p1081
sg29
g21
sg30
g21
sg31
I00
sg32
I-1
sba(i__main__
Shot
p1082
(dp1083
g19
S'2'
p1084
sg4
g21
sg22
I20
sg10
g11
sg23
I-1
sg24
g21
sg25
(I0
I0
I0
I0
tp1085
sg27
S'//130.60.131.134/fiwi_datenbank/SCR_SOURCE/Masterdatenbank neu Export Einzelbilder/FIWI/SCR/8_1_1/020/2/00-34-58.316.png'
p1086
sg29
g21
sg30
g21
sg31
I00
sg32
I-1
sba(i__main__
Shot
p1087
(dp1088
g19
S'3'
p1089
sg4
g21
sg22
I20
sg10
g11
sg23
I-1
sg24
g21
sg25
(I0
I0
I0
I0
tp1090
sg27
S'//130.60.131.134/fiwi_datenbank/SCR_SOURCE/Masterdatenbank neu Export Einzelbilder/FIWI/SCR/8_1_1/020/3/00-35-06.016.png'
p1091
sg29
g21
sg30
g21
sg31
I00
sg32
I-1
sba(i__main__
Shot
p1092
(dp1093
g19
S'4'
p1094
sg4
g21
sg22
I20
sg10
g11
sg23
I-1
sg24
g21
sg25
(I0
I0
I0
I0
tp1095
sg27
S'//130.60.131.134/fiwi_datenbank/SCR_SOURCE/Masterdatenbank neu Export Einzelbilder/FIWI/SCR/8_1_1/020/4/00-35-18.116.png'
p1096
sg29
g21
sg30
g21
sg31
I00
sg32
I-1
sba(i__main__
Shot
p1097
(dp1098
g19
S'5'
p1099
sg4
g21
sg22
I20
sg10
g11
sg23
I-1
sg24
g21
sg25
(I0
I0
I0
I0
tp1100
sg27
S'//130.60.131.134/fiwi_datenbank/SCR_SOURCE/Masterdatenbank neu Export Einzelbilder/FIWI/SCR/8_1_1/020/5/8_1_1_GoneWithTheWind_Part1_1940_DVD_SCR_020_00-35.png'
p1101
sg29
g21
sg30
g21
sg31
I00
sg32
I-1
sba(i__main__
Shot
p1102
(dp1103
g19
S'1'
p1104
sg4
g21
sg22
I21
sg10
g11
sg23
I-1
sg24
g21
sg25
(I0
I0
I0
I0
tp1105
sg27
S'//130.60.131.134/fiwi_datenbank/SCR_SOURCE/Masterdatenbank neu Export Einzelbilder/FIWI/SCR/8_1_1/021/1/00-35-38.916.png'
p1106
sg29
g21
sg30
g21
sg31
I00
sg32
I-1
sba(i__main__
Shot
p1107
(dp1108
g19
S'2'
p1109
sg4
g21
sg22
I21
sg10
g11
sg23
I-1
sg24
g21
sg25
(I0
I0
I0
I0
tp1110
sg27
S'//130.60.131.134/fiwi_datenbank/SCR_SOURCE/Masterdatenbank neu Export Einzelbilder/FIWI/SCR/8_1_1/021/2/00-35-51.416.png'
p1111
sg29
g21
sg30
g21
sg31
I00
sg32
I-1
sba(i__main__
Shot
p1112
(dp1113
g19
S'1'
p1114
sg4
g21
sg22
I22
sg10
g11
sg23
I-1
sg24
g21
sg25
(I0
I0
I0
I0
tp1115
sg27
S'//130.60.131.134/fiwi_datenbank/SCR_SOURCE/Masterdatenbank neu Export Einzelbilder/FIWI/SCR/8_1_1/022/1/00-35-59.042.png'
p1116
sg29
g21
sg30
g21
sg31
I00
sg32
I-1
sba(i__main__
Shot
p1117
(dp1118
g19
S'2'
p1119
sg4
g21
sg22
I22
sg10
g11
sg23
I-1
sg24
g21
sg25
(I0
I0
I0
I0
tp1120
sg27
S'//130.60.131.134/fiwi_datenbank/SCR_SOURCE/Masterdatenbank neu Export Einzelbilder/FIWI/SCR/8_1_1/022/2/00-36-05.442.png'
p1121
sg29
g21
sg30
g21
sg31
I00
sg32
I-1
sba(i__main__
Shot
p1122
(dp1123
g19
S'3'
p1124
sg4
g21
sg22
I22
sg10
g11
sg23
I-1
sg24
g21
sg25
(I0
I0
I0
I0
tp1125
sg27
S'//130.60.131.134/fiwi_datenbank/SCR_SOURCE/Masterdatenbank neu Export Einzelbilder/FIWI/SCR/8_1_1/022/3/00-36-14.042.png'
p1126
sg29
g21
sg30
g21
sg31
I00
sg32
I-1
sba(i__main__
Shot
p1127
(dp1128
g19
S'4'
p1129
sg4
g21
sg22
I22
sg10
g11
sg23
I-1
sg24
g21
sg25
(I0
I0
I0
I0
tp1130
sg27
S'//130.60.131.134/fiwi_datenbank/SCR_SOURCE/Masterdatenbank neu Export Einzelbilder/FIWI/SCR/8_1_1/022/4/00-36-26.342.png'
p1131
sg29
g21
sg30
g21
sg31
I00
sg32
I-1
sba(i__main__
Shot
p1132
(dp1133
g19
S'5'
p1134
sg4
g21
sg22
I22
sg10
g11
sg23
I-1
sg24
g21
sg25
(I0
I0
I0
I0
tp1135
sg27
S'//130.60.131.134/fiwi_datenbank/SCR/8_1_1/22_5_8_1_1.jpg'
p1136
sg29
g21
sg30
g21
sg31
I00
sg32
I-1
sba(i__main__
Shot
p1137
(dp1138
g19
S'6'
p1139
sg4
g21
sg22
I22
sg10
g11
sg23
I-1
sg24
g21
sg25
(I0
I0
I0
I0
tp1140
sg27
S'//130.60.131.134/fiwi_datenbank/SCR_SOURCE/Masterdatenbank neu Export Einzelbilder/FIWI/SCR/8_1_1/022/6/00-36-49.342.png'
p1141
sg29
g21
sg30
g21
sg31
I00
sg32
I-1
sba(i__main__
Shot
p1142
(dp1143
g19
S'7'
p1144
sg4
g21
sg22
I22
sg10
g11
sg23
I-1
sg24
g21
sg25
(I0
I0
I0
I0
tp1145
sg27
S'//130.60.131.134/fiwi_datenbank/SCR_SOURCE/Masterdatenbank neu Export Einzelbilder/FIWI/SCR/8_1_1/022/7/00-37-15.542.png'
p1146
sg29
g21
sg30
g21
sg31
I00
sg32
I-1
sba(i__main__
Shot
p1147
(dp1148
g19
S'8'
p1149
sg4
g21
sg22
I22
sg10
g11
sg23
I-1
sg24
g21
sg25
(I0
I0
I0
I0
tp1150
sg27
S'//130.60.131.134/fiwi_datenbank/SCR_SOURCE/Masterdatenbank neu Export Einzelbilder/FIWI/SCR/8_1_1/022/8/00-37-46.842.png'
p1151
sg29
g21
sg30
g21
sg31
I00
sg32
I-1
sba(i__main__
Shot
p1152
(dp1153
g19
S'9'
p1154
sg4
g21
sg22
I22
sg10
g11
sg23
I-1
sg24
g21
sg25
(I0
I0
I0
I0
tp1155
sg27
S'//130.60.131.134/fiwi_datenbank/SCR_SOURCE/Masterdatenbank neu Export Einzelbilder/FIWI/SCR/8_1_1/022/9/00-37-58.142.png'
p1156
sg29
g21
sg30
g21
sg31
I00
sg32
I-1
sba(i__main__
Shot
p1157
(dp1158
g19
S'1'
p1159
sg4
g21
sg22
I23
sg10
g11
sg23
I-1
sg24
g21
sg25
(I0
I0
I0
I0
tp1160
sg27
S'//130.60.131.134/fiwi_datenbank/SCR_SOURCE/Masterdatenbank neu Export Einzelbilder/FIWI/SCR/8_1_1/023/1/00-38-07.942.png'
p1161
sg29
g21
sg30
g21
sg31
I00
sg32
I-1
sba(i__main__
Shot
p1162
(dp1163
g19
S'1'
p1164
sg4
g21
sg22
I24
sg10
g11
sg23
I-1
sg24
g21
sg25
(I0
I0
I0
I0
tp1165
sg27
S'//130.60.131.134/fiwi_datenbank/SCR_SOURCE/Masterdatenbank neu Export Einzelbilder/FIWI/SCR/8_1_1/024/1/00-38-12.442.png'
p1166
sg29
g21
sg30
g21
sg31
I00
sg32
I-1
sba(i__main__
Shot
p1167
(dp1168
g19
S'10'
p1169
sg4
g21
sg22
I24
sg10
g11
sg23
I-1
sg24
g21
sg25
(I0
I0
I0
I0
tp1170
sg27
S'//130.60.131.134/fiwi_datenbank/SCR_SOURCE/Masterdatenbank neu Export Einzelbilder/FIWI/SCR/8_1_1/024/10/00-39-46.484.png'
p1171
sg29
g21
sg30
g21
sg31
I00
sg32
I-1
sba(i__main__
Shot
p1172
(dp1173
g19
S'11'
p1174
sg4
g21
sg22
I24
sg10
g11
sg23
I-1
sg24
g21
sg25
(I0
I0
I0
I0
tp1175
sg27
S'//130.60.131.134/fiwi_datenbank/SCR_SOURCE/Masterdatenbank neu Export Einzelbilder/FIWI/SCR/8_1_1/024/11/00-39-49.187.png'
p1176
sg29
g21
sg30
g21
sg31
I00
sg32
I-1
sba(i__main__
Shot
p1177
(dp1178
g19
S'12'
p1179
sg4
g21
sg22
I24
sg10
g11
sg23
I-1
sg24
g21
sg25
(I0
I0
I0
I0
tp1180
sg27
S'//130.60.131.134/fiwi_datenbank/SCR_SOURCE/Masterdatenbank neu Export Einzelbilder/FIWI/SCR/8_1_1/024/12/00-39-53.124.png'
p1181
sg29
g21
sg30
g21
sg31
I00
sg32
I-1
sba(i__main__
Shot
p1182
(dp1183
g19
S'13'
p1184
sg4
g21
sg22
I24
sg10
g11
sg23
I-1
sg24
g21
sg25
(I0
I0
I0
I0
tp1185
sg27
S'//130.60.131.134/fiwi_datenbank/SCR_SOURCE/Masterdatenbank neu Export Einzelbilder/FIWI/SCR/8_1_1/024/13/00-39-59.942.png'
p1186
sg29
g21
sg30
g21
sg31
I00
sg32
I-1
sba(i__main__
Shot
p1187
(dp1188
g19
S'14'
p1189
sg4
g21
sg22
I24
sg10
g11
sg23
I-1
sg24
g21
sg25
(I0
I0
I0
I0
tp1190
sg27
S'//130.60.131.134/fiwi_datenbank/SCR_SOURCE/Masterdatenbank neu Export Einzelbilder/FIWI/SCR/8_1_1/024/14/00-40-05.842.png'
p1191
sg29
g21
sg30
g21
sg31
I00
sg32
I-1
sba(i__main__
Shot
p1192
(dp1193
g19
S'15'
p1194
sg4
g21
sg22
I24
sg10
g11
sg23
I-1
sg24
g21
sg25
(I0
I0
I0
I0
tp1195
sg27
S'//130.60.131.134/fiwi_datenbank/SCR_SOURCE/Masterdatenbank neu Export Einzelbilder/FIWI/SCR/8_1_1/024/15/00-40-18.842.png'
p1196
sg29
g21
sg30
g21
sg31
I00
sg32
I-1
sba(i__main__
Shot
p1197
(dp1198
g19
S'16'
p1199
sg4
g21
sg22
I24
sg10
g11
sg23
I-1
sg24
g21
sg25
(I0
I0
I0
I0
tp1200
sg27
S'//130.60.131.134/fiwi_datenbank/SCR_SOURCE/Masterdatenbank neu Export Einzelbilder/FIWI/SCR/8_1_1/024/16/00-40-26.342.png'
p1201
sg29
g21
sg30
g21
sg31
I00
sg32
I-1
sba(i__main__
Shot
p1202
(dp1203
g19
S'17'
p1204
sg4
g21
sg22
I24
sg10
g11
sg23
I-1
sg24
g21
sg25
(I0
I0
I0
I0
tp1205
sg27
S'//130.60.131.134/fiwi_datenbank/SCR_SOURCE/Masterdatenbank neu Export Einzelbilder/FIWI/SCR/8_1_1/024/17/00-40-33.664.png'
p1206
sg29
g21
sg30
g21
sg31
I00
sg32
I-1
sba(i__main__
Shot
p1207
(dp1208
g19
S'18'
p1209
sg4
g21
sg22
I24
sg10
g11
sg23
I-1
sg24
g21
sg25
(I0
I0
I0
I0
tp1210
sg27
S'//130.60.131.134/fiwi_datenbank/SCR_SOURCE/Masterdatenbank neu Export Einzelbilder/FIWI/SCR/8_1_1/024/18/00-40-46.242.png'
p1211
sg29
g21
sg30
g21
sg31
I00
sg32
I-1
sba(i__main__
Shot
p1212
(dp1213
g19
S'19'
p1214
sg4
g21
sg22
I24
sg10
g11
sg23
I-1
sg24
g21
sg25
(I0
I0
I0
I0
tp1215
sg27
S'//130.60.131.134/fiwi_datenbank/SCR_SOURCE/Masterdatenbank neu Export Einzelbilder/FIWI/SCR/8_1_1/024/19/00-41-06.742.png'
p1216
sg29
g21
sg30
g21
sg31
I00
sg32
I-1
sba(i__main__
Shot
p1217
(dp1218
g19
S'2'
p1219
sg4
g21
sg22
I24
sg10
g11
sg23
I-1
sg24
g21
sg25
(I0
I0
I0
I0
tp1220
sg27
S'//130.60.131.134/fiwi_datenbank/SCR_SOURCE/Masterdatenbank neu Export Einzelbilder/FIWI/SCR/8_1_1/024/2/00-38-16.394.png'
p1221
sg29
g21
sg30
g21
sg31
I00
sg32
I-1
sba(i__main__
Shot
p1222
(dp1223
g19
S'20'
p1224
sg4
g21
sg22
I24
sg10
g11
sg23
I-1
sg24
g21
sg25
(I0
I0
I0
I0
tp1225
sg27
S'//130.60.131.134/fiwi_datenbank/SCR_SOURCE/Masterdatenbank neu Export Einzelbilder/FIWI/SCR/8_1_1/024/20/00-42-28.200.png'
p1226
sg29
g21
sg30
g21
sg31
I00
sg32
I-1
sba(i__main__
Shot
p1227
(dp1228
g19
S'21'
p1229
sg4
g21
sg22
I24
sg10
g11
sg23
I-1
sg24
g21
sg25
(I0
I0
I0
I0
tp1230
sg27
S'//130.60.131.134/fiwi_datenbank/SCR_SOURCE/Masterdatenbank neu Export Einzelbilder/FIWI/SCR/8_1_1/024/21/00-42-33.300.png'
p1231
sg29
g21
sg30
g21
sg31
I00
sg32
I-1
sba(i__main__
Shot
p1232
(dp1233
g19
S'22'
p1234
sg4
g21
sg22
I24
sg10
g11
sg23
I-1
sg24
g21
sg25
(I0
I0
I0
I0
tp1235
sg27
S'//130.60.131.134/fiwi_datenbank/SCR/8_1_1/24_22_8_1_1.jpg'
p1236
sg29
g21
sg30
g21
sg31
I00
sg32
I-1
sba(i__main__
Shot
p1237
(dp1238
g19
S'23'
p1239
sg4
g21
sg22
I24
sg10
g11
sg23
I-1
sg24
g21
sg25
(I0
I0
I0
I0
tp1240
sg27
S'//130.60.131.134/fiwi_datenbank/SCR_SOURCE/Masterdatenbank neu Export Einzelbilder/FIWI/SCR/8_1_1/024/23/00-43-11.000.png'
p1241
sg29
g21
sg30
g21
sg31
I00
sg32
I-1
sba(i__main__
Shot
p1242
(dp1243
g19
S'24'
p1244
sg4
g21
sg22
I24
sg10
g11
sg23
I-1
sg24
g21
sg25
(I0
I0
I0
I0
tp1245
sg27
S'//130.60.131.134/fiwi_datenbank/SCR_SOURCE/Masterdatenbank neu Export Einzelbilder/FIWI/SCR/8_1_1/024/24/00-43-25.300.png'
p1246
sg29
g21
sg30
g21
sg31
I00
sg32
I-1
sba(i__main__
Shot
p1247
(dp1248
g19
S'3'
p1249
sg4
g21
sg22
I24
sg10
g11
sg23
I-1
sg24
g21
sg25
(I0
I0
I0
I0
tp1250
sg27
S'//130.60.131.134/fiwi_datenbank/SCR_SOURCE/Masterdatenbank neu Export Einzelbilder/FIWI/SCR/8_1_1/024/3/00-38-21.265.png'
p1251
sg29
g21
sg30
g21
sg31
I00
sg32
I-1
sba(i__main__
Shot
p1252
(dp1253
g19
S'4'
p1254
sg4
g21
sg22
I24
sg10
g11
sg23
I-1
sg24
g21
sg25
(I0
I0
I0
I0
tp1255
sg27
S'//130.60.131.134/fiwi_datenbank/SCR_SOURCE/Masterdatenbank neu Export Einzelbilder/FIWI/SCR/8_1_1/024/4/00-38-34.642.png'
p1256
sg29
g21
sg30
g21
sg31
I00
sg32
I-1
sba(i__main__
Shot
p1257
(dp1258
g19
S'5'
p1259
sg4
g21
sg22
I24
sg10
g11
sg23
I-1
sg24
g21
sg25
(I0
I0
I0
I0
tp1260
sg27
S'//130.60.131.134/fiwi_datenbank/SCR_SOURCE/Masterdatenbank neu Export Einzelbilder/FIWI/SCR/8_1_1/024/5/00-38-55.633.png'
p1261
sg29
g21
sg30
g21
sg31
I00
sg32
I-1
sba(i__main__
Shot
p1262
(dp1263
g19
S'6'
p1264
sg4
g21
sg22
I24
sg10
g11
sg23
I-1
sg24
g21
sg25
(I0
I0
I0
I0
tp1265
sg27
S'//130.60.131.134/fiwi_datenbank/SCR_SOURCE/Masterdatenbank neu Export Einzelbilder/FIWI/SCR/8_1_1/024/6/00-39-01.439.png'
p1266
sg29
g21
sg30
g21
sg31
I00
sg32
I-1
sba(i__main__
Shot
p1267
(dp1268
g19
S'7'
p1269
sg4
g21
sg22
I24
sg10
g11
sg23
I-1
sg24
g21
sg25
(I0
I0
I0
I0
tp1270
sg27
S'//130.60.131.134/fiwi_datenbank/SCR_SOURCE/Masterdatenbank neu Export Einzelbilder/FIWI/SCR/8_1_1/024/7/00-39-11.042.png'
p1271
sg29
g21
sg30
g21
sg31
I00
sg32
I-1
sba(i__main__
Shot
p1272
(dp1273
g19
S'8'
p1274
sg4
g21
sg22
I24
sg10
g11
sg23
I-1
sg24
g21
sg25
(I0
I0
I0
I0
tp1275
sg27
S'//130.60.131.134/fiwi_datenbank/SCR_SOURCE/Masterdatenbank neu Export Einzelbilder/FIWI/SCR/8_1_1/024/8/00-39-14.942.png'
p1276
sg29
g21
sg30
g21
sg31
I00
sg32
I-1
sba(i__main__
Shot
p1277
(dp1278
g19
S'9'
p1279
sg4
g21
sg22
I24
sg10
g11
sg23
I-1
sg24
g21
sg25
(I0
I0
I0
I0
tp1280
sg27
S'//130.60.131.134/fiwi_datenbank/SCR_SOURCE/Masterdatenbank neu Export Einzelbilder/FIWI/SCR/8_1_1/024/9/00-39-41.379.png'
p1281
sg29
g21
sg30
g21
sg31
I00
sg32
I-1
sba(i__main__
Shot
p1282
(dp1283
g19
S'1'
p1284
sg4
g21
sg22
I25
sg10
g11
sg23
I-1
sg24
g21
sg25
(I0
I0
I0
I0
tp1285
sg27
S'//130.60.131.134/fiwi_datenbank/SCR_SOURCE/Masterdatenbank neu Export Einzelbilder/FIWI/SCR/8_1_1/025/1/00-45-42.600.png'
p1286
sg29
g21
sg30
g21
sg31
I00
sg32
I-1
sba(i__main__
Shot
p1287
(dp1288
g19
S'1'
p1289
sg4
g21
sg22
I26
sg10
g11
sg23
I-1
sg24
g21
sg25
(I0
I0
I0
I0
tp1290
sg27
S'//130.60.131.134/fiwi_datenbank/SCR_SOURCE/Masterdatenbank neu Export Einzelbilder/FIWI/SCR/8_1_1/026/1/00-45-59.978.png'
p1291
sg29
g21
sg30
g21
sg31
I00
sg32
I-1
sba(i__main__
Shot
p1292
(dp1293
g19
S'10'
p1294
sg4
g21
sg22
I26
sg10
g11
sg23
I-1
sg24
g21
sg25
(I0
I0
I0
I0
tp1295
sg27
S'//130.60.131.134/fiwi_datenbank/SCR_SOURCE/Masterdatenbank neu Export Einzelbilder/FIWI/SCR/8_1_1/026/10/00-47-03.978.png'
p1296
sg29
g21
sg30
g21
sg31
I00
sg32
I-1
sba(i__main__
Shot
p1297
(dp1298
g19
S'11'
p1299
sg4
g21
sg22
I26
sg10
g11
sg23
I-1
sg24
g21
sg25
(I0
I0
I0
I0
tp1300
sg27
S'//130.60.131.134/fiwi_datenbank/SCR_SOURCE/Masterdatenbank neu Export Einzelbilder/FIWI/SCR/8_1_1/026/11/00-47-27.678.png'
p1301
sg29
g21
sg30
g21
sg31
I00
sg32
I-1
sba(i__main__
Shot
p1302
(dp1303
g19
S'12'
p1304
sg4
g21
sg22
I26
sg10
g11
sg23
I-1
sg24
g21
sg25
(I0
I0
I0
I0
tp1305
sg27
S'//130.60.131.134/fiwi_datenbank/SCR_SOURCE/Masterdatenbank neu Export Einzelbilder/FIWI/SCR/8_1_1/026/12/00-47-49.478.png'
p1306
sg29
g21
sg30
g21
sg31
I00
sg32
I-1
sba(i__main__
Shot
p1307
(dp1308
g19
S'13'
p1309
sg4
g21
sg22
I26
sg10
g11
sg23
I-1
sg24
g21
sg25
(I0
I0
I0
I0
tp1310
sg27
S'//130.60.131.134/fiwi_datenbank/SCR_SOURCE/Masterdatenbank neu Export Einzelbilder/FIWI/SCR/8_1_1/026/13/00-48-11.878.png'
p1311
sg29
g21
sg30
g21
sg31
I00
sg32
I-1
sba(i__main__
Shot
p1312
(dp1313
g19
S'14'
p1314
sg4
g21
sg22
I26
sg10
g11
sg23
I-1
sg24
g21
sg25
(I0
I0
I0
I0
tp1315
sg27
S'//130.60.131.134/fiwi_datenbank/SCR_SOURCE/Masterdatenbank neu Export Einzelbilder/FIWI/SCR/8_1_1/026/14/00-48-24.178.png'
p1316
sg29
g21
sg30
g21
sg31
I00
sg32
I-1
sba(i__main__
Shot
p1317
(dp1318
g19
S'15'
p1319
sg4
g21
sg22
I26
sg10
g11
sg23
I-1
sg24
g21
sg25
(I0
I0
I0
I0
tp1320
sg27
S'//130.60.131.134/fiwi_datenbank/SCR_SOURCE/Masterdatenbank neu Export Einzelbilder/FIWI/SCR/8_1_1/026/15/00-48-34.878.png'
p1321
sg29
g21
sg30
g21
sg31
I00
sg32
I-1
sba(i__main__
Shot
p1322
(dp1323
g19
S'2'
p1324
sg4
g21
sg22
I26
sg10
g11
sg23
I-1
sg24
g21
sg25
(I0
I0
I0
I0
tp1325
sg27
S'//130.60.131.134/fiwi_datenbank/SCR_SOURCE/Masterdatenbank neu Export Einzelbilder/FIWI/SCR/8_1_1/026/2/00-46-03.478.png'
p1326
sg29
g21
sg30
g21
sg31
I00
sg32
I-1
sba(i__main__
Shot
p1327
(dp1328
g19
S'3'
p1329
sg4
g21
sg22
I26
sg10
g11
sg23
I-1
sg24
g21
sg25
(I0
I0
I0
I0
tp1330
sg27
S'//130.60.131.134/fiwi_datenbank/SCR_SOURCE/Masterdatenbank neu Export Einzelbilder/FIWI/SCR/8_1_1/026/3/00-46-10.678.png'
p1331
sg29
g21
sg30
g21
sg31
I00
sg32
I-1
sba(i__main__
Shot
p1332
(dp1333
g19
S'4'
p1334
sg4
g21
sg22
I26
sg10
g11
sg23
I-1
sg24
g21
sg25
(I0
I0
I0
I0
tp1335
sg27
S'//130.60.131.134/fiwi_datenbank/SCR/8_1_1/26_4_8_1_1.jpg'
p1336
sg29
g21
sg30
g21
sg31
I00
sg32
I-1
sba(i__main__
Shot
p1337
(dp1338
g19
S'5'
p1339
sg4
g21
sg22
I26
sg10
g11
sg23
I-1
sg24
g21
sg25
(I0
I0
I0
I0
tp1340
sg27
S'//130.60.131.134/fiwi_datenbank/SCR_SOURCE/Masterdatenbank neu Export Einzelbilder/FIWI/SCR/8_1_1/026/5/00-46-21.978.png'
p1341
sg29
g21
sg30
g21
sg31
I00
sg32
I-1
sba(i__main__
Shot
p1342
(dp1343
g19
S'6'
p1344
sg4
g21
sg22
I26
sg10
g11
sg23
I-1
sg24
g21
sg25
(I0
I0
I0
I0
tp1345
sg27
S'//130.60.131.134/fiwi_datenbank/SCR_SOURCE/Masterdatenbank neu Export Einzelbilder/FIWI/SCR/8_1_1/026/6/00-46-30.478.png'
p1346
sg29
g21
sg30
g21
sg31
I00
sg32
I-1
sba(i__main__
Shot
p1347
(dp1348
g19
S'7'
p1349
sg4
g21
sg22
I26
sg10
g11
sg23
I-1
sg24
g21
sg25
(I0
I0
I0
I0
tp1350
sg27
S'//130.60.131.134/fiwi_datenbank/SCR_SOURCE/Masterdatenbank neu Export Einzelbilder/FIWI/SCR/8_1_1/026/7/00-46-39.378.png'
p1351
sg29
g21
sg30
g21
sg31
I00
sg32
I-1
sba(i__main__
Shot
p1352
(dp1353
g19
S'8'
p1354
sg4
g21
sg22
I26
sg10
g11
sg23
I-1
sg24
g21
sg25
(I0
I0
I0
I0
tp1355
sg27
S'//130.60.131.134/fiwi_datenbank/SCR_SOURCE/Masterdatenbank neu Export Einzelbilder/FIWI/SCR/8_1_1/026/8/00-46-47.678.png'
p1356
sg29
g21
sg30
g21
sg31
I00
sg32
I-1
sba(i__main__
Shot
p1357
(dp1358
g19
S'9'
p1359
sg4
g21
sg22
I26
sg10
g11
sg23
I-1
sg24
g21
sg25
(I0
I0
I0
I0
tp1360
sg27
S'//130.60.131.134/fiwi_datenbank/SCR_SOURCE/Masterdatenbank neu Export Einzelbilder/FIWI/SCR/8_1_1/026/9/00-46-54.578.png'
p1361
sg29
g21
sg30
g21
sg31
I00
sg32
I-1
sba(i__main__
Shot
p1362
(dp1363
g19
S'1'
p1364
sg4
g21
sg22
I27
sg10
g11
sg23
I-1
sg24
g21
sg25
(I0
I0
I0
I0
tp1365
sg27
S'//130.60.131.134/fiwi_datenbank/SCR_SOURCE/Masterdatenbank neu Export Einzelbilder/FIWI/SCR/8_1_1/027/1/00-49-01.171.png'
p1366
sg29
g21
sg30
g21
sg31
I00
sg32
I-1
sba(i__main__
Shot
p1367
(dp1368
g19
S'10'
p1369
sg4
g21
sg22
I27
sg10
g11
sg23
I-1
sg24
g21
sg25
(I0
I0
I0
I0
tp1370
sg27
S'//130.60.131.134/fiwi_datenbank/SCR_SOURCE/Masterdatenbank neu Export Einzelbilder/FIWI/SCR/8_1_1/027/10/00-49-39.633.png'
p1371
sg29
g21
sg30
g21
sg31
I00
sg32
I-1
sba(i__main__
Shot
p1372
(dp1373
g19
S'11'
p1374
sg4
g21
sg22
I27
sg10
g11
sg23
I-1
sg24
g21
sg25
(I0
I0
I0
I0
tp1375
sg27
S'//130.60.131.134/fiwi_datenbank/SCR_SOURCE/Masterdatenbank neu Export Einzelbilder/FIWI/SCR/8_1_1/027/11/00-49-51.933.png'
p1376
sg29
g21
sg30
g21
sg31
I00
sg32
I-1
sba(i__main__
Shot
p1377
(dp1378
g19
S'12'
p1379
sg4
g21
sg22
I27
sg10
g11
sg23
I-1
sg24
g21
sg25
(I0
I0
I0
I0
tp1380
sg27
S'//130.60.131.134/fiwi_datenbank/SCR_SOURCE/Masterdatenbank neu Export Einzelbilder/FIWI/SCR/8_1_1/027/12/00-50-07.933.png'
p1381
sg29
g21
sg30
g21
sg31
I00
sg32
I-1
sba(i__main__
Shot
p1382
(dp1383
g19
S'13'
p1384
sg4
g21
sg22
I27
sg10
g11
sg23
I-1
sg24
g21
sg25
(I0
I0
I0
I0
tp1385
sg27
S'//130.60.131.134/fiwi_datenbank/SCR_SOURCE/Masterdatenbank neu Export Einzelbilder/FIWI/SCR/8_1_1/027/13/00-50-12.233.png'
p1386
sg29
g21
sg30
g21
sg31
I00
sg32
I-1
sba(i__main__
Shot
p1387
(dp1388
g19
S'14'
p1389
sg4
g21
sg22
I27
sg10
g11
sg23
I-1
sg24
g21
sg25
(I0
I0
I0
I0
tp1390
sg27
S'//130.60.131.134/fiwi_datenbank/SCR_SOURCE/Masterdatenbank neu Export Einzelbilder/FIWI/SCR/8_1_1/027/14/00-50-39.833.png'
p1391
sg29
g21
sg30
g21
sg31
I00
sg32
I-1
sba(i__main__
Shot
p1392
(dp1393
g19
S'15'
p1394
sg4
g21
sg22
I27
sg10
g11
sg23
I-1
sg24
g21
sg25
(I0
I0
I0
I0
tp1395
sg27
S'//130.60.131.134/fiwi_datenbank/SCR_SOURCE/Masterdatenbank neu Export Einzelbilder/FIWI/SCR/8_1_1/027/15/00-51-15.933.png'
p1396
sg29
g21
sg30
g21
sg31
I00
sg32
I-1
sba(i__main__
Shot
p1397
(dp1398
g19
S'16'
p1399
sg4
g21
sg22
I27
sg10
g11
sg23
I-1
sg24
g21
sg25
(I0
I0
I0
I0
tp1400
sg27
S'//130.60.131.134/fiwi_datenbank/SCR_SOURCE/Masterdatenbank neu Export Einzelbilder/FIWI/SCR/8_1_1/027/16/00-51-23.733.png'
p1401
sg29
g21
sg30
g21
sg31
I00
sg32
I-1
sba(i__main__
Shot
p1402
(dp1403
g19
S'17'
p1404
sg4
g21
sg22
I27
sg10
g11
sg23
I-1
sg24
g21
sg25
(I0
I0
I0
I0
tp1405
sg27
S'//130.60.131.134/fiwi_datenbank/SCR_SOURCE/Masterdatenbank neu Export Einzelbilder/FIWI/SCR/8_1_1/027/17/00-51-53.033.png'
p1406
sg29
g21
sg30
g21
sg31
I00
sg32
I-1
sba(i__main__
Shot
p1407
(dp1408
g19
S'2'
p1409
sg4
g21
sg22
I27
sg10
g11
sg23
I-1
sg24
g21
sg25
(I0
I0
I0
I0
tp1410
sg27
S'//130.60.131.134/fiwi_datenbank/SCR_SOURCE/Masterdatenbank neu Export Einzelbilder/FIWI/SCR/8_1_1/027/2/00-49-07.233.png'
p1411
sg29
g21
sg30
g21
sg31
I00
sg32
I-1
sba(i__main__
Shot
p1412
(dp1413
g19
S'3'
p1414
sg4
g21
sg22
I27
sg10
g11
sg23
I-1
sg24
g21
sg25
(I0
I0
I0
I0
tp1415
sg27
S'//130.60.131.134/fiwi_datenbank/SCR_SOURCE/Masterdatenbank neu Export Einzelbilder/FIWI/SCR/8_1_1/027/3/00-49-11.333.png'
p1416
sg29
g21
sg30
g21
sg31
I00
sg32
I-1
sba(i__main__
Shot
p1417
(dp1418
g19
S'4'
p1419
sg4
g21
sg22
I27
sg10
g11
sg23
I-1
sg24
g21
sg25
(I0
I0
I0
I0
tp1420
sg27
S'//130.60.131.134/fiwi_datenbank/SCR_SOURCE/Masterdatenbank neu Export Einzelbilder/FIWI/SCR/8_1_1/027/4/00-49-12.533.png'
p1421
sg29
g21
sg30
g21
sg31
I00
sg32
I-1
sba(i__main__
Shot
p1422
(dp1423
g19
S'5'
p1424
sg4
g21
sg22
I27
sg10
g11
sg23
I-1
sg24
g21
sg25
(I0
I0
I0
I0
tp1425
sg27
S'//130.60.131.134/fiwi_datenbank/SCR_SOURCE/Masterdatenbank neu Export Einzelbilder/FIWI/SCR/8_1_1/027/5/00-49-16.433.png'
p1426
sg29
g21
sg30
g21
sg31
I00
sg32
I-1
sba(i__main__
Shot
p1427
(dp1428
g19
S'6'
p1429
sg4
g21
sg22
I27
sg10
g11
sg23
I-1
sg24
g21
sg25
(I0
I0
I0
I0
tp1430
sg27
S'//130.60.131.134/fiwi_datenbank/SCR_SOURCE/Masterdatenbank neu Export Einzelbilder/FIWI/SCR/8_1_1/027/6/00-49-18.933.png'
p1431
sg29
g21
sg30
g21
sg31
I00
sg32
I-1
sba(i__main__
Shot
p1432
(dp1433
g19
S'7'
p1434
sg4
g21
sg22
I27
sg10
g11
sg23
I-1
sg24
g21
sg25
(I0
I0
I0
I0
tp1435
sg27
S'//130.60.131.134/fiwi_datenbank/SCR/8_1_1/27_7_8_1_1.jpg'
p1436
sg29
g21
sg30
g21
sg31
I00
sg32
I-1
sba(i__main__
Shot
p1437
(dp1438
g19
S'8'
p1439
sg4
g21
sg22
I27
sg10
g11
sg23
I-1
sg24
g21
sg25
(I0
I0
I0
I0
tp1440
sg27
S'//130.60.131.134/fiwi_datenbank/SCR_SOURCE/Masterdatenbank neu Export Einzelbilder/FIWI/SCR/8_1_1/027/8/00-49-29.433.png'
p1441
sg29
g21
sg30
g21
sg31
I00
sg32
I-1
sba(i__main__
Shot
p1442
(dp1443
g19
S'9'
p1444
sg4
g21
sg22
I27
sg10
g11
sg23
I-1
sg24
g21
sg25
(I0
I0
I0
I0
tp1445
sg27
S'//130.60.131.134/fiwi_datenbank/SCR_SOURCE/Masterdatenbank neu Export Einzelbilder/FIWI/SCR/8_1_1/027/9/00-49-35.233.png'
p1446
sg29
g21
sg30
g21
sg31
I00
sg32
I-1
sba(i__main__
Shot
p1447
(dp1448
g19
S'1'
p1449
sg4
g21
sg22
I28
sg10
g11
sg23
I-1
sg24
g21
sg25
(I0
I0
I0
I0
tp1450
sg27
S'//130.60.131.134/fiwi_datenbank/SCR_SOURCE/Masterdatenbank neu Export Einzelbilder/FIWI/SCR/8_1_1/028/1/00-52-01.333.png'
p1451
sg29
g21
sg30
g21
sg31
I00
sg32
I-1
sba(i__main__
Shot
p1452
(dp1453
g19
S'1'
p1454
sg4
g21
sg22
I29
sg10
g11
sg23
I-1
sg24
g21
sg25
(I0
I0
I0
I0
tp1455
sg27
S'//130.60.131.134/fiwi_datenbank/SCR_SOURCE/Masterdatenbank neu Export Einzelbilder/FIWI/SCR/8_1_1/029/1/00-52-08.375.png'
p1456
sg29
g21
sg30
g21
sg31
I00
sg32
I-1
sba(i__main__
Shot
p1457
(dp1458
g19
S'10'
p1459
sg4
g21
sg22
I29
sg10
g11
sg23
I-1
sg24
g21
sg25
(I0
I0
I0
I0
tp1460
sg27
S'//130.60.131.134/fiwi_datenbank/SCR_SOURCE/Masterdatenbank neu Export Einzelbilder/FIWI/SCR/8_1_1/029/10/00-53-00.275.png'
p1461
sg29
g21
sg30
g21
sg31
I00
sg32
I-1
sba(i__main__
Shot
p1462
(dp1463
g19
S'2'
p1464
sg4
g21
sg22
I29
sg10
g11
sg23
I-1
sg24
g21
sg25
(I0
I0
I0
I0
tp1465
sg27
S'//130.60.131.134/fiwi_datenbank/SCR_SOURCE/Masterdatenbank neu Export Einzelbilder/FIWI/SCR/8_1_1/029/2/00-52-14.075.png'
p1466
sg29
g21
sg30
g21
sg31
I00
sg32
I-1
sba(i__main__
Shot
p1467
(dp1468
g19
S'3'
p1469
sg4
g21
sg22
I29
sg10
g11
sg23
I-1
sg24
g21
sg25
(I0
I0
I0
I0
tp1470
sg27
S'//130.60.131.134/fiwi_datenbank/SCR_SOURCE/Masterdatenbank neu Export Einzelbilder/FIWI/SCR/8_1_1/029/3/00-52-20.375.png'
p1471
sg29
g21
sg30
g21
sg31
I00
sg32
I-1
sba(i__main__
Shot
p1472
(dp1473
g19
S'4'
p1474
sg4
g21
sg22
I29
sg10
g11
sg23
I-1
sg24
g21
sg25
(I0
I0
I0
I0
tp1475
sg27
S'//130.60.131.134/fiwi_datenbank/SCR_SOURCE/Masterdatenbank neu Export Einzelbilder/FIWI/SCR/8_1_1/029/4/00-52-24.375.png'
p1476
sg29
g21
sg30
g21
sg31
I00
sg32
I-1
sba(i__main__
Shot
p1477
(dp1478
g19
S'5'
p1479
sg4
g21
sg22
I29
sg10
g11
sg23
I-1
sg24
g21
sg25
(I0
I0
I0
I0
tp1480
sg27
S'//130.60.131.134/fiwi_datenbank/SCR_SOURCE/Masterdatenbank neu Export Einzelbilder/FIWI/SCR/8_1_1/029/5/00-52-30.675.png'
p1481
sg29
g21
sg30
g21
sg31
I00
sg32
I-1
sba(i__main__
Shot
p1482
(dp1483
g19
S'6'
p1484
sg4
g21
sg22
I29
sg10
g11
sg23
I-1
sg24
g21
sg25
(I0
I0
I0
I0
tp1485
sg27
S'//130.60.131.134/fiwi_datenbank/SCR_SOURCE/Masterdatenbank neu Export Einzelbilder/FIWI/SCR/8_1_1/029/6/00-52-32.775.png'
p1486
sg29
g21
sg30
g21
sg31
I00
sg32
I-1
sba(i__main__
Shot
p1487
(dp1488
g19
S'7'
p1489
sg4
g21
sg22
I29
sg10
g11
sg23
I-1
sg24
g21
sg25
(I0
I0
I0
I0
tp1490
sg27
S'//130.60.131.134/fiwi_datenbank/SCR_SOURCE/Masterdatenbank neu Export Einzelbilder/FIWI/SCR/8_1_1/029/7/00-52-36.675.png'
p1491
sg29
g21
sg30
g21
sg31
I00
sg32
I-1
sba(i__main__
Shot
p1492
(dp1493
g19
S'8'
p1494
sg4
g21
sg22
I29
sg10
g11
sg23
I-1
sg24
g21
sg25
(I0
I0
I0
I0
tp1495
sg27
S'//130.60.131.134/fiwi_datenbank/SCR_SOURCE/Masterdatenbank neu Export Einzelbilder/FIWI/SCR/8_1_1/029/8/00-52-44.875.png'
p1496
sg29
g21
sg30
g21
sg31
I00
sg32
I-1
sba(i__main__
Shot
p1497
(dp1498
g19
S'9'
p1499
sg4
g21
sg22
I29
sg10
g11
sg23
I-1
sg24
g21
sg25
(I0
I0
I0
I0
tp1500
sg27
S'//130.60.131.134/fiwi_datenbank/SCR_SOURCE/Masterdatenbank neu Export Einzelbilder/FIWI/SCR/8_1_1/029/9/00-52-46.475.png'
p1501
sg29
g21
sg30
g21
sg31
I00
sg32
I-1
sba(i__main__
Shot
p1502
(dp1503
g19
S'1'
p1504
sg4
g21
sg22
I30
sg10
g11
sg23
I-1
sg24
g21
sg25
(I0
I0
I0
I0
tp1505
sg27
S'//130.60.131.134/fiwi_datenbank/SCR_SOURCE/Masterdatenbank neu Export Einzelbilder/FIWI/SCR/8_1_1/030/1/00-53-13.375.png'
p1506
sg29
g21
sg30
g21
sg31
I00
sg32
I-1
sba(i__main__
Shot
p1507
(dp1508
g19
S'2'
p1509
sg4
g21
sg22
I30
sg10
g11
sg23
I-1
sg24
g21
sg25
(I0
I0
I0
I0
tp1510
sg27
S'//130.60.131.134/fiwi_datenbank/SCR_SOURCE/Masterdatenbank neu Export Einzelbilder/FIWI/SCR/8_1_1/030/2/00-53-21.865.png'
p1511
sg29
g21
sg30
g21
sg31
I00
sg32
I-1
sba(i__main__
Shot
p1512
(dp1513
g19
S'3'
p1514
sg4
g21
sg22
I30
sg10
g11
sg23
I-1
sg24
g21
sg25
(I0
I0
I0
I0
tp1515
sg27
S'//130.60.131.134/fiwi_datenbank/SCR_SOURCE/Masterdatenbank neu Export Einzelbilder/FIWI/SCR/8_1_1/030/3/00-53-27.275.png'
p1516
sg29
g21
sg30
g21
sg31
I00
sg32
I-1
sba(i__main__
Shot
p1517
(dp1518
g19
S'4'
p1519
sg4
g21
sg22
I30
sg10
g11
sg23
I-1
sg24
g21
sg25
(I0
I0
I0
I0
tp1520
sg27
S'//130.60.131.134/fiwi_datenbank/SCR_SOURCE/Masterdatenbank neu Export Einzelbilder/FIWI/SCR/8_1_1/030/4/00-53-32.932.png'
p1521
sg29
g21
sg30
g21
sg31
I00
sg32
I-1
sba(i__main__
Shot
p1522
(dp1523
g19
S'1'
p1524
sg4
g21
sg22
I31
sg10
g11
sg23
I-1
sg24
g21
sg25
(I0
I0
I0
I0
tp1525
sg27
S'//130.60.131.134/fiwi_datenbank/SCR_SOURCE/Masterdatenbank neu Export Einzelbilder/FIWI/SCR/8_1_1/031/1/00-53-43.053.png'
p1526
sg29
g21
sg30
g21
sg31
I00
sg32
I-1
sba(i__main__
Shot
p1527
(dp1528
g19
S'2'
p1529
sg4
g21
sg22
I31
sg10
g11
sg23
I-1
sg24
g21
sg25
(I0
I0
I0
I0
tp1530
sg27
S'//130.60.131.134/fiwi_datenbank/SCR_SOURCE/Masterdatenbank neu Export Einzelbilder/FIWI/SCR/8_1_1/031/2/00-53-53.222.png'
p1531
sg29
g21
sg30
g21
sg31
I00
sg32
I-1
sba(i__main__
Shot
p1532
(dp1533
g19
S'3'
p1534
sg4
g21
sg22
I31
sg10
g11
sg23
I-1
sg24
g21
sg25
(I0
I0
I0
I0
tp1535
sg27
S'//130.60.131.134/fiwi_datenbank/SCR/8_1_1/31_3_8_1_1.jpg'
p1536
sg29
g21
sg30
g21
sg31
I00
sg32
I-1
sba(i__main__
Shot
p1537
(dp1538
g19
S'4'
p1539
sg4
g21
sg22
I31
sg10
g11
sg23
I-1
sg24
g21
sg25
(I0
I0
I0
I0
tp1540
sg27
S'//130.60.131.134/fiwi_datenbank/SCR_SOURCE/Masterdatenbank neu Export Einzelbilder/FIWI/SCR/8_1_1/031/4/00-54-15.252.png'
p1541
sg29
g21
sg30
g21
sg31
I00
sg32
I-1
sba(i__main__
Shot
p1542
(dp1543
g19
S'1'
p1544
sg4
g21
sg22
I32
sg10
g11
sg23
I-1
sg24
g21
sg25
(I0
I0
I0
I0
tp1545
sg27
S'//130.60.131.134/fiwi_datenbank/SCR_SOURCE/Masterdatenbank neu Export Einzelbilder/FIWI/SCR/8_1_1/032/1/00-54-20.223.png'
p1546
sg29
g21
sg30
g21
sg31
I00
sg32
I-1
sba(i__main__
Shot
p1547
(dp1548
g19
S'2'
p1549
sg4
g21
sg22
I32
sg10
g11
sg23
I-1
sg24
g21
sg25
(I0
I0
I0
I0
tp1550
sg27
S'//130.60.131.134/fiwi_datenbank/SCR_SOURCE/Masterdatenbank neu Export Einzelbilder/FIWI/SCR/8_1_1/032/2/00-54-26.330.png'
p1551
sg29
g21
sg30
g21
sg31
I00
sg32
I-1
sba(i__main__
Shot
p1552
(dp1553
g19
S'3'
p1554
sg4
g21
sg22
I32
sg10
g11
sg23
I-1
sg24
g21
sg25
(I0
I0
I0
I0
tp1555
sg27
S'//130.60.131.134/fiwi_datenbank/SCR_SOURCE/Masterdatenbank neu Export Einzelbilder/FIWI/SCR/8_1_1/032/3/00-54-38.942.png'
p1556
sg29
g21
sg30
g21
sg31
I00
sg32
I-1
sba(i__main__
Shot
p1557
(dp1558
g19
S'4'
p1559
sg4
g21
sg22
I32
sg10
g11
sg23
I-1
sg24
g21
sg25
(I0
I0
I0
I0
tp1560
sg27
S'//130.60.131.134/fiwi_datenbank/SCR_SOURCE/Masterdatenbank neu Export Einzelbilder/FIWI/SCR/8_1_1/032/4/00-54-50.556.png'
p1561
sg29
g21
sg30
g21
sg31
I00
sg32
I-1
sba(i__main__
Shot
p1562
(dp1563
g19
S'5'
p1564
sg4
g21
sg22
I32
sg10
g11
sg23
I-1
sg24
g21
sg25
(I0
I0
I0
I0
tp1565
sg27
S'//130.60.131.134/fiwi_datenbank/SCR_SOURCE/Masterdatenbank neu Export Einzelbilder/FIWI/SCR/8_1_1/032/5/00-54-52.100.png'
p1566
sg29
g21
sg30
g21
sg31
I00
sg32
I-1
sba(i__main__
Shot
p1567
(dp1568
g19
S'6'
p1569
sg4
g21
sg22
I32
sg10
g11
sg23
I-1
sg24
g21
sg25
(I0
I0
I0
I0
tp1570
sg27
S'//130.60.131.134/fiwi_datenbank/SCR_SOURCE/Masterdatenbank neu Export Einzelbilder/FIWI/SCR/8_1_1/032/6/00-54-54.891.png'
p1571
sg29
g21
sg30
g21
sg31
I00
sg32
I-1
sba(i__main__
Shot
p1572
(dp1573
g19
S'7'
p1574
sg4
g21
sg22
I32
sg10
g11
sg23
I-1
sg24
g21
sg25
(I0
I0
I0
I0
tp1575
sg27
S'//130.60.131.134/fiwi_datenbank/SCR_SOURCE/Masterdatenbank neu Export Einzelbilder/FIWI/SCR/8_1_1/032/7/00-54-59.696.png'
p1576
sg29
g21
sg30
g21
sg31
I00
sg32
I-1
sba(i__main__
Shot
p1577
(dp1578
g19
S'8'
p1579
sg4
g21
sg22
I32
sg10
g11
sg23
I-1
sg24
g21
sg25
(I0
I0
I0
I0
tp1580
sg27
S'//130.60.131.134/fiwi_datenbank/SCR_SOURCE/Masterdatenbank neu Export Einzelbilder/FIWI/SCR/8_1_1/032/8/00-55-04.735.png'
p1581
sg29
g21
sg30
g21
sg31
I00
sg32
I-1
sba(i__main__
Shot
p1582
(dp1583
g19
S'1'
p1584
sg4
g21
sg22
I33
sg10
g11
sg23
I-1
sg24
g21
sg25
(I0
I0
I0
I0
tp1585
sg27
S'//130.60.131.134/fiwi_datenbank/SCR_SOURCE/Masterdatenbank neu Export Einzelbilder/FIWI/SCR/8_1_1/033/1/00-55-09.973.png'
p1586
sg29
g21
sg30
g21
sg31
I00
sg32
I-1
sba(i__main__
Shot
p1587
(dp1588
g19
S'10'
p1589
sg4
g21
sg22
I33
sg10
g11
sg23
I-1
sg24
g21
sg25
(I0
I0
I0
I0
tp1590
sg27
S'//130.60.131.134/fiwi_datenbank/SCR_SOURCE/Masterdatenbank neu Export Einzelbilder/FIWI/SCR/8_1_1/033/10/00-57-31.000.png'
p1591
sg29
g21
sg30
g21
sg31
I00
sg32
I-1
sba(i__main__
Shot
p1592
(dp1593
g19
S'11'
p1594
sg4
g21
sg22
I33
sg10
g11
sg23
I-1
sg24
g21
sg25
(I0
I0
I0
I0
tp1595
sg27
S'//130.60.131.134/fiwi_datenbank/SCR_SOURCE/Masterdatenbank neu Export Einzelbilder/FIWI/SCR/8_1_1/033/11/00-57-44.700.png'
p1596
sg29
g21
sg30
g21
sg31
I00
sg32
I-1
sba(i__main__
Shot
p1597
(dp1598
g19
S'12'
p1599
sg4
g21
sg22
I33
sg10
g11
sg23
I-1
sg24
g21
sg25
(I0
I0
I0
I0
tp1600
sg27
S'//130.60.131.134/fiwi_datenbank/SCR_SOURCE/Masterdatenbank neu Export Einzelbilder/FIWI/SCR/8_1_1/033/12/00-58-10.500.png'
p1601
sg29
g21
sg30
g21
sg31
I00
sg32
I-1
sba(i__main__
Shot
p1602
(dp1603
g19
S'13'
p1604
sg4
g21
sg22
I33
sg10
g11
sg23
I-1
sg24
g21
sg25
(I0
I0
I0
I0
tp1605
sg27
S'//130.60.131.134/fiwi_datenbank/SCR_SOURCE/Masterdatenbank neu Export Einzelbilder/FIWI/SCR/8_1_1/033/13/00-58-18.200.png'
p1606
sg29
g21
sg30
g21
sg31
I00
sg32
I-1
sba(i__main__
Shot
p1607
(dp1608
g19
S'14'
p1609
sg4
g21
sg22
I33
sg10
g11
sg23
I-1
sg24
g21
sg25
(I0
I0
I0
I0
tp1610
sg27
S'//130.60.131.134/fiwi_datenbank/SCR_SOURCE/Masterdatenbank neu Export Einzelbilder/FIWI/SCR/8_1_1/033/14/00-58-23.200.png'
p1611
sg29
g21
sg30
g21
sg31
I00
sg32
I-1
sba(i__main__
Shot
p1612
(dp1613
g19
S'15'
p1614
sg4
g21
sg22
I33
sg10
g11
sg23
I-1
sg24
g21
sg25
(I0
I0
I0
I0
tp1615
sg27
S'//130.60.131.134/fiwi_datenbank/SCR_SOURCE/Masterdatenbank neu Export Einzelbilder/FIWI/SCR/8_1_1/033/15/00-58-32.000.png'
p1616
sg29
g21
sg30
g21
sg31
I00
sg32
I-1
sba(i__main__
Shot
p1617
(dp1618
g19
S'2'
p1619
sg4
g21
sg22
I33
sg10
g11
sg23
I-1
sg24
g21
sg25
(I0
I0
I0
I0
tp1620
sg27
S'//130.60.131.134/fiwi_datenbank/SCR_SOURCE/Masterdatenbank neu Export Einzelbilder/FIWI/SCR/8_1_1/033/2/00-55-27.822.png'
p1621
sg29
g21
sg30
g21
sg31
I00
sg32
I-1
sba(i__main__
Shot
p1622
(dp1623
g19
S'3'
p1624
sg4
g21
sg22
I33
sg10
g11
sg23
I-1
sg24
g21
sg25
(I0
I0
I0
I0
tp1625
sg27
S'//130.60.131.134/fiwi_datenbank/SCR_SOURCE/Masterdatenbank neu Export Einzelbilder/FIWI/SCR/8_1_1/033/3/00-55-29.022.png'
p1626
sg29
g21
sg30
g21
sg31
I00
sg32
I-1
sba(i__main__
Shot
p1627
(dp1628
g19
S'4'
p1629
sg4
g21
sg22
I33
sg10
g11
sg23
I-1
sg24
g21
sg25
(I0
I0
I0
I0
tp1630
sg27
S'//130.60.131.134/fiwi_datenbank/SCR_SOURCE/Masterdatenbank neu Export Einzelbilder/FIWI/SCR/8_1_1/033/4/00-55-30.522.png'
p1631
sg29
g21
sg30
g21
sg31
I00
sg32
I-1
sba(i__main__
Shot
p1632
(dp1633
g19
S'5'
p1634
sg4
g21
sg22
I33
sg10
g11
sg23
I-1
sg24
g21
sg25
(I0
I0
I0
I0
tp1635
sg27
S'//130.60.131.134/fiwi_datenbank/SCR/8_1_1/33_5_8_1_1.jpg'
p1636
sg29
g21
sg30
g21
sg31
I00
sg32
I-1
sba(i__main__
Shot
p1637
(dp1638
g19
S'6'
p1639
sg4
g21
sg22
I33
sg10
g11
sg23
I-1
sg24
g21
sg25
(I0
I0
I0
I0
tp1640
sg27
S'//130.60.131.134/fiwi_datenbank/SCR_SOURCE/Masterdatenbank neu Export Einzelbilder/FIWI/SCR/8_1_1/033/6/00-55-54.622.png'
p1641
sg29
g21
sg30
g21
sg31
I00
sg32
I-1
sba(i__main__
Shot
p1642
(dp1643
g19
S'7'
p1644
sg4
g21
sg22
I33
sg10
g11
sg23
I-1
sg24
g21
sg25
(I0
I0
I0
I0
tp1645
sg27
S'//130.60.131.134/fiwi_datenbank/SCR_SOURCE/Masterdatenbank neu Export Einzelbilder/FIWI/SCR/8_1_1/033/7/00-56-14.622.png'
p1646
sg29
g21
sg30
g21
sg31
I00
sg32
I-1
sba(i__main__
Shot
p1647
(dp1648
g19
S'8'
p1649
sg4
g21
sg22
I33
sg10
g11
sg23
I-1
sg24
g21
sg25
(I0
I0
I0
I0
tp1650
sg27
S'//130.60.131.134/fiwi_datenbank/SCR_SOURCE/Masterdatenbank neu Export Einzelbilder/FIWI/SCR/8_1_1/033/8/00-56-48.022.png'
p1651
sg29
g21
sg30
g21
sg31
I00
sg32
I-1
sba(i__main__
Shot
p1652
(dp1653
g19
S'9'
p1654
sg4
g21
sg22
I33
sg10
g11
sg23
I-1
sg24
g21
sg25
(I0
I0
I0
I0
tp1655
sg27
S'//130.60.131.134/fiwi_datenbank/SCR_SOURCE/Masterdatenbank neu Export Einzelbilder/FIWI/SCR/8_1_1/033/9/00-57-08.022.png'
p1656
sg29
g21
sg30
g21
sg31
I00
sg32
I-1
sba(i__main__
Shot
p1657
(dp1658
g19
S'1'
p1659
sg4
g21
sg22
I34
sg10
g11
sg23
I-1
sg24
g21
sg25
(I0
I0
I0
I0
tp1660
sg27
S'//130.60.131.134/fiwi_datenbank/SCR_SOURCE/Masterdatenbank neu Export Einzelbilder/FIWI/SCR/8_1_1/034/1/00-58-42.882.png'
p1661
sg29
g21
sg30
g21
sg31
I00
sg32
I-1
sba(i__main__
Shot
p1662
(dp1663
g19
S'2'
p1664
sg4
g21
sg22
I34
sg10
g11
sg23
I-1
sg24
g21
sg25
(I0
I0
I0
I0
tp1665
sg27
S'//130.60.131.134/fiwi_datenbank/SCR_SOURCE/Masterdatenbank neu Export Einzelbilder/FIWI/SCR/8_1_1/034/2/00-58-44.254.png'
p1666
sg29
g21
sg30
g21
sg31
I00
sg32
I-1
sba(i__main__
Shot
p1667
(dp1668
g19
S'3'
p1669
sg4
g21
sg22
I34
sg10
g11
sg23
I-1
sg24
g21
sg25
(I0
I0
I0
I0
tp1670
sg27
S'//130.60.131.134/fiwi_datenbank/SCR_SOURCE/Masterdatenbank neu Export Einzelbilder/FIWI/SCR/8_1_1/034/3/00-58-58.668.png'
p1671
sg29
g21
sg30
g21
sg31
I00
sg32
I-1
sba(i__main__
Shot
p1672
(dp1673
g19
S'4'
p1674
sg4
g21
sg22
I34
sg10
g11
sg23
I-1
sg24
g21
sg25
(I0
I0
I0
I0
tp1675
sg27
S'//130.60.131.134/fiwi_datenbank/SCR_SOURCE/Masterdatenbank neu Export Einzelbilder/FIWI/SCR/8_1_1/034/4/00-59-14.517.png'
p1676
sg29
g21
sg30
g21
sg31
I00
sg32
I-1
sba(i__main__
Shot
p1677
(dp1678
g19
S'5'
p1679
sg4
g21
sg22
I34
sg10
g11
sg23
I-1
sg24
g21
sg25
(I0
I0
I0
I0
tp1680
sg27
S'//130.60.131.134/fiwi_datenbank/SCR_SOURCE/Masterdatenbank neu Export Einzelbilder/FIWI/SCR/8_1_1/034/5/00-59-49.382.png'
p1681
sg29
g21
sg30
g21
sg31
I00
sg32
I-1
sba(i__main__
Shot
p1682
(dp1683
g19
S'6'
p1684
sg4
g21
sg22
I34
sg10
g11
sg23
I-1
sg24
g21
sg25
(I0
I0
I0
I0
tp1685
sg27
S'//130.60.131.134/fiwi_datenbank/SCR_SOURCE/Masterdatenbank neu Export Einzelbilder/FIWI/SCR/8_1_1/034/6/00-59-56.082.png'
p1686
sg29
g21
sg30
g21
sg31
I00
sg32
I-1
sba(i__main__
Shot
p1687
(dp1688
g19
S'1'
p1689
sg4
g21
sg22
I35
sg10
g11
sg23
I-1
sg24
g21
sg25
(I0
I0
I0
I0
tp1690
sg27
S'//130.60.131.134/fiwi_datenbank/SCR_SOURCE/Masterdatenbank neu Export Einzelbilder/FIWI/SCR/8_1_1/035/1/01-00-02.232.png'
p1691
sg29
g21
sg30
g21
sg31
I00
sg32
I-1
sba(i__main__
Shot
p1692
(dp1693
g19
S'2'
p1694
sg4
g21
sg22
I35
sg10
g11
sg23
I-1
sg24
g21
sg25
(I0
I0
I0
I0
tp1695
sg27
S'//130.60.131.134/fiwi_datenbank/SCR_SOURCE/Masterdatenbank neu Export Einzelbilder/FIWI/SCR/8_1_1/035/2/01-00-07.937.png'
p1696
sg29
g21
sg30
g21
sg31
I00
sg32
I-1
sba(i__main__
Shot
p1697
(dp1698
g19
S'3'
p1699
sg4
g21
sg22
I35
sg10
g11
sg23
I-1
sg24
g21
sg25
(I0
I0
I0
I0
tp1700
sg27
S'//130.60.131.134/fiwi_datenbank/SCR_SOURCE/Masterdatenbank neu Export Einzelbilder/FIWI/SCR/8_1_1/035/3/01-00-14.037.png'
p1701
sg29
g21
sg30
g21
sg31
I00
sg32
I-1
sba(i__main__
Shot
p1702
(dp1703
g19
S'4'
p1704
sg4
g21
sg22
I35
sg10
g11
sg23
I-1
sg24
g21
sg25
(I0
I0
I0
I0
tp1705
sg27
S'//130.60.131.134/fiwi_datenbank/SCR_SOURCE/Masterdatenbank neu Export Einzelbilder/FIWI/SCR/8_1_1/035/4/01-00-16.337.png'
p1706
sg29
g21
sg30
g21
sg31
I00
sg32
I-1
sba(i__main__
Shot
p1707
(dp1708
g19
S'5'
p1709
sg4
g21
sg22
I35
sg10
g11
sg23
I-1
sg24
g21
sg25
(I0
I0
I0
I0
tp1710
sg27
S'//130.60.131.134/fiwi_datenbank/SCR_SOURCE/Masterdatenbank neu Export Einzelbilder/FIWI/SCR/8_1_1/035/5/01-00-27.037.png'
p1711
sg29
g21
sg30
g21
sg31
I00
sg32
I-1
sba(i__main__
Shot
p1712
(dp1713
g19
S'6'
p1714
sg4
g21
sg22
I35
sg10
g11
sg23
I-1
sg24
g21
sg25
(I0
I0
I0
I0
tp1715
sg27
S'//130.60.131.134/fiwi_datenbank/SCR_SOURCE/Masterdatenbank neu Export Einzelbilder/FIWI/SCR/8_1_1/035/6/01-01-16.637.png'
p1716
sg29
g21
sg30
g21
sg31
I00
sg32
I-1
sba(i__main__
Shot
p1717
(dp1718
g19
S'7'
p1719
sg4
g21
sg22
I35
sg10
g11
sg23
I-1
sg24
g21
sg25
(I0
I0
I0
I0
tp1720
sg27
S'//130.60.131.134/fiwi_datenbank/SCR_SOURCE/Masterdatenbank neu Export Einzelbilder/FIWI/SCR/8_1_1/035/7/01-01-25.837.png'
p1721
sg29
g21
sg30
g21
sg31
I00
sg32
I-1
sba(i__main__
Shot
p1722
(dp1723
g19
S'8'
p1724
sg4
g21
sg22
I35
sg10
g11
sg23
I-1
sg24
g21
sg25
(I0
I0
I0
I0
tp1725
sg27
S'//130.60.131.134/fiwi_datenbank/SCR_SOURCE/Masterdatenbank neu Export Einzelbilder/FIWI/SCR/8_1_1/035/8/01-01-34.837.png'
p1726
sg29
g21
sg30
g21
sg31
I00
sg32
I-1
sba(i__main__
Shot
p1727
(dp1728
g19
S'1'
p1729
sg4
g21
sg22
I36
sg10
g11
sg23
I-1
sg24
g21
sg25
(I0
I0
I0
I0
tp1730
sg27
S'//130.60.131.134/fiwi_datenbank/SCR_SOURCE/Masterdatenbank neu Export Einzelbilder/FIWI/SCR/8_1_1/036/1/01-01-40.797.png'
p1731
sg29
g21
sg30
g21
sg31
I00
sg32
I-1
sba(i__main__
Shot
p1732
(dp1733
g19
S'2'
p1734
sg4
g21
sg22
I36
sg10
g11
sg23
I-1
sg24
g21
sg25
(I0
I0
I0
I0
tp1735
sg27
S'//130.60.131.134/fiwi_datenbank/SCR/8_1_1/36_2_8_1_1.jpg'
p1736
sg29
g21
sg30
g21
sg31
I00
sg32
I-1
sba(i__main__
Shot
p1737
(dp1738
g19
S'3'
p1739
sg4
g21
sg22
I36
sg10
g11
sg23
I-1
sg24
g21
sg25
(I0
I0
I0
I0
tp1740
sg27
S'//130.60.131.134/fiwi_datenbank/SCR_SOURCE/Masterdatenbank neu Export Einzelbilder/FIWI/SCR/8_1_1/036/3/01-02-06.837.png'
p1741
sg29
g21
sg30
g21
sg31
I00
sg32
I-1
sba(i__main__
Shot
p1742
(dp1743
g19
S'4'
p1744
sg4
g21
sg22
I36
sg10
g11
sg23
I-1
sg24
g21
sg25
(I0
I0
I0
I0
tp1745
sg27
S'//130.60.131.134/fiwi_datenbank/SCR_SOURCE/Masterdatenbank neu Export Einzelbilder/FIWI/SCR/8_1_1/036/4/01-02-10.237.png'
p1746
sg29
g21
sg30
g21
sg31
I00
sg32
I-1
sba(i__main__
Shot
p1747
(dp1748
g19
S'1'
p1749
sg4
g21
sg22
I37
sg10
g11
sg23
I-1
sg24
g21
sg25
(I0
I0
I0
I0
tp1750
sg27
S'//130.60.131.134/fiwi_datenbank/SCR_SOURCE/Masterdatenbank neu Export Einzelbilder/FIWI/SCR/8_1_1/037/1/01-02-22.172.png'
p1751
sg29
g21
sg30
g21
sg31
I00
sg32
I-1
sba(i__main__
Shot
p1752
(dp1753
g19
S'10'
p1754
sg4
g21
sg22
I37
sg10
g11
sg23
I-1
sg24
g21
sg25
(I0
I0
I0
I0
tp1755
sg27
S'//130.60.131.134/fiwi_datenbank/SCR_SOURCE/Masterdatenbank neu Export Einzelbilder/FIWI/SCR/8_1_1/037/10/01-03-33.898.png'
p1756
sg29
g21
sg30
g21
sg31
I00
sg32
I-1
sba(i__main__
Shot
p1757
(dp1758
g19
S'11'
p1759
sg4
g21
sg22
I37
sg10
g11
sg23
I-1
sg24
g21
sg25
(I0
I0
I0
I0
tp1760
sg27
S'//130.60.131.134/fiwi_datenbank/SCR_SOURCE/Masterdatenbank neu Export Einzelbilder/FIWI/SCR/8_1_1/037/11/01-03-48.098.png'
p1761
sg29
g21
sg30
g21
sg31
I00
sg32
I-1
sba(i__main__
Shot
p1762
(dp1763
g19
S'12'
p1764
sg4
g21
sg22
I37
sg10
g11
sg23
I-1
sg24
g21
sg25
(I0
I0
I0
I0
tp1765
sg27
S'//130.60.131.134/fiwi_datenbank/SCR_SOURCE/Masterdatenbank neu Export Einzelbilder/FIWI/SCR/8_1_1/037/12/01-03-57.498.png'
p1766
sg29
g21
sg30
g21
sg31
I00
sg32
I-1
sba(i__main__
Shot
p1767
(dp1768
g19
S'13'
p1769
sg4
g21
sg22
I37
sg10
g11
sg23
I-1
sg24
g21
sg25
(I0
I0
I0
I0
tp1770
sg27
S'//130.60.131.134/fiwi_datenbank/SCR_SOURCE/Masterdatenbank neu Export Einzelbilder/FIWI/SCR/8_1_1/037/13/01-04-00.698.png'
p1771
sg29
g21
sg30
g21
sg31
I00
sg32
I-1
sba(i__main__
Shot
p1772
(dp1773
g19
S'14'
p1774
sg4
g21
sg22
I37
sg10
g11
sg23
I-1
sg24
g21
sg25
(I0
I0
I0
I0
tp1775
sg27
S'//130.60.131.134/fiwi_datenbank/SCR_SOURCE/Masterdatenbank neu Export Einzelbilder/FIWI/SCR/8_1_1/037/14/01-04-17.098.png'
p1776
sg29
g21
sg30
g21
sg31
I00
sg32
I-1
sba(i__main__
Shot
p1777
(dp1778
g19
S'15'
p1779
sg4
g21
sg22
I37
sg10
g11
sg23
I-1
sg24
g21
sg25
(I0
I0
I0
I0
tp1780
sg27
S'//130.60.131.134/fiwi_datenbank/SCR_SOURCE/Masterdatenbank neu Export Einzelbilder/FIWI/SCR/8_1_1/037/15/01-04-23.898.png'
p1781
sg29
g21
sg30
g21
sg31
I00
sg32
I-1
sba(i__main__
Shot
p1782
(dp1783
g19
S'16'
p1784
sg4
g21
sg22
I37
sg10
g11
sg23
I-1
sg24
g21
sg25
(I0
I0
I0
I0
tp1785
sg27
S'//130.60.131.134/fiwi_datenbank/SCR_SOURCE/Masterdatenbank neu Export Einzelbilder/FIWI/SCR/8_1_1/037/16/01-04-33.998.png'
p1786
sg29
g21
sg30
g21
sg31
I00
sg32
I-1
sba(i__main__
Shot
p1787
(dp1788
g19
S'17'
p1789
sg4
g21
sg22
I37
sg10
g11
sg23
I-1
sg24
g21
sg25
(I0
I0
I0
I0
tp1790
sg27
S'//130.60.131.134/fiwi_datenbank/SCR_SOURCE/Masterdatenbank neu Export Einzelbilder/FIWI/SCR/8_1_1/037/17/01-04-42.298.png'
p1791
sg29
g21
sg30
g21
sg31
I00
sg32
I-1
sba(i__main__
Shot
p1792
(dp1793
g19
S'2'
p1794
sg4
g21
sg22
I37
sg10
g11
sg23
I-1
sg24
g21
sg25
(I0
I0
I0
I0
tp1795
sg27
S'//130.60.131.134/fiwi_datenbank/SCR_SOURCE/Masterdatenbank neu Export Einzelbilder/FIWI/SCR/8_1_1/037/2/01-02-33.498.png'
p1796
sg29
g21
sg30
g21
sg31
I00
sg32
I-1
sba(i__main__
Shot
p1797
(dp1798
g19
S'3'
p1799
sg4
g21
sg22
I37
sg10
g11
sg23
I-1
sg24
g21
sg25
(I0
I0
I0
I0
tp1800
sg27
S'//130.60.131.134/fiwi_datenbank/SCR_SOURCE/Masterdatenbank neu Export Einzelbilder/FIWI/SCR/8_1_1/037/3/01-02-38.788.png'
p1801
sg29
g21
sg30
g21
sg31
I00
sg32
I-1
sba(i__main__
Shot
p1802
(dp1803
g19
S'4'
p1804
sg4
g21
sg22
I37
sg10
g11
sg23
I-1
sg24
g21
sg25
(I0
I0
I0
I0
tp1805
sg27
S'//130.60.131.134/fiwi_datenbank/SCR_SOURCE/Masterdatenbank neu Export Einzelbilder/FIWI/SCR/8_1_1/037/4/01-02-51.598.png'
p1806
sg29
g21
sg30
g21
sg31
I00
sg32
I-1
sba(i__main__
Shot
p1807
(dp1808
g19
S'5'
p1809
sg4
g21
sg22
I37
sg10
g11
sg23
I-1
sg24
g21
sg25
(I0
I0
I0
I0
tp1810
sg27
S'//130.60.131.134/fiwi_datenbank/SCR_SOURCE/Masterdatenbank neu Export Einzelbilder/FIWI/SCR/8_1_1/037/5/01-03-04.998.png'
p1811
sg29
g21
sg30
g21
sg31
I00
sg32
I-1
sba(i__main__
Shot
p1812
(dp1813
g19
S'6'
p1814
sg4
g21
sg22
I37
sg10
g11
sg23
I-1
sg24
g21
sg25
(I0
I0
I0
I0
tp1815
sg27
S'//130.60.131.134/fiwi_datenbank/SCR_SOURCE/Masterdatenbank neu Export Einzelbilder/FIWI/SCR/8_1_1/037/6/01-03-13.098.png'
p1816
sg29
g21
sg30
g21
sg31
I00
sg32
I-1
sba(i__main__
Shot
p1817
(dp1818
g19
S'7'
p1819
sg4
g21
sg22
I37
sg10
g11
sg23
I-1
sg24
g21
sg25
(I0
I0
I0
I0
tp1820
sg27
S'//130.60.131.134/fiwi_datenbank/SCR_SOURCE/Masterdatenbank neu Export Einzelbilder/FIWI/SCR/8_1_1/037/7/01-03-18.398.png'
p1821
sg29
g21
sg30
g21
sg31
I00
sg32
I-1
sba(i__main__
Shot
p1822
(dp1823
g19
S'8'
p1824
sg4
g21
sg22
I37
sg10
g11
sg23
I-1
sg24
g21
sg25
(I0
I0
I0
I0
tp1825
sg27
S'//130.60.131.134/fiwi_datenbank/SCR_SOURCE/Masterdatenbank neu Export Einzelbilder/FIWI/SCR/8_1_1/037/8/01-03-19.898.png'
p1826
sg29
g21
sg30
g21
sg31
I00
sg32
I-1
sba(i__main__
Shot
p1827
(dp1828
g19
S'9'
p1829
sg4
g21
sg22
I37
sg10
g11
sg23
I-1
sg24
g21
sg25
(I0
I0
I0
I0
tp1830
sg27
S'//130.60.131.134/fiwi_datenbank/SCR_SOURCE/Masterdatenbank neu Export Einzelbilder/FIWI/SCR/8_1_1/037/9/01-03-22.798.png'
p1831
sg29
g21
sg30
g21
sg31
I00
sg32
I-1
sba(i__main__
Shot
p1832
(dp1833
g19
S'1'
p1834
sg4
g21
sg22
I38
sg10
g11
sg23
I-1
sg24
g21
sg25
(I0
I0
I0
I0
tp1835
sg27
S'//130.60.131.134/fiwi_datenbank/SCR/8_1_1/38_1_8_1_1.jpg'
p1836
sg29
g21
sg30
g21
sg31
I00
sg32
I-1
sba(i__main__
Shot
p1837
(dp1838
g19
S'10'
p1839
sg4
g21
sg22
I38
sg10
g11
sg23
I-1
sg24
g21
sg25
(I0
I0
I0
I0
tp1840
sg27
S'//130.60.131.134/fiwi_datenbank/SCR_SOURCE/Masterdatenbank neu Export Einzelbilder/FIWI/SCR/8_1_1/038/10/01-05-17.898.png'
p1841
sg29
g21
sg30
g21
sg31
I00
sg32
I-1
sba(i__main__
Shot
p1842
(dp1843
g19
S'11'
p1844
sg4
g21
sg22
I38
sg10
g11
sg23
I-1
sg24
g21
sg25
(I0
I0
I0
I0
tp1845
sg27
S'//130.60.131.134/fiwi_datenbank/SCR_SOURCE/Masterdatenbank neu Export Einzelbilder/FIWI/SCR/8_1_1/038/11/01-05-23.798.png'
p1846
sg29
g21
sg30
g21
sg31
I00
sg32
I-1
sba(i__main__
Shot
p1847
(dp1848
g19
S'12'
p1849
sg4
g21
sg22
I38
sg10
g11
sg23
I-1
sg24
g21
sg25
(I0
I0
I0
I0
tp1850
sg27
S'//130.60.131.134/fiwi_datenbank/SCR_SOURCE/Masterdatenbank neu Export Einzelbilder/FIWI/SCR/8_1_1/038/12/01-05-28.098.png'
p1851
sg29
g21
sg30
g21
sg31
I00
sg32
I-1
sba(i__main__
Shot
p1852
(dp1853
g19
S'13'
p1854
sg4
g21
sg22
I38
sg10
g11
sg23
I-1
sg24
g21
sg25
(I0
I0
I0
I0
tp1855
sg27
S'//130.60.131.134/fiwi_datenbank/SCR_SOURCE/Masterdatenbank neu Export Einzelbilder/FIWI/SCR/8_1_1/038/13/01-05-34.998.png'
p1856
sg29
g21
sg30
g21
sg31
I00
sg32
I-1
sba(i__main__
Shot
p1857
(dp1858
g19
S'14'
p1859
sg4
g21
sg22
I38
sg10
g11
sg23
I-1
sg24
g21
sg25
(I0
I0
I0
I0
tp1860
sg27
S'//130.60.131.134/fiwi_datenbank/SCR_SOURCE/Masterdatenbank neu Export Einzelbilder/FIWI/SCR/8_1_1/038/14/01-05-38.598.png'
p1861
sg29
g21
sg30
g21
sg31
I00
sg32
I-1
sba(i__main__
Shot
p1862
(dp1863
g19
S'15'
p1864
sg4
g21
sg22
I38
sg10
g11
sg23
I-1
sg24
g21
sg25
(I0
I0
I0
I0
tp1865
sg27
S'//130.60.131.134/fiwi_datenbank/SCR_SOURCE/Masterdatenbank neu Export Einzelbilder/FIWI/SCR/8_1_1/038/15/01-05-39.898.png'
p1866
sg29
g21
sg30
g21
sg31
I00
sg32
I-1
sba(i__main__
Shot
p1867
(dp1868
g19
S'16'
p1869
sg4
g21
sg22
I38
sg10
g11
sg23
I-1
sg24
g21
sg25
(I0
I0
I0
I0
tp1870
sg27
S'//130.60.131.134/fiwi_datenbank/SCR_SOURCE/Masterdatenbank neu Export Einzelbilder/FIWI/SCR/8_1_1/038/16/01-05-41.498.png'
p1871
sg29
g21
sg30
g21
sg31
I00
sg32
I-1
sba(i__main__
Shot
p1872
(dp1873
g19
S'17'
p1874
sg4
g21
sg22
I38
sg10
g11
sg23
I-1
sg24
g21
sg25
(I0
I0
I0
I0
tp1875
sg27
S'//130.60.131.134/fiwi_datenbank/SCR_SOURCE/Masterdatenbank neu Export Einzelbilder/FIWI/SCR/8_1_1/038/17/01-05-48.798.png'
p1876
sg29
g21
sg30
g21
sg31
I00
sg32
I-1
sba(i__main__
Shot
p1877
(dp1878
g19
S'18'
p1879
sg4
g21
sg22
I38
sg10
g11
sg23
I-1
sg24
g21
sg25
(I0
I0
I0
I0
tp1880
sg27
S'//130.60.131.134/fiwi_datenbank/SCR_SOURCE/Masterdatenbank neu Export Einzelbilder/FIWI/SCR/8_1_1/038/18/01-05-49.598.png'
p1881
sg29
g21
sg30
g21
sg31
I00
sg32
I-1
sba(i__main__
Shot
p1882
(dp1883
g19
S'19'
p1884
sg4
g21
sg22
I38
sg10
g11
sg23
I-1
sg24
g21
sg25
(I0
I0
I0
I0
tp1885
sg27
S'//130.60.131.134/fiwi_datenbank/SCR_SOURCE/Masterdatenbank neu Export Einzelbilder/FIWI/SCR/8_1_1/038/19/01-05-52.598.png'
p1886
sg29
g21
sg30
g21
sg31
I00
sg32
I-1
sba(i__main__
Shot
p1887
(dp1888
g19
S'2'
p1889
sg4
g21
sg22
I38
sg10
g11
sg23
I-1
sg24
g21
sg25
(I0
I0
I0
I0
tp1890
sg27
S'//130.60.131.134/fiwi_datenbank/SCR_SOURCE/Masterdatenbank neu Export Einzelbilder/FIWI/SCR/8_1_1/038/2/01-04-46.449.png'
p1891
sg29
g21
sg30
g21
sg31
I00
sg32
I-1
sba(i__main__
Shot
p1892
(dp1893
g19
S'20'
p1894
sg4
g21
sg22
I38
sg10
g11
sg23
I-1
sg24
g21
sg25
(I0
I0
I0
I0
tp1895
sg27
S'//130.60.131.134/fiwi_datenbank/SCR_SOURCE/Masterdatenbank neu Export Einzelbilder/FIWI/SCR/8_1_1/038/20/01-06-09.398.png'
p1896
sg29
g21
sg30
g21
sg31
I00
sg32
I-1
sba(i__main__
Shot
p1897
(dp1898
g19
S'21'
p1899
sg4
g21
sg22
I38
sg10
g11
sg23
I-1
sg24
g21
sg25
(I0
I0
I0
I0
tp1900
sg27
S'//130.60.131.134/fiwi_datenbank/SCR_SOURCE/Masterdatenbank neu Export Einzelbilder/FIWI/SCR/8_1_1/038/21/01-06-13.698.png'
p1901
sg29
g21
sg30
g21
sg31
I00
sg32
I-1
sba(i__main__
Shot
p1902
(dp1903
g19
S'22'
p1904
sg4
g21
sg22
I38
sg10
g11
sg23
I-1
sg24
g21
sg25
(I0
I0
I0
I0
tp1905
sg27
S'//130.60.131.134/fiwi_datenbank/SCR_SOURCE/Masterdatenbank neu Export Einzelbilder/FIWI/SCR/8_1_1/038/22/01-06-18.098.png'
p1906
sg29
g21
sg30
g21
sg31
I00
sg32
I-1
sba(i__main__
Shot
p1907
(dp1908
g19
S'23'
p1909
sg4
g21
sg22
I38
sg10
g11
sg23
I-1
sg24
g21
sg25
(I0
I0
I0
I0
tp1910
sg27
S'//130.60.131.134/fiwi_datenbank/SCR_SOURCE/Masterdatenbank neu Export Einzelbilder/FIWI/SCR/8_1_1/038/23/01-06-23.698.png'
p1911
sg29
g21
sg30
g21
sg31
I00
sg32
I-1
sba(i__main__
Shot
p1912
(dp1913
g19
S'24'
p1914
sg4
g21
sg22
I38
sg10
g11
sg23
I-1
sg24
g21
sg25
(I0
I0
I0
I0
tp1915
sg27
S'//130.60.131.134/fiwi_datenbank/SCR_SOURCE/Masterdatenbank neu Export Einzelbilder/FIWI/SCR/8_1_1/038/24/01-06-42.198.png'
p1916
sg29
g21
sg30
g21
sg31
I00
sg32
I-1
sba(i__main__
Shot
p1917
(dp1918
g19
S'3'
p1919
sg4
g21
sg22
I38
sg10
g11
sg23
I-1
sg24
g21
sg25
(I0
I0
I0
I0
tp1920
sg27
S'//130.60.131.134/fiwi_datenbank/SCR_SOURCE/Masterdatenbank neu Export Einzelbilder/FIWI/SCR/8_1_1/038/3/01-04-50.298.png'
p1921
sg29
g21
sg30
g21
sg31
I00
sg32
I-1
sba(i__main__
Shot
p1922
(dp1923
g19
S'4'
p1924
sg4
g21
sg22
I38
sg10
g11
sg23
I-1
sg24
g21
sg25
(I0
I0
I0
I0
tp1925
sg27
S'//130.60.131.134/fiwi_datenbank/SCR_SOURCE/Masterdatenbank neu Export Einzelbilder/FIWI/SCR/8_1_1/038/4/01-04-53.398.png'
p1926
sg29
g21
sg30
g21
sg31
I00
sg32
I-1
sba(i__main__
Shot
p1927
(dp1928
g19
S'5'
p1929
sg4
g21
sg22
I38
sg10
g11
sg23
I-1
sg24
g21
sg25
(I0
I0
I0
I0
tp1930
sg27
S'//130.60.131.134/fiwi_datenbank/SCR_SOURCE/Masterdatenbank neu Export Einzelbilder/FIWI/SCR/8_1_1/038/5/01-04-57.098.png'
p1931
sg29
g21
sg30
g21
sg31
I00
sg32
I-1
sba(i__main__
Shot
p1932
(dp1933
g19
S'6'
p1934
sg4
g21
sg22
I38
sg10
g11
sg23
I-1
sg24
g21
sg25
(I0
I0
I0
I0
tp1935
sg27
S'//130.60.131.134/fiwi_datenbank/SCR/8_1_1/38_6_8_1_1.jpg'
p1936
sg29
g21
sg30
g21
sg31
I00
sg32
I-1
sba(i__main__
Shot
p1937
(dp1938
g19
S'7'
p1939
sg4
g21
sg22
I38
sg10
g11
sg23
I-1
sg24
g21
sg25
(I0
I0
I0
I0
tp1940
sg27
S'//130.60.131.134/fiwi_datenbank/SCR_SOURCE/Masterdatenbank neu Export Einzelbilder/FIWI/SCR/8_1_1/038/7/01-05-05.298.png'
p1941
sg29
g21
sg30
g21
sg31
I00
sg32
I-1
sba(i__main__
Shot
p1942
(dp1943
g19
S'8'
p1944
sg4
g21
sg22
I38
sg10
g11
sg23
I-1
sg24
g21
sg25
(I0
I0
I0
I0
tp1945
sg27
S'//130.60.131.134/fiwi_datenbank/SCR_SOURCE/Masterdatenbank neu Export Einzelbilder/FIWI/SCR/8_1_1/038/8/01-05-13.198.png'
p1946
sg29
g21
sg30
g21
sg31
I00
sg32
I-1
sba(i__main__
Shot
p1947
(dp1948
g19
S'9'
p1949
sg4
g21
sg22
I38
sg10
g11
sg23
I-1
sg24
g21
sg25
(I0
I0
I0
I0
tp1950
sg27
S'//130.60.131.134/fiwi_datenbank/SCR_SOURCE/Masterdatenbank neu Export Einzelbilder/FIWI/SCR/8_1_1/038/9/01-05-14.098.png'
p1951
sg29
g21
sg30
g21
sg31
I00
sg32
I-1
sba(i__main__
Shot
p1952
(dp1953
g19
S'1'
p1954
sg4
g21
sg22
I39
sg10
g11
sg23
I-1
sg24
g21
sg25
(I0
I0
I0
I0
tp1955
sg27
S'//130.60.131.134/fiwi_datenbank/SCR_SOURCE/Masterdatenbank neu Export Einzelbilder/FIWI/SCR/8_1_1/039/1/01-10-41.800.png'
p1956
sg29
g21
sg30
g21
sg31
I00
sg32
I-1
sba(i__main__
Shot
p1957
(dp1958
g19
S'2'
p1959
sg4
g21
sg22
I39
sg10
g11
sg23
I-1
sg24
g21
sg25
(I0
I0
I0
I0
tp1960
sg27
S'//130.60.131.134/fiwi_datenbank/SCR_SOURCE/Masterdatenbank neu Export Einzelbilder/FIWI/SCR/8_1_1/039/2/01-10-56.600.png'
p1961
sg29
g21
sg30
g21
sg31
I00
sg32
I-1
sba(i__main__
Shot
p1962
(dp1963
g19
S'1'
p1964
sg4
g21
sg22
I40
sg10
g11
sg23
I-1
sg24
g21
sg25
(I0
I0
I0
I0
tp1965
sg27
S'//130.60.131.134/fiwi_datenbank/SCR_SOURCE/Masterdatenbank neu Export Einzelbilder/FIWI/SCR/8_1_1/040/1/01-11-08.097.png'
p1966
sg29
g21
sg30
g21
sg31
I00
sg32
I-1
sba(i__main__
Shot
p1967
(dp1968
g19
S'2'
p1969
sg4
g21
sg22
I40
sg10
g11
sg23
I-1
sg24
g21
sg25
(I0
I0
I0
I0
tp1970
sg27
S'//130.60.131.134/fiwi_datenbank/SCR_SOURCE/Masterdatenbank neu Export Einzelbilder/FIWI/SCR/8_1_1/040/2/01-11-11.934.png'
p1971
sg29
g21
sg30
g21
sg31
I00
sg32
I-1
sba(i__main__
Shot
p1972
(dp1973
g19
S'3'
p1974
sg4
g21
sg22
I40
sg10
g11
sg23
I-1
sg24
g21
sg25
(I0
I0
I0
I0
tp1975
sg27
S'//130.60.131.134/fiwi_datenbank/SCR_SOURCE/Masterdatenbank neu Export Einzelbilder/FIWI/SCR/8_1_1/040/3/01-11-13.969.png'
p1976
sg29
g21
sg30
g21
sg31
I00
sg32
I-1
sba(i__main__
Shot
p1977
(dp1978
g19
S'4'
p1979
sg4
g21
sg22
I40
sg10
g11
sg23
I-1
sg24
g21
sg25
(I0
I0
I0
I0
tp1980
sg27
S'//130.60.131.134/fiwi_datenbank/SCR_SOURCE/Masterdatenbank neu Export Einzelbilder/FIWI/SCR/8_1_1/040/4/01-11-16.100.png'
p1981
sg29
g21
sg30
g21
sg31
I00
sg32
I-1
sba(i__main__
Shot
p1982
(dp1983
g19
S'5'
p1984
sg4
g21
sg22
I40
sg10
g11
sg23
I-1
sg24
g21
sg25
(I0
I0
I0
I0
tp1985
sg27
S'//130.60.131.134/fiwi_datenbank/SCR_SOURCE/Masterdatenbank neu Export Einzelbilder/FIWI/SCR/8_1_1/040/5/01-11-21.700.png'
p1986
sg29
g21
sg30
g21
sg31
I00
sg32
I-1
sba(i__main__
Shot
p1987
(dp1988
g19
S'6'
p1989
sg4
g21
sg22
I40
sg10
g11
sg23
I-1
sg24
g21
sg25
(I0
I0
I0
I0
tp1990
sg27
S'//130.60.131.134/fiwi_datenbank/SCR_SOURCE/Masterdatenbank neu Export Einzelbilder/FIWI/SCR/8_1_1/040/6/01-11-25.144.png'
p1991
sg29
g21
sg30
g21
sg31
I00
sg32
I-1
sba(i__main__
Shot
p1992
(dp1993
g19
S'1'
p1994
sg4
g21
sg22
I41
sg10
g11
sg23
I-1
sg24
g21
sg25
(I0
I0
I0
I0
tp1995
sg27
S'//130.60.131.134/fiwi_datenbank/SCR_SOURCE/Masterdatenbank neu Export Einzelbilder/FIWI/SCR/8_1_1/041/1/01-11-33.723.png'
p1996
sg29
g21
sg30
g21
sg31
I00
sg32
I-1
sba(i__main__
Shot
p1997
(dp1998
g19
S'10'
p1999
sg4
g21
sg22
I41
sg10
g11
sg23
I-1
sg24
g21
sg25
(I0
I0
I0
I0
tp2000
sg27
S'//130.60.131.134/fiwi_datenbank/SCR_SOURCE/Masterdatenbank neu Export Einzelbilder/FIWI/SCR/8_1_1/041/10/01-13-09.286.png'
p2001
sg29
g21
sg30
g21
sg31
I00
sg32
I-1
sba(i__main__
Shot
p2002
(dp2003
g19
S'11'
p2004
sg4
g21
sg22
I41
sg10
g11
sg23
I-1
sg24
g21
sg25
(I0
I0
I0
I0
tp2005
sg27
S'//130.60.131.134/fiwi_datenbank/SCR_SOURCE/Masterdatenbank neu Export Einzelbilder/FIWI/SCR/8_1_1/041/11/01-13-25.668.png'
p2006
sg29
g21
sg30
g21
sg31
I00
sg32
I-1
sba(i__main__
Shot
p2007
(dp2008
g19
S'12'
p2009
sg4
g21
sg22
I41
sg10
g11
sg23
I-1
sg24
g21
sg25
(I0
I0
I0
I0
tp2010
sg27
S'//130.60.131.134/fiwi_datenbank/SCR_SOURCE/Masterdatenbank neu Export Einzelbilder/FIWI/SCR/8_1_1/041/12/01-13-58.300.png'
p2011
sg29
g21
sg30
g21
sg31
I00
sg32
I-1
sba(i__main__
Shot
p2012
(dp2013
g19
S'13'
p2014
sg4
g21
sg22
I41
sg10
g11
sg23
I-1
sg24
g21
sg25
(I0
I0
I0
I0
tp2015
sg27
S'//130.60.131.134/fiwi_datenbank/SCR_SOURCE/Masterdatenbank neu Export Einzelbilder/FIWI/SCR/8_1_1/041/13/01-14-14.149.png'
p2016
sg29
g21
sg30
g21
sg31
I00
sg32
I-1
sba(i__main__
Shot
p2017
(dp2018
g19
S'14'
p2019
sg4
g21
sg22
I41
sg10
g11
sg23
I-1
sg24
g21
sg25
(I0
I0
I0
I0
tp2020
sg27
S'//130.60.131.134/fiwi_datenbank/SCR_SOURCE/Masterdatenbank neu Export Einzelbilder/FIWI/SCR/8_1_1/041/14/01-14-43.170.png'
p2021
sg29
g21
sg30
g21
sg31
I00
sg32
I-1
sba(i__main__
Shot
p2022
(dp2023
g19
S'2'
p2024
sg4
g21
sg22
I41
sg10
g11
sg23
I-1
sg24
g21
sg25
(I0
I0
I0
I0
tp2025
sg27
S'//130.60.131.134/fiwi_datenbank/SCR_SOURCE/Masterdatenbank neu Export Einzelbilder/FIWI/SCR/8_1_1/041/2/01-11-35.791.png'
p2026
sg29
g21
sg30
g21
sg31
I00
sg32
I-1
sba(i__main__
Shot
p2027
(dp2028
g19
S'3'
p2029
sg4
g21
sg22
I41
sg10
g11
sg23
I-1
sg24
g21
sg25
(I0
I0
I0
I0
tp2030
sg27
S'//130.60.131.134/fiwi_datenbank/SCR_SOURCE/Masterdatenbank neu Export Einzelbilder/FIWI/SCR/8_1_1/041/3/01-11-41.000.png'
p2031
sg29
g21
sg30
g21
sg31
I00
sg32
I-1
sba(i__main__
Shot
p2032
(dp2033
g19
S'4'
p2034
sg4
g21
sg22
I41
sg10
g11
sg23
I-1
sg24
g21
sg25
(I0
I0
I0
I0
tp2035
sg27
S'//130.60.131.134/fiwi_datenbank/SCR/8_1_1/41_4_8_1_1.jpg'
p2036
sg29
g21
sg30
g21
sg31
I00
sg32
I-1
sba(i__main__
Shot
p2037
(dp2038
g19
S'5'
p2039
sg4
g21
sg22
I41
sg10
g11
sg23
I-1
sg24
g21
sg25
(I0
I0
I0
I0
tp2040
sg27
S'//130.60.131.134/fiwi_datenbank/SCR_SOURCE/Masterdatenbank neu Export Einzelbilder/FIWI/SCR/8_1_1/041/5/01-12-04.553.png'
p2041
sg29
g21
sg30
g21
sg31
I00
sg32
I-1
sba(i__main__
Shot
p2042
(dp2043
g19
S'6'
p2044
sg4
g21
sg22
I41
sg10
g11
sg23
I-1
sg24
g21
sg25
(I0
I0
I0
I0
tp2045
sg27
S'//130.60.131.134/fiwi_datenbank/SCR_SOURCE/Masterdatenbank neu Export Einzelbilder/FIWI/SCR/8_1_1/041/6/01-12-19.568.png'
p2046
sg29
g21
sg30
g21
sg31
I00
sg32
I-1
sba(i__main__
Shot
p2047
(dp2048
g19
S'7'
p2049
sg4
g21
sg22
I41
sg10
g11
sg23
I-1
sg24
g21
sg25
(I0
I0
I0
I0
tp2050
sg27
S'//130.60.131.134/fiwi_datenbank/SCR_SOURCE/Masterdatenbank neu Export Einzelbilder/FIWI/SCR/8_1_1/041/7/01-12-44.193.png'
p2051
sg29
g21
sg30
g21
sg31
I00
sg32
I-1
sba(i__main__
Shot
p2052
(dp2053
g19
S'8'
p2054
sg4
g21
sg22
I41
sg10
g11
sg23
I-1
sg24
g21
sg25
(I0
I0
I0
I0
tp2055
sg27
S'//130.60.131.134/fiwi_datenbank/SCR_SOURCE/Masterdatenbank neu Export Einzelbilder/FIWI/SCR/8_1_1/041/8/01-12-53.769.png'
p2056
sg29
g21
sg30
g21
sg31
I00
sg32
I-1
sba(i__main__
Shot
p2057
(dp2058
g19
S'9'
p2059
sg4
g21
sg22
I41
sg10
g11
sg23
I-1
sg24
g21
sg25
(I0
I0
I0
I0
tp2060
sg27
S'//130.60.131.134/fiwi_datenbank/SCR_SOURCE/Masterdatenbank neu Export Einzelbilder/FIWI/SCR/8_1_1/041/9/01-13-02.845.png'
p2061
sg29
g21
sg30
g21
sg31
I00
sg32
I-1
sba(i__main__
Shot
p2062
(dp2063
g19
S'1'
p2064
sg4
g21
sg22
I42
sg10
g11
sg23
I-1
sg24
g21
sg25
(I0
I0
I0
I0
tp2065
sg27
S'//130.60.131.134/fiwi_datenbank/SCR_SOURCE/Masterdatenbank neu Export Einzelbilder/FIWI/SCR/8_1_1/042/1/01-14-55.346.png'
p2066
sg29
g21
sg30
g21
sg31
I00
sg32
I-1
sba(i__main__
Shot
p2067
(dp2068
g19
S'10'
p2069
sg4
g21
sg22
I42
sg10
g11
sg23
I-1
sg24
g21
sg25
(I0
I0
I0
I0
tp2070
sg27
S'//130.60.131.134/fiwi_datenbank/SCR_SOURCE/Masterdatenbank neu Export Einzelbilder/FIWI/SCR/8_1_1/042/10/01-16-21.446.png'
p2071
sg29
g21
sg30
g21
sg31
I00
sg32
I-1
sba(i__main__
Shot
p2072
(dp2073
g19
S'11'
p2074
sg4
g21
sg22
I42
sg10
g11
sg23
I-1
sg24
g21
sg25
(I0
I0
I0
I0
tp2075
sg27
S'//130.60.131.134/fiwi_datenbank/SCR_SOURCE/Masterdatenbank neu Export Einzelbilder/FIWI/SCR/8_1_1/042/11/01-16-38.946.png'
p2076
sg29
g21
sg30
g21
sg31
I00
sg32
I-1
sba(i__main__
Shot
p2077
(dp2078
g19
S'12'
p2079
sg4
g21
sg22
I42
sg10
g11
sg23
I-1
sg24
g21
sg25
(I0
I0
I0
I0
tp2080
sg27
S'//130.60.131.134/fiwi_datenbank/SCR_SOURCE/Masterdatenbank neu Export Einzelbilder/FIWI/SCR/8_1_1/042/12/01-16-45.246.png'
p2081
sg29
g21
sg30
g21
sg31
I00
sg32
I-1
sba(i__main__
Shot
p2082
(dp2083
g19
S'13'
p2084
sg4
g21
sg22
I42
sg10
g11
sg23
I-1
sg24
g21
sg25
(I0
I0
I0
I0
tp2085
sg27
S'//130.60.131.134/fiwi_datenbank/SCR_SOURCE/Masterdatenbank neu Export Einzelbilder/FIWI/SCR/8_1_1/042/13/01-16-51.946.png'
p2086
sg29
g21
sg30
g21
sg31
I00
sg32
I-1
sba(i__main__
Shot
p2087
(dp2088
g19
S'14'
p2089
sg4
g21
sg22
I42
sg10
g11
sg23
I-1
sg24
g21
sg25
(I0
I0
I0
I0
tp2090
sg27
S'//130.60.131.134/fiwi_datenbank/SCR_SOURCE/Masterdatenbank neu Export Einzelbilder/FIWI/SCR/8_1_1/042/14/01-17-00.346.png'
p2091
sg29
g21
sg30
g21
sg31
I00
sg32
I-1
sba(i__main__
Shot
p2092
(dp2093
g19
S'2'
p2094
sg4
g21
sg22
I42
sg10
g11
sg23
I-1
sg24
g21
sg25
(I0
I0
I0
I0
tp2095
sg27
S'//130.60.131.134/fiwi_datenbank/SCR_SOURCE/Masterdatenbank neu Export Einzelbilder/FIWI/SCR/8_1_1/042/2/01-15-04.646.png'
p2096
sg29
g21
sg30
g21
sg31
I00
sg32
I-1
sba(i__main__
Shot
p2097
(dp2098
g19
S'3'
p2099
sg4
g21
sg22
I42
sg10
g11
sg23
I-1
sg24
g21
sg25
(I0
I0
I0
I0
tp2100
sg27
S'//130.60.131.134/fiwi_datenbank/SCR_SOURCE/Masterdatenbank neu Export Einzelbilder/FIWI/SCR/8_1_1/042/3/01-15-10.246.png'
p2101
sg29
g21
sg30
g21
sg31
I00
sg32
I-1
sba(i__main__
Shot
p2102
(dp2103
g19
S'4'
p2104
sg4
g21
sg22
I42
sg10
g11
sg23
I-1
sg24
g21
sg25
(I0
I0
I0
I0
tp2105
sg27
S'//130.60.131.134/fiwi_datenbank/SCR_SOURCE/Masterdatenbank neu Export Einzelbilder/FIWI/SCR/8_1_1/042/4/01-15-14.846.png'
p2106
sg29
g21
sg30
g21
sg31
I00
sg32
I-1
sba(i__main__
Shot
p2107
(dp2108
g19
S'5'
p2109
sg4
g21
sg22
I42
sg10
g11
sg23
I-1
sg24
g21
sg25
(I0
I0
I0
I0
tp2110
sg27
S'//130.60.131.134/fiwi_datenbank/SCR_SOURCE/Masterdatenbank neu Export Einzelbilder/FIWI/SCR/8_1_1/042/5/01-15-29.946.png'
p2111
sg29
g21
sg30
g21
sg31
I00
sg32
I-1
sba(i__main__
Shot
p2112
(dp2113
g19
S'6'
p2114
sg4
g21
sg22
I42
sg10
g11
sg23
I-1
sg24
g21
sg25
(I0
I0
I0
I0
tp2115
sg27
S'//130.60.131.134/fiwi_datenbank/SCR_SOURCE/Masterdatenbank neu Export Einzelbilder/FIWI/SCR/8_1_1/042/6/01-15-45.546.png'
p2116
sg29
g21
sg30
g21
sg31
I00
sg32
I-1
sba(i__main__
Shot
p2117
(dp2118
g19
S'7'
p2119
sg4
g21
sg22
I42
sg10
g11
sg23
I-1
sg24
g21
sg25
(I0
I0
I0
I0
tp2120
sg27
S'//130.60.131.134/fiwi_datenbank/SCR_SOURCE/Masterdatenbank neu Export Einzelbilder/FIWI/SCR/8_1_1/042/7/01-16-08.546.png'
p2121
sg29
g21
sg30
g21
sg31
I00
sg32
I-1
sba(i__main__
Shot
p2122
(dp2123
g19
S'8'
p2124
sg4
g21
sg22
I42
sg10
g11
sg23
I-1
sg24
g21
sg25
(I0
I0
I0
I0
tp2125
sg27
S'//130.60.131.134/fiwi_datenbank/SCR_SOURCE/Masterdatenbank neu Export Einzelbilder/FIWI/SCR/8_1_1/042/8/01-16-12.346.png'
p2126
sg29
g21
sg30
g21
sg31
I00
sg32
I-1
sba(i__main__
Shot
p2127
(dp2128
g19
S'9'
p2129
sg4
g21
sg22
I42
sg10
g11
sg23
I-1
sg24
g21
sg25
(I0
I0
I0
I0
tp2130
sg27
S'//130.60.131.134/fiwi_datenbank/SCR_SOURCE/Masterdatenbank neu Export Einzelbilder/FIWI/SCR/8_1_1/042/9/01-16-16.846.png'
p2131
sg29
g21
sg30
g21
sg31
I00
sg32
I-1
sba(i__main__
Shot
p2132
(dp2133
g19
S'1'
p2134
sg4
g21
sg22
I43
sg10
g11
sg23
I-1
sg24
g21
sg25
(I0
I0
I0
I0
tp2135
sg27
S'//130.60.131.134/fiwi_datenbank/SCR/8_1_1/43_1_8_1_1.jpg'
p2136
sg29
g21
sg30
g21
sg31
I00
sg32
I-1
sba(i__main__
Shot
p2137
(dp2138
g19
S'2'
p2139
sg4
g21
sg22
I43
sg10
g11
sg23
I-1
sg24
g21
sg25
(I0
I0
I0
I0
tp2140
sg27
S'//130.60.131.134/fiwi_datenbank/SCR_SOURCE/Masterdatenbank neu Export Einzelbilder/FIWI/SCR/8_1_1/043/2/01-17-18.605.png'
p2141
sg29
g21
sg30
g21
sg31
I00
sg32
I-1
sba(i__main__
Shot
p2142
(dp2143
g19
S'3'
p2144
sg4
g21
sg22
I43
sg10
g11
sg23
I-1
sg24
g21
sg25
(I0
I0
I0
I0
tp2145
sg27
S'//130.60.131.134/fiwi_datenbank/SCR_SOURCE/Masterdatenbank neu Export Einzelbilder/FIWI/SCR/8_1_1/043/3/01-17-34.805.png'
p2146
sg29
g21
sg30
g21
sg31
I00
sg32
I-1
sba(i__main__
Shot
p2147
(dp2148
g19
S'4'
p2149
sg4
g21
sg22
I43
sg10
g11
sg23
I-1
sg24
g21
sg25
(I0
I0
I0
I0
tp2150
sg27
S'//130.60.131.134/fiwi_datenbank/SCR_SOURCE/Masterdatenbank neu Export Einzelbilder/FIWI/SCR/8_1_1/043/4/01-17-37.305.png'
p2151
sg29
g21
sg30
g21
sg31
I00
sg32
I-1
sba(i__main__
Shot
p2152
(dp2153
g19
S'5'
p2154
sg4
g21
sg22
I43
sg10
g11
sg23
I-1
sg24
g21
sg25
(I0
I0
I0
I0
tp2155
sg27
S'//130.60.131.134/fiwi_datenbank/SCR_SOURCE/Masterdatenbank neu Export Einzelbilder/FIWI/SCR/8_1_1/043/5/01-17-45.505.png'
p2156
sg29
g21
sg30
g21
sg31
I00
sg32
I-1
sba(i__main__
Shot
p2157
(dp2158
g19
S'6'
p2159
sg4
g21
sg22
I43
sg10
g11
sg23
I-1
sg24
g21
sg25
(I0
I0
I0
I0
tp2160
sg27
S'//130.60.131.134/fiwi_datenbank/SCR_SOURCE/Masterdatenbank neu Export Einzelbilder/FIWI/SCR/8_1_1/043/6/01-17-57.205.png'
p2161
sg29
g21
sg30
g21
sg31
I00
sg32
I-1
sba(i__main__
Shot
p2162
(dp2163
g19
S'7'
p2164
sg4
g21
sg22
I43
sg10
g11
sg23
I-1
sg24
g21
sg25
(I0
I0
I0
I0
tp2165
sg27
S'//130.60.131.134/fiwi_datenbank/SCR_SOURCE/Masterdatenbank neu Export Einzelbilder/FIWI/SCR/8_1_1/043/7/01-18-10.505.png'
p2166
sg29
g21
sg30
g21
sg31
I00
sg32
I-1
sba(i__main__
Shot
p2167
(dp2168
g19
S'8'
p2169
sg4
g21
sg22
I43
sg10
g11
sg23
I-1
sg24
g21
sg25
(I0
I0
I0
I0
tp2170
sg27
S'//130.60.131.134/fiwi_datenbank/SCR_SOURCE/Masterdatenbank neu Export Einzelbilder/FIWI/SCR/8_1_1/043/8/01-18-19.505.png'
p2171
sg29
g21
sg30
g21
sg31
I00
sg32
I-1
sba(i__main__
Shot
p2172
(dp2173
g19
S'9'
p2174
sg4
g21
sg22
I43
sg10
g11
sg23
I-1
sg24
g21
sg25
(I0
I0
I0
I0
tp2175
sg27
S'//130.60.131.134/fiwi_datenbank/SCR_SOURCE/Masterdatenbank neu Export Einzelbilder/FIWI/SCR/8_1_1/043/9/01-18-23.405.png'
p2176
sg29
g21
sg30
g21
sg31
I00
sg32
I-1
sba(i__main__
Shot
p2177
(dp2178
g19
S'1'
p2179
sg4
g21
sg22
I44
sg10
g11
sg23
I-1
sg24
g21
sg25
(I0
I0
I0
I0
tp2180
sg27
S'//130.60.131.134/fiwi_datenbank/SCR_SOURCE/Masterdatenbank neu Export Einzelbilder/FIWI/SCR/8_1_1/044/1/01-18-27.269.png'
p2181
sg29
g21
sg30
g21
sg31
I00
sg32
I-1
sba(i__main__
Shot
p2182
(dp2183
g19
S'2'
p2184
sg4
g21
sg22
I44
sg10
g11
sg23
I-1
sg24
g21
sg25
(I0
I0
I0
I0
tp2185
sg27
S'//130.60.131.134/fiwi_datenbank/SCR_SOURCE/Masterdatenbank neu Export Einzelbilder/FIWI/SCR/8_1_1/044/2/01-18-38.567.png'
p2186
sg29
g21
sg30
g21
sg31
I00
sg32
I-1
sba(i__main__
Shot
p2187
(dp2188
g19
S'3'
p2189
sg4
g21
sg22
I44
sg10
g11
sg23
I-1
sg24
g21
sg25
(I0
I0
I0
I0
tp2190
sg27
S'//130.60.131.134/fiwi_datenbank/SCR_SOURCE/Masterdatenbank neu Export Einzelbilder/FIWI/SCR/8_1_1/044/3/01-18-40.767.png'
p2191
sg29
g21
sg30
g21
sg31
I00
sg32
I-1
sba(i__main__
Shot
p2192
(dp2193
g19
S'1'
p2194
sg4
g21
sg22
I45
sg10
g11
sg23
I-1
sg24
g21
sg25
(I0
I0
I0
I0
tp2195
sg27
S'//130.60.131.134/fiwi_datenbank/SCR_SOURCE/Masterdatenbank neu Export Einzelbilder/FIWI/SCR/8_1_1/045/1/01-18-50.867.png'
p2196
sg29
g21
sg30
g21
sg31
I00
sg32
I-1
sba(i__main__
Shot
p2197
(dp2198
g19
S'2'
p2199
sg4
g21
sg22
I45
sg10
g11
sg23
I-1
sg24
g21
sg25
(I0
I0
I0
I0
tp2200
sg27
S'//130.60.131.134/fiwi_datenbank/SCR_SOURCE/Masterdatenbank neu Export Einzelbilder/FIWI/SCR/8_1_1/045/2/01-18-57.866.png'
p2201
sg29
g21
sg30
g21
sg31
I00
sg32
I-1
sba(i__main__
Shot
p2202
(dp2203
g19
S'3'
p2204
sg4
g21
sg22
I45
sg10
g11
sg23
I-1
sg24
g21
sg25
(I0
I0
I0
I0
tp2205
sg27
S'//130.60.131.134/fiwi_datenbank/SCR_SOURCE/Masterdatenbank neu Export Einzelbilder/FIWI/SCR/8_1_1/045/3/01-19-20.289.png'
p2206
sg29
g21
sg30
g21
sg31
I00
sg32
I-1
sba(i__main__
Shot
p2207
(dp2208
g19
S'4'
p2209
sg4
g21
sg22
I45
sg10
g11
sg23
I-1
sg24
g21
sg25
(I0
I0
I0
I0
tp2210
sg27
S'//130.60.131.134/fiwi_datenbank/SCR_SOURCE/Masterdatenbank neu Export Einzelbilder/FIWI/SCR/8_1_1/045/4/01-19-28.530.png'
p2211
sg29
g21
sg30
g21
sg31
I00
sg32
I-1
sba(i__main__
Shot
p2212
(dp2213
g19
S'5'
p2214
sg4
g21
sg22
I45
sg10
g11
sg23
I-1
sg24
g21
sg25
(I0
I0
I0
I0
tp2215
sg27
S'//130.60.131.134/fiwi_datenbank/SCR_SOURCE/Masterdatenbank neu Export Einzelbilder/FIWI/SCR/8_1_1/045/5/01-19-37.673.png'
p2216
sg29
g21
sg30
g21
sg31
I00
sg32
I-1
sba(i__main__
Shot
p2217
(dp2218
g19
S'1'
p2219
sg4
g21
sg22
I46
sg10
g11
sg23
I-1
sg24
g21
sg25
(I0
I0
I0
I0
tp2220
sg27
S'//130.60.131.134/fiwi_datenbank/SCR_SOURCE/Masterdatenbank neu Export Einzelbilder/FIWI/SCR/8_1_1/046/1/01-20-30.723.png'
p2221
sg29
g21
sg30
g21
sg31
I00
sg32
I-1
sba(i__main__
Shot
p2222
(dp2223
g19
S'2'
p2224
sg4
g21
sg22
I46
sg10
g11
sg23
I-1
sg24
g21
sg25
(I0
I0
I0
I0
tp2225
sg27
S'//130.60.131.134/fiwi_datenbank/SCR_SOURCE/Masterdatenbank neu Export Einzelbilder/FIWI/SCR/8_1_1/046/2/01-20-35.931.png'
p2226
sg29
g21
sg30
g21
sg31
I00
sg32
I-1
sba(i__main__
Shot
p2227
(dp2228
g19
S'3'
p2229
sg4
g21
sg22
I46
sg10
g11
sg23
I-1
sg24
g21
sg25
(I0
I0
I0
I0
tp2230
sg27
S'//130.60.131.134/fiwi_datenbank/SCR_SOURCE/Masterdatenbank neu Export Einzelbilder/FIWI/SCR/8_1_1/046/3/01-21-02.023.png'
p2231
sg29
g21
sg30
g21
sg31
I00
sg32
I-1
sba(i__main__
Shot
p2232
(dp2233
g19
S'4'
p2234
sg4
g21
sg22
I46
sg10
g11
sg23
I-1
sg24
g21
sg25
(I0
I0
I0
I0
tp2235
sg27
S'//130.60.131.134/fiwi_datenbank/SCR/8_1_1/46_4_8_1_1.jpg'
p2236
sg29
g21
sg30
g21
sg31
I00
sg32
I-1
sba(i__main__
Shot
p2237
(dp2238
g19
S'5'
p2239
sg4
g21
sg22
I46
sg10
g11
sg23
I-1
sg24
g21
sg25
(I0
I0
I0
I0
tp2240
sg27
S'//130.60.131.134/fiwi_datenbank/SCR_SOURCE/Masterdatenbank neu Export Einzelbilder/FIWI/SCR/8_1_1/046/5/01-21-15.270.png'
p2241
sg29
g21
sg30
g21
sg31
I00
sg32
I-1
sba(i__main__
Shot
p2242
(dp2243
g19
S'6'
p2244
sg4
g21
sg22
I46
sg10
g11
sg23
I-1
sg24
g21
sg25
(I0
I0
I0
I0
tp2245
sg27
S'//130.60.131.134/fiwi_datenbank/SCR_SOURCE/Masterdatenbank neu Export Einzelbilder/FIWI/SCR/8_1_1/046/6/01-21-51.223.png'
p2246
sg29
g21
sg30
g21
sg31
I00
sg32
I-1
sba(i__main__
Shot
p2247
(dp2248
g19
S'1'
p2249
sg4
g21
sg22
I47
sg10
g11
sg23
I-1
sg24
g21
sg25
(I0
I0
I0
I0
tp2250
sg27
S'//130.60.131.134/fiwi_datenbank/SCR_SOURCE/Masterdatenbank neu Export Einzelbilder/FIWI/SCR/8_1_1/047/1/01-22-10.523.png'
p2251
sg29
g21
sg30
g21
sg31
I00
sg32
I-1
sba(i__main__
Shot
p2252
(dp2253
g19
S'10'
p2254
sg4
g21
sg22
I47
sg10
g11
sg23
I-1
sg24
g21
sg25
(I0
I0
I0
I0
tp2255
sg27
S'//130.60.131.134/fiwi_datenbank/SCR_SOURCE/Masterdatenbank neu Export Einzelbilder/FIWI/SCR/8_1_1/047/10/01-23-06.423.png'
p2256
sg29
g21
sg30
g21
sg31
I00
sg32
I-1
sba(i__main__
Shot
p2257
(dp2258
g19
S'11'
p2259
sg4
g21
sg22
I47
sg10
g11
sg23
I-1
sg24
g21
sg25
(I0
I0
I0
I0
tp2260
sg27
S'//130.60.131.134/fiwi_datenbank/SCR_SOURCE/Masterdatenbank neu Export Einzelbilder/FIWI/SCR/8_1_1/047/11/01-23-11.023.png'
p2261
sg29
g21
sg30
g21
sg31
I00
sg32
I-1
sba(i__main__
Shot
p2262
(dp2263
g19
S'12'
p2264
sg4
g21
sg22
I47
sg10
g11
sg23
I-1
sg24
g21
sg25
(I0
I0
I0
I0
tp2265
sg27
S'//130.60.131.134/fiwi_datenbank/SCR_SOURCE/Masterdatenbank neu Export Einzelbilder/FIWI/SCR/8_1_1/047/12/01-23-16.923.png'
p2266
sg29
g21
sg30
g21
sg31
I00
sg32
I-1
sba(i__main__
Shot
p2267
(dp2268
g19
S'13'
p2269
sg4
g21
sg22
I47
sg10
g11
sg23
I-1
sg24
g21
sg25
(I0
I0
I0
I0
tp2270
sg27
S'//130.60.131.134/fiwi_datenbank/SCR_SOURCE/Masterdatenbank neu Export Einzelbilder/FIWI/SCR/8_1_1/047/13/01-23-22.923.png'
p2271
sg29
g21
sg30
g21
sg31
I00
sg32
I-1
sba(i__main__
Shot
p2272
(dp2273
g19
S'14'
p2274
sg4
g21
sg22
I47
sg10
g11
sg23
I-1
sg24
g21
sg25
(I0
I0
I0
I0
tp2275
sg27
S'//130.60.131.134/fiwi_datenbank/SCR_SOURCE/Masterdatenbank neu Export Einzelbilder/FIWI/SCR/8_1_1/047/14/01-23-27.000.png'
p2276
sg29
g21
sg30
g21
sg31
I00
sg32
I-1
sba(i__main__
Shot
p2277
(dp2278
g19
S'15'
p2279
sg4
g21
sg22
I47
sg10
g11
sg23
I-1
sg24
g21
sg25
(I0
I0
I0
I0
tp2280
sg27
S'//130.60.131.134/fiwi_datenbank/SCR_SOURCE/Masterdatenbank neu Export Einzelbilder/FIWI/SCR/8_1_1/047/15/01-23-33.600.png'
p2281
sg29
g21
sg30
g21
sg31
I00
sg32
I-1
sba(i__main__
Shot
p2282
(dp2283
g19
S'16'
p2284
sg4
g21
sg22
I47
sg10
g11
sg23
I-1
sg24
g21
sg25
(I0
I0
I0
I0
tp2285
sg27
S'//130.60.131.134/fiwi_datenbank/SCR_SOURCE/Masterdatenbank neu Export Einzelbilder/FIWI/SCR/8_1_1/047/16/01-23-37.500.png'
p2286
sg29
g21
sg30
g21
sg31
I00
sg32
I-1
sba(i__main__
Shot
p2287
(dp2288
g19
S'2'
p2289
sg4
g21
sg22
I47
sg10
g11
sg23
I-1
sg24
g21
sg25
(I0
I0
I0
I0
tp2290
sg27
S'//130.60.131.134/fiwi_datenbank/SCR_SOURCE/Masterdatenbank neu Export Einzelbilder/FIWI/SCR/8_1_1/047/2/01-22-24.723.png'
p2291
sg29
g21
sg30
g21
sg31
I00
sg32
I-1
sba(i__main__
Shot
p2292
(dp2293
g19
S'3'
p2294
sg4
g21
sg22
I47
sg10
g11
sg23
I-1
sg24
g21
sg25
(I0
I0
I0
I0
tp2295
sg27
S'//130.60.131.134/fiwi_datenbank/SCR_SOURCE/Masterdatenbank neu Export Einzelbilder/FIWI/SCR/8_1_1/047/3/01-22-33.723.png'
p2296
sg29
g21
sg30
g21
sg31
I00
sg32
I-1
sba(i__main__
Shot
p2297
(dp2298
g19
S'4'
p2299
sg4
g21
sg22
I47
sg10
g11
sg23
I-1
sg24
g21
sg25
(I0
I0
I0
I0
tp2300
sg27
S'//130.60.131.134/fiwi_datenbank/SCR_SOURCE/Masterdatenbank neu Export Einzelbilder/FIWI/SCR/8_1_1/047/4/01-22-37.723.png'
p2301
sg29
g21
sg30
g21
sg31
I00
sg32
I-1
sba(i__main__
Shot
p2302
(dp2303
g19
S'5'
p2304
sg4
g21
sg22
I47
sg10
g11
sg23
I-1
sg24
g21
sg25
(I0
I0
I0
I0
tp2305
sg27
S'//130.60.131.134/fiwi_datenbank/SCR_SOURCE/Masterdatenbank neu Export Einzelbilder/FIWI/SCR/8_1_1/047/5/01-22-40.223.png'
p2306
sg29
g21
sg30
g21
sg31
I00
sg32
I-1
sba(i__main__
Shot
p2307
(dp2308
g19
S'6'
p2309
sg4
g21
sg22
I47
sg10
g11
sg23
I-1
sg24
g21
sg25
(I0
I0
I0
I0
tp2310
sg27
S'//130.60.131.134/fiwi_datenbank/SCR_SOURCE/Masterdatenbank neu Export Einzelbilder/FIWI/SCR/8_1_1/047/6/01-22-43.023.png'
p2311
sg29
g21
sg30
g21
sg31
I00
sg32
I-1
sba(i__main__
Shot
p2312
(dp2313
g19
S'7'
p2314
sg4
g21
sg22
I47
sg10
g11
sg23
I-1
sg24
g21
sg25
(I0
I0
I0
I0
tp2315
sg27
S'//130.60.131.134/fiwi_datenbank/SCR_SOURCE/Masterdatenbank neu Export Einzelbilder/FIWI/SCR/8_1_1/047/7/01-22-54.323.png'
p2316
sg29
g21
sg30
g21
sg31
I00
sg32
I-1
sba(i__main__
Shot
p2317
(dp2318
g19
S'8'
p2319
sg4
g21
sg22
I47
sg10
g11
sg23
I-1
sg24
g21
sg25
(I0
I0
I0
I0
tp2320
sg27
S'//130.60.131.134/fiwi_datenbank/SCR_SOURCE/Masterdatenbank neu Export Einzelbilder/FIWI/SCR/8_1_1/047/8/01-23-02.723.png'
p2321
sg29
g21
sg30
g21
sg31
I00
sg32
I-1
sba(i__main__
Shot
p2322
(dp2323
g19
S'9'
p2324
sg4
g21
sg22
I47
sg10
g11
sg23
I-1
sg24
g21
sg25
(I0
I0
I0
I0
tp2325
sg27
S'//130.60.131.134/fiwi_datenbank/SCR_SOURCE/Masterdatenbank neu Export Einzelbilder/FIWI/SCR/8_1_1/047/9/01-23-06.423.png'
p2326
sg29
g21
sg30
g21
sg31
I00
sg32
I-1
sba(i__main__
Shot
p2327
(dp2328
g19
S'1'
p2329
sg4
g21
sg22
I48
sg10
g11
sg23
I-1
sg24
g21
sg25
(I0
I0
I0
I0
tp2330
sg27
S'//130.60.131.134/fiwi_datenbank/SCR_SOURCE/Masterdatenbank neu Export Einzelbilder/FIWI/SCR/8_1_1/048/1/01-23-46.300.png'
p2331
sg29
g21
sg30
g21
sg31
I00
sg32
I-1
sba(i__main__
Shot
p2332
(dp2333
g19
S'10'
p2334
sg4
g21
sg22
I48
sg10
g11
sg23
I-1
sg24
g21
sg25
(I0
I0
I0
I0
tp2335
sg27
S'//130.60.131.134/fiwi_datenbank/SCR/8_1_1/48_10_8_1_1.jpg'
p2336
sg29
g21
sg30
g21
sg31
I00
sg32
I-1
sba(i__main__
Shot
p2337
(dp2338
g19
S'11'
p2339
sg4
g21
sg22
I48
sg10
g11
sg23
I-1
sg24
g21
sg25
(I0
I0
I0
I0
tp2340
sg27
S'//130.60.131.134/fiwi_datenbank/SCR_SOURCE/Masterdatenbank neu Export Einzelbilder/FIWI/SCR/8_1_1/048/11/01-24-41.456.png'
p2341
sg29
g21
sg30
g21
sg31
I00
sg32
I-1
sba(i__main__
Shot
p2342
(dp2343
g19
S'12'
p2344
sg4
g21
sg22
I48
sg10
g11
sg23
I-1
sg24
g21
sg25
(I0
I0
I0
I0
tp2345
sg27
S'//130.60.131.134/fiwi_datenbank/SCR_SOURCE/Masterdatenbank neu Export Einzelbilder/FIWI/SCR/8_1_1/048/12/01-24-52.200.png'
p2346
sg29
g21
sg30
g21
sg31
I00
sg32
I-1
sba(i__main__
Shot
p2347
(dp2348
g19
S'13'
p2349
sg4
g21
sg22
I48
sg10
g11
sg23
I-1
sg24
g21
sg25
(I0
I0
I0
I0
tp2350
sg27
S'//130.60.131.134/fiwi_datenbank/SCR_SOURCE/Masterdatenbank neu Export Einzelbilder/FIWI/SCR/8_1_1/048/13/01-25-08.200.png'
p2351
sg29
g21
sg30
g21
sg31
I00
sg32
I-1
sba(i__main__
Shot
p2352
(dp2353
g19
S'14'
p2354
sg4
g21
sg22
I48
sg10
g11
sg23
I-1
sg24
g21
sg25
(I0
I0
I0
I0
tp2355
sg27
S'//130.60.131.134/fiwi_datenbank/SCR_SOURCE/Masterdatenbank neu Export Einzelbilder/FIWI/SCR/8_1_1/048/14/01-25-10.500.png'
p2356
sg29
g21
sg30
g21
sg31
I00
sg32
I-1
sba(i__main__
Shot
p2357
(dp2358
g19
S'15'
p2359
sg4
g21
sg22
I48
sg10
g11
sg23
I-1
sg24
g21
sg25
(I0
I0
I0
I0
tp2360
sg27
S'//130.60.131.134/fiwi_datenbank/SCR_SOURCE/Masterdatenbank neu Export Einzelbilder/FIWI/SCR/8_1_1/048/15/01-25-16.100.png'
p2361
sg29
g21
sg30
g21
sg31
I00
sg32
I-1
sba(i__main__
Shot
p2362
(dp2363
g19
S'16'
p2364
sg4
g21
sg22
I48
sg10
g11
sg23
I-1
sg24
g21
sg25
(I0
I0
I0
I0
tp2365
sg27
S'//130.60.131.134/fiwi_datenbank/SCR_SOURCE/Masterdatenbank neu Export Einzelbilder/FIWI/SCR/8_1_1/048/16/01-25-18.100.png'
p2366
sg29
g21
sg30
g21
sg31
I00
sg32
I-1
sba(i__main__
Shot
p2367
(dp2368
g19
S'17'
p2369
sg4
g21
sg22
I48
sg10
g11
sg23
I-1
sg24
g21
sg25
(I0
I0
I0
I0
tp2370
sg27
S'//130.60.131.134/fiwi_datenbank/SCR_SOURCE/Masterdatenbank neu Export Einzelbilder/FIWI/SCR/8_1_1/048/17/01-25-23.000.png'
p2371
sg29
g21
sg30
g21
sg31
I00
sg32
I-1
sba(i__main__
Shot
p2372
(dp2373
g19
S'18'
p2374
sg4
g21
sg22
I48
sg10
g11
sg23
I-1
sg24
g21
sg25
(I0
I0
I0
I0
tp2375
sg27
S'//130.60.131.134/fiwi_datenbank/SCR_SOURCE/Masterdatenbank neu Export Einzelbilder/FIWI/SCR/8_1_1/048/18/01-25-33.200.png'
p2376
sg29
g21
sg30
g21
sg31
I00
sg32
I-1
sba(i__main__
Shot
p2377
(dp2378
g19
S'19'
p2379
sg4
g21
sg22
I48
sg10
g11
sg23
I-1
sg24
g21
sg25
(I0
I0
I0
I0
tp2380
sg27
S'//130.60.131.134/fiwi_datenbank/SCR_SOURCE/Masterdatenbank neu Export Einzelbilder/FIWI/SCR/8_1_1/048/19/01-26-02.300.png'
p2381
sg29
g21
sg30
g21
sg31
I00
sg32
I-1
sba(i__main__
Shot
p2382
(dp2383
g19
S'2'
p2384
sg4
g21
sg22
I48
sg10
g11
sg23
I-1
sg24
g21
sg25
(I0
I0
I0
I0
tp2385
sg27
S'//130.60.131.134/fiwi_datenbank/SCR_SOURCE/Masterdatenbank neu Export Einzelbilder/FIWI/SCR/8_1_1/048/2/01-23-52.461.png'
p2386
sg29
g21
sg30
g21
sg31
I00
sg32
I-1
sba(i__main__
Shot
p2387
(dp2388
g19
S'20'
p2389
sg4
g21
sg22
I48
sg10
g11
sg23
I-1
sg24
g21
sg25
(I0
I0
I0
I0
tp2390
sg27
S'//130.60.131.134/fiwi_datenbank/SCR_SOURCE/Masterdatenbank neu Export Einzelbilder/FIWI/SCR/8_1_1/048/20/01-26-02.400.png'
p2391
sg29
g21
sg30
g21
sg31
I00
sg32
I-1
sba(i__main__
Shot
p2392
(dp2393
g19
S'21'
p2394
sg4
g21
sg22
I48
sg10
g11
sg23
I-1
sg24
g21
sg25
(I0
I0
I0
I0
tp2395
sg27
S'//130.60.131.134/fiwi_datenbank/SCR_SOURCE/Masterdatenbank neu Export Einzelbilder/FIWI/SCR/8_1_1/048/21/01-26-07.900.png'
p2396
sg29
g21
sg30
g21
sg31
I00
sg32
I-1
sba(i__main__
Shot
p2397
(dp2398
g19
S'3'
p2399
sg4
g21
sg22
I48
sg10
g11
sg23
I-1
sg24
g21
sg25
(I0
I0
I0
I0
tp2400
sg27
S'//130.60.131.134/fiwi_datenbank/SCR_SOURCE/Masterdatenbank neu Export Einzelbilder/FIWI/SCR/8_1_1/048/3/01-24-05.400.png'
p2401
sg29
g21
sg30
g21
sg31
I00
sg32
I-1
sba(i__main__
Shot
p2402
(dp2403
g19
S'4'
p2404
sg4
g21
sg22
I48
sg10
g11
sg23
I-1
sg24
g21
sg25
(I0
I0
I0
I0
tp2405
sg27
S'//130.60.131.134/fiwi_datenbank/SCR_SOURCE/Masterdatenbank neu Export Einzelbilder/FIWI/SCR/8_1_1/048/4/01-24-08.400.png'
p2406
sg29
g21
sg30
g21
sg31
I00
sg32
I-1
sba(i__main__
Shot
p2407
(dp2408
g19
S'5'
p2409
sg4
g21
sg22
I48
sg10
g11
sg23
I-1
sg24
g21
sg25
(I0
I0
I0
I0
tp2410
sg27
S'//130.60.131.134/fiwi_datenbank/SCR_SOURCE/Masterdatenbank neu Export Einzelbilder/FIWI/SCR/8_1_1/048/5/01-24-18.900.png'
p2411
sg29
g21
sg30
g21
sg31
I00
sg32
I-1
sba(i__main__
Shot
p2412
(dp2413
g19
S'6'
p2414
sg4
g21
sg22
I48
sg10
g11
sg23
I-1
sg24
g21
sg25
(I0
I0
I0
I0
tp2415
sg27
S'//130.60.131.134/fiwi_datenbank/SCR_SOURCE/Masterdatenbank neu Export Einzelbilder/FIWI/SCR/8_1_1/048/6/01-24-23.900.png'
p2416
sg29
g21
sg30
g21
sg31
I00
sg32
I-1
sba(i__main__
Shot
p2417
(dp2418
g19
S'7'
p2419
sg4
g21
sg22
I48
sg10
g11
sg23
I-1
sg24
g21
sg25
(I0
I0
I0
I0
tp2420
sg27
S'//130.60.131.134/fiwi_datenbank/SCR_SOURCE/Masterdatenbank neu Export Einzelbilder/FIWI/SCR/8_1_1/048/7/01-24-25.100.png'
p2421
sg29
g21
sg30
g21
sg31
I00
sg32
I-1
sba(i__main__
Shot
p2422
(dp2423
g19
S'8'
p2424
sg4
g21
sg22
I48
sg10
g11
sg23
I-1
sg24
g21
sg25
(I0
I0
I0
I0
tp2425
sg27
S'//130.60.131.134/fiwi_datenbank/SCR_SOURCE/Masterdatenbank neu Export Einzelbilder/FIWI/SCR/8_1_1/048/8/01-24-26.200.png'
p2426
sg29
g21
sg30
g21
sg31
I00
sg32
I-1
sba(i__main__
Shot
p2427
(dp2428
g19
S'9'
p2429
sg4
g21
sg22
I48
sg10
g11
sg23
I-1
sg24
g21
sg25
(I0
I0
I0
I0
tp2430
sg27
S'//130.60.131.134/fiwi_datenbank/SCR_SOURCE/Masterdatenbank neu Export Einzelbilder/FIWI/SCR/8_1_1/048/9/01-24-31.400.png'
p2431
sg29
g21
sg30
g21
sg31
I00
sg32
I-1
sba(i__main__
Shot
p2432
(dp2433
g19
S'1'
p2434
sg4
g21
sg22
I49
sg10
g11
sg23
I-1
sg24
g21
sg25
(I0
I0
I0
I0
tp2435
sg27
S'//130.60.131.134/fiwi_datenbank/SCR/8_1_1/49_1_8_1_1.jpg'
p2436
sg29
g21
sg30
g21
sg31
I00
sg32
I-1
sba(i__main__
Shot
p2437
(dp2438
g19
S'2'
p2439
sg4
g21
sg22
I49
sg10
g11
sg23
I-1
sg24
g21
sg25
(I0
I0
I0
I0
tp2440
sg27
S'//130.60.131.134/fiwi_datenbank/SCR_SOURCE/Masterdatenbank neu Export Einzelbilder/FIWI/SCR/8_1_1/049/2/01-26-32.100.png'
p2441
sg29
g21
sg30
g21
sg31
I00
sg32
I-1
sba(i__main__
Shot
p2442
(dp2443
g19
S'3'
p2444
sg4
g21
sg22
I49
sg10
g11
sg23
I-1
sg24
g21
sg25
(I0
I0
I0
I0
tp2445
sg27
S'//130.60.131.134/fiwi_datenbank/SCR_SOURCE/Masterdatenbank neu Export Einzelbilder/FIWI/SCR/8_1_1/049/3/01-26-38.000.png'
p2446
sg29
g21
sg30
g21
sg31
I00
sg32
I-1
sba(i__main__
Shot
p2447
(dp2448
g19
S'4'
p2449
sg4
g21
sg22
I49
sg10
g11
sg23
I-1
sg24
g21
sg25
(I0
I0
I0
I0
tp2450
sg27
S'//130.60.131.134/fiwi_datenbank/SCR_SOURCE/Masterdatenbank neu Export Einzelbilder/FIWI/SCR/8_1_1/049/4/01-26-40.700.png'
p2451
sg29
g21
sg30
g21
sg31
I00
sg32
I-1
sba(i__main__
Shot
p2452
(dp2453
g19
S'5'
p2454
sg4
g21
sg22
I49
sg10
g11
sg23
I-1
sg24
g21
sg25
(I0
I0
I0
I0
tp2455
sg27
S'//130.60.131.134/fiwi_datenbank/SCR_SOURCE/Masterdatenbank neu Export Einzelbilder/FIWI/SCR/8_1_1/049/5/01-26-54.500.png'
p2456
sg29
g21
sg30
g21
sg31
I00
sg32
I-1
sba(i__main__
Shot
p2457
(dp2458
g19
S'6'
p2459
sg4
g21
sg22
I49
sg10
g11
sg23
I-1
sg24
g21
sg25
(I0
I0
I0
I0
tp2460
sg27
S'//130.60.131.134/fiwi_datenbank/SCR_SOURCE/Masterdatenbank neu Export Einzelbilder/FIWI/SCR/8_1_1/049/6/01-26-59.300.png'
p2461
sg29
g21
sg30
g21
sg31
I00
sg32
I-1
sba(i__main__
Shot
p2462
(dp2463
g19
S'7'
p2464
sg4
g21
sg22
I49
sg10
g11
sg23
I-1
sg24
g21
sg25
(I0
I0
I0
I0
tp2465
sg27
S'//130.60.131.134/fiwi_datenbank/SCR_SOURCE/Masterdatenbank neu Export Einzelbilder/FIWI/SCR/8_1_1/049/7/01-27-08.800.png'
p2466
sg29
g21
sg30
g21
sg31
I00
sg32
I-1
sba(i__main__
Shot
p2467
(dp2468
g19
S'8'
p2469
sg4
g21
sg22
I49
sg10
g11
sg23
I-1
sg24
g21
sg25
(I0
I0
I0
I0
tp2470
sg27
S'//130.60.131.134/fiwi_datenbank/SCR_SOURCE/Masterdatenbank neu Export Einzelbilder/FIWI/SCR/8_1_1/049/8/01-27-31.400.png'
p2471
sg29
g21
sg30
g21
sg31
I00
sg32
I-1
sba(i__main__
Shot
p2472
(dp2473
g19
S'9'
p2474
sg4
g21
sg22
I49
sg10
g11
sg23
I-1
sg24
g21
sg25
(I0
I0
I0
I0
tp2475
sg27
S'//130.60.131.134/fiwi_datenbank/SCR_SOURCE/Masterdatenbank neu Export Einzelbilder/FIWI/SCR/8_1_1/049/9/01-27-39.600.png'
p2476
sg29
g21
sg30
g21
sg31
I00
sg32
I-1
sba(i__main__
Shot
p2477
(dp2478
g19
S'1'
p2479
sg4
g21
sg22
I50
sg10
g11
sg23
I-1
sg24
g21
sg25
(I0
I0
I0
I0
tp2480
sg27
S'//130.60.131.134/fiwi_datenbank/SCR_SOURCE/Masterdatenbank neu Export Einzelbilder/FIWI/SCR/8_1_1/050/1/01-27-43.800.png'
p2481
sg29
g21
sg30
g21
sg31
I00
sg32
I-1
sba(i__main__
Shot
p2482
(dp2483
g19
S'10'
p2484
sg4
g21
sg22
I50
sg10
g11
sg23
I-1
sg24
g21
sg25
(I0
I0
I0
I0
tp2485
sg27
S'//130.60.131.134/fiwi_datenbank/SCR_SOURCE/Masterdatenbank neu Export Einzelbilder/FIWI/SCR/8_1_1/050/10/01-29-56.600.png'
p2486
sg29
g21
sg30
g21
sg31
I00
sg32
I-1
sba(i__main__
Shot
p2487
(dp2488
g19
S'11'
p2489
sg4
g21
sg22
I50
sg10
g11
sg23
I-1
sg24
g21
sg25
(I0
I0
I0
I0
tp2490
sg27
S'//130.60.131.134/fiwi_datenbank/SCR_SOURCE/Masterdatenbank neu Export Einzelbilder/FIWI/SCR/8_1_1/050/11/01-30-21.000.png'
p2491
sg29
g21
sg30
g21
sg31
I00
sg32
I-1
sba(i__main__
Shot
p2492
(dp2493
g19
S'12'
p2494
sg4
g21
sg22
I50
sg10
g11
sg23
I-1
sg24
g21
sg25
(I0
I0
I0
I0
tp2495
sg27
S'//130.60.131.134/fiwi_datenbank/SCR_SOURCE/Masterdatenbank neu Export Einzelbilder/FIWI/SCR/8_1_1/050/12/01-30-26.300.png'
p2496
sg29
g21
sg30
g21
sg31
I00
sg32
I-1
sba(i__main__
Shot
p2497
(dp2498
g19
S'13'
p2499
sg4
g21
sg22
I50
sg10
g11
sg23
I-1
sg24
g21
sg25
(I0
I0
I0
I0
tp2500
sg27
S'//130.60.131.134/fiwi_datenbank/SCR_SOURCE/Masterdatenbank neu Export Einzelbilder/FIWI/SCR/8_1_1/050/13/01-31-11.900.png'
p2501
sg29
g21
sg30
g21
sg31
I00
sg32
I-1
sba(i__main__
Shot
p2502
(dp2503
g19
S'14'
p2504
sg4
g21
sg22
I50
sg10
g11
sg23
I-1
sg24
g21
sg25
(I0
I0
I0
I0
tp2505
sg27
S'//130.60.131.134/fiwi_datenbank/SCR_SOURCE/Masterdatenbank neu Export Einzelbilder/FIWI/SCR/8_1_1/050/14/01-31-18.900.png'
p2506
sg29
g21
sg30
g21
sg31
I00
sg32
I-1
sba(i__main__
Shot
p2507
(dp2508
g19
S'2'
p2509
sg4
g21
sg22
I50
sg10
g11
sg23
I-1
sg24
g21
sg25
(I0
I0
I0
I0
tp2510
sg27
S'//130.60.131.134/fiwi_datenbank/SCR_SOURCE/Masterdatenbank neu Export Einzelbilder/FIWI/SCR/8_1_1/050/2/01-27-52.600.png'
p2511
sg29
g21
sg30
g21
sg31
I00
sg32
I-1
sba(i__main__
Shot
p2512
(dp2513
g19
S'3'
p2514
sg4
g21
sg22
I50
sg10
g11
sg23
I-1
sg24
g21
sg25
(I0
I0
I0
I0
tp2515
sg27
S'//130.60.131.134/fiwi_datenbank/SCR_SOURCE/Masterdatenbank neu Export Einzelbilder/FIWI/SCR/8_1_1/050/3/01-28-00.700.png'
p2516
sg29
g21
sg30
g21
sg31
I00
sg32
I-1
sba(i__main__
Shot
p2517
(dp2518
g19
S'4'
p2519
sg4
g21
sg22
I50
sg10
g11
sg23
I-1
sg24
g21
sg25
(I0
I0
I0
I0
tp2520
sg27
S'//130.60.131.134/fiwi_datenbank/SCR_SOURCE/Masterdatenbank neu Export Einzelbilder/FIWI/SCR/8_1_1/050/4/01-28-13.400.png'
p2521
sg29
g21
sg30
g21
sg31
I00
sg32
I-1
sba(i__main__
Shot
p2522
(dp2523
g19
S'5'
p2524
sg4
g21
sg22
I50
sg10
g11
sg23
I-1
sg24
g21
sg25
(I0
I0
I0
I0
tp2525
sg27
S'//130.60.131.134/fiwi_datenbank/SCR_SOURCE/Masterdatenbank neu Export Einzelbilder/FIWI/SCR/8_1_1/050/5/01-28-18.000.png'
p2526
sg29
g21
sg30
g21
sg31
I00
sg32
I-1
sba(i__main__
Shot
p2527
(dp2528
g19
S'6'
p2529
sg4
g21
sg22
I50
sg10
g11
sg23
I-1
sg24
g21
sg25
(I0
I0
I0
I0
tp2530
sg27
S'//130.60.131.134/fiwi_datenbank/SCR_SOURCE/Masterdatenbank neu Export Einzelbilder/FIWI/SCR/8_1_1/050/6/01-28-51.800.png'
p2531
sg29
g21
sg30
g21
sg31
I00
sg32
I-1
sba(i__main__
Shot
p2532
(dp2533
g19
S'7'
p2534
sg4
g21
sg22
I50
sg10
g11
sg23
I-1
sg24
g21
sg25
(I0
I0
I0
I0
tp2535
sg27
S'//130.60.131.134/fiwi_datenbank/SCR/8_1_1/50_7_8_1_1.jpg'
p2536
sg29
g21
sg30
g21
sg31
I00
sg32
I-1
sba(i__main__
Shot
p2537
(dp2538
g19
S'8'
p2539
sg4
g21
sg22
I50
sg10
g11
sg23
I-1
sg24
g21
sg25
(I0
I0
I0
I0
tp2540
sg27
S'//130.60.131.134/fiwi_datenbank/SCR_SOURCE/Masterdatenbank neu Export Einzelbilder/FIWI/SCR/8_1_1/050/8/01-29-26.900.png'
p2541
sg29
g21
sg30
g21
sg31
I00
sg32
I-1
sba(i__main__
Shot
p2542
(dp2543
g19
S'9'
p2544
sg4
g21
sg22
I50
sg10
g11
sg23
I-1
sg24
g21
sg25
(I0
I0
I0
I0
tp2545
sg27
S'//130.60.131.134/fiwi_datenbank/SCR_SOURCE/Masterdatenbank neu Export Einzelbilder/FIWI/SCR/8_1_1/050/9/01-29-48.900.png'
p2546
sg29
g21
sg30
g21
sg31
I00
sg32
I-1
sba(i__main__
Shot
p2547
(dp2548
g19
S'1'
p2549
sg4
g21
sg22
I51
sg10
g11
sg23
I-1
sg24
g21
sg25
(I0
I0
I0
I0
tp2550
sg27
S'//130.60.131.134/fiwi_datenbank/SCR_SOURCE/Masterdatenbank neu Export Einzelbilder/FIWI/SCR/8_1_1/051/1/01-31-42.595.png'
p2551
sg29
g21
sg30
g21
sg31
I00
sg32
I-1
sba(i__main__
Shot
p2552
(dp2553
g19
S'2'
p2554
sg4
g21
sg22
I51
sg10
g11
sg23
I-1
sg24
g21
sg25
(I0
I0
I0
I0
tp2555
sg27
S'//130.60.131.134/fiwi_datenbank/SCR_SOURCE/Masterdatenbank neu Export Einzelbilder/FIWI/SCR/8_1_1/051/2/01-31-46.295.png'
p2556
sg29
g21
sg30
g21
sg31
I00
sg32
I-1
sba(i__main__
Shot
p2557
(dp2558
g19
S'3'
p2559
sg4
g21
sg22
I51
sg10
g11
sg23
I-1
sg24
g21
sg25
(I0
I0
I0
I0
tp2560
sg27
S'//130.60.131.134/fiwi_datenbank/SCR_SOURCE/Masterdatenbank neu Export Einzelbilder/FIWI/SCR/8_1_1/051/3/01-31-57.995.png'
p2561
sg29
g21
sg30
g21
sg31
I00
sg32
I-1
sba(i__main__
Shot
p2562
(dp2563
g19
S'4'
p2564
sg4
g21
sg22
I51
sg10
g11
sg23
I-1
sg24
g21
sg25
(I0
I0
I0
I0
tp2565
sg27
S'//130.60.131.134/fiwi_datenbank/SCR_SOURCE/Masterdatenbank neu Export Einzelbilder/FIWI/SCR/8_1_1/051/4/01-32-00.395.png'
p2566
sg29
g21
sg30
g21
sg31
I00
sg32
I-1
sba(i__main__
Shot
p2567
(dp2568
g19
S'5'
p2569
sg4
g21
sg22
I51
sg10
g11
sg23
I-1
sg24
g21
sg25
(I0
I0
I0
I0
tp2570
sg27
S'//130.60.131.134/fiwi_datenbank/SCR_SOURCE/Masterdatenbank neu Export Einzelbilder/FIWI/SCR/8_1_1/051/5/01-32-03.832.png'
p2571
sg29
g21
sg30
g21
sg31
I00
sg32
I-1
sba(i__main__
Shot
p2572
(dp2573
g19
S'6'
p2574
sg4
g21
sg22
I51
sg10
g11
sg23
I-1
sg24
g21
sg25
(I0
I0
I0
I0
tp2575
sg27
S'//130.60.131.134/fiwi_datenbank/SCR_SOURCE/Masterdatenbank neu Export Einzelbilder/FIWI/SCR/8_1_1/051/6/01-32-04.595.png'
p2576
sg29
g21
sg30
g21
sg31
I00
sg32
I-1
sba(i__main__
Shot
p2577
(dp2578
g19
S'7'
p2579
sg4
g21
sg22
I51
sg10
g11
sg23
I-1
sg24
g21
sg25
(I0
I0
I0
I0
tp2580
sg27
S'//130.60.131.134/fiwi_datenbank/SCR_SOURCE/Masterdatenbank neu Export Einzelbilder/FIWI/SCR/8_1_1/051/7/01-32-13.395.png'
p2581
sg29
g21
sg30
g21
sg31
I00
sg32
I-1
sba(i__main__
Shot
p2582
(dp2583
g19
S'8'
p2584
sg4
g21
sg22
I51
sg10
g11
sg23
I-1
sg24
g21
sg25
(I0
I0
I0
I0
tp2585
sg27
S'//130.60.131.134/fiwi_datenbank/SCR_SOURCE/Masterdatenbank neu Export Einzelbilder/FIWI/SCR/8_1_1/051/8/01-32-18.595.png'
p2586
sg29
g21
sg30
g21
sg31
I00
sg32
I-1
sba(i__main__
Shot
p2587
(dp2588
g19
S'1'
p2589
sg4
g21
sg22
I52
sg10
g11
sg23
I-1
sg24
g21
sg25
(I0
I0
I0
I0
tp2590
sg27
S'//130.60.131.134/fiwi_datenbank/SCR_SOURCE/Masterdatenbank neu Export Einzelbilder/FIWI/SCR/8_1_1/052/1/01-32-27.195.png'
p2591
sg29
g21
sg30
g21
sg31
I00
sg32
I-1
sba(i__main__
Shot
p2592
(dp2593
g19
S'2'
p2594
sg4
g21
sg22
I52
sg10
g11
sg23
I-1
sg24
g21
sg25
(I0
I0
I0
I0
tp2595
sg27
S'//130.60.131.134/fiwi_datenbank/SCR_SOURCE/Masterdatenbank neu Export Einzelbilder/FIWI/SCR/8_1_1/052/2/01-32-32.695.png'
p2596
sg29
g21
sg30
g21
sg31
I00
sg32
I-1
sba(i__main__
Shot
p2597
(dp2598
g19
S'3'
p2599
sg4
g21
sg22
I52
sg10
g11
sg23
I-1
sg24
g21
sg25
(I0
I0
I0
I0
tp2600
sg27
S'//130.60.131.134/fiwi_datenbank/SCR_SOURCE/Masterdatenbank neu Export Einzelbilder/FIWI/SCR/8_1_1/052/3/01-32-35.595.png'
p2601
sg29
g21
sg30
g21
sg31
I00
sg32
I-1
sba(i__main__
Shot
p2602
(dp2603
g19
S'4'
p2604
sg4
g21
sg22
I52
sg10
g11
sg23
I-1
sg24
g21
sg25
(I0
I0
I0
I0
tp2605
sg27
S'//130.60.131.134/fiwi_datenbank/SCR_SOURCE/Masterdatenbank neu Export Einzelbilder/FIWI/SCR/8_1_1/052/4/01-32-42.895.png'
p2606
sg29
g21
sg30
g21
sg31
I00
sg32
I-1
sba(i__main__
Shot
p2607
(dp2608
g19
S'5'
p2609
sg4
g21
sg22
I52
sg10
g11
sg23
I-1
sg24
g21
sg25
(I0
I0
I0
I0
tp2610
sg27
S'//130.60.131.134/fiwi_datenbank/SCR_SOURCE/Masterdatenbank neu Export Einzelbilder/FIWI/SCR/8_1_1/052/5/01-32-47.295.png'
p2611
sg29
g21
sg30
g21
sg31
I00
sg32
I-1
sba(i__main__
Shot
p2612
(dp2613
g19
S'6'
p2614
sg4
g21
sg22
I52
sg10
g11
sg23
I-1
sg24
g21
sg25
(I0
I0
I0
I0
tp2615
sg27
S'//130.60.131.134/fiwi_datenbank/SCR_SOURCE/Masterdatenbank neu Export Einzelbilder/FIWI/SCR/8_1_1/052/6/01-33-05.995.png'
p2616
sg29
g21
sg30
g21
sg31
I00
sg32
I-1
sba(i__main__
Shot
p2617
(dp2618
g19
S'7'
p2619
sg4
g21
sg22
I52
sg10
g11
sg23
I-1
sg24
g21
sg25
(I0
I0
I0
I0
tp2620
sg27
S'//130.60.131.134/fiwi_datenbank/SCR_SOURCE/Masterdatenbank neu Export Einzelbilder/FIWI/SCR/8_1_1/052/7/01-33-09.195.png'
p2621
sg29
g21
sg30
g21
sg31
I00
sg32
I-1
sba(i__main__
Shot
p2622
(dp2623
g19
S'8'
p2624
sg4
g21
sg22
I52
sg10
g11
sg23
I-1
sg24
g21
sg25
(I0
I0
I0
I0
tp2625
sg27
S'//130.60.131.134/fiwi_datenbank/SCR_SOURCE/Masterdatenbank neu Export Einzelbilder/FIWI/SCR/8_1_1/052/8/01-33-15.109.png'
p2626
sg29
g21
sg30
g21
sg31
I00
sg32
I-1
sba(i__main__
Shot
p2627
(dp2628
g19
S'1'
p2629
sg4
g21
sg22
I53
sg10
g11
sg23
I-1
sg24
g21
sg25
(I0
I0
I0
I0
tp2630
sg27
S'//130.60.131.134/fiwi_datenbank/SCR_SOURCE/Masterdatenbank neu Export Einzelbilder/FIWI/SCR/8_1_1/053/1/01-33-19.438.png'
p2631
sg29
g21
sg30
g21
sg31
I00
sg32
I-1
sba(i__main__
Shot
p2632
(dp2633
g19
S'2'
p2634
sg4
g21
sg22
I53
sg10
g11
sg23
I-1
sg24
g21
sg25
(I0
I0
I0
I0
tp2635
sg27
S'//130.60.131.134/fiwi_datenbank/SCR/8_1_1/53_2_8_1_1.jpg'
p2636
sg29
g21
sg30
g21
sg31
I00
sg32
I-1
sba(i__main__
Shot
p2637
(dp2638
g19
S'3'
p2639
sg4
g21
sg22
I53
sg10
g11
sg23
I-1
sg24
g21
sg25
(I0
I0
I0
I0
tp2640
sg27
S'//130.60.131.134/fiwi_datenbank/SCR_SOURCE/Masterdatenbank neu Export Einzelbilder/FIWI/SCR/8_1_1/053/3/01-33-32.438.png'
p2641
sg29
g21
sg30
g21
sg31
I00
sg32
I-1
sba(i__main__
Shot
p2642
(dp2643
g19
S'4'
p2644
sg4
g21
sg22
I53
sg10
g11
sg23
I-1
sg24
g21
sg25
(I0
I0
I0
I0
tp2645
sg27
S'//130.60.131.134/fiwi_datenbank/SCR_SOURCE/Masterdatenbank neu Export Einzelbilder/FIWI/SCR/8_1_1/053/4/01-33-38.938.png'
p2646
sg29
g21
sg30
g21
sg31
I00
sg32
I-1
sba(i__main__
Shot
p2647
(dp2648
g19
S'5'
p2649
sg4
g21
sg22
I53
sg10
g11
sg23
I-1
sg24
g21
sg25
(I0
I0
I0
I0
tp2650
sg27
S'//130.60.131.134/fiwi_datenbank/SCR_SOURCE/Masterdatenbank neu Export Einzelbilder/FIWI/SCR/8_1_1/053/5/01-33-51.638.png'
p2651
sg29
g21
sg30
g21
sg31
I00
sg32
I-1
sba(i__main__
Shot
p2652
(dp2653
g19
S'6'
p2654
sg4
g21
sg22
I53
sg10
g11
sg23
I-1
sg24
g21
sg25
(I0
I0
I0
I0
tp2655
sg27
S'//130.60.131.134/fiwi_datenbank/SCR_SOURCE/Masterdatenbank neu Export Einzelbilder/FIWI/SCR/8_1_1/053/6/01-33-54.438.png'
p2656
sg29
g21
sg30
g21
sg31
I00
sg32
I-1
sba(i__main__
Shot
p2657
(dp2658
g19
S'7'
p2659
sg4
g21
sg22
I53
sg10
g11
sg23
I-1
sg24
g21
sg25
(I0
I0
I0
I0
tp2660
sg27
S'//130.60.131.134/fiwi_datenbank/SCR_SOURCE/Masterdatenbank neu Export Einzelbilder/FIWI/SCR/8_1_1/053/7/01-34-33.238.png'
p2661
sg29
g21
sg30
g21
sg31
I00
sg32
I-1
sba(i__main__
Shot
p2662
(dp2663
g19
S'8'
p2664
sg4
g21
sg22
I53
sg10
g11
sg23
I-1
sg24
g21
sg25
(I0
I0
I0
I0
tp2665
sg27
S'//130.60.131.134/fiwi_datenbank/SCR_SOURCE/Masterdatenbank neu Export Einzelbilder/FIWI/SCR/8_1_1/053/8/01-34-35.830.png'
p2666
sg29
g21
sg30
g21
sg31
I00
sg32
I-1
sba(i__main__
Shot
p2667
(dp2668
g19
S'9'
p2669
sg4
g21
sg22
I53
sg10
g11
sg23
I-1
sg24
g21
sg25
(I0
I0
I0
I0
tp2670
sg27
S'//130.60.131.134/fiwi_datenbank/SCR_SOURCE/Masterdatenbank neu Export Einzelbilder/FIWI/SCR/8_1_1/053/9/01-34-44.038.png'
p2671
sg29
g21
sg30
g21
sg31
I00
sg32
I-1
sba(i__main__
Shot
p2672
(dp2673
g19
S'1'
p2674
sg4
g21
sg22
I54
sg10
g11
sg23
I-1
sg24
g21
sg25
(I0
I0
I0
I0
tp2675
sg27
S'//130.60.131.134/fiwi_datenbank/SCR_SOURCE/Masterdatenbank neu Export Einzelbilder/FIWI/SCR/8_1_1/054A/1/01-34-56.491.png'
p2676
sg29
g21
sg30
S'A'
p2677
sg31
I01
sg32
I-1
sba(i__main__
Shot
p2678
(dp2679
g19
S'10'
p2680
sg4
g21
sg22
I54
sg10
g11
sg23
I-1
sg24
g21
sg25
(I0
I0
I0
I0
tp2681
sg27
S'//130.60.131.134/fiwi_datenbank/SCR_SOURCE/Masterdatenbank neu Export Einzelbilder/FIWI/SCR/8_1_1/054A/10/01-35-33.838.png'
p2682
sg29
g21
sg30
g2677
sg31
I01
sg32
I-1
sba(i__main__
Shot
p2683
(dp2684
g19
S'11'
p2685
sg4
g21
sg22
I54
sg10
g11
sg23
I-1
sg24
g21
sg25
(I0
I0
I0
I0
tp2686
sg27
S'//130.60.131.134/fiwi_datenbank/SCR_SOURCE/Masterdatenbank neu Export Einzelbilder/FIWI/SCR/8_1_1/054A/11/01-35-38.438.png'
p2687
sg29
g21
sg30
g2677
sg31
I01
sg32
I-1
sba(i__main__
Shot
p2688
(dp2689
g19
S'12'
p2690
sg4
g21
sg22
I54
sg10
g11
sg23
I-1
sg24
g21
sg25
(I0
I0
I0
I0
tp2691
sg27
S'//130.60.131.134/fiwi_datenbank/SCR_SOURCE/Masterdatenbank neu Export Einzelbilder/FIWI/SCR/8_1_1/054A/12/01-35-42.538.png'
p2692
sg29
g21
sg30
g2677
sg31
I01
sg32
I-1
sba(i__main__
Shot
p2693
(dp2694
g19
S'2'
p2695
sg4
g21
sg22
I54
sg10
g11
sg23
I-1
sg24
g21
sg25
(I0
I0
I0
I0
tp2696
sg27
S'//130.60.131.134/fiwi_datenbank/SCR_SOURCE/Masterdatenbank neu Export Einzelbilder/FIWI/SCR/8_1_1/054A/2/01-35-03.038.png'
p2697
sg29
g21
sg30
g2677
sg31
I01
sg32
I-1
sba(i__main__
Shot
p2698
(dp2699
g19
S'3'
p2700
sg4
g21
sg22
I54
sg10
g11
sg23
I-1
sg24
g21
sg25
(I0
I0
I0
I0
tp2701
sg27
S'//130.60.131.134/fiwi_datenbank/SCR_SOURCE/Masterdatenbank neu Export Einzelbilder/FIWI/SCR/8_1_1/054A/3/01-35-04.938.png'
p2702
sg29
g21
sg30
g2677
sg31
I01
sg32
I-1
sba(i__main__
Shot
p2703
(dp2704
g19
S'4'
p2705
sg4
g21
sg22
I54
sg10
g11
sg23
I-1
sg24
g21
sg25
(I0
I0
I0
I0
tp2706
sg27
S'//130.60.131.134/fiwi_datenbank/SCR_SOURCE/Masterdatenbank neu Export Einzelbilder/FIWI/SCR/8_1_1/054A/4/01-35-16.638.png'
p2707
sg29
g21
sg30
g2677
sg31
I01
sg32
I-1
sba(i__main__
Shot
p2708
(dp2709
g19
S'5'
p2710
sg4
g21
sg22
I54
sg10
g11
sg23
I-1
sg24
g21
sg25
(I0
I0
I0
I0
tp2711
sg27
S'//130.60.131.134/fiwi_datenbank/SCR_SOURCE/Masterdatenbank neu Export Einzelbilder/FIWI/SCR/8_1_1/054A/5/01-35-17.538.png'
p2712
sg29
g21
sg30
g2677
sg31
I01
sg32
I-1
sba(i__main__
Shot
p2713
(dp2714
g19
S'6'
p2715
sg4
g21
sg22
I54
sg10
g11
sg23
I-1
sg24
g21
sg25
(I0
I0
I0
I0
tp2716
sg27
S'//130.60.131.134/fiwi_datenbank/SCR_SOURCE/Masterdatenbank neu Export Einzelbilder/FIWI/SCR/8_1_1/054A/6/01-35-19.438.png'
p2717
sg29
g21
sg30
g2677
sg31
I01
sg32
I-1
sba(i__main__
Shot
p2718
(dp2719
g19
S'7'
p2720
sg4
g21
sg22
I54
sg10
g11
sg23
I-1
sg24
g21
sg25
(I0
I0
I0
I0
tp2721
sg27
S'//130.60.131.134/fiwi_datenbank/SCR_SOURCE/Masterdatenbank neu Export Einzelbilder/FIWI/SCR/8_1_1/054A/7/01-35-21.238.png'
p2722
sg29
g21
sg30
g2677
sg31
I01
sg32
I-1
sba(i__main__
Shot
p2723
(dp2724
g19
S'8'
p2725
sg4
g21
sg22
I54
sg10
g11
sg23
I-1
sg24
g21
sg25
(I0
I0
I0
I0
tp2726
sg27
S'//130.60.131.134/fiwi_datenbank/SCR_SOURCE/Masterdatenbank neu Export Einzelbilder/FIWI/SCR/8_1_1/054A/8/01-35-23.338.png'
p2727
sg29
g21
sg30
g2677
sg31
I01
sg32
I-1
sba(i__main__
Shot
p2728
(dp2729
g19
S'9'
p2730
sg4
g21
sg22
I54
sg10
g11
sg23
I-1
sg24
g21
sg25
(I0
I0
I0
I0
tp2731
sg27
S'//130.60.131.134/fiwi_datenbank/SCR_SOURCE/Masterdatenbank neu Export Einzelbilder/FIWI/SCR/8_1_1/054A/9/01-35-29.738.png'
p2732
sg29
g21
sg30
g2677
sg31
I01
sg32
I-1
sba(i__main__
Shot
p2733
(dp2734
g19
S'1'
p2735
sg4
g21
sg22
I54
sg10
g11
sg23
I-1
sg24
g21
sg25
(I0
I0
I0
I0
tp2736
sg27
S'//130.60.131.134/fiwi_datenbank/SCR/8_1_1/54B_1_8_1_1.jpg'
p2737
sg29
g21
sg30
S'B'
p2738
sg31
I01
sg32
I-1
sba(i__main__
Shot
p2739
(dp2740
g19
S'10'
p2741
sg4
g21
sg22
I54
sg10
g11
sg23
I-1
sg24
g21
sg25
(I0
I0
I0
I0
tp2742
sg27
S'//130.60.131.134/fiwi_datenbank/SCR_SOURCE/Masterdatenbank neu Export Einzelbilder/FIWI/SCR/8_1_1/054B/10/01-36-30.538.png'
p2743
sg29
g21
sg30
g2738
sg31
I01
sg32
I-1
sba(i__main__
Shot
p2744
(dp2745
g19
S'11'
p2746
sg4
g21
sg22
I54
sg10
g11
sg23
I-1
sg24
g21
sg25
(I0
I0
I0
I0
tp2747
sg27
S'//130.60.131.134/fiwi_datenbank/SCR_SOURCE/Masterdatenbank neu Export Einzelbilder/FIWI/SCR/8_1_1/054B/11/01-36-56.538.png'
p2748
sg29
g21
sg30
g2738
sg31
I01
sg32
I-1
sba(i__main__
Shot
p2749
(dp2750
g19
S'12'
p2751
sg4
g21
sg22
I54
sg10
g11
sg23
I-1
sg24
g21
sg25
(I0
I0
I0
I0
tp2752
sg27
S'//130.60.131.134/fiwi_datenbank/SCR_SOURCE/Masterdatenbank neu Export Einzelbilder/FIWI/SCR/8_1_1/054B/12/01-37-02.738.png'
p2753
sg29
g21
sg30
g2738
sg31
I01
sg32
I-1
sba(i__main__
Shot
p2754
(dp2755
g19
S'13'
p2756
sg4
g21
sg22
I54
sg10
g11
sg23
I-1
sg24
g21
sg25
(I0
I0
I0
I0
tp2757
sg27
S'//130.60.131.134/fiwi_datenbank/SCR_SOURCE/Masterdatenbank neu Export Einzelbilder/FIWI/SCR/8_1_1/054B/13/01-37-08.738.png'
p2758
sg29
g21
sg30
g2738
sg31
I01
sg32
I-1
sba(i__main__
Shot
p2759
(dp2760
g19
S'14'
p2761
sg4
g21
sg22
I54
sg10
g11
sg23
I-1
sg24
g21
sg25
(I0
I0
I0
I0
tp2762
sg27
S'//130.60.131.134/fiwi_datenbank/SCR_SOURCE/Masterdatenbank neu Export Einzelbilder/FIWI/SCR/8_1_1/054B/14/01-37-13.738.png'
p2763
sg29
g21
sg30
g2738
sg31
I01
sg32
I-1
sba(i__main__
Shot
p2764
(dp2765
g19
S'15'
p2766
sg4
g21
sg22
I54
sg10
g11
sg23
I-1
sg24
g21
sg25
(I0
I0
I0
I0
tp2767
sg27
S'//130.60.131.134/fiwi_datenbank/SCR_SOURCE/Masterdatenbank neu Export Einzelbilder/FIWI/SCR/8_1_1/054B/15/01-37-17.238.png'
p2768
sg29
g21
sg30
g2738
sg31
I01
sg32
I-1
sba(i__main__
Shot
p2769
(dp2770
g19
S'16'
p2771
sg4
g21
sg22
I54
sg10
g11
sg23
I-1
sg24
g21
sg25
(I0
I0
I0
I0
tp2772
sg27
S'//130.60.131.134/fiwi_datenbank/SCR_SOURCE/Masterdatenbank neu Export Einzelbilder/FIWI/SCR/8_1_1/054B/16/01-37-21.838.png'
p2773
sg29
g21
sg30
g2738
sg31
I01
sg32
I-1
sba(i__main__
Shot
p2774
(dp2775
g19
S'17'
p2776
sg4
g21
sg22
I54
sg10
g11
sg23
I-1
sg24
g21
sg25
(I0
I0
I0
I0
tp2777
sg27
S'//130.60.131.134/fiwi_datenbank/SCR_SOURCE/Masterdatenbank neu Export Einzelbilder/FIWI/SCR/8_1_1/054B/17/01-37-29.338.png'
p2778
sg29
g21
sg30
g2738
sg31
I01
sg32
I-1
sba(i__main__
Shot
p2779
(dp2780
g19
S'2'
p2781
sg4
g21
sg22
I54
sg10
g11
sg23
I-1
sg24
g21
sg25
(I0
I0
I0
I0
tp2782
sg27
S'//130.60.131.134/fiwi_datenbank/SCR_SOURCE/Masterdatenbank neu Export Einzelbilder/FIWI/SCR/8_1_1/054B/2/01-35-50.238.png'
p2783
sg29
g21
sg30
g2738
sg31
I01
sg32
I-1
sba(i__main__
Shot
p2784
(dp2785
g19
S'3'
p2786
sg4
g21
sg22
I54
sg10
g11
sg23
I-1
sg24
g21
sg25
(I0
I0
I0
I0
tp2787
sg27
S'//130.60.131.134/fiwi_datenbank/SCR_SOURCE/Masterdatenbank neu Export Einzelbilder/FIWI/SCR/8_1_1/054B/3/01-35-54.438.png'
p2788
sg29
g21
sg30
g2738
sg31
I01
sg32
I-1
sba(i__main__
Shot
p2789
(dp2790
g19
S'4'
p2791
sg4
g21
sg22
I54
sg10
g11
sg23
I-1
sg24
g21
sg25
(I0
I0
I0
I0
tp2792
sg27
S'//130.60.131.134/fiwi_datenbank/SCR_SOURCE/Masterdatenbank neu Export Einzelbilder/FIWI/SCR/8_1_1/054B/4/01-36-01.238.png'
p2793
sg29
g21
sg30
g2738
sg31
I01
sg32
I-1
sba(i__main__
Shot
p2794
(dp2795
g19
S'5'
p2796
sg4
g21
sg22
I54
sg10
g11
sg23
I-1
sg24
g21
sg25
(I0
I0
I0
I0
tp2797
sg27
S'//130.60.131.134/fiwi_datenbank/SCR_SOURCE/Masterdatenbank neu Export Einzelbilder/FIWI/SCR/8_1_1/054B/5/01-36-10.638.png'
p2798
sg29
g21
sg30
g2738
sg31
I01
sg32
I-1
sba(i__main__
Shot
p2799
(dp2800
g19
S'6'
p2801
sg4
g21
sg22
I54
sg10
g11
sg23
I-1
sg24
g21
sg25
(I0
I0
I0
I0
tp2802
sg27
S'//130.60.131.134/fiwi_datenbank/SCR_SOURCE/Masterdatenbank neu Export Einzelbilder/FIWI/SCR/8_1_1/054B/6/01-36-16.238.png'
p2803
sg29
g21
sg30
g2738
sg31
I01
sg32
I-1
sba(i__main__
Shot
p2804
(dp2805
g19
S'7'
p2806
sg4
g21
sg22
I54
sg10
g11
sg23
I-1
sg24
g21
sg25
(I0
I0
I0
I0
tp2807
sg27
S'//130.60.131.134/fiwi_datenbank/SCR_SOURCE/Masterdatenbank neu Export Einzelbilder/FIWI/SCR/8_1_1/054B/7/01-36-16.238.png'
p2808
sg29
g21
sg30
g2738
sg31
I01
sg32
I-1
sba(i__main__
Shot
p2809
(dp2810
g19
S'8'
p2811
sg4
g21
sg22
I54
sg10
g11
sg23
I-1
sg24
g21
sg25
(I0
I0
I0
I0
tp2812
sg27
S'//130.60.131.134/fiwi_datenbank/SCR_SOURCE/Masterdatenbank neu Export Einzelbilder/FIWI/SCR/8_1_1/054B/8/01-36-21.338.png'
p2813
sg29
g21
sg30
g2738
sg31
I01
sg32
I-1
sba(i__main__
Shot
p2814
(dp2815
g19
S'9'
p2816
sg4
g21
sg22
I54
sg10
g11
sg23
I-1
sg24
g21
sg25
(I0
I0
I0
I0
tp2817
sg27
S'//130.60.131.134/fiwi_datenbank/SCR_SOURCE/Masterdatenbank neu Export Einzelbilder/FIWI/SCR/8_1_1/054B/9/01-36-27.838.png'
p2818
sg29
g21
sg30
g2738
sg31
I01
sg32
I-1
sba(i__main__
Shot
p2819
(dp2820
g19
S'1'
p2821
sg4
g21
sg22
I55
sg10
g11
sg23
I-1
sg24
g21
sg25
(I0
I0
I0
I0
tp2822
sg27
S'//130.60.131.134/fiwi_datenbank/SCR_SOURCE/Masterdatenbank neu Export Einzelbilder/FIWI/SCR/8_1_1/055/1/01-37-32.538.png'
p2823
sg29
g21
sg30
g21
sg31
I00
sg32
I-1
sba(i__main__
Shot
p2824
(dp2825
g19
S'2'
p2826
sg4
g21
sg22
I55
sg10
g11
sg23
I-1
sg24
g21
sg25
(I0
I0
I0
I0
tp2827
sg27
S'//130.60.131.134/fiwi_datenbank/SCR_SOURCE/Masterdatenbank neu Export Einzelbilder/FIWI/SCR/8_1_1/055/2/01-37-33.838.png'
p2828
sg29
g21
sg30
g21
sg31
I00
sg32
I-1
sba(i__main__
Shot
p2829
(dp2830
g19
S'3'
p2831
sg4
g21
sg22
I55
sg10
g11
sg23
I-1
sg24
g21
sg25
(I0
I0
I0
I0
tp2832
sg27
S'//130.60.131.134/fiwi_datenbank/SCR_SOURCE/Masterdatenbank neu Export Einzelbilder/FIWI/SCR/8_1_1/055/3/01-37-39.038.png'
p2833
sg29
g21
sg30
g21
sg31
I00
sg32
I-1
sba(i__main__
Shot
p2834
(dp2835
g19
S'4'
p2836
sg4
g21
sg22
I55
sg10
g11
sg23
I-1
sg24
g21
sg25
(I0
I0
I0
I0
tp2837
sg27
S'//130.60.131.134/fiwi_datenbank/SCR/8_1_1/55_4_8_1_1.jpg'
p2838
sg29
g21
sg30
g21
sg31
I00
sg32
I-1
sba(i__main__
Shot
p2839
(dp2840
g19
S'5'
p2841
sg4
g21
sg22
I55
sg10
g11
sg23
I-1
sg24
g21
sg25
(I0
I0
I0
I0
tp2842
sg27
S'//130.60.131.134/fiwi_datenbank/SCR_SOURCE/Masterdatenbank neu Export Einzelbilder/FIWI/SCR/8_1_1/055/5/01-37-53.138.png'
p2843
sg29
g21
sg30
g21
sg31
I00
sg32
I-1
sba(i__main__
Shot
p2844
(dp2845
g19
S'6'
p2846
sg4
g21
sg22
I55
sg10
g11
sg23
I-1
sg24
g21
sg25
(I0
I0
I0
I0
tp2847
sg27
S'//130.60.131.134/fiwi_datenbank/SCR_SOURCE/Masterdatenbank neu Export Einzelbilder/FIWI/SCR/8_1_1/055/6/01-37-54.938.png'
p2848
sg29
g21
sg30
g21
sg31
I00
sg32
I-1
sba(i__main__
Shot
p2849
(dp2850
g19
S'7'
p2851
sg4
g21
sg22
I55
sg10
g11
sg23
I-1
sg24
g21
sg25
(I0
I0
I0
I0
tp2852
sg27
S'//130.60.131.134/fiwi_datenbank/SCR_SOURCE/Masterdatenbank neu Export Einzelbilder/FIWI/SCR/8_1_1/055/7/01-37-56.438.png'
p2853
sg29
g21
sg30
g21
sg31
I00
sg32
I-1
sba(i__main__
Shot
p2854
(dp2855
g19
S'1'
p2856
sg4
g21
sg22
I56
sg10
g11
sg23
I-1
sg24
g21
sg25
(I0
I0
I0
I0
tp2857
sg27
S'//130.60.131.134/fiwi_datenbank/SCR_SOURCE/Masterdatenbank neu Export Einzelbilder/FIWI/SCR/8_1_1/056/1/01-38-03.338.png'
p2858
sg29
g21
sg30
g21
sg31
I00
sg32
I-1
sba(i__main__
Shot
p2859
(dp2860
g19
S'2'
p2861
sg4
g21
sg22
I56
sg10
g11
sg23
I-1
sg24
g21
sg25
(I0
I0
I0
I0
tp2862
sg27
S'//130.60.131.134/fiwi_datenbank/SCR_SOURCE/Masterdatenbank neu Export Einzelbilder/FIWI/SCR/8_1_1/056/2/01-38-06.338.png'
p2863
sg29
g21
sg30
g21
sg31
I00
sg32
I-1
sba(i__main__
Shot
p2864
(dp2865
g19
S'3'
p2866
sg4
g21
sg22
I56
sg10
g11
sg23
I-1
sg24
g21
sg25
(I0
I0
I0
I0
tp2867
sg27
S'//130.60.131.134/fiwi_datenbank/SCR_SOURCE/Masterdatenbank neu Export Einzelbilder/FIWI/SCR/8_1_1/056/3/01-38-09.538.png'
p2868
sg29
g21
sg30
g21
sg31
I00
sg32
I-1
sba(i__main__
Shot
p2869
(dp2870
g19
S'4'
p2871
sg4
g21
sg22
I56
sg10
g11
sg23
I-1
sg24
g21
sg25
(I0
I0
I0
I0
tp2872
sg27
S'//130.60.131.134/fiwi_datenbank/SCR_SOURCE/Masterdatenbank neu Export Einzelbilder/FIWI/SCR/8_1_1/056/4/01-38-17.238.png'
p2873
sg29
g21
sg30
g21
sg31
I00
sg32
I-1
sba(i__main__
Shot
p2874
(dp2875
g19
S'5'
p2876
sg4
g21
sg22
I56
sg10
g11
sg23
I-1
sg24
g21
sg25
(I0
I0
I0
I0
tp2877
sg27
S'//130.60.131.134/fiwi_datenbank/SCR_SOURCE/Masterdatenbank neu Export Einzelbilder/FIWI/SCR/8_1_1/056/5/01-38-25.338.png'
p2878
sg29
g21
sg30
g21
sg31
I00
sg32
I-1
sba(i__main__
Shot
p2879
(dp2880
g19
S'6'
p2881
sg4
g21
sg22
I56
sg10
g11
sg23
I-1
sg24
g21
sg25
(I0
I0
I0
I0
tp2882
sg27
S'//130.60.131.134/fiwi_datenbank/SCR_SOURCE/Masterdatenbank neu Export Einzelbilder/FIWI/SCR/8_1_1/056/6/01-38-31.838.png'
p2883
sg29
g21
sg30
g21
sg31
I00
sg32
I-1
sba(i__main__
Shot
p2884
(dp2885
g19
S'7'
p2886
sg4
g21
sg22
I56
sg10
g11
sg23
I-1
sg24
g21
sg25
(I0
I0
I0
I0
tp2887
sg27
S'//130.60.131.134/fiwi_datenbank/SCR_SOURCE/Masterdatenbank neu Export Einzelbilder/FIWI/SCR/8_1_1/056/7/01-38-38.038.png'
p2888
sg29
g21
sg30
g21
sg31
I00
sg32
I-1
sba(i__main__
Shot
p2889
(dp2890
g19
S'1'
p2891
sg4
g21
sg22
I57
sg10
g11
sg23
I-1
sg24
g21
sg25
(I0
I0
I0
I0
tp2892
sg27
S'//130.60.131.134/fiwi_datenbank/SCR_SOURCE/Masterdatenbank neu Export Einzelbilder/FIWI/SCR/8_1_1/057/1/01-39-04.000.png'
p2893
sg29
g21
sg30
g21
sg31
I00
sg32
I-1
sba(i__main__
Shot
p2894
(dp2895
g19
S'2'
p2896
sg4
g21
sg22
I57
sg10
g11
sg23
I-1
sg24
g21
sg25
(I0
I0
I0
I0
tp2897
sg27
S'//130.60.131.134/fiwi_datenbank/SCR_SOURCE/Masterdatenbank neu Export Einzelbilder/FIWI/SCR/8_1_1/057/2/01-39-15.500.png'
p2898
sg29
g21
sg30
g21
sg31
I00
sg32
I-1
sba(i__main__
Shot
p2899
(dp2900
g19
S'3'
p2901
sg4
g21
sg22
I57
sg10
g11
sg23
I-1
sg24
g21
sg25
(I0
I0
I0
I0
tp2902
sg27
S'//130.60.131.134/fiwi_datenbank/SCR_SOURCE/Masterdatenbank neu Export Einzelbilder/FIWI/SCR/8_1_1/057/3/01-39-42.800.png'
p2903
sg29
g21
sg30
g21
sg31
I00
sg32
I-1
sba(i__main__
Shot
p2904
(dp2905
g19
S'4'
p2906
sg4
g21
sg22
I57
sg10
g11
sg23
I-1
sg24
g21
sg25
(I0
I0
I0
I0
tp2907
sg27
S'//130.60.131.134/fiwi_datenbank/SCR_SOURCE/Masterdatenbank neu Export Einzelbilder/FIWI/SCR/8_1_1/057/4/01-39-46.200.png'
p2908
sg29
g21
sg30
g21
sg31
I00
sg32
I-1
sba(i__main__
Shot
p2909
(dp2910
g19
S'5'
p2911
sg4
g21
sg22
I57
sg10
g11
sg23
I-1
sg24
g21
sg25
(I0
I0
I0
I0
tp2912
sg27
S'//130.60.131.134/fiwi_datenbank/SCR_SOURCE/Masterdatenbank neu Export Einzelbilder/FIWI/SCR/8_1_1/057/5/01-40-35.500.png'
p2913
sg29
g21
sg30
g21
sg31
I00
sg32
I-1
sba(i__main__
Shot
p2914
(dp2915
g19
S'6'
p2916
sg4
g21
sg22
I57
sg10
g11
sg23
I-1
sg24
g21
sg25
(I0
I0
I0
I0
tp2917
sg27
S'//130.60.131.134/fiwi_datenbank/SCR_SOURCE/Masterdatenbank neu Export Einzelbilder/FIWI/SCR/8_1_1/057/6/01-40-58.600.png'
p2918
sg29
g21
sg30
g21
sg31
I00
sg32
I-1
sba(i__main__
Shot
p2919
(dp2920
g19
S'7'
p2921
sg4
g21
sg22
I57
sg10
g11
sg23
I-1
sg24
g21
sg25
(I0
I0
I0
I0
tp2922
sg27
S'//130.60.131.134/fiwi_datenbank/SCR_SOURCE/Masterdatenbank neu Export Einzelbilder/FIWI/SCR/8_1_1/057/7/01-41-09.200.png'
p2923
sg29
g21
sg30
g21
sg31
I00
sg32
I-1
sba(i__main__
Shot
p2924
(dp2925
g19
S'1'
p2926
sg4
g21
sg22
I58
sg10
g11
sg23
I-1
sg24
g21
sg25
(I0
I0
I0
I0
tp2927
sg27
S'//130.60.131.134/fiwi_datenbank/SCR_SOURCE/Masterdatenbank neu Export Einzelbilder/FIWI/SCR/8_1_1/058/1/01-41-14.600.png'
p2928
sg29
g21
sg30
g21
sg31
I00
sg32
I-1
sba(i__main__
Shot
p2929
(dp2930
g19
S'2'
p2931
sg4
g21
sg22
I58
sg10
g11
sg23
I-1
sg24
g21
sg25
(I0
I0
I0
I0
tp2932
sg27
S'//130.60.131.134/fiwi_datenbank/SCR_SOURCE/Masterdatenbank neu Export Einzelbilder/FIWI/SCR/8_1_1/058/2/01-41-21.000.png'
p2933
sg29
g21
sg30
g21
sg31
I00
sg32
I-1
sba(i__main__
Shot
p2934
(dp2935
g19
S'3'
p2936
sg4
g21
sg22
I58
sg10
g11
sg23
I-1
sg24
g21
sg25
(I0
I0
I0
I0
tp2937
sg27
S'//130.60.131.134/fiwi_datenbank/SCR/8_1_1/58_3_8_1_1.jpg'
p2938
sg29
g21
sg30
g21
sg31
I00
sg32
I-1
sba(i__main__
Shot
p2939
(dp2940
g19
S'4'
p2941
sg4
g21
sg22
I58
sg10
g11
sg23
I-1
sg24
g21
sg25
(I0
I0
I0
I0
tp2942
sg27
S'//130.60.131.134/fiwi_datenbank/SCR_SOURCE/Masterdatenbank neu Export Einzelbilder/FIWI/SCR/8_1_1/058/4/01-41-32.900.png'
p2943
sg29
g21
sg30
g21
sg31
I00
sg32
I-1
sba(i__main__
Shot
p2944
(dp2945
g19
S'5'
p2946
sg4
g21
sg22
I58
sg10
g11
sg23
I-1
sg24
g21
sg25
(I0
I0
I0
I0
tp2947
sg27
S'//130.60.131.134/fiwi_datenbank/SCR_SOURCE/Masterdatenbank neu Export Einzelbilder/FIWI/SCR/8_1_1/058/5/01-41-49.300.png'
p2948
sg29
g21
sg30
g21
sg31
I00
sg32
I-1
sba(i__main__
Shot
p2949
(dp2950
g19
S'6'
p2951
sg4
g21
sg22
I58
sg10
g11
sg23
I-1
sg24
g21
sg25
(I0
I0
I0
I0
tp2952
sg27
S'//130.60.131.134/fiwi_datenbank/SCR_SOURCE/Masterdatenbank neu Export Einzelbilder/FIWI/SCR/8_1_1/058/6/01-41-53.400.png'
p2953
sg29
g21
sg30
g21
sg31
I00
sg32
I-1
sba(i__main__
Shot
p2954
(dp2955
g19
S'7'
p2956
sg4
g21
sg22
I58
sg10
g11
sg23
I-1
sg24
g21
sg25
(I0
I0
I0
I0
tp2957
sg27
S'//130.60.131.134/fiwi_datenbank/SCR_SOURCE/Masterdatenbank neu Export Einzelbilder/FIWI/SCR/8_1_1/058/7/01-41-59.400.png'
p2958
sg29
g21
sg30
g21
sg31
I00
sg32
I-1
sba(i__main__
Shot
p2959
(dp2960
g19
S'8'
p2961
sg4
g21
sg22
I58
sg10
g11
sg23
I-1
sg24
g21
sg25
(I0
I0
I0
I0
tp2962
sg27
S'//130.60.131.134/fiwi_datenbank/SCR_SOURCE/Masterdatenbank neu Export Einzelbilder/FIWI/SCR/8_1_1/058/8/01-42-03.300.png'
p2963
sg29
g21
sg30
g21
sg31
I00
sg32
I-1
sba(i__main__
Shot
p2964
(dp2965
g19
S'9'
p2966
sg4
g21
sg22
I58
sg10
g11
sg23
I-1
sg24
g21
sg25
(I0
I0
I0
I0
tp2967
sg27
S'//130.60.131.134/fiwi_datenbank/SCR_SOURCE/Masterdatenbank neu Export Einzelbilder/FIWI/SCR/8_1_1/058/9/01-42-08.400.png'
p2968
sg29
g21
sg30
g21
sg31
I00
sg32
I-1
sba(i__main__
Shot
p2969
(dp2970
g19
S'1'
p2971
sg4
g21
sg22
I59
sg10
g11
sg23
I-1
sg24
g21
sg25
(I0
I0
I0
I0
tp2972
sg27
S'//130.60.131.134/fiwi_datenbank/SCR_SOURCE/Masterdatenbank neu Export Einzelbilder/FIWI/SCR/8_1_1/059/1/01-42-16.939.png'
p2973
sg29
g21
sg30
g21
sg31
I00
sg32
I-1
sba(i__main__
Shot
p2974
(dp2975
g19
S'2'
p2976
sg4
g21
sg22
I59
sg10
g11
sg23
I-1
sg24
g21
sg25
(I0
I0
I0
I0
tp2977
sg27
S'//130.60.131.134/fiwi_datenbank/SCR_SOURCE/Masterdatenbank neu Export Einzelbilder/FIWI/SCR/8_1_1/059/2/01-42-26.239.png'
p2978
sg29
g21
sg30
g21
sg31
I00
sg32
I-1
sba(i__main__
Shot
p2979
(dp2980
g19
S'3'
p2981
sg4
g21
sg22
I59
sg10
g11
sg23
I-1
sg24
g21
sg25
(I0
I0
I0
I0
tp2982
sg27
S'//130.60.131.134/fiwi_datenbank/SCR_SOURCE/Masterdatenbank neu Export Einzelbilder/FIWI/SCR/8_1_1/059/3/01-42-28.819.png'
p2983
sg29
g21
sg30
g21
sg31
I00
sg32
I-1
sba(i__main__
Shot
p2984
(dp2985
g19
S'4'
p2986
sg4
g21
sg22
I59
sg10
g11
sg23
I-1
sg24
g21
sg25
(I0
I0
I0
I0
tp2987
sg27
S'//130.60.131.134/fiwi_datenbank/SCR_SOURCE/Masterdatenbank neu Export Einzelbilder/FIWI/SCR/8_1_1/059/4/01-42-36.939.png'
p2988
sg29
g21
sg30
g21
sg31
I00
sg32
I-1
sba(i__main__
Shot
p2989
(dp2990
g19
S'5'
p2991
sg4
g21
sg22
I59
sg10
g11
sg23
I-1
sg24
g21
sg25
(I0
I0
I0
I0
tp2992
sg27
S'//130.60.131.134/fiwi_datenbank/SCR_SOURCE/Masterdatenbank neu Export Einzelbilder/FIWI/SCR/8_1_1/059/5/01-43-05.239.png'
p2993
sg29
g21
sg30
g21
sg31
I00
sg32
I-1
sba(i__main__
Shot
p2994
(dp2995
g19
S'6'
p2996
sg4
g21
sg22
I59
sg10
g11
sg23
I-1
sg24
g21
sg25
(I0
I0
I0
I0
tp2997
sg27
S'//130.60.131.134/fiwi_datenbank/SCR_SOURCE/Masterdatenbank neu Export Einzelbilder/FIWI/SCR/8_1_1/059/6/01-43-18.639.png'
p2998
sg29
g21
sg30
g21
sg31
I00
sg32
I-1
sba(i__main__
Shot
p2999
(dp3000
g19
S'7'
p3001
sg4
g21
sg22
I59
sg10
g11
sg23
I-1
sg24
g21
sg25
(I0
I0
I0
I0
tp3002
sg27
S'//130.60.131.134/fiwi_datenbank/SCR_SOURCE/Masterdatenbank neu Export Einzelbilder/FIWI/SCR/8_1_1/059/7/01-43-37.039.png'
p3003
sg29
g21
sg30
g21
sg31
I00
sg32
I-1
sba(i__main__
Shot
p3004
(dp3005
g19
S'8'
p3006
sg4
g21
sg22
I59
sg10
g11
sg23
I-1
sg24
g21
sg25
(I0
I0
I0
I0
tp3007
sg27
S'//130.60.131.134/fiwi_datenbank/SCR_SOURCE/Masterdatenbank neu Export Einzelbilder/FIWI/SCR/8_1_1/059/8/01-43-57.639.png'
p3008
sg29
g21
sg30
g21
sg31
I00
sg32
I-1
sba(i__main__
Shot
p3009
(dp3010
g19
S'1'
p3011
sg4
g21
sg22
I60
sg10
g11
sg23
I-1
sg24
g21
sg25
(I0
I0
I0
I0
tp3012
sg27
S'//130.60.131.134/fiwi_datenbank/SCR_SOURCE/Masterdatenbank neu Export Einzelbilder/FIWI/SCR/8_1_1/060/1/01-45-09.039.png'
p3013
sg29
g21
sg30
g21
sg31
I00
sg32
I-1
sbasS'elan_path'
p3014
S'//130.60.131.134/studi/Filme/mittlere_Filme/8_Gone_With_The_Wind_1940/8_1_1_Gone with the Wind_1940_DVD\\8_1_1_GoneWithTheWind_Part1_1940_DVD_ELAN.eaf'
p3015
sS'needs_segmentation'
p3016
I00
sba.